
NewMCWifiTest.elf:     file format elf32-littlenios2
NewMCWifiTest.elf
architecture: nios2, flags 0x00000112:
EXEC_P, HAS_SYMS, D_PAGED
start address 0x010001bc

Program Header:
    LOAD off    0x00001000 vaddr 0x01000000 paddr 0x01000000 align 2**12
         filesz 0x00000020 memsz 0x00000020 flags r-x
    LOAD off    0x00001020 vaddr 0x01000020 paddr 0x01000020 align 2**12
         filesz 0x00019390 memsz 0x00019390 flags r-x
    LOAD off    0x0001a3b0 vaddr 0x010193b0 paddr 0x0101b058 align 2**12
         filesz 0x00001ca8 memsz 0x00001ca8 flags rw-
    LOAD off    0x0001cd00 vaddr 0x0101cd00 paddr 0x0101cd00 align 2**12
         filesz 0x00000000 memsz 0x00009d9c flags rw-

Sections:
Idx Name          Size      VMA       LMA       File off  Algn
  0 .entry        00000020  01000000  01000000  00001000  2**5
                  CONTENTS, ALLOC, LOAD, READONLY, CODE
  1 .exceptions   0000019c  01000020  01000020  00001020  2**2
                  CONTENTS, ALLOC, LOAD, READONLY, CODE
  2 .text         00018b90  010001bc  010001bc  000011bc  2**2
                  CONTENTS, ALLOC, LOAD, READONLY, CODE
  3 .rodata       00000664  01018d4c  01018d4c  00019d4c  2**2
                  CONTENTS, ALLOC, LOAD, READONLY, DATA
  4 .rwdata       00001ca8  010193b0  0101b058  0001a3b0  2**2
                  CONTENTS, ALLOC, LOAD, DATA, SMALL_DATA
  5 .bss          00009d9c  0101cd00  0101cd00  0001cd00  2**2
                  ALLOC, SMALL_DATA
  6 .comment      00000026  00000000  00000000  0001c058  2**0
                  CONTENTS, READONLY
  7 .debug_aranges 00001118  00000000  00000000  0001c080  2**3
                  CONTENTS, READONLY, DEBUGGING
  8 .debug_pubnames 00002e5f  00000000  00000000  0001d198  2**0
                  CONTENTS, READONLY, DEBUGGING
  9 .debug_info   0003cce4  00000000  00000000  0001fff7  2**0
                  CONTENTS, READONLY, DEBUGGING
 10 .debug_abbrev 0000d0f7  00000000  00000000  0005ccdb  2**0
                  CONTENTS, READONLY, DEBUGGING
 11 .debug_line   00021b49  00000000  00000000  00069dd2  2**0
                  CONTENTS, READONLY, DEBUGGING
 12 .debug_frame  000031c8  00000000  00000000  0008b91c  2**2
                  CONTENTS, READONLY, DEBUGGING
 13 .debug_str    0000404c  00000000  00000000  0008eae4  2**0
                  CONTENTS, READONLY, DEBUGGING
 14 .debug_loc    0000f817  00000000  00000000  00092b30  2**0
                  CONTENTS, READONLY, DEBUGGING
 15 .debug_alt_sim_info 00000030  00000000  00000000  000a2348  2**2
                  CONTENTS, READONLY, DEBUGGING
 16 .debug_ranges 00000c20  00000000  00000000  000a2378  2**3
                  CONTENTS, READONLY, DEBUGGING
 17 .thread_model 00000006  00000000  00000000  000a94d1  2**0
                  CONTENTS, READONLY
 18 .cpu          00000003  00000000  00000000  000a94d7  2**0
                  CONTENTS, READONLY
 19 .qsys         00000001  00000000  00000000  000a94da  2**0
                  CONTENTS, READONLY
 20 .simulation_enabled 00000001  00000000  00000000  000a94db  2**0
                  CONTENTS, READONLY
 21 .sysid_hash   00000004  00000000  00000000  000a94dc  2**0
                  CONTENTS, READONLY
 22 .sysid_base   00000004  00000000  00000000  000a94e0  2**0
                  CONTENTS, READONLY
 23 .sysid_time   00000004  00000000  00000000  000a94e4  2**0
                  CONTENTS, READONLY
 24 .stderr_dev   0000000b  00000000  00000000  000a94e8  2**0
                  CONTENTS, READONLY
 25 .stdin_dev    0000000b  00000000  00000000  000a94f3  2**0
                  CONTENTS, READONLY
 26 .stdout_dev   0000000b  00000000  00000000  000a94fe  2**0
                  CONTENTS, READONLY
 27 .sopc_system_name 00000006  00000000  00000000  000a9509  2**0
                  CONTENTS, READONLY
 28 .quartus_project_dir 0000002c  00000000  00000000  000a950f  2**0
                  CONTENTS, READONLY
 29 .jdi          000046ad  00000000  00000000  000a953b  2**0
                  CONTENTS, READONLY
 30 .sopcinfo     000509c9  00000000  00000000  000adbe8  2**0
                  CONTENTS, READONLY
SYMBOL TABLE:
01000000 l    d  .entry	00000000 .entry
01000020 l    d  .exceptions	00000000 .exceptions
010001bc l    d  .text	00000000 .text
01018d4c l    d  .rodata	00000000 .rodata
010193b0 l    d  .rwdata	00000000 .rwdata
0101cd00 l    d  .bss	00000000 .bss
00000000 l    d  .comment	00000000 .comment
00000000 l    d  .debug_aranges	00000000 .debug_aranges
00000000 l    d  .debug_pubnames	00000000 .debug_pubnames
00000000 l    d  .debug_info	00000000 .debug_info
00000000 l    d  .debug_abbrev	00000000 .debug_abbrev
00000000 l    d  .debug_line	00000000 .debug_line
00000000 l    d  .debug_frame	00000000 .debug_frame
00000000 l    d  .debug_str	00000000 .debug_str
00000000 l    d  .debug_loc	00000000 .debug_loc
00000000 l    d  .debug_alt_sim_info	00000000 .debug_alt_sim_info
00000000 l    d  .debug_ranges	00000000 .debug_ranges
01000204 l       .text	00000000 alt_after_alt_main
00000000 l    df *ABS*	00000000 alt_irq_handler.c
00000000 l    df *ABS*	00000000 SerialHandler.cpp
00000000 l    df *ABS*	00000000 main.cpp
01000470 l     F .text	00000058 _Z20isr_on_ir_pushbuttonPv
00000000 l    df *ABS*	00000000 class_type_info.cc
00000000 l    df *ABS*	00000000 eh_personality.cc
01001038 l     F .text	00000030 _Z12read_uleb128PKhPj
01001068 l     F .text	00000054 _Z12read_sleb128PKhPi
010010bc l     F .text	0000009c _Z16get_adjusted_ptrPKSt9type_infoS1_PPv
01001158 l     F .text	000001d4 _Z28read_encoded_value_with_basehjPKhPj
0100132c l     F .text	00000090 _Z21base_of_encoded_valuehP15_Unwind_Context
010013bc l     F .text	00000100 _Z17parse_lsda_headerP15_Unwind_ContextPKhP16lsda_header_info
010014bc l     F .text	00000084 _Z15get_ttype_entryP16lsda_header_infoj
01001540 l     F .text	00000084 _Z20check_exception_specP16lsda_header_infoPKSt9type_infoPvi
00000000 l    df *ABS*	00000000 eh_terminate.cc
00000000 l    df *ABS*	00000000 eh_term_handler.cc
00000000 l    df *ABS*	00000000 eh_catch.cc
00000000 l    df *ABS*	00000000 del_op.cc
00000000 l    df *ABS*	00000000 eh_throw.cc
01002008 l     F .text	00000060 _Z23__gxx_exception_cleanup19_Unwind_Reason_CodeP17_Unwind_Exception
00000000 l    df *ABS*	00000000 si_class_type_info.cc
00000000 l    df *ABS*	00000000 tinfo.cc
00000000 l    df *ABS*	00000000 eh_alloc.cc
01022dc0 l     O .bss	00000800 emergency_buffer
0101cd04 l     O .bss	00000004 emergency_used
00000000 l    df *ABS*	00000000 new_op.cc
00000000 l    df *ABS*	00000000 eh_exception.cc
00000000 l    df *ABS*	00000000 eh_call.cc
00000000 l    df *ABS*	00000000 new_handler.cc
00000000 l    df *ABS*	00000000 eh_globals.cc
0101cd0c l     O .bss	00000008 eh_globals
00000000 l    df *ABS*	00000000 eh_unex_handler.cc
00000000 l    df *ABS*	00000000 unwind-sjlj.c
0101cd14 l     O .bss	00000004 fc_static
01002704 l     F .text	00000100 _Unwind_ForcedUnwind_Phase2
0100281c l     F .text	000000cc _Unwind_RaiseException_Phase2
010028e8 l     F .text	00000028 uw_install_context
00000000 l    df *ABS*	00000000 abort.c
00000000 l    df *ABS*	00000000 malloc.c
00000000 l    df *ABS*	00000000 mallocr.c
00000000 l    df *ABS*	00000000 memset.c
00000000 l    df *ABS*	00000000 printf.c
00000000 l    df *ABS*	00000000 puts.c
00000000 l    df *ABS*	00000000 sbrkr.c
00000000 l    df *ABS*	00000000 signal.c
00000000 l    df *ABS*	00000000 signalr.c
00000000 l    df *ABS*	00000000 strlen.c
00000000 l    df *ABS*	00000000 vfprintf.c
01003904 l     F .text	00000058 __sprint_r
01018f9a l     O .rodata	00000010 blanks.3452
01018f8a l     O .rodata	00000010 zeroes.3453
00000000 l    df *ABS*	00000000 wsetup.c
00000000 l    df *ABS*	00000000 dtoa.c
01005968 l     F .text	00000218 quorem
00000000 l    df *ABS*	00000000 fflush.c
00000000 l    df *ABS*	00000000 findfp.c
01007364 l     F .text	00000058 std
01007470 l     F .text	00000008 __fp_lock
01007478 l     F .text	00000008 __fp_unlock
00000000 l    df *ABS*	00000000 mallocr.c
00000000 l    df *ABS*	00000000 fvwrite.c
00000000 l    df *ABS*	00000000 fwalk.c
00000000 l    df *ABS*	00000000 impure.c
010197b8 l     O .rwdata	00000400 impure_data
00000000 l    df *ABS*	00000000 int_errno.c
00000000 l    df *ABS*	00000000 locale.c
0101afb0 l     O .rwdata	00000004 charset
01018fd0 l     O .rodata	00000030 lconv
00000000 l    df *ABS*	00000000 makebuf.c
00000000 l    df *ABS*	00000000 memchr.c
00000000 l    df *ABS*	00000000 memcpy.c
00000000 l    df *ABS*	00000000 memmove.c
00000000 l    df *ABS*	00000000 mprec.c
01019118 l     O .rodata	0000000c p05.2458
00000000 l    df *ABS*	00000000 mallocr.c
00000000 l    df *ABS*	00000000 s_isinfd.c
00000000 l    df *ABS*	00000000 s_isnand.c
00000000 l    df *ABS*	00000000 stdio.c
00000000 l    df *ABS*	00000000 strcmp.c
00000000 l    df *ABS*	00000000 writer.c
00000000 l    df *ABS*	00000000 mallocr.c
00000000 l    df *ABS*	00000000 closer.c
00000000 l    df *ABS*	00000000 fclose.c
00000000 l    df *ABS*	00000000 fstatr.c
00000000 l    df *ABS*	00000000 isattyr.c
00000000 l    df *ABS*	00000000 lseekr.c
00000000 l    df *ABS*	00000000 readr.c
00000000 l    df *ABS*	00000000 libgcc2.c
00000000 l    df *ABS*	00000000 libgcc2.c
00000000 l    df *ABS*	00000000 dp-bit.c
0100adbc l     F .text	00000410 _fpadd_parts
00000000 l    df *ABS*	00000000 dp-bit.c
00000000 l    df *ABS*	00000000 dp-bit.c
00000000 l    df *ABS*	00000000 dp-bit.c
00000000 l    df *ABS*	00000000 dp-bit.c
00000000 l    df *ABS*	00000000 dp-bit.c
00000000 l    df *ABS*	00000000 dp-bit.c
00000000 l    df *ABS*	00000000 dp-bit.c
00000000 l    df *ABS*	00000000 dp-bit.c
00000000 l    df *ABS*	00000000 dp-bit.c
00000000 l    df *ABS*	00000000 dp-bit.c
00000000 l    df *ABS*	00000000 dp-bit.c
00000000 l    df *ABS*	00000000 lib2-divmod.c
0100bee8 l     F .text	0000007c udivmodsi4
00000000 l    df *ABS*	00000000 libgcc2.c
00000000 l    df *ABS*	00000000 libgcc2.c
00000000 l    df *ABS*	00000000 libgcc2.c
00000000 l    df *ABS*	00000000 dp-bit.c
00000000 l    df *ABS*	00000000 dp-bit.c
00000000 l    df *ABS*	00000000 dp-bit.c
00000000 l    df *ABS*	00000000 alt_close.c
0100c75c l     F .text	00000060 alt_get_errno
00000000 l    df *ABS*	00000000 alt_dev.c
0100c7bc l     F .text	0000002c alt_dev_null_write
00000000 l    df *ABS*	00000000 alt_errno.c
00000000 l    df *ABS*	00000000 alt_exit.c
0100c7e8 l     F .text	00000040 alt_sim_halt
00000000 l    df *ABS*	00000000 alt_fstat.c
0100c928 l     F .text	00000060 alt_get_errno
00000000 l    df *ABS*	00000000 alt_getpid.c
00000000 l    df *ABS*	00000000 alt_iic.c
00000000 l    df *ABS*	00000000 alt_iic_isr_register.c
00000000 l    df *ABS*	00000000 alt_irq_vars.c
00000000 l    df *ABS*	00000000 alt_isatty.c
0100cd34 l     F .text	00000060 alt_get_errno
00000000 l    df *ABS*	00000000 alt_kill.c
0100ced4 l     F .text	00000060 alt_get_errno
00000000 l    df *ABS*	00000000 alt_load.c
0100cfb4 l     F .text	0000006c alt_load_section
00000000 l    df *ABS*	00000000 alt_lseek.c
0100d110 l     F .text	00000060 alt_get_errno
00000000 l    df *ABS*	00000000 alt_main.c
00000000 l    df *ABS*	00000000 alt_read.c
0100d358 l     F .text	00000060 alt_get_errno
00000000 l    df *ABS*	00000000 alt_release_fd.c
00000000 l    df *ABS*	00000000 alt_sbrk.c
0101afd0 l     O .rwdata	00000004 heap_end
00000000 l    df *ABS*	00000000 alt_write.c
0100d5f4 l     F .text	00000060 alt_get_errno
00000000 l    df *ABS*	00000000 alt_env_lock.c
0101afd4 l     O .rwdata	00000004 lockid
0101cd48 l     O .bss	00000004 locks
00000000 l    df *ABS*	00000000 alt_malloc_lock.c
0101afd8 l     O .rwdata	00000004 lockid
0101cd50 l     O .bss	00000004 locks
00000000 l    df *ABS*	00000000 os_core.c
0100f02c l     F .text	00000044 OS_InitMisc
0100f070 l     F .text	0000006c OS_InitRdyList
0100f1d4 l     F .text	000000e0 OS_InitTCBList
0100ef50 l     F .text	000000dc OS_InitEventList
0100f0dc l     F .text	0000007c OS_InitTaskIdle
0100f158 l     F .text	0000007c OS_InitTaskStat
0100f448 l     F .text	00000070 OS_SchedNew
00000000 l    df *ABS*	00000000 os_dbg.c
00000000 l    df *ABS*	00000000 os_flag.c
01011368 l     F .text	00000110 OS_FlagTaskRdy
010110c0 l     F .text	000001c4 OS_FlagBlock
00000000 l    df *ABS*	00000000 os_mem.c
00000000 l    df *ABS*	00000000 os_q.c
00000000 l    df *ABS*	00000000 os_sem.c
00000000 l    df *ABS*	00000000 os_task.c
00000000 l    df *ABS*	00000000 os_time.c
00000000 l    df *ABS*	00000000 alt_sys_init.c
01019d6c l     O .rwdata	0000106c jtag_uart_0
0101add8 l     O .rwdata	000000d0 uart_mc
0101aea8 l     O .rwdata	000000d0 uart_wifi
01015cd0 l     F .text	00000038 alt_dev_reg
00000000 l    df *ABS*	00000000 altera_avalon_jtag_uart_fd.c
00000000 l    df *ABS*	00000000 altera_avalon_jtag_uart_init.c
01015f88 l     F .text	000002c4 altera_avalon_jtag_uart_irq
0101624c l     F .text	00000114 altera_avalon_jtag_uart_timeout
00000000 l    df *ABS*	00000000 altera_avalon_jtag_uart_ioctl.c
00000000 l    df *ABS*	00000000 altera_avalon_jtag_uart_read.c
00000000 l    df *ABS*	00000000 altera_avalon_jtag_uart_write.c
00000000 l    df *ABS*	00000000 altera_avalon_timer_sc.c
01016a64 l     F .text	00000070 alt_avalon_timer_sc_irq
00000000 l    df *ABS*	00000000 altera_avalon_uart_fd.c
00000000 l    df *ABS*	00000000 altera_avalon_uart_init.c
01016de0 l     F .text	0000009c altera_avalon_uart_irq
01016e7c l     F .text	0000013c altera_avalon_uart_rxirq
01016fb8 l     F .text	000001c0 altera_avalon_uart_txirq
00000000 l    df *ABS*	00000000 altera_avalon_uart_read.c
01017488 l     F .text	00000060 alt_get_errno
00000000 l    df *ABS*	00000000 altera_avalon_uart_write.c
01017730 l     F .text	00000060 alt_get_errno
00000000 l    df *ABS*	00000000 alt_alarm_start.c
00000000 l    df *ABS*	00000000 alt_dcache_flush_all.c
00000000 l    df *ABS*	00000000 alt_dev_llist_insert.c
010179dc l     F .text	00000060 alt_get_errno
00000000 l    df *ABS*	00000000 alt_do_ctors.c
00000000 l    df *ABS*	00000000 alt_do_dtors.c
00000000 l    df *ABS*	00000000 alt_icache_flush_all.c
00000000 l    df *ABS*	00000000 alt_io_redirect.c
01017b34 l     F .text	000000c4 alt_open_fd
00000000 l    df *ABS*	00000000 alt_open.c
01017c70 l     F .text	000000dc alt_file_locked
01017ed4 l     F .text	00000060 alt_get_errno
00000000 l    df *ABS*	00000000 alt_tick.c
00000000 l    df *ABS*	00000000 altera_nios2_qsys_irq.c
00000040 l       *ABS*	00000000 OSCtxSw_SWITCH_PC
00000000 l    df *ABS*	00000000 os_cpu_c.c
00000014 l       *ABS*	00000000 OSTCBNext_OFFSET
00000032 l       *ABS*	00000000 OSTCBPrio_OFFSET
00000000 l       *ABS*	00000000 OSTCBStkPtr_OFFSET
00000000 l    df *ABS*	00000000 alt_find_dev.c
00000000 l    df *ABS*	00000000 alt_find_file.c
00000000 l    df *ABS*	00000000 alt_get_fd.c
00000000 l    df *ABS*	00000000 alt_icache_flush.c
00000000 l    df *ABS*	00000000 atexit.c
00000000 l    df *ABS*	00000000 exit.c
00000000 l    df *ABS*	00000000 memcmp.c
00000000 l    df *ABS*	00000000 __atexit.c
00000000 l    df *ABS*	00000000 __call_atexit.c
01018b10 l     F .text	00000004 register_fini
01002288 g     F .text	00000040 __cxa_free_exception
01002238 g     F .text	00000008 _ZNKSt9type_info15__is_function_pEv
01008948 g     F .text	00000094 _mprec_log10
01001d18 g     F .text	00000018 _ZSt10unexpectedv
0101b026 g     O .rwdata	00000002 OSTaskNameSize
01008a34 g     F .text	00000088 __any_on
0100a0d0 g     F .text	00000070 _isatty_r
010190f0 g     O .rodata	00000028 __mprec_tinytens
0100d170 g     F .text	000000c8 alt_main
0100341c g     F .text	000000a0 _puts_r
010235e8 g     O .bss	00000100 alt_irq
0100a140 g     F .text	00000078 _lseek_r
01011c5c g     F .text	000000d0 OS_MemInit
010026b4 g     F .text	00000014 _Unwind_GetIPInfo
0101b058 g       *ABS*	00000000 __flash_rwdata_start
01015b9c g     F .text	00000064 OSTimeSet
0100b8dc g     F .text	00000088 __eqdf2
01001f20 g     F .text	00000074 __cxa_rethrow
01002654 g     F .text	0000000c _Unwind_SjLj_Unregister
01001c38 g     F .text	00000014 _ZSt14set_unexpectedPFvvE
0100dba8 g     F .text	000006b4 OSEventPendMulti
010026a4 g     F .text	00000010 _Unwind_GetIP
01026a9c g       *ABS*	00000000 __alt_heap_start
010184dc g     F .text	00000020 OSTaskCreateHook
0100381c g     F .text	00000074 _kill_r
01002624 g     F .text	00000010 _ZNSt9bad_allocD2Ev
0101edb0 g     O .bss	00002000 wifi_task_stk
010033a4 g     F .text	00000044 printf
0101affe g     O .rwdata	00000002 OSMboxEn
0100e2b0 g     F .text	0000007c OSIntEnter
01002134 g     F .text	00000034 _ZNK10__cxxabiv120__si_class_type_info20__do_find_public_srcElPKvPKNS_17__class_type_infoES2_
0100375c g     F .text	000000a0 _signal_r
01009b9c g     F .text	00000068 __sseek
010073cc g     F .text	000000a4 __sinit
010004c8 g     F .text	00000038 _Z10queue_initv
0101b00e g     O .rwdata	00000002 OSQEn
01002124 g     F .text	00000010 _ZN10__cxxabiv120__si_class_type_infoD2Ev
010080a4 g     F .text	00000084 _setlocale_r
01018e3c  w    O .rodata	00000025 _ZTSN10__cxxabiv120__si_class_type_infoE
010074cc g     F .text	00000068 __sfmoreglue
01000238 g     F .text	00000030 _ZN13SerialHandlerC1Ev
0100d864 g     F .text	000000d0 __malloc_unlock
01018538 g     F .text	0000001c OSTaskStatHook
0101cd58 g     O .bss	00000001 OSLockNesting
01001d38 g     F .text	00000020 _ZSt18uncaught_exceptionv
0101b04c g     O .rwdata	00000002 OSDataSize
0101cd59 g     O .bss	00000001 OSRunning
0100845c g     F .text	000000e0 memmove
01018570 g     F .text	0000001c OSInitHookBegin
0101b044 g     O .rwdata	00000002 OSTmrSize
0100252c g     F .text	00000010 _ZNSt9exceptionD2Ev
010074bc g     F .text	00000010 _cleanup
01000d38 g     F .text	00000044 _Z9wifi_readv
01008abc g     F .text	000000bc _Balloc
01000b9c g     F .text	00000028 _Z7mc_taskPv
0101cd5c g     O .bss	00000004 OSIdleCtr
0100b9ec g     F .text	00000088 __gtdf2
01018ea0  w    O .rodata	00000014 _ZTVSt13bad_exception
010181a8 g       .text	00000000 OSStartTsk
00000000  w      *UND*	00000000 __errno
0100f77c g     F .text	000002e0 OS_TCBInit
01000000 g     F .entry	0000001c __reset
010026e4 g     F .text	00000008 _Unwind_GetRegionStart
0101b04a g     O .rwdata	00000002 OSTmrWheelTblSize
01000020 g       *ABS*	00000000 __flash_exceptions_start
0101afea g     O .rwdata	00000002 OSEventSize
0101cd60 g     O .bss	00000001 OSPrioHighRdy
0100a05c g     F .text	00000074 _fstat_r
010184fc g     F .text	00000020 OSTaskDelHook
010023fc g     F .text	00000100 _Znwm
0101cd24 g     O .bss	00000004 errno
01018188 g       .text	00000000 OSStartHighRdy
01014370 g     F .text	00000200 OSTaskCreateExt
01010bdc g     F .text	00000068 OSFlagPendGetFlagsRdy
0101b02a g     O .rwdata	00000002 OSTaskStatStkSize
01002ab4 g     F .text	00000080 _Unwind_Backtrace
0100fbe8 g     F .text	00000334 OSFlagAccept
01012394 g     F .text	000000c8 OSQFlush
01011d2c g     F .text	00000154 OSQAccept
0101cd40 g     O .bss	00000004 alt_argv
01018d5c  w    O .rodata	00000010 _ZTS13SerialHandler
01022f78 g       *ABS*	00000000 _gp
0101419c g     F .text	000001d4 OSTaskCreate
01013c28 g     F .text	00000574 OSTaskChangePrio
0101cd54 g     O .bss	00000004 alt_heapsem
0100c988 g     F .text	00000020 getpid
0100fa5c g     F .text	0000018c OSDebugInit
010015c4 g     F .text	00000180 __cxa_call_unexpected
01014570 g     F .text	0000040c OSTaskDel
01001d30 g     F .text	00000008 __cxa_get_exception_ptr
01019bec g     O .rwdata	00000180 alt_fd_list
010236e8 g     O .bss	00000370 OSFlagTbl
01002a64 g     F .text	00000050 _Unwind_SjLj_ForcedUnwind
0100ed2c g     F .text	000000b8 OS_EventTaskRemove
01002678 g     F .text	00000014 _Unwind_GetCFA
01001c24 g     F .text	00000014 _ZSt13set_terminatePFvvE
010185e4 g     F .text	00000094 alt_find_dev
010083bc g     F .text	000000a0 memcpy
0101b014 g     O .rwdata	00000002 OSRdyTblSize
010074b0 g     F .text	0000000c _cleanup_r
0100bb84 g     F .text	000000f8 __floatsidf
01017bf8 g     F .text	00000078 alt_io_redirect
0100bafc g     F .text	00000088 __ltdf2
01018d4c g       *ABS*	00000000 __DTOR_END__
01000f3c g     F .text	00000010 _ZN10__cxxabiv117__class_type_infoD1Ev
010034bc g     F .text	00000014 puts
0100d934 g     F .text	00000130 OSEventNameGet
0101aff8 g     O .rwdata	00000002 OSFlagMax
01008898 g     F .text	000000b0 __ratio
0100e32c g     F .text	00000100 OSIntExit
0101b032 g     O .rwdata	00000002 OSTCBSize
0101cd61 g     O .bss	00000001 OSPrioCur
010164c8 g     F .text	000002c0 altera_avalon_jtag_uart_read
01002bb8 g     F .text	00000014 malloc
010033e8 g     F .text	00000034 _printf_r
0100c024 g     F .text	00000008 __udivsi3
0100cc74 g     F .text	000000c0 isatty
01003540 g     F .text	000000cc _raise_r
01000d7c g     F .text	00000038 _Z9wifi_waitv
0101b018 g     O .rwdata	00000002 OSStkWidth
01019000 g     O .rodata	000000c8 __mprec_tens
0101b00c g     O .rwdata	00000002 OSPtrSize
0100062c g     F .text	00000144 _Z8mc_rightv
01008080 g     F .text	00000008 __locale_charset
0101afec g     O .rwdata	00000002 OSEventTblSize
010180fc g       .text	00000000 OSCtxSw
0101888c g     F .text	00000090 alt_icache_flush
0101cd18 g     O .bss	00000004 __malloc_top_pad
0101cd64 g     O .bss	00000004 OSTCBList
01003818 g     F .text	00000004 _getpid_r
0101cd34 g     O .bss	00000004 alt_fd_list_lock
0101afac g     O .rwdata	00000004 __mb_cur_max
01008088 g     F .text	0000000c _localeconv_r
010091b4 g     F .text	0000003c __i2b
01007a64 g     F .text	0000049c __sfvwrite_r
01000f5c g     F .text	00000060 _ZNK10__cxxabiv117__class_type_info10__do_catchEPKSt9type_infoPPvj
01003694 g     F .text	000000b4 __sigtramp_r
01023a58 g     O .bss	00000c30 OSMemTbl
0101cd68 g     O .bss	00000001 OSTickStepState
010034d0 g     F .text	00000070 _sbrk_r
01018e70  w    O .rodata	00000020 _ZTVSt9type_info
0101b010 g     O .rwdata	00000002 OSQMax
01024688 g     O .bss	00000800 OSTaskStatStk
01011844 g     F .text	0000010c OSMemNameGet
0101cd00 g     O .bss	00000004 ir_queue
0101aff0 g     O .rwdata	00000002 OSFlagEn
0100a1b8 g     F .text	00000078 _read_r
010024fc g     F .text	00000010 _ZNKSt9exception4whatEv
0101b036 g     O .rwdata	00000002 OSTimeTickHookEn
01011478 g     F .text	000000ac OS_FlagUnlink
010128f8 g     F .text	00000180 OSQPost
01019bb8 g     O .rwdata	0000000c __lc_ctype
0101afc4 g     O .rwdata	00000004 alt_max_fd
0100f308 g     F .text	0000006c OS_MemCopy
0100f374 g     F .text	000000d4 OS_Sched
0100c460 g     F .text	00000138 __unpack_d
01009f38 g     F .text	00000110 _fclose_r
01011740 g     F .text	00000104 OSMemGet
01014ca4 g     F .text	000001c4 OSTaskNameSet
01018f1c  w    O .rodata	0000000c _ZTISt9bad_alloc
01007330 g     F .text	00000034 fflush
0101cd1c g     O .bss	00000004 __malloc_max_sbrked_mem
0101cd6c g     O .bss	00000004 OSCtxSwCtr
01018554 g     F .text	0000001c OSTimeTickHook
0101affa g     O .rwdata	00000002 OSFlagNameSize
0100ede4 g     F .text	00000104 OS_EventTaskRemoveMulti
0100b24c g     F .text	00000074 __adddf3
01018e10  w    O .rodata	0000002c _ZTVN10__cxxabiv120__si_class_type_infoE
0100ebd8 g     F .text	00000154 OS_EventTaskWaitMulti
01018d4c  w    O .rodata	00000010 _ZTV13SerialHandler
01008778 g     F .text	00000120 __b2d
0101b012 g     O .rwdata	00000002 OSQSize
0100a80c g     F .text	000005b0 __umoddi3
0100d020 g     F .text	000000f0 lseek
010134d4 g     F .text	0000027c OSSemPend
01000fbc g     F .text	00000030 _ZNK10__cxxabiv117__class_type_info11__do_upcastEPKS0_PKvRNS0_15__upcast_resultE
01001f14 g     F .text	0000000c _ZdlPv
0101afa8 g     O .rwdata	00000004 _global_impure_ptr
01009530 g     F .text	000005f4 _realloc_r
0101affc g     O .rwdata	00000002 OSLowestPrio
01026a9c g       *ABS*	00000000 __bss_end
0100cb7c g     F .text	000000f8 alt_iic_isr_register
010185c4 g     F .text	00000020 OSTCBInitHook
0101b042 g     O .rwdata	00000002 OSTmrCfgTicksPerSec
01017fcc g     F .text	00000110 alt_tick
01002644 g     F .text	00000010 _Unwind_SjLj_Register
0100a230 g     F .text	000005dc __udivdi3
0101afe4 g     O .rwdata	00000002 OSEventEn
010190c8 g     O .rodata	00000028 __mprec_bigtens
0101cdb0 g     O .bss	00002000 ir_task_stk
01009410 g     F .text	00000120 __s2b
0101b03e g     O .rwdata	00000002 OSTmrCfgNameSize
01002b8c g     F .text	00000018 abort
0100bd54 g     F .text	00000194 __floatunsidf
01008698 g     F .text	00000060 __mcmp
01016c5c g     F .text	00000184 altera_avalon_uart_init
01001d58 g     F .text	000000a4 __cxa_end_catch
01007498 g     F .text	00000018 __fp_lock_all
0100cb34 g     F .text	00000048 alt_ic_irq_enabled
01002580 g     F .text	00000010 _ZNSt13bad_exceptionD2Ev
01011284 g     F .text	000000e4 OS_FlagInit
01017f34 g     F .text	00000098 alt_alarm_stop
0101b020 g     O .rwdata	00000002 OSTaskIdleStkSize
0101cd38 g     O .bss	00000004 alt_irq_active
01013060 g     F .text	000000c0 OSSemAccept
01001cf0 g     F .text	00000018 _ZSt9terminatev
01011a70 g     F .text	000000f0 OSMemPut
01000e10 g     F .text	0000006c _Z7ir_taskPv
01011524 g     F .text	0000021c OSMemCreate
0101cd70 g     O .bss	00000004 OSIdleCtrMax
010000ec g     F .exceptions	000000d0 alt_irq_handler
01019bc4 g     O .rwdata	00000028 alt_dev_null
0101b034 g     O .rwdata	00000002 OSTicksPerSec
010180fc g       .text	00000000 OSIntCtxSw
01018de0  w    O .rodata	00000022 _ZTSN10__cxxabiv117__class_type_infoE
010178e4 g     F .text	00000044 alt_dcache_flush_all
01008564 g     F .text	00000070 __hi0bits
0101af8c  w    O .rwdata	00000008 _ZTISt9exception
0100bc7c g     F .text	000000d8 __fixdfsi
0101cd74 g     O .bss	00000004 OSTCBFreeList
0101b058 g       *ABS*	00000000 __ram_rwdata_end
01000bc4 g     F .text	00000174 _Z7mc_stopv
01013750 g     F .text	0000017c OSSemPendAbort
01000400 g     F .text	00000070 _Z10wifi_writePci
01002268 g     F .text	00000010 _ZNSt9type_infoD1Ev
0101afbc g     O .rwdata	00000008 alt_dev_list
0101cd08 g     O .bss	00000004 __new_handler
0100d4d4 g     F .text	00000120 write
0101b038 g     O .rwdata	00000002 OSVersionNbr
01002258 g     F .text	00000010 _ZNSt9type_infoD0Ev
010193b0 g       *ABS*	00000000 __ram_rodata_end
0100c854 g     F .text	000000d4 fstat
0100cd94 g     F .text	00000140 kill
0101afe0 g     O .rwdata	00000004 OSEndiannessTest
010092f0 g     F .text	00000120 __pow5mult
0101cd28 g     O .bss	00000004 __nlocale_changed
0100c02c g     F .text	00000008 __umodsi3
01002250 g     F .text	00000008 _ZNKSt9type_info11__do_upcastEPKN10__cxxabiv117__class_type_infoEPPv
0101aff2 g     O .rwdata	00000002 OSFlagGrpSize
01026a9c g       *ABS*	00000000 end
01022db0 g     O .bss	00000010 ir_messages
010003b0 g     F .text	00000050 _ZN13SerialHandlerD2Ev
010174e8 g     F .text	00000248 altera_avalon_uart_write
01002804 g     F .text	00000018 _Unwind_DeleteException
01015e50 g     F .text	00000138 altera_avalon_jtag_uart_init
0100f5ec g     F .text	000000c8 OS_TaskStat
01018d48 g       *ABS*	00000000 __CTOR_LIST__
02000000 g       *ABS*	00000000 __alt_stack_pointer
01016ad4 g     F .text	00000090 alt_avalon_timer_sc_init
01016bbc g     F .text	00000058 altera_avalon_uart_write_fd
0100c0cc g     F .text	00000080 __clzsi2
01016c14 g     F .text	00000048 altera_avalon_uart_close_fd
01000e7c g     F .text	0000006c _ZNK10__cxxabiv117__class_type_info11__do_upcastEPKS0_PPv
01016788 g     F .text	000002dc altera_avalon_jtag_uart_write
01000db4 g     F .text	0000005c _Z9wifi_taskPv
010073bc g     F .text	00000004 __sfp_lock_acquire
01018ec8  w    O .rodata	00000012 _ZTSSt13bad_exception
010082d8 g     F .text	000000e4 memchr
0100f2b4 g     F .text	00000054 OS_MemClr
0100395c g     F .text	00001eac ___vfprintf_internal_r
010181cc g     F .text	00000310 OSTaskStkInit
0101af78  w    O .rwdata	00000008 _ZTI13SerialHandler
01007750 g     F .text	00000314 _free_r
0100e934 g     F .text	00000194 OS_EventTaskRdy
01018b14 g     F .text	000001b0 __call_exitprocs
0101cd78 g     O .bss	00000001 OSCPUUsage
0101cd2c g     O .bss	00000004 __mlocale_changed
0101afa0 g     O .rwdata	00000004 __malloc_sbrk_base
010001bc g     F .text	0000004c _start
0101cda8 g     O .bss	00000004 _alt_tick_rate
0101245c g     F .text	00000320 OSQPend
01018e90  w    O .rodata	0000000d _ZTSSt9type_info
01015668 g     F .text	0000014c OSTimeDly
01008e80 g     F .text	0000014c __lshift
01018ef8  w    O .rodata	00000014 _ZTVSt9bad_alloc
0101cdac g     O .bss	00000004 _alt_nticks
010037fc g     F .text	0000001c signal
0100d238 g     F .text	00000120 read
01015c34 g     F .text	0000009c alt_sys_init
010189dc g     F .text	00000134 __register_exitproc
01018f0c  w    O .rodata	0000000d _ZTSSt9bad_alloc
0101cd79 g     O .bss	00000001 OSTaskCtr
010157b4 g     F .text	00000174 OSTimeDlyHMSM
01008fcc g     F .text	000001e8 __multiply
01016360 g     F .text	00000074 altera_avalon_jtag_uart_close
010193b0 g       *ABS*	00000000 __ram_rwdata_start
0100296c g     F .text	000000f8 _Unwind_SjLj_RaiseException
01018d4c g       *ABS*	00000000 __ram_rodata_start
010235c0 g     O .bss	00000028 __malloc_current_mallinfo
01002910 g     F .text	0000005c _Unwind_SjLj_Resume
0101afe6 g     O .rwdata	00000002 OSEventMax
01008b78 g     F .text	0000017c __d2b
010138cc g     F .text	00000128 OSSemPost
01002278 g     F .text	00000010 _ZNSt9type_infoD2Ev
0100e4b8 g     F .text	000000e4 OSSchedUnlock
01002068 g     F .text	00000078 _ZNK10__cxxabiv120__si_class_type_info11__do_upcastEPKNS_17__class_type_infoEPKvRNS1_15__upcast_resultE
01015d08 g     F .text	00000058 altera_avalon_jtag_uart_read_fd
01018798 g     F .text	000000f4 alt_get_fd
0101cd7c g     O .bss	00000004 OSMemFreeList
0100e60c g     F .text	000000ac OSStatInit
01010fec g     F .text	000000d4 OSFlagQuery
0100c598 g     F .text	000000c8 __fpcmp_parts_d
0101b01c g     O .rwdata	00000002 OSTaskCreateExtEn
01009ec8 g     F .text	00000070 _close_r
010008b4 g     F .text	00000174 _Z11mc_backwardv
01018968 g     F .text	00000074 memcmp
0100e918 g     F .text	0000001c OS_Dummy
01015db8 g     F .text	00000048 altera_avalon_jtag_uart_close_fd
01026a9c g       *ABS*	00000000 __alt_stack_base
01015e00 g     F .text	00000050 altera_avalon_jtag_uart_ioctl_fd
010025e0 g     F .text	00000034 _ZNSt9bad_allocD0Ev
01002114 g     F .text	00000010 _ZN10__cxxabiv120__si_class_type_infoD1Ev
0100582c g     F .text	0000013c __swsetup_r
01024e88 g     O .bss	000001e0 OSQTbl
01002b34 g     F .text	00000058 _Unwind_SjLj_Resume_or_Rethrow
0100b684 g     F .text	00000258 __divdf3
01007534 g     F .text	000000f0 __sfp
010089dc g     F .text	00000058 __copybits
01002230 g     F .text	00000008 _ZNKSt9type_info14__is_pointer_pEv
010193b0 g     O .rwdata	00000408 __malloc_av_
010073c8 g     F .text	00000004 __sinit_lock_release
0101cd80 g     O .bss	00000004 OSTCBHighRdy
0100b2c0 g     F .text	000003c4 __muldf3
01009c80 g     F .text	00000060 __sread
01018eb4  w    O .rodata	00000014 _ZTVSt9exception
0101cd84 g     O .bss	00000004 OSQFreeList
01018678 g     F .text	00000120 alt_find_file
01000ee8 g     F .text	00000020 _ZNK10__cxxabiv117__class_type_info20__do_find_public_srcElPKvPKS0_S2_
01017928 g     F .text	000000b4 alt_dev_llist_insert
0100d75c g     F .text	00000108 __malloc_lock
0100d418 g     F .text	000000bc sbrk
01018db4  w    O .rodata	0000002c _ZTVN10__cxxabiv117__class_type_infoE
01001f94 g     F .text	00000074 __cxa_throw
01020db0 g     O .bss	00002000 mc_task_stk
0100da64 g     F .text	00000144 OSEventNameSet
01007134 g     F .text	000001fc _fflush_r
010026c8 g     F .text	00000010 _Unwind_SetIP
01009e14 g     F .text	000000b4 _calloc_r
0101cd88 g     O .bss	00000001 OSRdyGrp
0101cd00 g       *ABS*	00000000 __bss_start
0100330c g     F .text	00000098 memset
01000500 g     F .text	0000012c main
0101cd44 g     O .bss	00000004 alt_envp
0101cd20 g     O .bss	00000004 __malloc_max_total_mem
01015d60 g     F .text	00000058 altera_avalon_jtag_uart_write_fd
01002634 g     F .text	00000008 __cxa_get_globals_fast
01019258 g     O .rodata	00000100 OSUnMapTbl
0101b016 g     O .rwdata	00000002 OSSemEn
01010c44 g     F .text	000003a8 OSFlagPost
01009b94 g     F .text	00000008 __sclose
02000000 g       *ABS*	00000000 __alt_heap_limit
0100a048 g     F .text	00000014 fclose
0100eac8 g     F .text	00000110 OS_EventTaskWait
0100f6b4 g     F .text	000000c8 OS_TaskStatStkChk
0102690c g     O .bss	00000190 _atexit0
0101497c g     F .text	00000170 OSTaskDelReq
01005b80 g     F .text	000015b4 _dtoa_r
01002bcc g     F .text	00000740 _malloc_r
0101afc8 g     O .rwdata	00000004 alt_errno
0100e59c g     F .text	00000070 OSStart
01003684 g     F .text	00000010 _init_signal
0100d700 g     F .text	0000005c __env_unlock
01000770 g     F .text	00000144 _Z7mc_leftv
01018e04  w    O .rodata	0000000c _ZTIN10__cxxabiv117__class_type_infoE
01007fc8 g     F .text	000000b8 _fwalk
01014e68 g     F .text	00000218 OSTaskResume
01011b60 g     F .text	000000fc OSMemQuery
0101b028 g     O .rwdata	00000002 OSTaskStatEn
0101b002 g     O .rwdata	00000002 OSMemMax
01012a78 g     F .text	00000188 OSQPostFront
01002570 g     F .text	00000010 _ZNSt13bad_exceptionD1Ev
0100bf64 g     F .text	00000060 __divsi3
0101cd89 g     O .bss	00000003 OSRdyTbl
0101afdc g     O .rwdata	00000002 OSDebugEn
01019124 g     O .rodata	00000014 __thenan_df
01007624 g     F .text	0000012c _malloc_trim_r
01018d4c g       *ABS*	00000000 __CTOR_END__
0101aff4 g     O .rwdata	00000002 OSFlagNodeSize
0101b03c g     O .rwdata	00000002 OSTmrCfgMax
01009ce0 g     F .text	000000bc strcmp
01011e80 g     F .text	00000214 OSQCreate
01014aec g     F .text	000001b8 OSTaskNameGet
01018d4c g       *ABS*	00000000 __flash_rodata_start
01012c00 g     F .text	00000234 OSQPostOpt
0100e6b8 g     F .text	00000240 OSTimeTick
0101b024 g     O .rwdata	00000002 OSTaskMax
01018d4c g       *ABS*	00000000 __DTOR_LIST__
01013120 g     F .text	00000114 OSSemCreate
0101b048 g     O .rwdata	00000002 OSTmrWheelSize
0100b964 g     F .text	00000088 __nedf2
0101b01e g     O .rwdata	00000002 OSTaskDelEn
010139f4 g     F .text	00000130 OSSemQuery
01012094 g     F .text	00000300 OSQDel
0101277c g     F .text	0000017c OSQPendAbort
01015c00 g     F .text	00000034 alt_irq_init
0100d3b8 g     F .text	00000060 alt_release_fd
010020e0 g     F .text	00000034 _ZN10__cxxabiv120__si_class_type_infoD0Ev
01019138 g     O .rodata	00000100 __clz_tab
0101cd30 g     O .bss	00000004 _PathLocale
010002dc g     F .text	00000034 _ZN13SerialHandler10sendByteMCEc
0101891c g     F .text	00000014 atexit
01009d9c g     F .text	00000078 _write_r
0100e42c g     F .text	0000008c OSSchedLock
01008128 g     F .text	0000001c setlocale
010026fc g     F .text	00000008 _Unwind_GetTextRelBase
01002590 g     F .text	00000044 __cxa_call_terminate
0100ff1c g     F .text	0000013c OSFlagCreate
0101afa4 g     O .rwdata	00000004 _impure_ptr
0101cd3c g     O .bss	00000004 alt_argc
01017aa0 g     F .text	00000064 _do_dtors
0101afee g     O .rwdata	00000002 OSEventMultiEn
01010058 g     F .text	000002a8 OSFlagDel
0101cd8c g     O .bss	00000004 OSEventFreeList
01000020 g       .exceptions	00000000 alt_irq_entry
010086f8 g     F .text	00000080 __ulp
01009b24 g     F .text	00000040 __isinfd
010026ec g     F .text	00000008 _Unwind_FindEnclosingFunction
01010598 g     F .text	00000644 OSFlagPend
0101b03a g     O .rwdata	00000002 OSTmrEn
01007480 g     F .text	00000018 __fp_unlock_all
0101afb4 g     O .rwdata	00000008 alt_fs_list
01000a28 g     F .text	00000174 _Z10mc_forwardv
0100f4b8 g     F .text	00000080 OS_StrCopy
010026d8 g     F .text	0000000c _Unwind_GetLanguageSpecificData
01001dfc g     F .text	00000118 __cxa_begin_catch
0101b004 g     O .rwdata	00000002 OSMemNameSize
01000f4c g     F .text	00000010 _ZN10__cxxabiv117__class_type_infoD2Ev
01001d08 g     F .text	00000010 _ZN10__cxxabiv112__unexpectedEPFvvE
0101858c g     F .text	0000001c OSInitHookEnd
01000020 g       *ABS*	00000000 __ram_exceptions_start
0101b030 g     O .rwdata	00000002 OSTCBPrioTblMax
01008094 g     F .text	00000010 localeconv
0101b02c g     O .rwdata	00000002 OSTaskStatStkChkEn
0100253c g     F .text	00000034 _ZNSt13bad_exceptionD0Ev
0101af80 g     O .rwdata	00000004 _ZN10__cxxabiv119__terminate_handlerE
0100c9a8 g     F .text	00000050 alt_ic_isr_register
0101b000 g     O .rwdata	00000002 OSMemEn
010022c8 g     F .text	00000134 __cxa_allocate_exception
0101b00a g     O .rwdata	00000002 OSMutexEn
01018e64  w    O .rodata	0000000c _ZTIN10__cxxabiv120__si_class_type_infoE
010025d4 g     F .text	0000000c _ZSt15set_new_handlerPFvvE
0101b058 g       *ABS*	00000000 _edata
01016b64 g     F .text	00000058 altera_avalon_uart_read_fd
01026a9c g       *ABS*	00000000 _end
0101af94 g     O .rwdata	00000001 _ZSt7nothrow
0101cd90 g     O .bss	00000001 OSIntNesting
01001744 g     F .text	000004e0 __gxx_personality_sj0
010001bc g       *ABS*	00000000 __ram_exceptions_end
010163d4 g     F .text	000000f4 altera_avalon_jtag_uart_ioctl
01015928 g     F .text	00000210 OSTimeDlyResume
01010444 g     F .text	00000154 OSFlagNameSet
01000fec g     F .text	0000004c _ZNK10__cxxabiv117__class_type_info12__do_dyncastElNS0_10__sub_kindEPKS0_PKvS3_S5_RNS0_16__dyncast_resultE
0100251c g     F .text	00000010 _ZNSt9exceptionD1Ev
01015080 g     F .text	000001fc OSTaskStkChk
0100ca94 g     F .text	000000a0 alt_ic_irq_disable
0101b006 g     O .rwdata	00000002 OSMemSize
01009c04 g     F .text	0000007c __swrite
01000268 g     F .text	00000074 _ZN13SerialHandler12sendDataWifiEPci
0101af9c g     O .rwdata	00000004 __malloc_trim_threshold
010180dc g     F .text	00000020 altera_nios2_qsys_irq_init
0101cd94 g     O .bss	00000004 OSTCBCur
01018930 g     F .text	00000038 exit
0100268c g     F .text	00000018 _Unwind_SetGR
0101b008 g     O .rwdata	00000002 OSMemTblSize
01007f00 g     F .text	000000c8 _fwalk_reent
01008cf4 g     F .text	0000018c __mdiff
01001c4c g     F .text	000000a4 _ZN10__cxxabiv111__terminateEPFvvE
0100bfc4 g     F .text	00000060 __modsi3
01002614 g     F .text	00000010 _ZNSt9bad_allocD1Ev
02000000 g       *ABS*	00000000 __alt_data_end
01000020 g     F .exceptions	00000000 alt_exception
010073c0 g     F .text	00000004 __sfp_lock_release
01002168 g     F .text	000000c8 _ZNK10__cxxabiv120__si_class_type_info12__do_dyncastElNS_17__class_type_info10__sub_kindEPKS1_PKvS4_S6_RNS1_16__dyncast_resultE
0100e25c g     F .text	00000054 OSInit
01018edc  w    O .rodata	0000000c _ZTISt13bad_exception
01000000 g       *ABS*	00000000 __alt_mem_sdram
01000208 g     F .text	00000030 _ZN13SerialHandlerC2Ev
010154a8 g     F .text	00000144 OSTaskQuery
01012fb4 g     F .text	000000ac OS_QInit
0100f538 g     F .text	00000058 OS_StrLen
01011950 g     F .text	00000120 OSMemNameSet
0101b022 g     O .rwdata	00000002 OSTaskProfileEn
0101cd98 g     O .bss	00000004 OSTime
01017178 g     F .text	00000060 altera_avalon_uart_close
01025068 g     O .bss	00000800 OSTaskIdleStk
01009b64 g     F .text	00000030 __isnand
0100c828 g     F .text	0000002c _exit
01017790 g     F .text	00000154 alt_alarm_start
01010300 g     F .text	00000144 OSFlagNameGet
01015b38 g     F .text	00000064 OSTimeGet
0100c034 g     F .text	00000098 __muldi3
01002660 g     F .text	00000018 _Unwind_GetGR
0100263c g     F .text	00000008 __cxa_get_globals
01008144 g     F .text	00000194 __smakebuf_r
0101af98 g     O .rwdata	00000004 _ZN10__cxxabiv120__unexpected_handlerE
01003890 g     F .text	00000074 strlen
01003620 g     F .text	00000064 _init_signal_r
0101af84  w    O .rwdata	00000008 _ZTISt9type_info
0101851c g     F .text	0000001c OSTaskSwHook
01017d4c g     F .text	00000188 open
01025868 g     O .bss	00000b40 OSEventTbl
0100ba74 g     F .text	00000088 __gedf2
01018ee8  w    O .rodata	0000000d _ZTSSt9exception
010263a8 g     O .bss	00000510 OSTCBTbl
01013b24 g     F .text	00000104 OSSemSet
0100250c g     F .text	00000010 _ZNSt9exceptionD0Ev
01017b04 g     F .text	00000030 alt_icache_flush_all
01000360 g     F .text	00000050 _ZN13SerialHandlerD1Ev
010026f4 g     F .text	00000008 _Unwind_GetDataRelBase
0101afcc g     O .rwdata	00000004 alt_priority_mask
01013234 g     F .text	000002a0 OSSemDel
0101cd9c g     O .bss	00000004 OSFlagFreeList
0100c9f8 g     F .text	0000009c alt_ic_irq_enable
0101afe8 g     O .rwdata	00000002 OSEventNameSize
01005808 g     F .text	00000024 __vfprintf_internal
0101cda0 g     O .bss	00000001 OSStatRdy
010268b8 g     O .bss	00000054 OSTCBPrioTbl
01000310 g     F .text	00000050 _ZN13SerialHandlerD0Ev
010171d8 g     F .text	000002b0 altera_avalon_uart_read
0100d654 g     F .text	000000ac __env_lock
0101b02e g     O .rwdata	00000002 OSTaskSwHookEn
0100b1cc g     F .text	00000080 __subdf3
010085d4 g     F .text	000000c4 __lo0bits
0101b050 g     O .rwdata	00000008 alt_alarm_list
0101aff6 g     O .rwdata	00000002 OSFlagWidth
01017a3c g     F .text	00000064 _do_ctors
01003748 g     F .text	00000014 __sigtramp
0100c660 g     F .text	000000fc close
0101cd4c g     O .bss	00000004 alt_envsem
0101cda4 g     O .bss	00000004 OSIdleCtrRun
0100e8f8 g     F .text	00000020 OSVersion
0101b040 g     O .rwdata	00000002 OSTmrCfgWheelSize
0100cf34 g     F .text	00000080 alt_load
010155ec g     F .text	0000007c OS_TaskStkClr
0100c14c g     F .text	00000314 __pack_d
0101b01a g     O .rwdata	00000002 OSTaskCreateEn
01002240 g     F .text	00000010 _ZNKSt9type_info10__do_catchEPKS_PPvj
0100eee8 g     F .text	00000068 OS_EventWaitListInit
0100360c g     F .text	00000014 raise
010185a8 g     F .text	0000001c OSTaskIdleHook
01002ba4 g     F .text	00000014 free
010073c4 g     F .text	00000004 __sinit_lock_acquire
010091f0 g     F .text	00000100 __multadd
01000f08 g     F .text	00000034 _ZN10__cxxabiv117__class_type_infoD0Ev
0101527c g     F .text	0000022c OSTaskSuspend
0100853c g     F .text	00000028 _Bfree
0100f590 g     F .text	0000005c OS_TaskIdle
0101b046 g     O .rwdata	00000002 OSTmrTblSize
01012e34 g     F .text	00000180 OSQQuery



Disassembly of section .entry:

01000000 <__reset>:
#if NIOS2_ICACHE_SIZE > 0 && defined(ALT_ALLOW_CODE_AT_RESET) && !defined(ALT_SIM_OPTIMIZE)
    /* Assume the instruction cache size is always a power of two. */
#if NIOS2_ICACHE_SIZE > 0x8000
    movhi r2, %hi(NIOS2_ICACHE_SIZE)
#else
    movui r2, NIOS2_ICACHE_SIZE
 1000000:	00880014 	movui	r2,8192
#endif

0:
    initi r2
 1000004:	1001483a 	initi	r2
    addi r2, r2, -NIOS2_ICACHE_LINE_SIZE
 1000008:	10bff804 	addi	r2,r2,-32
    bgt r2, zero, 0b
 100000c:	00bffd16 	blt	zero,r2,1000004 <__reset+0x4>
 * Jump to the _start entry point in the .text section if reset code
 * is allowed or if optimizing for RTL simulation.
 */
#if defined(ALT_ALLOW_CODE_AT_RESET) || defined(ALT_SIM_OPTIMIZE)
    /* Jump to the _start entry point in the .text section. */
    movhi r1, %hi(_start)
 1000010:	00404034 	movhi	at,256
    ori r1, r1, %lo(_start)
 1000014:	08406f14 	ori	at,at,444
    jmp r1
 1000018:	0800683a 	jmp	at
 100001c:	00000000 	call	0 <OSTCBStkPtr_OFFSET>

Disassembly of section .exceptions:

01000020 <alt_exception>:
         * Process an exception.  For all exceptions we must preserve all
         * caller saved registers on the stack (See the Nios2 ABI
         * documentation for details).
         */

        addi  sp, sp, -76
 1000020:	deffed04 	addi	sp,sp,-76

#endif

#endif

        stw   ra,  0(sp)
 1000024:	dfc00015 	stw	ra,0(sp)
        /*
         * Leave a gap in the stack frame at 4(sp) for the muldiv handler to
         * store zero into.
         */

        stw   r1,   8(sp)
 1000028:	d8400215 	stw	at,8(sp)
        stw   r2,  12(sp)
 100002c:	d8800315 	stw	r2,12(sp)
        stw   r3,  16(sp)
 1000030:	d8c00415 	stw	r3,16(sp)
        stw   r4,  20(sp)
 1000034:	d9000515 	stw	r4,20(sp)
        stw   r5,  24(sp)
 1000038:	d9400615 	stw	r5,24(sp)
        stw   r6,  28(sp)
 100003c:	d9800715 	stw	r6,28(sp)
        stw   r7,  32(sp)
 1000040:	d9c00815 	stw	r7,32(sp)

        rdctl r5, estatus
 1000044:	000b307a 	rdctl	r5,estatus

        stw   r8,  36(sp)
 1000048:	da000915 	stw	r8,36(sp)
        stw   r9,  40(sp)
 100004c:	da400a15 	stw	r9,40(sp)
        stw   r10, 44(sp)
 1000050:	da800b15 	stw	r10,44(sp)
        stw   r11, 48(sp)
 1000054:	dac00c15 	stw	r11,48(sp)
        stw   r12, 52(sp)
 1000058:	db000d15 	stw	r12,52(sp)
        stw   r13, 56(sp)
 100005c:	db400e15 	stw	r13,56(sp)
        stw   r14, 60(sp)
 1000060:	db800f15 	stw	r14,60(sp)
        stw   r15, 64(sp)
 1000064:	dbc01015 	stw	r15,64(sp)
        /*
         * ea-4 contains the address of the instruction being executed
         * when the exception occured. For interrupt exceptions, we will
         * will be re-issue the isntruction. Store it in 72(sp)
         */
        stw   r5,  68(sp)  /* estatus */
 1000068:	d9401115 	stw	r5,68(sp)
        addi  r15, ea, -4  /* instruction that caused exception */
 100006c:	ebffff04 	addi	r15,ea,-4
        stw   r15,  72(sp)
 1000070:	dbc01215 	stw	r15,72(sp)
#else
        /*
         * Test to see if the exception was a software exception or caused 
         * by an external interrupt, and vector accordingly.
         */
        rdctl r4, ipending
 1000074:	0009313a 	rdctl	r4,ipending
        andi  r2, r5, 1
 1000078:	2880004c 	andi	r2,r5,1
        beq   r2, zero, .Lnot_irq
 100007c:	10000326 	beq	r2,zero,100008c <alt_exception+0x6c>
        beq   r4, zero, .Lnot_irq
 1000080:	20000226 	beq	r4,zero,100008c <alt_exception+0x6c>
        /*
         * Now that all necessary registers have been preserved, call 
         * alt_irq_handler() to process the interrupts.
         */

        call alt_irq_handler
 1000084:	10000ec0 	call	10000ec <alt_irq_handler>

        .section .exceptions.irqreturn, "xa"

        br    .Lexception_exit
 1000088:	00000306 	br	1000098 <alt_exception+0x78>
         * upon completion, so we write ea (address of instruction *after*
         * the one where the exception occured) into 72(sp). The actual
         * instruction that caused the exception is written in r2, which these
         * handlers will utilize.
         */
        stw   ea,  72(sp)  /* Don't re-issue */
 100008c:	df401215 	stw	ea,72(sp)
        ldw   r2, -4(ea)   /* Instruction that caused exception */
 1000090:	e8bfff17 	ldw	r2,-4(ea)
#ifdef NIOS2_HAS_DEBUG_STUB
       /*
        *  Either tell the user now (if there is a debugger attached) or go into
        *  the debug monitor which will loop until a debugger is attached.
        */
        break
 1000094:	003da03a 	break	0
        /* 
         * Restore the saved registers, so that all general purpose registers 
         * have been restored to their state at the time the interrupt occured.
         */

        ldw   r5,  68(sp)
 1000098:	d9401117 	ldw	r5,68(sp)
        ldw   ea,  72(sp)  /* This becomes the PC once eret is executed */
 100009c:	df401217 	ldw	ea,72(sp)
        ldw   ra,   0(sp)
 10000a0:	dfc00017 	ldw	ra,0(sp)

        wrctl estatus, r5
 10000a4:	2801707a 	wrctl	estatus,r5

        ldw   r1,   8(sp)
 10000a8:	d8400217 	ldw	at,8(sp)
        ldw   r2,  12(sp)
 10000ac:	d8800317 	ldw	r2,12(sp)
        ldw   r3,  16(sp)
 10000b0:	d8c00417 	ldw	r3,16(sp)
        ldw   r4,  20(sp)
 10000b4:	d9000517 	ldw	r4,20(sp)
        ldw   r5,  24(sp)
 10000b8:	d9400617 	ldw	r5,24(sp)
        ldw   r6,  28(sp)
 10000bc:	d9800717 	ldw	r6,28(sp)
        ldw   r7,  32(sp)
 10000c0:	d9c00817 	ldw	r7,32(sp)
#ifdef ALT_STACK_CHECK
        ldw   et, %gprel(alt_exception_old_stack_limit)(gp)
#endif
#endif

        ldw   r8,  36(sp)
 10000c4:	da000917 	ldw	r8,36(sp)
        ldw   r9,  40(sp)
 10000c8:	da400a17 	ldw	r9,40(sp)
        ldw   r10, 44(sp)
 10000cc:	da800b17 	ldw	r10,44(sp)
        ldw   r11, 48(sp)
 10000d0:	dac00c17 	ldw	r11,48(sp)
        ldw   r12, 52(sp)
 10000d4:	db000d17 	ldw	r12,52(sp)
        ldw   r13, 56(sp)
 10000d8:	db400e17 	ldw	r13,56(sp)
        ldw   r14, 60(sp)
 10000dc:	db800f17 	ldw	r14,60(sp)
        ldw   r15, 64(sp)
 10000e0:	dbc01017 	ldw	r15,64(sp)
#endif

        ldw   sp,  76(sp)

#else
        addi  sp, sp, 76
 10000e4:	dec01304 	addi	sp,sp,76

        /*
         * Return to the interrupted instruction.
         */

        eret
 10000e8:	ef80083a 	eret

010000ec <alt_irq_handler>:
 * instruction is present if the macro ALT_CI_INTERRUPT_VECTOR defined.
 */

void alt_irq_handler (void) __attribute__ ((section (".exceptions")));
void alt_irq_handler (void)
{
 10000ec:	defff904 	addi	sp,sp,-28
 10000f0:	dfc00615 	stw	ra,24(sp)
 10000f4:	df000515 	stw	fp,20(sp)
 10000f8:	df000504 	addi	fp,sp,20
  
  /*
   * Notify the operating system that we are at interrupt level.
   */ 
  
  ALT_OS_INT_ENTER();
 10000fc:	100e2b00 	call	100e2b0 <OSIntEnter>
#ifndef NIOS2_EIC_PRESENT
static ALT_INLINE alt_u32 ALT_ALWAYS_INLINE alt_irq_pending (void)
{
  alt_u32 active;

  NIOS2_READ_IPENDING (active);
 1000100:	0005313a 	rdctl	r2,ipending
 1000104:	e0bffc15 	stw	r2,-16(fp)

  return active;
 1000108:	e0bffc17 	ldw	r2,-16(fp)
   * Consider the case where the high priority interupt is asserted during
   * the interrupt entry sequence for a lower priority interrupt to see why
   * this is the case.
   */

  active = alt_irq_pending ();
 100010c:	e0bfff15 	stw	r2,-4(fp)

  do
  {
    i = 0;
 1000110:	e03ffd15 	stw	zero,-12(fp)
    mask = 1;
 1000114:	00800044 	movi	r2,1
 1000118:	e0bffe15 	stw	r2,-8(fp)
     * called to clear the interrupt condition.
     */

    do
    {
      if (active & mask)
 100011c:	e0ffff17 	ldw	r3,-4(fp)
 1000120:	e0bffe17 	ldw	r2,-8(fp)
 1000124:	1884703a 	and	r2,r3,r2
 1000128:	1005003a 	cmpeq	r2,r2,zero
 100012c:	1000161e 	bne	r2,zero,1000188 <alt_irq_handler+0x9c>
      { 
#ifdef ALT_ENHANCED_INTERRUPT_API_PRESENT
        alt_irq[i].handler(alt_irq[i].context); 
 1000130:	e0bffd17 	ldw	r2,-12(fp)
 1000134:	00c040b4 	movhi	r3,258
 1000138:	18cd7a04 	addi	r3,r3,13800
 100013c:	100490fa 	slli	r2,r2,3
 1000140:	10c5883a 	add	r2,r2,r3
 1000144:	11400017 	ldw	r5,0(r2)
 1000148:	e0bffd17 	ldw	r2,-12(fp)
 100014c:	00c040b4 	movhi	r3,258
 1000150:	18cd7a04 	addi	r3,r3,13800
 1000154:	100490fa 	slli	r2,r2,3
 1000158:	10c5883a 	add	r2,r2,r3
 100015c:	10800104 	addi	r2,r2,4
 1000160:	11000017 	ldw	r4,0(r2)
 1000164:	283ee83a 	callr	r5
#ifndef NIOS2_EIC_PRESENT
static ALT_INLINE alt_u32 ALT_ALWAYS_INLINE alt_irq_pending (void)
{
  alt_u32 active;

  NIOS2_READ_IPENDING (active);
 1000168:	0005313a 	rdctl	r2,ipending
 100016c:	e0bffb15 	stw	r2,-20(fp)

  return active;
 1000170:	e0bffb17 	ldw	r2,-20(fp)
      mask <<= 1;
      i++;

    } while (1);

    active = alt_irq_pending ();
 1000174:	e0bfff15 	stw	r2,-4(fp)
    
  } while (active);
 1000178:	e0bfff17 	ldw	r2,-4(fp)
 100017c:	1004c03a 	cmpne	r2,r2,zero
 1000180:	103fe31e 	bne	r2,zero,1000110 <alt_irq_handler+0x24>
 1000184:	00000706 	br	10001a4 <alt_irq_handler+0xb8>
#else
        alt_irq[i].handler(alt_irq[i].context, i); 
#endif
        break;
      }
      mask <<= 1;
 1000188:	e0bffe17 	ldw	r2,-8(fp)
 100018c:	1085883a 	add	r2,r2,r2
 1000190:	e0bffe15 	stw	r2,-8(fp)
      i++;
 1000194:	e0bffd17 	ldw	r2,-12(fp)
 1000198:	10800044 	addi	r2,r2,1
 100019c:	e0bffd15 	stw	r2,-12(fp)

    } while (1);
 10001a0:	003fde06 	br	100011c <alt_irq_handler+0x30>

  /*
   * Notify the operating system that interrupt processing is complete.
   */ 

  ALT_OS_INT_EXIT();
 10001a4:	100e32c0 	call	100e32c <OSIntExit>
}
 10001a8:	e037883a 	mov	sp,fp
 10001ac:	dfc00117 	ldw	ra,4(sp)
 10001b0:	df000017 	ldw	fp,0(sp)
 10001b4:	dec00204 	addi	sp,sp,8
 10001b8:	f800283a 	ret

Disassembly of section .text:

010001bc <_start>:

    /* Assume the data cache size is always a power of two. */
#if NIOS2_DCACHE_SIZE > 0x8000
    movhi r2, %hi(NIOS2_DCACHE_SIZE)
#else
    movui r2, NIOS2_DCACHE_SIZE
 10001bc:	00840014 	movui	r2,4096
#endif

0:
    initd 0(r2)
 10001c0:	10000033 	initd	0(r2)
    addi r2, r2, -NIOS2_DCACHE_LINE_SIZE
 10001c4:	10bff804 	addi	r2,r2,-32
    bgt r2, zero, 0b
 10001c8:	00bffd16 	blt	zero,r2,10001c0 <_start+0x4>
#if (NIOS2_NUM_OF_SHADOW_REG_SETS == 0)    
    /*
     * Now that the caches are initialized, set up the stack pointer.
     * The value provided by the linker is assumed to be correctly aligned.
     */
    movhi sp, %hi(__alt_stack_pointer)
 10001cc:	06c08034 	movhi	sp,512
    ori sp, sp, %lo(__alt_stack_pointer)
 10001d0:	dec00014 	ori	sp,sp,0

    /* Set up the global pointer. */
    movhi gp, %hi(_gp)
 10001d4:	068040b4 	movhi	gp,258
    ori gp, gp, %lo(_gp)
 10001d8:	d68bde14 	ori	gp,gp,12152
 */
#ifndef ALT_SIM_OPTIMIZE
    /* Log that the BSS is about to be cleared. */
    ALT_LOG_PUTS(alt_log_msg_bss)

    movhi r2, %hi(__bss_start)
 10001dc:	00804074 	movhi	r2,257
    ori r2, r2, %lo(__bss_start)
 10001e0:	10b34014 	ori	r2,r2,52480

    movhi r3, %hi(__bss_end)
 10001e4:	00c040b4 	movhi	r3,258
    ori r3, r3, %lo(__bss_end)
 10001e8:	18daa714 	ori	r3,r3,27292

    beq r2, r3, 1f
 10001ec:	10c00326 	beq	r2,r3,10001fc <_start+0x40>

0:
    stw zero, (r2)
 10001f0:	10000015 	stw	zero,0(r2)
    addi r2, r2, 4
 10001f4:	10800104 	addi	r2,r2,4
    bltu r2, r3, 0b
 10001f8:	10fffd36 	bltu	r2,r3,10001f0 <_start+0x34>
     * section aren't defined until alt_load() has been called).
     */
    mov   et, zero
#endif

    call alt_load
 10001fc:	100cf340 	call	100cf34 <alt_load>

    /* Log that alt_main is about to be called. */
    ALT_LOG_PUTS(alt_log_msg_alt_main)

    /* Call the C entry point. It should never return. */
    call alt_main
 1000200:	100d1700 	call	100d170 <alt_main>

01000204 <alt_after_alt_main>:

    /* Wait in infinite loop in case alt_main does return. */
alt_after_alt_main:
    br alt_after_alt_main
 1000204:	003fff06 	br	1000204 <alt_after_alt_main>

01000208 <_ZN13SerialHandlerC2Ev>:

#include "SerialHandler.h"
#include "includes.h"
#include "altera_avalon_uart_regs.h"

SerialHandler::SerialHandler() {
 1000208:	defffe04 	addi	sp,sp,-8
 100020c:	df000115 	stw	fp,4(sp)
 1000210:	df000104 	addi	fp,sp,4
 1000214:	e13fff15 	stw	r4,-4(fp)
 1000218:	00c040b4 	movhi	r3,258
 100021c:	18e35504 	addi	r3,r3,-29356
 1000220:	e0bfff17 	ldw	r2,-4(fp)
 1000224:	10c00015 	stw	r3,0(r2)
	// TODO Auto-generated constructor stub

}
 1000228:	e037883a 	mov	sp,fp
 100022c:	df000017 	ldw	fp,0(sp)
 1000230:	dec00104 	addi	sp,sp,4
 1000234:	f800283a 	ret

01000238 <_ZN13SerialHandlerC1Ev>:

#include "SerialHandler.h"
#include "includes.h"
#include "altera_avalon_uart_regs.h"

SerialHandler::SerialHandler() {
 1000238:	defffe04 	addi	sp,sp,-8
 100023c:	df000115 	stw	fp,4(sp)
 1000240:	df000104 	addi	fp,sp,4
 1000244:	e13fff15 	stw	r4,-4(fp)
 1000248:	00c040b4 	movhi	r3,258
 100024c:	18e35504 	addi	r3,r3,-29356
 1000250:	e0bfff17 	ldw	r2,-4(fp)
 1000254:	10c00015 	stw	r3,0(r2)
	// TODO Auto-generated constructor stub

}
 1000258:	e037883a 	mov	sp,fp
 100025c:	df000017 	ldw	fp,0(sp)
 1000260:	dec00104 	addi	sp,sp,4
 1000264:	f800283a 	ret

01000268 <_ZN13SerialHandler12sendDataWifiEPci>:

void SerialHandler::sendByteMC(char msg){
		IOWR_ALTERA_AVALON_UART_TXDATA(UART_MC_BASE, msg);
}

void SerialHandler::sendDataWifi(char * msg, int length){
 1000268:	defffb04 	addi	sp,sp,-20
 100026c:	df000415 	stw	fp,16(sp)
 1000270:	df000404 	addi	fp,sp,16
 1000274:	e13ffd15 	stw	r4,-12(fp)
 1000278:	e17ffe15 	stw	r5,-8(fp)
 100027c:	e1bfff15 	stw	r6,-4(fp)
	int i;
		for(i = 0; i<length; i++){
 1000280:	e03ffc15 	stw	zero,-16(fp)
 1000284:	00000e06 	br	10002c0 <_ZN13SerialHandler12sendDataWifiEPci+0x58>
			IOWR_ALTERA_AVALON_UART_TXDATA(UART_WIFI_BASE, msg[i]);
 1000288:	e0bffc17 	ldw	r2,-16(fp)
 100028c:	1007883a 	mov	r3,r2
 1000290:	e0bffe17 	ldw	r2,-8(fp)
 1000294:	1885883a 	add	r2,r3,r2
 1000298:	10800003 	ldbu	r2,0(r2)
 100029c:	10c03fcc 	andi	r3,r2,255
 10002a0:	18c0201c 	xori	r3,r3,128
 10002a4:	18ffe004 	addi	r3,r3,-128
 10002a8:	00808034 	movhi	r2,512
 10002ac:	10841104 	addi	r2,r2,4164
 10002b0:	10c00035 	stwio	r3,0(r2)
		IOWR_ALTERA_AVALON_UART_TXDATA(UART_MC_BASE, msg);
}

void SerialHandler::sendDataWifi(char * msg, int length){
	int i;
		for(i = 0; i<length; i++){
 10002b4:	e0bffc17 	ldw	r2,-16(fp)
 10002b8:	10800044 	addi	r2,r2,1
 10002bc:	e0bffc15 	stw	r2,-16(fp)
 10002c0:	e0fffc17 	ldw	r3,-16(fp)
 10002c4:	e0bfff17 	ldw	r2,-4(fp)
 10002c8:	18bfef16 	blt	r3,r2,1000288 <_ZN13SerialHandler12sendDataWifiEPci+0x20>
			IOWR_ALTERA_AVALON_UART_TXDATA(UART_WIFI_BASE, msg[i]);
		}
}
 10002cc:	e037883a 	mov	sp,fp
 10002d0:	df000017 	ldw	fp,0(sp)
 10002d4:	dec00104 	addi	sp,sp,4
 10002d8:	f800283a 	ret

010002dc <_ZN13SerialHandler10sendByteMCEc>:

SerialHandler::~SerialHandler() {
	// TODO Auto-generated destructor stub
}

void SerialHandler::sendByteMC(char msg){
 10002dc:	defffd04 	addi	sp,sp,-12
 10002e0:	df000215 	stw	fp,8(sp)
 10002e4:	df000204 	addi	fp,sp,8
 10002e8:	e13ffe15 	stw	r4,-8(fp)
 10002ec:	e17fff05 	stb	r5,-4(fp)
		IOWR_ALTERA_AVALON_UART_TXDATA(UART_MC_BASE, msg);
 10002f0:	e0ffff07 	ldb	r3,-4(fp)
 10002f4:	00808034 	movhi	r2,512
 10002f8:	10840104 	addi	r2,r2,4100
 10002fc:	10c00035 	stwio	r3,0(r2)
}
 1000300:	e037883a 	mov	sp,fp
 1000304:	df000017 	ldw	fp,0(sp)
 1000308:	dec00104 	addi	sp,sp,4
 100030c:	f800283a 	ret

01000310 <_ZN13SerialHandlerD0Ev>:
SerialHandler::SerialHandler() {
	// TODO Auto-generated constructor stub

}

SerialHandler::~SerialHandler() {
 1000310:	defffd04 	addi	sp,sp,-12
 1000314:	dfc00215 	stw	ra,8(sp)
 1000318:	df000115 	stw	fp,4(sp)
 100031c:	df000104 	addi	fp,sp,4
 1000320:	e13fff15 	stw	r4,-4(fp)
 1000324:	00c040b4 	movhi	r3,258
 1000328:	18e35504 	addi	r3,r3,-29356
 100032c:	e0bfff17 	ldw	r2,-4(fp)
 1000330:	10c00015 	stw	r3,0(r2)
	// TODO Auto-generated destructor stub
}
 1000334:	00800044 	movi	r2,1
 1000338:	10803fcc 	andi	r2,r2,255
 100033c:	1005003a 	cmpeq	r2,r2,zero
 1000340:	1000021e 	bne	r2,zero,100034c <_ZN13SerialHandlerD0Ev+0x3c>
 1000344:	e13fff17 	ldw	r4,-4(fp)
 1000348:	1001f140 	call	1001f14 <_ZdlPv>
 100034c:	e037883a 	mov	sp,fp
 1000350:	dfc00117 	ldw	ra,4(sp)
 1000354:	df000017 	ldw	fp,0(sp)
 1000358:	dec00204 	addi	sp,sp,8
 100035c:	f800283a 	ret

01000360 <_ZN13SerialHandlerD1Ev>:
SerialHandler::SerialHandler() {
	// TODO Auto-generated constructor stub

}

SerialHandler::~SerialHandler() {
 1000360:	defffd04 	addi	sp,sp,-12
 1000364:	dfc00215 	stw	ra,8(sp)
 1000368:	df000115 	stw	fp,4(sp)
 100036c:	df000104 	addi	fp,sp,4
 1000370:	e13fff15 	stw	r4,-4(fp)
 1000374:	00c040b4 	movhi	r3,258
 1000378:	18e35504 	addi	r3,r3,-29356
 100037c:	e0bfff17 	ldw	r2,-4(fp)
 1000380:	10c00015 	stw	r3,0(r2)
	// TODO Auto-generated destructor stub
}
 1000384:	0005883a 	mov	r2,zero
 1000388:	10803fcc 	andi	r2,r2,255
 100038c:	1005003a 	cmpeq	r2,r2,zero
 1000390:	1000021e 	bne	r2,zero,100039c <_ZN13SerialHandlerD1Ev+0x3c>
 1000394:	e13fff17 	ldw	r4,-4(fp)
 1000398:	1001f140 	call	1001f14 <_ZdlPv>
 100039c:	e037883a 	mov	sp,fp
 10003a0:	dfc00117 	ldw	ra,4(sp)
 10003a4:	df000017 	ldw	fp,0(sp)
 10003a8:	dec00204 	addi	sp,sp,8
 10003ac:	f800283a 	ret

010003b0 <_ZN13SerialHandlerD2Ev>:
SerialHandler::SerialHandler() {
	// TODO Auto-generated constructor stub

}

SerialHandler::~SerialHandler() {
 10003b0:	defffd04 	addi	sp,sp,-12
 10003b4:	dfc00215 	stw	ra,8(sp)
 10003b8:	df000115 	stw	fp,4(sp)
 10003bc:	df000104 	addi	fp,sp,4
 10003c0:	e13fff15 	stw	r4,-4(fp)
 10003c4:	00c040b4 	movhi	r3,258
 10003c8:	18e35504 	addi	r3,r3,-29356
 10003cc:	e0bfff17 	ldw	r2,-4(fp)
 10003d0:	10c00015 	stw	r3,0(r2)
	// TODO Auto-generated destructor stub
}
 10003d4:	0005883a 	mov	r2,zero
 10003d8:	10803fcc 	andi	r2,r2,255
 10003dc:	1005003a 	cmpeq	r2,r2,zero
 10003e0:	1000021e 	bne	r2,zero,10003ec <_ZN13SerialHandlerD2Ev+0x3c>
 10003e4:	e13fff17 	ldw	r4,-4(fp)
 10003e8:	1001f140 	call	1001f14 <_ZdlPv>
 10003ec:	e037883a 	mov	sp,fp
 10003f0:	dfc00117 	ldw	ra,4(sp)
 10003f4:	df000017 	ldw	fp,0(sp)
 10003f8:	dec00204 	addi	sp,sp,8
 10003fc:	f800283a 	ret

01000400 <_Z10wifi_writePci>:

void wifi_wait() {
	OSTimeDlyHMSM(0, 0, WIFI_GUARD_TIME, 0);
}

void wifi_write(char *message, int length) {
 1000400:	defffc04 	addi	sp,sp,-16
 1000404:	df000315 	stw	fp,12(sp)
 1000408:	df000304 	addi	fp,sp,12
 100040c:	e13ffe15 	stw	r4,-8(fp)
 1000410:	e17fff15 	stw	r5,-4(fp)
	int i;
	for (i = 0; i < length; i++) {
 1000414:	e03ffd15 	stw	zero,-12(fp)
 1000418:	00000e06 	br	1000454 <_Z10wifi_writePci+0x54>
		IOWR_ALTERA_AVALON_UART_TXDATA(UART_WIFI_BASE, message[i]);
 100041c:	e0bffd17 	ldw	r2,-12(fp)
 1000420:	1007883a 	mov	r3,r2
 1000424:	e0bffe17 	ldw	r2,-8(fp)
 1000428:	1885883a 	add	r2,r3,r2
 100042c:	10800003 	ldbu	r2,0(r2)
 1000430:	10c03fcc 	andi	r3,r2,255
 1000434:	18c0201c 	xori	r3,r3,128
 1000438:	18ffe004 	addi	r3,r3,-128
 100043c:	00808034 	movhi	r2,512
 1000440:	10841104 	addi	r2,r2,4164
 1000444:	10c00035 	stwio	r3,0(r2)
	OSTimeDlyHMSM(0, 0, WIFI_GUARD_TIME, 0);
}

void wifi_write(char *message, int length) {
	int i;
	for (i = 0; i < length; i++) {
 1000448:	e0bffd17 	ldw	r2,-12(fp)
 100044c:	10800044 	addi	r2,r2,1
 1000450:	e0bffd15 	stw	r2,-12(fp)
 1000454:	e0fffd17 	ldw	r3,-12(fp)
 1000458:	e0bfff17 	ldw	r2,-4(fp)
 100045c:	18bfef16 	blt	r3,r2,100041c <_Z10wifi_writePci+0x1c>
		IOWR_ALTERA_AVALON_UART_TXDATA(UART_WIFI_BASE, message[i]);
	}
}
 1000460:	e037883a 	mov	sp,fp
 1000464:	df000017 	ldw	fp,0(sp)
 1000468:	dec00104 	addi	sp,sp,4
 100046c:	f800283a 	ret

01000470 <_Z20isr_on_ir_pushbuttonPv>:
#define IR_QUEUE_SEND_BASE	1		// Use: IR_QUEUE_SEND_BASE + IORD
#define IR_QUEUE_RECEIVE_BASE 2		// Use: IR_QUEUE_RECEIVE_BASE - OSQPend


/* Interrupt service routine triggered whenever the status of the IR emitter pushbutton changes. */
static void isr_on_ir_pushbutton(void * context) {
 1000470:	defffc04 	addi	sp,sp,-16
 1000474:	dfc00315 	stw	ra,12(sp)
 1000478:	df000215 	stw	fp,8(sp)
 100047c:	df000204 	addi	fp,sp,8
 1000480:	e13fff15 	stw	r4,-4(fp)
	// Read the state of the pushbutton and post it to the queue.
	//printf("Pressed\n");
	int message = IR_QUEUE_SEND_BASE + IORD_ALTERA_AVALON_PIO_DATA(PIO_KEY_LEFT_BASE);
 1000484:	00808034 	movhi	r2,512
 1000488:	10842804 	addi	r2,r2,4256
 100048c:	10800037 	ldwio	r2,0(r2)
 1000490:	10800044 	addi	r2,r2,1
 1000494:	e0bffe15 	stw	r2,-8(fp)
	OSQPost(ir_queue, (void*)message);
 1000498:	d1276217 	ldw	r4,-25208(gp)
 100049c:	e17ffe17 	ldw	r5,-8(fp)
 10004a0:	10128f80 	call	10128f8 <OSQPost>
	// Mask to mark the end of the ISR.
	IOWR_ALTERA_AVALON_PIO_EDGE_CAP(PIO_KEY_LEFT_BASE, PIO_KEY_LEFT_BIT_CLEARING_EDGE_REGISTER);
 10004a4:	00c08034 	movhi	r3,512
 10004a8:	18c42b04 	addi	r3,r3,4268
 10004ac:	00800044 	movi	r2,1
 10004b0:	18800035 	stwio	r2,0(r3)
}
 10004b4:	e037883a 	mov	sp,fp
 10004b8:	dfc00117 	ldw	ra,4(sp)
 10004bc:	df000017 	ldw	fp,0(sp)
 10004c0:	dec00204 	addi	sp,sp,8
 10004c4:	f800283a 	ret

010004c8 <_Z10queue_initv>:

}

// ==== GENERAL

void queue_init() {
 10004c8:	defffe04 	addi	sp,sp,-8
 10004cc:	dfc00115 	stw	ra,4(sp)
 10004d0:	df000015 	stw	fp,0(sp)
 10004d4:	d839883a 	mov	fp,sp
	ir_queue = OSQCreate((void**)&ir_messages, IR_MAX_MESSAGES);
 10004d8:	010040b4 	movhi	r4,258
 10004dc:	210b6c04 	addi	r4,r4,11696
 10004e0:	01400104 	movi	r5,4
 10004e4:	1011e800 	call	1011e80 <OSQCreate>
 10004e8:	d0a76215 	stw	r2,-25208(gp)
}
 10004ec:	e037883a 	mov	sp,fp
 10004f0:	dfc00117 	ldw	ra,4(sp)
 10004f4:	df000017 	ldw	fp,0(sp)
 10004f8:	dec00204 	addi	sp,sp,8
 10004fc:	f800283a 	ret

01000500 <main>:

/* The main function creates the LCD task, registers the edge counter polling interrupt,
 * and starts the OS. */
int main(void)
 1000500:	defff804 	addi	sp,sp,-32
 1000504:	dfc00715 	stw	ra,28(sp)
 1000508:	df000615 	stw	fp,24(sp)
 100050c:	df000604 	addi	fp,sp,24
{
	int status;
	// Initialize components.
	queue_init();
 1000510:	10004c80 	call	10004c8 <_Z10queue_initv>
			IR_TASK_PRIORITY,
			IR_TASK_PRIORITY,
			ir_task_stk,
			TASK_STACKSIZE,
			NULL,
			0);
 1000514:	00800044 	movi	r2,1
 1000518:	d8800015 	stw	r2,0(sp)
 100051c:	008040b4 	movhi	r2,258
 1000520:	10b36c04 	addi	r2,r2,-12880
 1000524:	d8800115 	stw	r2,4(sp)
 1000528:	00820004 	movi	r2,2048
 100052c:	d8800215 	stw	r2,8(sp)
 1000530:	d8000315 	stw	zero,12(sp)
 1000534:	d8000415 	stw	zero,16(sp)
 1000538:	01004034 	movhi	r4,256
 100053c:	21038404 	addi	r4,r4,3600
 1000540:	000b883a 	mov	r5,zero
 1000544:	018040b4 	movhi	r6,258
 1000548:	31bb6b04 	addi	r6,r6,-4692
 100054c:	01c00044 	movi	r7,1
 1000550:	10143700 	call	1014370 <OSTaskCreateExt>
			WIFI_TASK_PRIORITY,
			WIFI_TASK_PRIORITY,
			wifi_task_stk,
			TASK_STACKSIZE,
			NULL,
			0);
 1000554:	00800084 	movi	r2,2
 1000558:	d8800015 	stw	r2,0(sp)
 100055c:	008040b4 	movhi	r2,258
 1000560:	10bb6c04 	addi	r2,r2,-4688
 1000564:	d8800115 	stw	r2,4(sp)
 1000568:	00820004 	movi	r2,2048
 100056c:	d8800215 	stw	r2,8(sp)
 1000570:	d8000315 	stw	zero,12(sp)
 1000574:	d8000415 	stw	zero,16(sp)
 1000578:	01004034 	movhi	r4,256
 100057c:	21036d04 	addi	r4,r4,3508
 1000580:	000b883a 	mov	r5,zero
 1000584:	018040b4 	movhi	r6,258
 1000588:	31836b04 	addi	r6,r6,3500
 100058c:	01c00084 	movi	r7,2
 1000590:	10143700 	call	1014370 <OSTaskCreateExt>
			MC_TASK_PRIORITY,
			MC_TASK_PRIORITY,
			mc_task_stk,
			TASK_STACKSIZE,
			NULL,
			0);
 1000594:	00800084 	movi	r2,2
 1000598:	d8800015 	stw	r2,0(sp)
 100059c:	008040b4 	movhi	r2,258
 10005a0:	10836c04 	addi	r2,r2,3504
 10005a4:	d8800115 	stw	r2,4(sp)
 10005a8:	00820004 	movi	r2,2048
 10005ac:	d8800215 	stw	r2,8(sp)
 10005b0:	d8000315 	stw	zero,12(sp)
 10005b4:	d8000415 	stw	zero,16(sp)
 10005b8:	01004034 	movhi	r4,256
 10005bc:	2102e704 	addi	r4,r4,2972
 10005c0:	000b883a 	mov	r5,zero
 10005c4:	018040b4 	movhi	r6,258
 10005c8:	318b6b04 	addi	r6,r6,11692
 10005cc:	01c00084 	movi	r7,2
 10005d0:	10143700 	call	1014370 <OSTaskCreateExt>
	// Register the IR pushbutton interrupt.
	status = alt_ic_isr_register(PIO_KEY_LEFT_IRQ_INTERRUPT_CONTROLLER_ID,
			PIO_KEY_LEFT_IRQ,
			isr_on_ir_pushbutton,
			NULL,
			NULL);
 10005d4:	d8000015 	stw	zero,0(sp)
 10005d8:	0009883a 	mov	r4,zero
 10005dc:	01400044 	movi	r5,1
 10005e0:	01804034 	movhi	r6,256
 10005e4:	31811c04 	addi	r6,r6,1136
 10005e8:	000f883a 	mov	r7,zero
 10005ec:	100c9a80 	call	100c9a8 <alt_ic_isr_register>
 10005f0:	e0bfff15 	stw	r2,-4(fp)

	// Enable key interrupts.
	IOWR_ALTERA_AVALON_PIO_IRQ_MASK(PIO_KEY_LEFT_BASE, PIO_KEY_LEFT_CAPTURE);
 10005f4:	00c08034 	movhi	r3,512
 10005f8:	18c42a04 	addi	r3,r3,4264
 10005fc:	00800044 	movi	r2,1
 1000600:	18800035 	stwio	r2,0(r3)

	// Start.
	if (status == OK) {
 1000604:	e0bfff17 	ldw	r2,-4(fp)
 1000608:	1004c03a 	cmpne	r2,r2,zero
 100060c:	1000011e 	bne	r2,zero,1000614 <main+0x114>
		OSStart();
 1000610:	100e59c0 	call	100e59c <OSStart>
	}

	return 0;
 1000614:	0005883a 	mov	r2,zero
}
 1000618:	e037883a 	mov	sp,fp
 100061c:	dfc00117 	ldw	ra,4(sp)
 1000620:	df000017 	ldw	fp,0(sp)
 1000624:	dec00204 	addi	sp,sp,8
 1000628:	f800283a 	ret

0100062c <_Z8mc_rightv>:

}
/*
 * Moves the rover right, enabling right drive strength higher than left
 */
void mc_right(){
 100062c:	deffe504 	addi	sp,sp,-108
 1000630:	dfc01a15 	stw	ra,104(sp)
 1000634:	df001915 	stw	fp,100(sp)
 1000638:	ddc01815 	stw	r23,96(sp)
 100063c:	dd801715 	stw	r22,92(sp)
 1000640:	dd401615 	stw	r21,88(sp)
 1000644:	dd001515 	stw	r20,84(sp)
 1000648:	dcc01415 	stw	r19,80(sp)
 100064c:	dc801315 	stw	r18,76(sp)
 1000650:	dc401215 	stw	r17,72(sp)
 1000654:	dc001115 	stw	r16,68(sp)
 1000658:	df001104 	addi	fp,sp,68
 100065c:	00804034 	movhi	r2,256
 1000660:	1085d104 	addi	r2,r2,5956
 1000664:	e0bff615 	stw	r2,-40(fp)
 1000668:	008040b4 	movhi	r2,258
 100066c:	10a33104 	addi	r2,r2,-29500
 1000670:	e0bff715 	stw	r2,-36(fp)
 1000674:	e0bff804 	addi	r2,fp,-32
 1000678:	e0ffef04 	addi	r3,fp,-68
 100067c:	10c00015 	stw	r3,0(r2)
 1000680:	00c04034 	movhi	r3,256
 1000684:	18c1c004 	addi	r3,r3,1792
 1000688:	10c00115 	stw	r3,4(r2)
 100068c:	16c00215 	stw	sp,8(r2)
 1000690:	e13ff004 	addi	r4,fp,-64
 1000694:	10026440 	call	1002644 <_Unwind_SjLj_Register>
	SerialHandler *serial = new SerialHandler();
 1000698:	00bfffc4 	movi	r2,-1
 100069c:	e0bff115 	stw	r2,-60(fp)
 10006a0:	01000104 	movi	r4,4
 10006a4:	10023fc0 	call	10023fc <_Znwm>
 10006a8:	e0bffe15 	stw	r2,-8(fp)
 10006ac:	00800044 	movi	r2,1
 10006b0:	e0bff115 	stw	r2,-60(fp)
 10006b4:	e13ffe17 	ldw	r4,-8(fp)
 10006b8:	10002380 	call	1000238 <_ZN13SerialHandlerC1Ev>
 10006bc:	e0bffe17 	ldw	r2,-8(fp)
 10006c0:	e0bfef15 	stw	r2,-68(fp)

	//Turn Right by driving right motor only

	//motor 1
	serial->sendByteMC(SERIAL_START_BYTE);
 10006c4:	00bfffc4 	movi	r2,-1
 10006c8:	e0bff115 	stw	r2,-60(fp)
 10006cc:	e13fef17 	ldw	r4,-68(fp)
 10006d0:	017fe004 	movi	r5,-128
 10006d4:	10002dc0 	call	10002dc <_ZN13SerialHandler10sendByteMCEc>
	serial->sendByteMC(SERIAL_DEVICE_TYPE);
 10006d8:	e13fef17 	ldw	r4,-68(fp)
 10006dc:	000b883a 	mov	r5,zero
 10006e0:	10002dc0 	call	10002dc <_ZN13SerialHandler10sendByteMCEc>
	serial->sendByteMC(SERIAL_MOTOR3_FORWARD);
 10006e4:	e13fef17 	ldw	r4,-68(fp)
 10006e8:	014001c4 	movi	r5,7
 10006ec:	10002dc0 	call	10002dc <_ZN13SerialHandler10sendByteMCEc>
	serial->sendByteMC(SERIAL_CONST_SPEED);
 10006f0:	e13fef17 	ldw	r4,-68(fp)
 10006f4:	014017c4 	movi	r5,95
 10006f8:	10002dc0 	call	10002dc <_ZN13SerialHandler10sendByteMCEc>
}
 10006fc:	00000d06 	br	1000734 <_Z8mc_rightv+0x108>
 1000700:	e7001104 	addi	fp,fp,68
 1000704:	e0fff217 	ldw	r3,-56(fp)
 1000708:	e0ffff15 	stw	r3,-4(fp)
 100070c:	e0bfff17 	ldw	r2,-4(fp)
 1000710:	e0bffd15 	stw	r2,-12(fp)
}
/*
 * Moves the rover right, enabling right drive strength higher than left
 */
void mc_right(){
	SerialHandler *serial = new SerialHandler();
 1000714:	e13ffe17 	ldw	r4,-8(fp)
 1000718:	1001f140 	call	1001f14 <_ZdlPv>
 100071c:	e0fffd17 	ldw	r3,-12(fp)
 1000720:	e0ffff15 	stw	r3,-4(fp)
 1000724:	00bfffc4 	movi	r2,-1
 1000728:	e0bff115 	stw	r2,-60(fp)
 100072c:	e13fff17 	ldw	r4,-4(fp)
 1000730:	10029100 	call	1002910 <_Unwind_SjLj_Resume>
 1000734:	e13ff004 	addi	r4,fp,-64
 1000738:	10026540 	call	1002654 <_Unwind_SjLj_Unregister>
	//motor 1
	serial->sendByteMC(SERIAL_START_BYTE);
	serial->sendByteMC(SERIAL_DEVICE_TYPE);
	serial->sendByteMC(SERIAL_MOTOR3_FORWARD);
	serial->sendByteMC(SERIAL_CONST_SPEED);
}
 100073c:	e037883a 	mov	sp,fp
 1000740:	dfc00917 	ldw	ra,36(sp)
 1000744:	df000817 	ldw	fp,32(sp)
 1000748:	ddc00717 	ldw	r23,28(sp)
 100074c:	dd800617 	ldw	r22,24(sp)
 1000750:	dd400517 	ldw	r21,20(sp)
 1000754:	dd000417 	ldw	r20,16(sp)
 1000758:	dcc00317 	ldw	r19,12(sp)
 100075c:	dc800217 	ldw	r18,8(sp)
 1000760:	dc400117 	ldw	r17,4(sp)
 1000764:	dc000017 	ldw	r16,0(sp)
 1000768:	dec00a04 	addi	sp,sp,40
 100076c:	f800283a 	ret

01000770 <_Z7mc_leftv>:
	serial->sendByteMC(SERIAL_CONST_SPEED);
}
/*
 * Moves the rover left, enabling left drive strength higher than right
 */
void mc_left(){
 1000770:	deffe504 	addi	sp,sp,-108
 1000774:	dfc01a15 	stw	ra,104(sp)
 1000778:	df001915 	stw	fp,100(sp)
 100077c:	ddc01815 	stw	r23,96(sp)
 1000780:	dd801715 	stw	r22,92(sp)
 1000784:	dd401615 	stw	r21,88(sp)
 1000788:	dd001515 	stw	r20,84(sp)
 100078c:	dcc01415 	stw	r19,80(sp)
 1000790:	dc801315 	stw	r18,76(sp)
 1000794:	dc401215 	stw	r17,72(sp)
 1000798:	dc001115 	stw	r16,68(sp)
 100079c:	df001104 	addi	fp,sp,68
 10007a0:	00804034 	movhi	r2,256
 10007a4:	1085d104 	addi	r2,r2,5956
 10007a8:	e0bff615 	stw	r2,-40(fp)
 10007ac:	008040b4 	movhi	r2,258
 10007b0:	10a33284 	addi	r2,r2,-29494
 10007b4:	e0bff715 	stw	r2,-36(fp)
 10007b8:	e0bff804 	addi	r2,fp,-32
 10007bc:	e0ffef04 	addi	r3,fp,-68
 10007c0:	10c00015 	stw	r3,0(r2)
 10007c4:	00c04034 	movhi	r3,256
 10007c8:	18c21104 	addi	r3,r3,2116
 10007cc:	10c00115 	stw	r3,4(r2)
 10007d0:	16c00215 	stw	sp,8(r2)
 10007d4:	e13ff004 	addi	r4,fp,-64
 10007d8:	10026440 	call	1002644 <_Unwind_SjLj_Register>
	SerialHandler *serial = new SerialHandler();
 10007dc:	00bfffc4 	movi	r2,-1
 10007e0:	e0bff115 	stw	r2,-60(fp)
 10007e4:	01000104 	movi	r4,4
 10007e8:	10023fc0 	call	10023fc <_Znwm>
 10007ec:	e0bffe15 	stw	r2,-8(fp)
 10007f0:	00800044 	movi	r2,1
 10007f4:	e0bff115 	stw	r2,-60(fp)
 10007f8:	e13ffe17 	ldw	r4,-8(fp)
 10007fc:	10002380 	call	1000238 <_ZN13SerialHandlerC1Ev>
 1000800:	e0bffe17 	ldw	r2,-8(fp)
 1000804:	e0bfef15 	stw	r2,-68(fp)

	//Turn Left by driving the left motor only

	//motor 1
	serial->sendByteMC(SERIAL_START_BYTE);
 1000808:	00bfffc4 	movi	r2,-1
 100080c:	e0bff115 	stw	r2,-60(fp)
 1000810:	e13fef17 	ldw	r4,-68(fp)
 1000814:	017fe004 	movi	r5,-128
 1000818:	10002dc0 	call	10002dc <_ZN13SerialHandler10sendByteMCEc>
	serial->sendByteMC(SERIAL_DEVICE_TYPE);
 100081c:	e13fef17 	ldw	r4,-68(fp)
 1000820:	000b883a 	mov	r5,zero
 1000824:	10002dc0 	call	10002dc <_ZN13SerialHandler10sendByteMCEc>
	serial->sendByteMC(SERIAL_MOTOR2_FORWARD);
 1000828:	e13fef17 	ldw	r4,-68(fp)
 100082c:	01400144 	movi	r5,5
 1000830:	10002dc0 	call	10002dc <_ZN13SerialHandler10sendByteMCEc>
	serial->sendByteMC(SERIAL_CONST_SPEED);
 1000834:	e13fef17 	ldw	r4,-68(fp)
 1000838:	014017c4 	movi	r5,95
 100083c:	10002dc0 	call	10002dc <_ZN13SerialHandler10sendByteMCEc>

}
 1000840:	00000d06 	br	1000878 <_Z7mc_leftv+0x108>
 1000844:	e7001104 	addi	fp,fp,68
 1000848:	e0fff217 	ldw	r3,-56(fp)
 100084c:	e0ffff15 	stw	r3,-4(fp)
 1000850:	e0bfff17 	ldw	r2,-4(fp)
 1000854:	e0bffd15 	stw	r2,-12(fp)
}
/*
 * Moves the rover left, enabling left drive strength higher than right
 */
void mc_left(){
	SerialHandler *serial = new SerialHandler();
 1000858:	e13ffe17 	ldw	r4,-8(fp)
 100085c:	1001f140 	call	1001f14 <_ZdlPv>
 1000860:	e0fffd17 	ldw	r3,-12(fp)
 1000864:	e0ffff15 	stw	r3,-4(fp)
 1000868:	00bfffc4 	movi	r2,-1
 100086c:	e0bff115 	stw	r2,-60(fp)
 1000870:	e13fff17 	ldw	r4,-4(fp)
 1000874:	10029100 	call	1002910 <_Unwind_SjLj_Resume>
 1000878:	e13ff004 	addi	r4,fp,-64
 100087c:	10026540 	call	1002654 <_Unwind_SjLj_Unregister>
	serial->sendByteMC(SERIAL_START_BYTE);
	serial->sendByteMC(SERIAL_DEVICE_TYPE);
	serial->sendByteMC(SERIAL_MOTOR2_FORWARD);
	serial->sendByteMC(SERIAL_CONST_SPEED);

}
 1000880:	e037883a 	mov	sp,fp
 1000884:	dfc00917 	ldw	ra,36(sp)
 1000888:	df000817 	ldw	fp,32(sp)
 100088c:	ddc00717 	ldw	r23,28(sp)
 1000890:	dd800617 	ldw	r22,24(sp)
 1000894:	dd400517 	ldw	r21,20(sp)
 1000898:	dd000417 	ldw	r20,16(sp)
 100089c:	dcc00317 	ldw	r19,12(sp)
 10008a0:	dc800217 	ldw	r18,8(sp)
 10008a4:	dc400117 	ldw	r17,4(sp)
 10008a8:	dc000017 	ldw	r16,0(sp)
 10008ac:	dec00a04 	addi	sp,sp,40
 10008b0:	f800283a 	ret

010008b4 <_Z11mc_backwardv>:

}
/*
 * Moves the rover backward enabling equal drive strength on both motors
 */
void mc_backward(){
 10008b4:	deffe504 	addi	sp,sp,-108
 10008b8:	dfc01a15 	stw	ra,104(sp)
 10008bc:	df001915 	stw	fp,100(sp)
 10008c0:	ddc01815 	stw	r23,96(sp)
 10008c4:	dd801715 	stw	r22,92(sp)
 10008c8:	dd401615 	stw	r21,88(sp)
 10008cc:	dd001515 	stw	r20,84(sp)
 10008d0:	dcc01415 	stw	r19,80(sp)
 10008d4:	dc801315 	stw	r18,76(sp)
 10008d8:	dc401215 	stw	r17,72(sp)
 10008dc:	dc001115 	stw	r16,68(sp)
 10008e0:	df001104 	addi	fp,sp,68
 10008e4:	00804034 	movhi	r2,256
 10008e8:	1085d104 	addi	r2,r2,5956
 10008ec:	e0bff615 	stw	r2,-40(fp)
 10008f0:	008040b4 	movhi	r2,258
 10008f4:	10a33404 	addi	r2,r2,-29488
 10008f8:	e0bff715 	stw	r2,-36(fp)
 10008fc:	e0bff804 	addi	r2,fp,-32
 1000900:	e0ffef04 	addi	r3,fp,-68
 1000904:	10c00015 	stw	r3,0(r2)
 1000908:	00c04034 	movhi	r3,256
 100090c:	18c26e04 	addi	r3,r3,2488
 1000910:	10c00115 	stw	r3,4(r2)
 1000914:	16c00215 	stw	sp,8(r2)
 1000918:	e13ff004 	addi	r4,fp,-64
 100091c:	10026440 	call	1002644 <_Unwind_SjLj_Register>
	SerialHandler *serial = new SerialHandler();
 1000920:	00bfffc4 	movi	r2,-1
 1000924:	e0bff115 	stw	r2,-60(fp)
 1000928:	01000104 	movi	r4,4
 100092c:	10023fc0 	call	10023fc <_Znwm>
 1000930:	e0bffe15 	stw	r2,-8(fp)
 1000934:	00800044 	movi	r2,1
 1000938:	e0bff115 	stw	r2,-60(fp)
 100093c:	e13ffe17 	ldw	r4,-8(fp)
 1000940:	10002380 	call	1000238 <_ZN13SerialHandlerC1Ev>
 1000944:	e0bffe17 	ldw	r2,-8(fp)
 1000948:	e0bfef15 	stw	r2,-68(fp)

	//motor 1
	serial->sendByteMC(SERIAL_START_BYTE);
 100094c:	00bfffc4 	movi	r2,-1
 1000950:	e0bff115 	stw	r2,-60(fp)
 1000954:	e13fef17 	ldw	r4,-68(fp)
 1000958:	017fe004 	movi	r5,-128
 100095c:	10002dc0 	call	10002dc <_ZN13SerialHandler10sendByteMCEc>
	serial->sendByteMC(SERIAL_DEVICE_TYPE);
 1000960:	e13fef17 	ldw	r4,-68(fp)
 1000964:	000b883a 	mov	r5,zero
 1000968:	10002dc0 	call	10002dc <_ZN13SerialHandler10sendByteMCEc>
	serial->sendByteMC(SERIAL_MOTOR2_BACKWARD);
 100096c:	e13fef17 	ldw	r4,-68(fp)
 1000970:	01400104 	movi	r5,4
 1000974:	10002dc0 	call	10002dc <_ZN13SerialHandler10sendByteMCEc>
	serial->sendByteMC(SERIAL_CONST_SPEED);
 1000978:	e13fef17 	ldw	r4,-68(fp)
 100097c:	014017c4 	movi	r5,95
 1000980:	10002dc0 	call	10002dc <_ZN13SerialHandler10sendByteMCEc>
	//motor 2
	serial->sendByteMC(SERIAL_START_BYTE);
 1000984:	e13fef17 	ldw	r4,-68(fp)
 1000988:	017fe004 	movi	r5,-128
 100098c:	10002dc0 	call	10002dc <_ZN13SerialHandler10sendByteMCEc>
	serial->sendByteMC(SERIAL_DEVICE_TYPE);
 1000990:	e13fef17 	ldw	r4,-68(fp)
 1000994:	000b883a 	mov	r5,zero
 1000998:	10002dc0 	call	10002dc <_ZN13SerialHandler10sendByteMCEc>
	serial->sendByteMC(SERIAL_MOTOR3_BACKWARD);
 100099c:	e13fef17 	ldw	r4,-68(fp)
 10009a0:	01400184 	movi	r5,6
 10009a4:	10002dc0 	call	10002dc <_ZN13SerialHandler10sendByteMCEc>
	serial->sendByteMC(SERIAL_CONST_SPEED);
 10009a8:	e13fef17 	ldw	r4,-68(fp)
 10009ac:	014017c4 	movi	r5,95
 10009b0:	10002dc0 	call	10002dc <_ZN13SerialHandler10sendByteMCEc>
}
 10009b4:	00000d06 	br	10009ec <_Z11mc_backwardv+0x138>
 10009b8:	e7001104 	addi	fp,fp,68
 10009bc:	e0fff217 	ldw	r3,-56(fp)
 10009c0:	e0ffff15 	stw	r3,-4(fp)
 10009c4:	e0bfff17 	ldw	r2,-4(fp)
 10009c8:	e0bffd15 	stw	r2,-12(fp)
}
/*
 * Moves the rover backward enabling equal drive strength on both motors
 */
void mc_backward(){
	SerialHandler *serial = new SerialHandler();
 10009cc:	e13ffe17 	ldw	r4,-8(fp)
 10009d0:	1001f140 	call	1001f14 <_ZdlPv>
 10009d4:	e0fffd17 	ldw	r3,-12(fp)
 10009d8:	e0ffff15 	stw	r3,-4(fp)
 10009dc:	00bfffc4 	movi	r2,-1
 10009e0:	e0bff115 	stw	r2,-60(fp)
 10009e4:	e13fff17 	ldw	r4,-4(fp)
 10009e8:	10029100 	call	1002910 <_Unwind_SjLj_Resume>
 10009ec:	e13ff004 	addi	r4,fp,-64
 10009f0:	10026540 	call	1002654 <_Unwind_SjLj_Unregister>
	//motor 2
	serial->sendByteMC(SERIAL_START_BYTE);
	serial->sendByteMC(SERIAL_DEVICE_TYPE);
	serial->sendByteMC(SERIAL_MOTOR3_BACKWARD);
	serial->sendByteMC(SERIAL_CONST_SPEED);
}
 10009f4:	e037883a 	mov	sp,fp
 10009f8:	dfc00917 	ldw	ra,36(sp)
 10009fc:	df000817 	ldw	fp,32(sp)
 1000a00:	ddc00717 	ldw	r23,28(sp)
 1000a04:	dd800617 	ldw	r22,24(sp)
 1000a08:	dd400517 	ldw	r21,20(sp)
 1000a0c:	dd000417 	ldw	r20,16(sp)
 1000a10:	dcc00317 	ldw	r19,12(sp)
 1000a14:	dc800217 	ldw	r18,8(sp)
 1000a18:	dc400117 	ldw	r17,4(sp)
 1000a1c:	dc000017 	ldw	r16,0(sp)
 1000a20:	dec00a04 	addi	sp,sp,40
 1000a24:	f800283a 	ret

01000a28 <_Z10mc_forwardv>:
	serial->sendByteMC(SERIAL_STOP_SPEED);
}
/*
 * Moves the rover forward enabling equal drive strength on both motors
 */
void mc_forward(){
 1000a28:	deffe504 	addi	sp,sp,-108
 1000a2c:	dfc01a15 	stw	ra,104(sp)
 1000a30:	df001915 	stw	fp,100(sp)
 1000a34:	ddc01815 	stw	r23,96(sp)
 1000a38:	dd801715 	stw	r22,92(sp)
 1000a3c:	dd401615 	stw	r21,88(sp)
 1000a40:	dd001515 	stw	r20,84(sp)
 1000a44:	dcc01415 	stw	r19,80(sp)
 1000a48:	dc801315 	stw	r18,76(sp)
 1000a4c:	dc401215 	stw	r17,72(sp)
 1000a50:	dc001115 	stw	r16,68(sp)
 1000a54:	df001104 	addi	fp,sp,68
 1000a58:	00804034 	movhi	r2,256
 1000a5c:	1085d104 	addi	r2,r2,5956
 1000a60:	e0bff615 	stw	r2,-40(fp)
 1000a64:	008040b4 	movhi	r2,258
 1000a68:	10a33584 	addi	r2,r2,-29482
 1000a6c:	e0bff715 	stw	r2,-36(fp)
 1000a70:	e0bff804 	addi	r2,fp,-32
 1000a74:	e0ffef04 	addi	r3,fp,-68
 1000a78:	10c00015 	stw	r3,0(r2)
 1000a7c:	00c04034 	movhi	r3,256
 1000a80:	18c2cb04 	addi	r3,r3,2860
 1000a84:	10c00115 	stw	r3,4(r2)
 1000a88:	16c00215 	stw	sp,8(r2)
 1000a8c:	e13ff004 	addi	r4,fp,-64
 1000a90:	10026440 	call	1002644 <_Unwind_SjLj_Register>
	SerialHandler *serial = new SerialHandler();
 1000a94:	00bfffc4 	movi	r2,-1
 1000a98:	e0bff115 	stw	r2,-60(fp)
 1000a9c:	01000104 	movi	r4,4
 1000aa0:	10023fc0 	call	10023fc <_Znwm>
 1000aa4:	e0bffe15 	stw	r2,-8(fp)
 1000aa8:	00800044 	movi	r2,1
 1000aac:	e0bff115 	stw	r2,-60(fp)
 1000ab0:	e13ffe17 	ldw	r4,-8(fp)
 1000ab4:	10002380 	call	1000238 <_ZN13SerialHandlerC1Ev>
 1000ab8:	e0bffe17 	ldw	r2,-8(fp)
 1000abc:	e0bfef15 	stw	r2,-68(fp)
	//motor 1
	serial->sendByteMC(SERIAL_START_BYTE);
 1000ac0:	00bfffc4 	movi	r2,-1
 1000ac4:	e0bff115 	stw	r2,-60(fp)
 1000ac8:	e13fef17 	ldw	r4,-68(fp)
 1000acc:	017fe004 	movi	r5,-128
 1000ad0:	10002dc0 	call	10002dc <_ZN13SerialHandler10sendByteMCEc>
	serial->sendByteMC(SERIAL_DEVICE_TYPE);
 1000ad4:	e13fef17 	ldw	r4,-68(fp)
 1000ad8:	000b883a 	mov	r5,zero
 1000adc:	10002dc0 	call	10002dc <_ZN13SerialHandler10sendByteMCEc>
	serial->sendByteMC(SERIAL_MOTOR2_FORWARD);
 1000ae0:	e13fef17 	ldw	r4,-68(fp)
 1000ae4:	01400144 	movi	r5,5
 1000ae8:	10002dc0 	call	10002dc <_ZN13SerialHandler10sendByteMCEc>
	serial->sendByteMC(SERIAL_CONST_SPEED);
 1000aec:	e13fef17 	ldw	r4,-68(fp)
 1000af0:	014017c4 	movi	r5,95
 1000af4:	10002dc0 	call	10002dc <_ZN13SerialHandler10sendByteMCEc>
	//motor 2
	serial->sendByteMC(SERIAL_START_BYTE);
 1000af8:	e13fef17 	ldw	r4,-68(fp)
 1000afc:	017fe004 	movi	r5,-128
 1000b00:	10002dc0 	call	10002dc <_ZN13SerialHandler10sendByteMCEc>
	serial->sendByteMC(SERIAL_DEVICE_TYPE);
 1000b04:	e13fef17 	ldw	r4,-68(fp)
 1000b08:	000b883a 	mov	r5,zero
 1000b0c:	10002dc0 	call	10002dc <_ZN13SerialHandler10sendByteMCEc>
	serial->sendByteMC(SERIAL_MOTOR3_FORWARD);
 1000b10:	e13fef17 	ldw	r4,-68(fp)
 1000b14:	014001c4 	movi	r5,7
 1000b18:	10002dc0 	call	10002dc <_ZN13SerialHandler10sendByteMCEc>
	serial->sendByteMC(SERIAL_CONST_SPEED);
 1000b1c:	e13fef17 	ldw	r4,-68(fp)
 1000b20:	014017c4 	movi	r5,95
 1000b24:	10002dc0 	call	10002dc <_ZN13SerialHandler10sendByteMCEc>

}
 1000b28:	00000d06 	br	1000b60 <_Z10mc_forwardv+0x138>
 1000b2c:	e7001104 	addi	fp,fp,68
 1000b30:	e0fff217 	ldw	r3,-56(fp)
 1000b34:	e0ffff15 	stw	r3,-4(fp)
 1000b38:	e0bfff17 	ldw	r2,-4(fp)
 1000b3c:	e0bffd15 	stw	r2,-12(fp)
}
/*
 * Moves the rover forward enabling equal drive strength on both motors
 */
void mc_forward(){
	SerialHandler *serial = new SerialHandler();
 1000b40:	e13ffe17 	ldw	r4,-8(fp)
 1000b44:	1001f140 	call	1001f14 <_ZdlPv>
 1000b48:	e0fffd17 	ldw	r3,-12(fp)
 1000b4c:	e0ffff15 	stw	r3,-4(fp)
 1000b50:	00bfffc4 	movi	r2,-1
 1000b54:	e0bff115 	stw	r2,-60(fp)
 1000b58:	e13fff17 	ldw	r4,-4(fp)
 1000b5c:	10029100 	call	1002910 <_Unwind_SjLj_Resume>
 1000b60:	e13ff004 	addi	r4,fp,-64
 1000b64:	10026540 	call	1002654 <_Unwind_SjLj_Unregister>
	serial->sendByteMC(SERIAL_START_BYTE);
	serial->sendByteMC(SERIAL_DEVICE_TYPE);
	serial->sendByteMC(SERIAL_MOTOR3_FORWARD);
	serial->sendByteMC(SERIAL_CONST_SPEED);

}
 1000b68:	e037883a 	mov	sp,fp
 1000b6c:	dfc00917 	ldw	ra,36(sp)
 1000b70:	df000817 	ldw	fp,32(sp)
 1000b74:	ddc00717 	ldw	r23,28(sp)
 1000b78:	dd800617 	ldw	r22,24(sp)
 1000b7c:	dd400517 	ldw	r21,20(sp)
 1000b80:	dd000417 	ldw	r20,16(sp)
 1000b84:	dcc00317 	ldw	r19,12(sp)
 1000b88:	dc800217 	ldw	r18,8(sp)
 1000b8c:	dc400117 	ldw	r17,4(sp)
 1000b90:	dc000017 	ldw	r16,0(sp)
 1000b94:	dec00a04 	addi	sp,sp,40
 1000b98:	f800283a 	ret

01000b9c <_Z7mc_taskPv>:
	serial->sendByteMC(SERIAL_MOTOR3_FORWARD);
	serial->sendByteMC(SERIAL_CONST_SPEED);
}

//====MotorContoller
void mc_task(void *pdata)
 1000b9c:	defffd04 	addi	sp,sp,-12
 1000ba0:	dfc00215 	stw	ra,8(sp)
 1000ba4:	df000115 	stw	fp,4(sp)
 1000ba8:	df000104 	addi	fp,sp,4
 1000bac:	e13fff15 	stw	r4,-4(fp)
{
	printf("Started Motor task\n");
 1000bb0:	010040b4 	movhi	r4,258
 1000bb4:	21235b04 	addi	r4,r4,-29332
 1000bb8:	10034bc0 	call	10034bc <puts>
	//mc_configure();
	while(1){
		mc_forward();
 1000bbc:	1000a280 	call	1000a28 <_Z10mc_forwardv>
//====MotorContoller
void mc_task(void *pdata)
{
	printf("Started Motor task\n");
	//mc_configure();
	while(1){
 1000bc0:	003ffe06 	br	1000bbc <_Z7mc_taskPv+0x20>

01000bc4 <_Z7mc_stopv>:



// ==== MC

void mc_stop(){
 1000bc4:	deffe504 	addi	sp,sp,-108
 1000bc8:	dfc01a15 	stw	ra,104(sp)
 1000bcc:	df001915 	stw	fp,100(sp)
 1000bd0:	ddc01815 	stw	r23,96(sp)
 1000bd4:	dd801715 	stw	r22,92(sp)
 1000bd8:	dd401615 	stw	r21,88(sp)
 1000bdc:	dd001515 	stw	r20,84(sp)
 1000be0:	dcc01415 	stw	r19,80(sp)
 1000be4:	dc801315 	stw	r18,76(sp)
 1000be8:	dc401215 	stw	r17,72(sp)
 1000bec:	dc001115 	stw	r16,68(sp)
 1000bf0:	df001104 	addi	fp,sp,68
 1000bf4:	00804034 	movhi	r2,256
 1000bf8:	1085d104 	addi	r2,r2,5956
 1000bfc:	e0bff615 	stw	r2,-40(fp)
 1000c00:	008040b4 	movhi	r2,258
 1000c04:	10a33704 	addi	r2,r2,-29476
 1000c08:	e0bff715 	stw	r2,-36(fp)
 1000c0c:	e0bff804 	addi	r2,fp,-32
 1000c10:	e0ffef04 	addi	r3,fp,-68
 1000c14:	10c00015 	stw	r3,0(r2)
 1000c18:	00c04034 	movhi	r3,256
 1000c1c:	18c33204 	addi	r3,r3,3272
 1000c20:	10c00115 	stw	r3,4(r2)
 1000c24:	16c00215 	stw	sp,8(r2)
 1000c28:	e13ff004 	addi	r4,fp,-64
 1000c2c:	10026440 	call	1002644 <_Unwind_SjLj_Register>
	SerialHandler *serial = new SerialHandler();
 1000c30:	00bfffc4 	movi	r2,-1
 1000c34:	e0bff115 	stw	r2,-60(fp)
 1000c38:	01000104 	movi	r4,4
 1000c3c:	10023fc0 	call	10023fc <_Znwm>
 1000c40:	e0bffe15 	stw	r2,-8(fp)
 1000c44:	00800044 	movi	r2,1
 1000c48:	e0bff115 	stw	r2,-60(fp)
 1000c4c:	e13ffe17 	ldw	r4,-8(fp)
 1000c50:	10002380 	call	1000238 <_ZN13SerialHandlerC1Ev>
 1000c54:	e0bffe17 	ldw	r2,-8(fp)
 1000c58:	e0bfef15 	stw	r2,-68(fp)
	//motor 1
	serial->sendByteMC(SERIAL_START_BYTE);
 1000c5c:	00bfffc4 	movi	r2,-1
 1000c60:	e0bff115 	stw	r2,-60(fp)
 1000c64:	e13fef17 	ldw	r4,-68(fp)
 1000c68:	017fe004 	movi	r5,-128
 1000c6c:	10002dc0 	call	10002dc <_ZN13SerialHandler10sendByteMCEc>
	serial->sendByteMC(SERIAL_DEVICE_TYPE);
 1000c70:	e13fef17 	ldw	r4,-68(fp)
 1000c74:	000b883a 	mov	r5,zero
 1000c78:	10002dc0 	call	10002dc <_ZN13SerialHandler10sendByteMCEc>
	serial->sendByteMC(SERIAL_MOTOR2_FORWARD);
 1000c7c:	e13fef17 	ldw	r4,-68(fp)
 1000c80:	01400144 	movi	r5,5
 1000c84:	10002dc0 	call	10002dc <_ZN13SerialHandler10sendByteMCEc>
	serial->sendByteMC(SERIAL_STOP_SPEED);
 1000c88:	e13fef17 	ldw	r4,-68(fp)
 1000c8c:	000b883a 	mov	r5,zero
 1000c90:	10002dc0 	call	10002dc <_ZN13SerialHandler10sendByteMCEc>
	//motor 2
	serial->sendByteMC(SERIAL_START_BYTE);
 1000c94:	e13fef17 	ldw	r4,-68(fp)
 1000c98:	017fe004 	movi	r5,-128
 1000c9c:	10002dc0 	call	10002dc <_ZN13SerialHandler10sendByteMCEc>
	serial->sendByteMC(SERIAL_DEVICE_TYPE);
 1000ca0:	e13fef17 	ldw	r4,-68(fp)
 1000ca4:	000b883a 	mov	r5,zero
 1000ca8:	10002dc0 	call	10002dc <_ZN13SerialHandler10sendByteMCEc>
	serial->sendByteMC(SERIAL_MOTOR3_FORWARD);
 1000cac:	e13fef17 	ldw	r4,-68(fp)
 1000cb0:	014001c4 	movi	r5,7
 1000cb4:	10002dc0 	call	10002dc <_ZN13SerialHandler10sendByteMCEc>
	serial->sendByteMC(SERIAL_STOP_SPEED);
 1000cb8:	e13fef17 	ldw	r4,-68(fp)
 1000cbc:	000b883a 	mov	r5,zero
 1000cc0:	10002dc0 	call	10002dc <_ZN13SerialHandler10sendByteMCEc>
}
 1000cc4:	00000d06 	br	1000cfc <_Z7mc_stopv+0x138>
 1000cc8:	e7001104 	addi	fp,fp,68
 1000ccc:	e0fff217 	ldw	r3,-56(fp)
 1000cd0:	e0ffff15 	stw	r3,-4(fp)
 1000cd4:	e0bfff17 	ldw	r2,-4(fp)
 1000cd8:	e0bffd15 	stw	r2,-12(fp)


// ==== MC

void mc_stop(){
	SerialHandler *serial = new SerialHandler();
 1000cdc:	e13ffe17 	ldw	r4,-8(fp)
 1000ce0:	1001f140 	call	1001f14 <_ZdlPv>
 1000ce4:	e0fffd17 	ldw	r3,-12(fp)
 1000ce8:	e0ffff15 	stw	r3,-4(fp)
 1000cec:	00bfffc4 	movi	r2,-1
 1000cf0:	e0bff115 	stw	r2,-60(fp)
 1000cf4:	e13fff17 	ldw	r4,-4(fp)
 1000cf8:	10029100 	call	1002910 <_Unwind_SjLj_Resume>
 1000cfc:	e13ff004 	addi	r4,fp,-64
 1000d00:	10026540 	call	1002654 <_Unwind_SjLj_Unregister>
	//motor 2
	serial->sendByteMC(SERIAL_START_BYTE);
	serial->sendByteMC(SERIAL_DEVICE_TYPE);
	serial->sendByteMC(SERIAL_MOTOR3_FORWARD);
	serial->sendByteMC(SERIAL_STOP_SPEED);
}
 1000d04:	e037883a 	mov	sp,fp
 1000d08:	dfc00917 	ldw	ra,36(sp)
 1000d0c:	df000817 	ldw	fp,32(sp)
 1000d10:	ddc00717 	ldw	r23,28(sp)
 1000d14:	dd800617 	ldw	r22,24(sp)
 1000d18:	dd400517 	ldw	r21,20(sp)
 1000d1c:	dd000417 	ldw	r20,16(sp)
 1000d20:	dcc00317 	ldw	r19,12(sp)
 1000d24:	dc800217 	ldw	r18,8(sp)
 1000d28:	dc400117 	ldw	r17,4(sp)
 1000d2c:	dc000017 	ldw	r16,0(sp)
 1000d30:	dec00a04 	addi	sp,sp,40
 1000d34:	f800283a 	ret

01000d38 <_Z9wifi_readv>:
	for (i = 0; i < length; i++) {
		IOWR_ALTERA_AVALON_UART_TXDATA(UART_WIFI_BASE, message[i]);
	}
}

void wifi_read() {
 1000d38:	defffd04 	addi	sp,sp,-12
 1000d3c:	dfc00215 	stw	ra,8(sp)
 1000d40:	df000115 	stw	fp,4(sp)
 1000d44:	df000104 	addi	fp,sp,4
	//int status = IORD_ALTERA_AVALON_UART_STATUS(UART_WIFI_BASE);
	//printf("Wifi status: %d\n", status);
	char c = IORD_ALTERA_AVALON_UART_RXDATA(UART_WIFI_BASE);
 1000d48:	00808034 	movhi	r2,512
 1000d4c:	10841004 	addi	r2,r2,4160
 1000d50:	10800037 	ldwio	r2,0(r2)
 1000d54:	e0bfff05 	stb	r2,-4(fp)

		printf("Wifi: %c   NE\n", c);
 1000d58:	e17fff07 	ldb	r5,-4(fp)
 1000d5c:	010040b4 	movhi	r4,258
 1000d60:	21236004 	addi	r4,r4,-29312
 1000d64:	10033a40 	call	10033a4 <printf>
}
 1000d68:	e037883a 	mov	sp,fp
 1000d6c:	dfc00117 	ldw	ra,4(sp)
 1000d70:	df000017 	ldw	fp,0(sp)
 1000d74:	dec00204 	addi	sp,sp,8
 1000d78:	f800283a 	ret

01000d7c <_Z9wifi_waitv>:

// ==== WIFI

#define WIFI_GUARD_TIME 1

void wifi_wait() {
 1000d7c:	defffe04 	addi	sp,sp,-8
 1000d80:	dfc00115 	stw	ra,4(sp)
 1000d84:	df000015 	stw	fp,0(sp)
 1000d88:	d839883a 	mov	fp,sp
	OSTimeDlyHMSM(0, 0, WIFI_GUARD_TIME, 0);
 1000d8c:	0009883a 	mov	r4,zero
 1000d90:	000b883a 	mov	r5,zero
 1000d94:	01800044 	movi	r6,1
 1000d98:	000f883a 	mov	r7,zero
 1000d9c:	10157b40 	call	10157b4 <OSTimeDlyHMSM>
}
 1000da0:	e037883a 	mov	sp,fp
 1000da4:	dfc00117 	ldw	ra,4(sp)
 1000da8:	df000017 	ldw	fp,0(sp)
 1000dac:	dec00204 	addi	sp,sp,8
 1000db0:	f800283a 	ret

01000db4 <_Z9wifi_taskPv>:
	char c = IORD_ALTERA_AVALON_UART_RXDATA(UART_WIFI_BASE);

		printf("Wifi: %c   NE\n", c);
}

void wifi_task(void *pdata)
 1000db4:	defffd04 	addi	sp,sp,-12
 1000db8:	dfc00215 	stw	ra,8(sp)
 1000dbc:	df000115 	stw	fp,4(sp)
 1000dc0:	df000104 	addi	fp,sp,4
 1000dc4:	e13fff15 	stw	r4,-4(fp)
{
	printf("Started wifi task\n");
 1000dc8:	010040b4 	movhi	r4,258
 1000dcc:	21236404 	addi	r4,r4,-29296
 1000dd0:	10034bc0 	call	10034bc <puts>
	wifi_write("X", 1);
 1000dd4:	010040b4 	movhi	r4,258
 1000dd8:	21236904 	addi	r4,r4,-29276
 1000ddc:	01400044 	movi	r5,1
 1000de0:	10004000 	call	1000400 <_Z10wifi_writePci>
	wifi_wait();
 1000de4:	1000d7c0 	call	1000d7c <_Z9wifi_waitv>
	wifi_write("+++", 3);
 1000de8:	010040b4 	movhi	r4,258
 1000dec:	21236a04 	addi	r4,r4,-29272
 1000df0:	014000c4 	movi	r5,3
 1000df4:	10004000 	call	1000400 <_Z10wifi_writePci>
	wifi_wait();
 1000df8:	1000d7c0 	call	1000d7c <_Z9wifi_waitv>
	wifi_read();
 1000dfc:	1000d380 	call	1000d38 <_Z9wifi_readv>
	wifi_wait();
 1000e00:	1000d7c0 	call	1000d7c <_Z9wifi_waitv>
	while(1){
		wifi_read();
 1000e04:	1000d380 	call	1000d38 <_Z9wifi_readv>
		wifi_wait();
 1000e08:	1000d7c0 	call	1000d7c <_Z9wifi_waitv>
	wifi_wait();
	wifi_write("+++", 3);
	wifi_wait();
	wifi_read();
	wifi_wait();
	while(1){
 1000e0c:	003ffd06 	br	1000e04 <_Z9wifi_taskPv+0x50>

01000e10 <_Z7ir_taskPv>:
	// Mask to mark the end of the ISR.
	IOWR_ALTERA_AVALON_PIO_EDGE_CAP(PIO_KEY_LEFT_BASE, PIO_KEY_LEFT_BIT_CLEARING_EDGE_REGISTER);
}

/* Controllers the IR emitter based on the value of the pushbutton. */
void ir_task(void* pdata)
 1000e10:	defffb04 	addi	sp,sp,-20
 1000e14:	dfc00415 	stw	ra,16(sp)
 1000e18:	df000315 	stw	fp,12(sp)
 1000e1c:	df000304 	addi	fp,sp,12
 1000e20:	e13fff15 	stw	r4,-4(fp)
 1000e24:	00000006 	br	1000e28 <_Z7ir_taskPv+0x18>
{
	INT8U err;
	while (1)
	{
		// Read the value from the queue.
		int status = IR_QUEUE_RECEIVE_BASE - (int)OSQPend(ir_queue, WAIT_FOREVER, &err);
 1000e28:	d1276217 	ldw	r4,-25208(gp)
 1000e2c:	e1bffe04 	addi	r6,fp,-8
 1000e30:	000b883a 	mov	r5,zero
 1000e34:	101245c0 	call	101245c <OSQPend>
 1000e38:	1007883a 	mov	r3,r2
 1000e3c:	00800084 	movi	r2,2
 1000e40:	10c5c83a 	sub	r2,r2,r3
 1000e44:	e0bffd15 	stw	r2,-12(fp)
		if (err == OS_NO_ERR) {
 1000e48:	e0bffe03 	ldbu	r2,-8(fp)
 1000e4c:	10803fcc 	andi	r2,r2,255
 1000e50:	1004c03a 	cmpne	r2,r2,zero
 1000e54:	103ff41e 	bne	r2,zero,1000e28 <_Z7ir_taskPv+0x18>
			// Print the result and send it to the emitter.
			printf("IR: %d\n", status);
 1000e58:	010040b4 	movhi	r4,258
 1000e5c:	21236b04 	addi	r4,r4,-29268
 1000e60:	e17ffd17 	ldw	r5,-12(fp)
 1000e64:	10033a40 	call	10033a4 <printf>
			IOWR_ALTERA_AVALON_PIO_DATA(PIO_IR_EMITTER_BASE, status);
 1000e68:	00c08034 	movhi	r3,512
 1000e6c:	18c42004 	addi	r3,r3,4224
 1000e70:	e0bffd17 	ldw	r2,-12(fp)
 1000e74:	18800035 	stwio	r2,0(r3)

/* Controllers the IR emitter based on the value of the pushbutton. */
void ir_task(void* pdata)
{
	INT8U err;
	while (1)
 1000e78:	003feb06 	br	1000e28 <_Z7ir_taskPv+0x18>

01000e7c <_ZNK10__cxxabiv117__class_type_info11__do_upcastEPKS0_PPv>:
 1000e7c:	20c00017 	ldw	r3,0(r4)
 1000e80:	defffa04 	addi	sp,sp,-24
 1000e84:	dc000415 	stw	r16,16(sp)
 1000e88:	1a000617 	ldw	r8,24(r3)
 1000e8c:	3021883a 	mov	r16,r6
 1000e90:	31800017 	ldw	r6,0(r6)
 1000e94:	00800404 	movi	r2,16
 1000e98:	dfc00515 	stw	ra,20(sp)
 1000e9c:	d8800215 	stw	r2,8(sp)
 1000ea0:	d8000015 	stw	zero,0(sp)
 1000ea4:	d8000115 	stw	zero,4(sp)
 1000ea8:	d8000315 	stw	zero,12(sp)
 1000eac:	d80f883a 	mov	r7,sp
 1000eb0:	403ee83a 	callr	r8
 1000eb4:	d8800117 	ldw	r2,4(sp)
 1000eb8:	00c00184 	movi	r3,6
 1000ebc:	0009883a 	mov	r4,zero
 1000ec0:	1080018c 	andi	r2,r2,6
 1000ec4:	10c0031e 	bne	r2,r3,1000ed4 <_ZNK10__cxxabiv117__class_type_info11__do_upcastEPKS0_PPv+0x58>
 1000ec8:	d8800017 	ldw	r2,0(sp)
 1000ecc:	01000044 	movi	r4,1
 1000ed0:	80800015 	stw	r2,0(r16)
 1000ed4:	2005883a 	mov	r2,r4
 1000ed8:	dfc00517 	ldw	ra,20(sp)
 1000edc:	dc000417 	ldw	r16,16(sp)
 1000ee0:	dec00604 	addi	sp,sp,24
 1000ee4:	f800283a 	ret

01000ee8 <_ZNK10__cxxabiv117__class_type_info20__do_find_public_srcElPKvPKS0_S2_>:
 1000ee8:	d8800017 	ldw	r2,0(sp)
 1000eec:	00c00184 	movi	r3,6
 1000ef0:	1180021e 	bne	r2,r6,1000efc <_ZNK10__cxxabiv117__class_type_info20__do_find_public_srcElPKvPKS0_S2_+0x14>
 1000ef4:	1805883a 	mov	r2,r3
 1000ef8:	f800283a 	ret
 1000efc:	00c00044 	movi	r3,1
 1000f00:	1805883a 	mov	r2,r3
 1000f04:	f800283a 	ret

01000f08 <_ZN10__cxxabiv117__class_type_infoD0Ev>:
 1000f08:	defffe04 	addi	sp,sp,-8
 1000f0c:	008040b4 	movhi	r2,258
 1000f10:	10a36f04 	addi	r2,r2,-29252
 1000f14:	dc400015 	stw	r17,0(sp)
 1000f18:	20800015 	stw	r2,0(r4)
 1000f1c:	2023883a 	mov	r17,r4
 1000f20:	dfc00115 	stw	ra,4(sp)
 1000f24:	10022780 	call	1002278 <_ZNSt9type_infoD2Ev>
 1000f28:	8809883a 	mov	r4,r17
 1000f2c:	dfc00117 	ldw	ra,4(sp)
 1000f30:	dc400017 	ldw	r17,0(sp)
 1000f34:	dec00204 	addi	sp,sp,8
 1000f38:	1001f141 	jmpi	1001f14 <_ZdlPv>

01000f3c <_ZN10__cxxabiv117__class_type_infoD1Ev>:
 1000f3c:	008040b4 	movhi	r2,258
 1000f40:	10a36f04 	addi	r2,r2,-29252
 1000f44:	20800015 	stw	r2,0(r4)
 1000f48:	10022781 	jmpi	1002278 <_ZNSt9type_infoD2Ev>

01000f4c <_ZN10__cxxabiv117__class_type_infoD2Ev>:
 1000f4c:	008040b4 	movhi	r2,258
 1000f50:	10a36f04 	addi	r2,r2,-29252
 1000f54:	20800015 	stw	r2,0(r4)
 1000f58:	10022781 	jmpi	1002278 <_ZNSt9type_infoD2Ev>

01000f5c <_ZNK10__cxxabiv117__class_type_info10__do_catchEPKSt9type_infoPPvj>:
 1000f5c:	2811883a 	mov	r8,r5
 1000f60:	20c00117 	ldw	r3,4(r4)
 1000f64:	40800117 	ldw	r2,4(r8)
 1000f68:	deffff04 	addi	sp,sp,-4
 1000f6c:	dfc00015 	stw	ra,0(sp)
 1000f70:	200b883a 	mov	r5,r4
 1000f74:	02400044 	movi	r9,1
 1000f78:	18800426 	beq	r3,r2,1000f8c <_ZNK10__cxxabiv117__class_type_info10__do_catchEPKSt9type_infoPPvj+0x30>
 1000f7c:	008000c4 	movi	r2,3
 1000f80:	4009883a 	mov	r4,r8
 1000f84:	0013883a 	mov	r9,zero
 1000f88:	11c0042e 	bgeu	r2,r7,1000f9c <_ZNK10__cxxabiv117__class_type_info10__do_catchEPKSt9type_infoPPvj+0x40>
 1000f8c:	4805883a 	mov	r2,r9
 1000f90:	dfc00017 	ldw	ra,0(sp)
 1000f94:	dec00104 	addi	sp,sp,4
 1000f98:	f800283a 	ret
 1000f9c:	40800017 	ldw	r2,0(r8)
 1000fa0:	10c00517 	ldw	r3,20(r2)
 1000fa4:	183ee83a 	callr	r3
 1000fa8:	12403fcc 	andi	r9,r2,255
 1000fac:	4805883a 	mov	r2,r9
 1000fb0:	dfc00017 	ldw	ra,0(sp)
 1000fb4:	dec00104 	addi	sp,sp,4
 1000fb8:	f800283a 	ret

01000fbc <_ZNK10__cxxabiv117__class_type_info11__do_upcastEPKS0_PKvRNS0_15__upcast_resultE>:
 1000fbc:	20c00117 	ldw	r3,4(r4)
 1000fc0:	28800117 	ldw	r2,4(r5)
 1000fc4:	0009883a 	mov	r4,zero
 1000fc8:	1880061e 	bne	r3,r2,1000fe4 <_ZNK10__cxxabiv117__class_type_info11__do_upcastEPKS0_PKvRNS0_15__upcast_resultE+0x28>
 1000fcc:	00800184 	movi	r2,6
 1000fd0:	38800115 	stw	r2,4(r7)
 1000fd4:	00800204 	movi	r2,8
 1000fd8:	39800015 	stw	r6,0(r7)
 1000fdc:	38800315 	stw	r2,12(r7)
 1000fe0:	01000044 	movi	r4,1
 1000fe4:	2005883a 	mov	r2,r4
 1000fe8:	f800283a 	ret

01000fec <_ZNK10__cxxabiv117__class_type_info12__do_dyncastElNS0_10__sub_kindEPKS0_PKvS3_S5_RNS0_16__dyncast_resultE>:
 1000fec:	da000017 	ldw	r8,0(sp)
 1000ff0:	d8800217 	ldw	r2,8(sp)
 1000ff4:	d9400317 	ldw	r5,12(sp)
 1000ff8:	40800926 	beq	r8,r2,1001020 <_ZNK10__cxxabiv117__class_type_info12__do_dyncastElNS0_10__sub_kindEPKS0_PKvS3_S5_RNS0_16__dyncast_resultE+0x34>
 1000ffc:	21000117 	ldw	r4,4(r4)
 1001000:	38800117 	ldw	r2,4(r7)
 1001004:	2080041e 	bne	r4,r2,1001018 <_ZNK10__cxxabiv117__class_type_info12__do_dyncastElNS0_10__sub_kindEPKS0_PKvS3_S5_RNS0_16__dyncast_resultE+0x2c>
 1001008:	00800044 	movi	r2,1
 100100c:	28800315 	stw	r2,12(r5)
 1001010:	2a000015 	stw	r8,0(r5)
 1001014:	29800115 	stw	r6,4(r5)
 1001018:	0005883a 	mov	r2,zero
 100101c:	f800283a 	ret
 1001020:	d8800117 	ldw	r2,4(sp)
 1001024:	21000117 	ldw	r4,4(r4)
 1001028:	10c00117 	ldw	r3,4(r2)
 100102c:	20fff41e 	bne	r4,r3,1001000 <_ZNK10__cxxabiv117__class_type_info12__do_dyncastElNS0_10__sub_kindEPKS0_PKvS3_S5_RNS0_16__dyncast_resultE+0x14>
 1001030:	29800215 	stw	r6,8(r5)
 1001034:	003ff806 	br	1001018 <_ZNK10__cxxabiv117__class_type_info12__do_dyncastElNS0_10__sub_kindEPKS0_PKvS3_S5_RNS0_16__dyncast_resultE+0x2c>

01001038 <_Z12read_uleb128PKhPj>:
 1001038:	000d883a 	mov	r6,zero
 100103c:	000f883a 	mov	r7,zero
 1001040:	20c00007 	ldb	r3,0(r4)
 1001044:	21000044 	addi	r4,r4,1
 1001048:	18801fcc 	andi	r2,r3,127
 100104c:	1184983a 	sll	r2,r2,r6
 1001050:	318001c4 	addi	r6,r6,7
 1001054:	388eb03a 	or	r7,r7,r2
 1001058:	183ff916 	blt	r3,zero,1001040 <_Z12read_uleb128PKhPj+0x8>
 100105c:	2005883a 	mov	r2,r4
 1001060:	29c00015 	stw	r7,0(r5)
 1001064:	f800283a 	ret

01001068 <_Z12read_sleb128PKhPi>:
 1001068:	000f883a 	mov	r7,zero
 100106c:	0011883a 	mov	r8,zero
 1001070:	20c00007 	ldb	r3,0(r4)
 1001074:	21000044 	addi	r4,r4,1
 1001078:	19803fcc 	andi	r6,r3,255
 100107c:	30801fcc 	andi	r2,r6,127
 1001080:	11c4983a 	sll	r2,r2,r7
 1001084:	39c001c4 	addi	r7,r7,7
 1001088:	4090b03a 	or	r8,r8,r2
 100108c:	183ff816 	blt	r3,zero,1001070 <_Z12read_sleb128PKhPi+0x8>
 1001090:	008007c4 	movi	r2,31
 1001094:	11c00636 	bltu	r2,r7,10010b0 <_Z12read_sleb128PKhPi+0x48>
 1001098:	3080100c 	andi	r2,r6,64
 100109c:	10000426 	beq	r2,zero,10010b0 <_Z12read_sleb128PKhPi+0x48>
 10010a0:	00800044 	movi	r2,1
 10010a4:	11c4983a 	sll	r2,r2,r7
 10010a8:	0085c83a 	sub	r2,zero,r2
 10010ac:	4090b03a 	or	r8,r8,r2
 10010b0:	2005883a 	mov	r2,r4
 10010b4:	2a000015 	stw	r8,0(r5)
 10010b8:	f800283a 	ret

010010bc <_Z16get_adjusted_ptrPKSt9type_infoS1_PPv>:
 10010bc:	28800017 	ldw	r2,0(r5)
 10010c0:	defffb04 	addi	sp,sp,-20
 10010c4:	30c00017 	ldw	r3,0(r6)
 10010c8:	dc400215 	stw	r17,8(sp)
 10010cc:	2823883a 	mov	r17,r5
 10010d0:	11400217 	ldw	r5,8(r2)
 10010d4:	dc800315 	stw	r18,12(sp)
 10010d8:	dc000115 	stw	r16,4(sp)
 10010dc:	dfc00415 	stw	ra,16(sp)
 10010e0:	2021883a 	mov	r16,r4
 10010e4:	d8c00015 	stw	r3,0(sp)
 10010e8:	8809883a 	mov	r4,r17
 10010ec:	3025883a 	mov	r18,r6
 10010f0:	283ee83a 	callr	r5
 10010f4:	10803fcc 	andi	r2,r2,255
 10010f8:	880b883a 	mov	r5,r17
 10010fc:	8009883a 	mov	r4,r16
 1001100:	d80d883a 	mov	r6,sp
 1001104:	01c00044 	movi	r7,1
 1001108:	10000326 	beq	r2,zero,1001118 <_Z16get_adjusted_ptrPKSt9type_infoS1_PPv+0x5c>
 100110c:	d8800017 	ldw	r2,0(sp)
 1001110:	10c00017 	ldw	r3,0(r2)
 1001114:	d8c00015 	stw	r3,0(sp)
 1001118:	80800017 	ldw	r2,0(r16)
 100111c:	10c00417 	ldw	r3,16(r2)
 1001120:	183ee83a 	callr	r3
 1001124:	10803fcc 	andi	r2,r2,255
 1001128:	0007883a 	mov	r3,zero
 100112c:	10000326 	beq	r2,zero,100113c <_Z16get_adjusted_ptrPKSt9type_infoS1_PPv+0x80>
 1001130:	d8800017 	ldw	r2,0(sp)
 1001134:	00c00044 	movi	r3,1
 1001138:	90800015 	stw	r2,0(r18)
 100113c:	1805883a 	mov	r2,r3
 1001140:	dfc00417 	ldw	ra,16(sp)
 1001144:	dc800317 	ldw	r18,12(sp)
 1001148:	dc400217 	ldw	r17,8(sp)
 100114c:	dc000117 	ldw	r16,4(sp)
 1001150:	dec00504 	addi	sp,sp,20
 1001154:	f800283a 	ret

01001158 <_Z28read_encoded_value_with_basehjPKhPj>:
 1001158:	defff904 	addi	sp,sp,-28
 100115c:	dc400215 	stw	r17,8(sp)
 1001160:	00801404 	movi	r2,80
 1001164:	24403fcc 	andi	r17,r4,255
 1001168:	dd000515 	stw	r20,20(sp)
 100116c:	dcc00415 	stw	r19,16(sp)
 1001170:	dc800315 	stw	r18,12(sp)
 1001174:	dc000115 	stw	r16,4(sp)
 1001178:	dfc00615 	stw	ra,24(sp)
 100117c:	2025883a 	mov	r18,r4
 1001180:	2829883a 	mov	r20,r5
 1001184:	3021883a 	mov	r16,r6
 1001188:	3827883a 	mov	r19,r7
 100118c:	88801826 	beq	r17,r2,10011f0 <_Z28read_encoded_value_with_basehjPKhPj+0x98>
 1001190:	88c003cc 	andi	r3,r17,15
 1001194:	00800304 	movi	r2,12
 1001198:	10c0012e 	bgeu	r2,r3,10011a0 <_Z28read_encoded_value_with_basehjPKhPj+0x48>
 100119c:	1002b8c0 	call	1002b8c <abort>
 10011a0:	18c5883a 	add	r2,r3,r3
 10011a4:	1085883a 	add	r2,r2,r2
 10011a8:	00c04034 	movhi	r3,256
 10011ac:	18c46f04 	addi	r3,r3,4540
 10011b0:	10c5883a 	add	r2,r2,r3
 10011b4:	11000017 	ldw	r4,0(r2)
 10011b8:	2000683a 	jmp	r4
 10011bc:	0100122c 	andhi	r4,zero,72
 10011c0:	01001314 	movui	r4,76
 10011c4:	010012c0 	call	10012c <OSCtxSw_SWITCH_PC+0x1000ec>
 10011c8:	0100122c 	andhi	r4,zero,72
 10011cc:	01001284 	movi	r4,74
 10011d0:	0100119c 	xori	r4,zero,70
 10011d4:	0100119c 	xori	r4,zero,70
 10011d8:	0100119c 	xori	r4,zero,70
 10011dc:	0100119c 	xori	r4,zero,70
 10011e0:	010012fc 	xorhi	r4,zero,75
 10011e4:	010012d8 	cmpnei	r4,zero,75
 10011e8:	0100122c 	andhi	r4,zero,72
 10011ec:	01001284 	movi	r4,74
 10011f0:	308000c4 	addi	r2,r6,3
 10011f4:	00ffff04 	movi	r3,-4
 10011f8:	10c4703a 	and	r2,r2,r3
 10011fc:	11000017 	ldw	r4,0(r2)
 1001200:	11400104 	addi	r5,r2,4
 1001204:	2805883a 	mov	r2,r5
 1001208:	99000015 	stw	r4,0(r19)
 100120c:	dfc00617 	ldw	ra,24(sp)
 1001210:	dd000517 	ldw	r20,20(sp)
 1001214:	dcc00417 	ldw	r19,16(sp)
 1001218:	dc800317 	ldw	r18,12(sp)
 100121c:	dc400217 	ldw	r17,8(sp)
 1001220:	dc000117 	ldw	r16,4(sp)
 1001224:	dec00704 	addi	sp,sp,28
 1001228:	f800283a 	ret
 100122c:	30800043 	ldbu	r2,1(r6)
 1001230:	30c00083 	ldbu	r3,2(r6)
 1001234:	310000c3 	ldbu	r4,3(r6)
 1001238:	31400003 	ldbu	r5,0(r6)
 100123c:	1004923a 	slli	r2,r2,8
 1001240:	1806943a 	slli	r3,r3,16
 1001244:	2008963a 	slli	r4,r4,24
 1001248:	1144b03a 	or	r2,r2,r5
 100124c:	1886b03a 	or	r3,r3,r2
 1001250:	20c8b03a 	or	r4,r4,r3
 1001254:	31400104 	addi	r5,r6,4
 1001258:	203fea26 	beq	r4,zero,1001204 <_Z28read_encoded_value_with_basehjPKhPj+0xac>
 100125c:	88c01c0c 	andi	r3,r17,112
 1001260:	00800404 	movi	r2,16
 1001264:	18801426 	beq	r3,r2,10012b8 <_Z28read_encoded_value_with_basehjPKhPj+0x160>
 1001268:	90803fcc 	andi	r2,r18,255
 100126c:	1080201c 	xori	r2,r2,128
 1001270:	10bfe004 	addi	r2,r2,-128
 1001274:	2509883a 	add	r4,r4,r20
 1001278:	103fe20e 	bge	r2,zero,1001204 <_Z28read_encoded_value_with_basehjPKhPj+0xac>
 100127c:	21000017 	ldw	r4,0(r4)
 1001280:	003fe006 	br	1001204 <_Z28read_encoded_value_with_basehjPKhPj+0xac>
 1001284:	30800043 	ldbu	r2,1(r6)
 1001288:	31800083 	ldbu	r6,2(r6)
 100128c:	820000c3 	ldbu	r8,3(r16)
 1001290:	1004923a 	slli	r2,r2,8
 1001294:	82400003 	ldbu	r9,0(r16)
 1001298:	300c943a 	slli	r6,r6,16
 100129c:	4010963a 	slli	r8,r8,24
 10012a0:	1244b03a 	or	r2,r2,r9
 10012a4:	308cb03a 	or	r6,r6,r2
 10012a8:	4184b03a 	or	r2,r8,r6
 10012ac:	1009883a 	mov	r4,r2
 10012b0:	81400204 	addi	r5,r16,8
 10012b4:	003fe806 	br	1001258 <_Z28read_encoded_value_with_basehjPKhPj+0x100>
 10012b8:	8029883a 	mov	r20,r16
 10012bc:	003fea06 	br	1001268 <_Z28read_encoded_value_with_basehjPKhPj+0x110>
 10012c0:	30800043 	ldbu	r2,1(r6)
 10012c4:	30c00003 	ldbu	r3,0(r6)
 10012c8:	31400084 	addi	r5,r6,2
 10012cc:	1004923a 	slli	r2,r2,8
 10012d0:	10c8b03a 	or	r4,r2,r3
 10012d4:	003fe006 	br	1001258 <_Z28read_encoded_value_with_basehjPKhPj+0x100>
 10012d8:	30800043 	ldbu	r2,1(r6)
 10012dc:	30c00003 	ldbu	r3,0(r6)
 10012e0:	31400084 	addi	r5,r6,2
 10012e4:	1004923a 	slli	r2,r2,8
 10012e8:	10c4b03a 	or	r2,r2,r3
 10012ec:	113fffcc 	andi	r4,r2,65535
 10012f0:	2120001c 	xori	r4,r4,32768
 10012f4:	21200004 	addi	r4,r4,-32768
 10012f8:	003fd706 	br	1001258 <_Z28read_encoded_value_with_basehjPKhPj+0x100>
 10012fc:	3009883a 	mov	r4,r6
 1001300:	d80b883a 	mov	r5,sp
 1001304:	10010680 	call	1001068 <_Z12read_sleb128PKhPi>
 1001308:	d9000017 	ldw	r4,0(sp)
 100130c:	100b883a 	mov	r5,r2
 1001310:	003fd106 	br	1001258 <_Z28read_encoded_value_with_basehjPKhPj+0x100>
 1001314:	3009883a 	mov	r4,r6
 1001318:	d80b883a 	mov	r5,sp
 100131c:	10010380 	call	1001038 <_Z12read_uleb128PKhPj>
 1001320:	d9000017 	ldw	r4,0(sp)
 1001324:	100b883a 	mov	r5,r2
 1001328:	003fcb06 	br	1001258 <_Z28read_encoded_value_with_basehjPKhPj+0x100>

0100132c <_Z21base_of_encoded_valuehP15_Unwind_Context>:
 100132c:	deffff04 	addi	sp,sp,-4
 1001330:	21003fcc 	andi	r4,r4,255
 1001334:	00803fc4 	movi	r2,255
 1001338:	dfc00015 	stw	ra,0(sp)
 100133c:	20800c26 	beq	r4,r2,1001370 <_Z21base_of_encoded_valuehP15_Unwind_Context+0x44>
 1001340:	21001c0c 	andi	r4,r4,112
 1001344:	00800804 	movi	r2,32
 1001348:	20800d26 	beq	r4,r2,1001380 <_Z21base_of_encoded_valuehP15_Unwind_Context+0x54>
 100134c:	1100070e 	bge	r2,r4,100136c <_Z21base_of_encoded_valuehP15_Unwind_Context+0x40>
 1001350:	00801004 	movi	r2,64
 1001354:	20801126 	beq	r4,r2,100139c <_Z21base_of_encoded_valuehP15_Unwind_Context+0x70>
 1001358:	00801404 	movi	r2,80
 100135c:	20800426 	beq	r4,r2,1001370 <_Z21base_of_encoded_valuehP15_Unwind_Context+0x44>
 1001360:	00800c04 	movi	r2,48
 1001364:	20801126 	beq	r4,r2,10013ac <_Z21base_of_encoded_valuehP15_Unwind_Context+0x80>
 1001368:	1002b8c0 	call	1002b8c <abort>
 100136c:	2000081e 	bne	r4,zero,1001390 <_Z21base_of_encoded_valuehP15_Unwind_Context+0x64>
 1001370:	0005883a 	mov	r2,zero
 1001374:	dfc00017 	ldw	ra,0(sp)
 1001378:	dec00104 	addi	sp,sp,4
 100137c:	f800283a 	ret
 1001380:	2809883a 	mov	r4,r5
 1001384:	dfc00017 	ldw	ra,0(sp)
 1001388:	dec00104 	addi	sp,sp,4
 100138c:	10026fc1 	jmpi	10026fc <_Unwind_GetTextRelBase>
 1001390:	00800404 	movi	r2,16
 1001394:	20bff626 	beq	r4,r2,1001370 <_Z21base_of_encoded_valuehP15_Unwind_Context+0x44>
 1001398:	1002b8c0 	call	1002b8c <abort>
 100139c:	2809883a 	mov	r4,r5
 10013a0:	dfc00017 	ldw	ra,0(sp)
 10013a4:	dec00104 	addi	sp,sp,4
 10013a8:	10026e41 	jmpi	10026e4 <_Unwind_GetRegionStart>
 10013ac:	2809883a 	mov	r4,r5
 10013b0:	dfc00017 	ldw	ra,0(sp)
 10013b4:	dec00104 	addi	sp,sp,4
 10013b8:	10026f41 	jmpi	10026f4 <_Unwind_GetDataRelBase>

010013bc <_Z17parse_lsda_headerP15_Unwind_ContextPKhP16lsda_header_info>:
 10013bc:	defffa04 	addi	sp,sp,-24
 10013c0:	dc800415 	stw	r18,16(sp)
 10013c4:	dc400315 	stw	r17,12(sp)
 10013c8:	dc000215 	stw	r16,8(sp)
 10013cc:	dfc00515 	stw	ra,20(sp)
 10013d0:	2021883a 	mov	r16,r4
 10013d4:	000f883a 	mov	r7,zero
 10013d8:	3023883a 	mov	r17,r6
 10013dc:	2825883a 	mov	r18,r5
 10013e0:	20000226 	beq	r4,zero,10013ec <_Z17parse_lsda_headerP15_Unwind_ContextPKhP16lsda_header_info+0x30>
 10013e4:	10026e40 	call	10026e4 <_Unwind_GetRegionStart>
 10013e8:	100f883a 	mov	r7,r2
 10013ec:	89c00015 	stw	r7,0(r17)
 10013f0:	90c00003 	ldbu	r3,0(r18)
 10013f4:	800b883a 	mov	r5,r16
 10013f8:	00803fc4 	movi	r2,255
 10013fc:	1c003fcc 	andi	r16,r3,255
 1001400:	91800044 	addi	r6,r18,1
 1001404:	8009883a 	mov	r4,r16
 1001408:	18802226 	beq	r3,r2,1001494 <_Z17parse_lsda_headerP15_Unwind_ContextPKhP16lsda_header_info+0xd8>
 100140c:	d9800115 	stw	r6,4(sp)
 1001410:	100132c0 	call	100132c <_Z21base_of_encoded_valuehP15_Unwind_Context>
 1001414:	d9800117 	ldw	r6,4(sp)
 1001418:	8009883a 	mov	r4,r16
 100141c:	100b883a 	mov	r5,r2
 1001420:	89c00104 	addi	r7,r17,4
 1001424:	10011580 	call	1001158 <_Z28read_encoded_value_with_basehjPKhPj>
 1001428:	100d883a 	mov	r6,r2
 100142c:	30800003 	ldbu	r2,0(r6)
 1001430:	31c00044 	addi	r7,r6,1
 1001434:	00c03fc4 	movi	r3,255
 1001438:	d80b883a 	mov	r5,sp
 100143c:	3809883a 	mov	r4,r7
 1001440:	88800505 	stb	r2,20(r17)
 1001444:	10c01b26 	beq	r2,r3,10014b4 <_Z17parse_lsda_headerP15_Unwind_ContextPKhP16lsda_header_info+0xf8>
 1001448:	10010380 	call	1001038 <_Z12read_uleb128PKhPj>
 100144c:	100f883a 	mov	r7,r2
 1001450:	d8800017 	ldw	r2,0(sp)
 1001454:	3885883a 	add	r2,r7,r2
 1001458:	88800315 	stw	r2,12(r17)
 100145c:	38800003 	ldbu	r2,0(r7)
 1001460:	39000044 	addi	r4,r7,1
 1001464:	d80b883a 	mov	r5,sp
 1001468:	88800545 	stb	r2,21(r17)
 100146c:	10010380 	call	1001038 <_Z12read_uleb128PKhPj>
 1001470:	d8c00017 	ldw	r3,0(sp)
 1001474:	10c9883a 	add	r4,r2,r3
 1001478:	89000415 	stw	r4,16(r17)
 100147c:	dfc00517 	ldw	ra,20(sp)
 1001480:	dc800417 	ldw	r18,16(sp)
 1001484:	dc400317 	ldw	r17,12(sp)
 1001488:	dc000217 	ldw	r16,8(sp)
 100148c:	dec00604 	addi	sp,sp,24
 1001490:	f800283a 	ret
 1001494:	89c00115 	stw	r7,4(r17)
 1001498:	30800003 	ldbu	r2,0(r6)
 100149c:	31c00044 	addi	r7,r6,1
 10014a0:	00c03fc4 	movi	r3,255
 10014a4:	d80b883a 	mov	r5,sp
 10014a8:	3809883a 	mov	r4,r7
 10014ac:	88800505 	stb	r2,20(r17)
 10014b0:	10ffe51e 	bne	r2,r3,1001448 <_Z17parse_lsda_headerP15_Unwind_ContextPKhP16lsda_header_info+0x8c>
 10014b4:	88000315 	stw	zero,12(r17)
 10014b8:	003fe806 	br	100145c <_Z17parse_lsda_headerP15_Unwind_ContextPKhP16lsda_header_info+0xa0>

010014bc <_Z15get_ttype_entryP16lsda_header_infoj>:
 10014bc:	defffe04 	addi	sp,sp,-8
 10014c0:	dfc00115 	stw	ra,4(sp)
 10014c4:	21c00503 	ldbu	r7,20(r4)
 10014c8:	00803fc4 	movi	r2,255
 10014cc:	38801a26 	beq	r7,r2,1001538 <_Z15get_ttype_entryP16lsda_header_infoj+0x7c>
 10014d0:	38c001cc 	andi	r3,r7,7
 10014d4:	00800084 	movi	r2,2
 10014d8:	18801326 	beq	r3,r2,1001528 <_Z15get_ttype_entryP16lsda_header_infoj+0x6c>
 10014dc:	10c0050e 	bge	r2,r3,10014f4 <_Z15get_ttype_entryP16lsda_header_infoj+0x38>
 10014e0:	008000c4 	movi	r2,3
 10014e4:	18800426 	beq	r3,r2,10014f8 <_Z15get_ttype_entryP16lsda_header_infoj+0x3c>
 10014e8:	00800104 	movi	r2,4
 10014ec:	18801026 	beq	r3,r2,1001530 <_Z15get_ttype_entryP16lsda_header_infoj+0x74>
 10014f0:	1002b8c0 	call	1002b8c <abort>
 10014f4:	183ffe1e 	bne	r3,zero,10014f0 <_Z15get_ttype_entryP16lsda_header_infoj+0x34>
 10014f8:	2945883a 	add	r2,r5,r5
 10014fc:	1085883a 	add	r2,r2,r2
 1001500:	21800317 	ldw	r6,12(r4)
 1001504:	21400217 	ldw	r5,8(r4)
 1001508:	3809883a 	mov	r4,r7
 100150c:	308dc83a 	sub	r6,r6,r2
 1001510:	d80f883a 	mov	r7,sp
 1001514:	10011580 	call	1001158 <_Z28read_encoded_value_with_basehjPKhPj>
 1001518:	d8800017 	ldw	r2,0(sp)
 100151c:	dfc00117 	ldw	ra,4(sp)
 1001520:	dec00204 	addi	sp,sp,8
 1001524:	f800283a 	ret
 1001528:	2945883a 	add	r2,r5,r5
 100152c:	003ff406 	br	1001500 <_Z15get_ttype_entryP16lsda_header_infoj+0x44>
 1001530:	280490fa 	slli	r2,r5,3
 1001534:	003ff206 	br	1001500 <_Z15get_ttype_entryP16lsda_header_infoj+0x44>
 1001538:	0005883a 	mov	r2,zero
 100153c:	003ff006 	br	1001500 <_Z15get_ttype_entryP16lsda_header_infoj+0x44>

01001540 <_Z20check_exception_specP16lsda_header_infoPKSt9type_infoPvi>:
 1001540:	20800317 	ldw	r2,12(r4)
 1001544:	defffa04 	addi	sp,sp,-24
 1001548:	dc800415 	stw	r18,16(sp)
 100154c:	11c5c83a 	sub	r2,r2,r7
 1001550:	dc400315 	stw	r17,12(sp)
 1001554:	dc000215 	stw	r16,8(sp)
 1001558:	dfc00515 	stw	ra,20(sp)
 100155c:	2023883a 	mov	r17,r4
 1001560:	d9800115 	stw	r6,4(sp)
 1001564:	2825883a 	mov	r18,r5
 1001568:	143fffc4 	addi	r16,r2,-1
 100156c:	8009883a 	mov	r4,r16
 1001570:	d80b883a 	mov	r5,sp
 1001574:	10010380 	call	1001038 <_Z12read_uleb128PKhPj>
 1001578:	1021883a 	mov	r16,r2
 100157c:	d8800017 	ldw	r2,0(sp)
 1001580:	8809883a 	mov	r4,r17
 1001584:	100b883a 	mov	r5,r2
 1001588:	10000826 	beq	r2,zero,10015ac <_Z20check_exception_specP16lsda_header_infoPKSt9type_infoPvi+0x6c>
 100158c:	10014bc0 	call	10014bc <_Z15get_ttype_entryP16lsda_header_infoj>
 1001590:	1009883a 	mov	r4,r2
 1001594:	900b883a 	mov	r5,r18
 1001598:	d9800104 	addi	r6,sp,4
 100159c:	10010bc0 	call	10010bc <_Z16get_adjusted_ptrPKSt9type_infoS1_PPv>
 10015a0:	10803fcc 	andi	r2,r2,255
 10015a4:	103ff126 	beq	r2,zero,100156c <_Z20check_exception_specP16lsda_header_infoPKSt9type_infoPvi+0x2c>
 10015a8:	00800044 	movi	r2,1
 10015ac:	dfc00517 	ldw	ra,20(sp)
 10015b0:	dc800417 	ldw	r18,16(sp)
 10015b4:	dc400317 	ldw	r17,12(sp)
 10015b8:	dc000217 	ldw	r16,8(sp)
 10015bc:	dec00604 	addi	sp,sp,24
 10015c0:	f800283a 	ret

010015c4 <__cxa_call_unexpected>:
 10015c4:	deffe204 	addi	sp,sp,-120
 10015c8:	00804034 	movhi	r2,256
 10015cc:	1085d104 	addi	r2,r2,5956
 10015d0:	00c040b4 	movhi	r3,258
 10015d4:	18e33904 	addi	r3,r3,-29468
 10015d8:	d8800c15 	stw	r2,48(sp)
 10015dc:	d9001815 	stw	r4,96(sp)
 10015e0:	00804034 	movhi	r2,256
 10015e4:	10859304 	addi	r2,r2,5708
 10015e8:	d9000604 	addi	r4,sp,24
 10015ec:	d8c00d15 	stw	r3,52(sp)
 10015f0:	dfc01d15 	stw	ra,116(sp)
 10015f4:	d8800f15 	stw	r2,60(sp)
 10015f8:	df001c15 	stw	fp,112(sp)
 10015fc:	ddc01b15 	stw	r23,108(sp)
 1001600:	dec00e15 	stw	sp,56(sp)
 1001604:	dec01015 	stw	sp,64(sp)
 1001608:	10026440 	call	1002644 <_Unwind_SjLj_Register>
 100160c:	d9001817 	ldw	r4,96(sp)
 1001610:	1001dfc0 	call	1001dfc <__cxa_begin_catch>
 1001614:	d8801817 	ldw	r2,96(sp)
 1001618:	10fff504 	addi	r3,r2,-44
 100161c:	18800917 	ldw	r2,36(r3)
 1001620:	19400617 	ldw	r5,24(r3)
 1001624:	19000217 	ldw	r4,8(r3)
 1001628:	d8800215 	stw	r2,8(sp)
 100162c:	18800817 	ldw	r2,32(r3)
 1001630:	18c00317 	ldw	r3,12(r3)
 1001634:	d9401615 	stw	r5,88(sp)
 1001638:	d8801715 	stw	r2,92(sp)
 100163c:	00800084 	movi	r2,2
 1001640:	d8c01515 	stw	r3,84(sp)
 1001644:	d8800715 	stw	r2,28(sp)
 1001648:	1001d080 	call	1001d08 <_ZN10__cxxabiv112__unexpectedEPFvvE>
 100164c:	d8800717 	ldw	r2,28(sp)
 1001650:	d8c00817 	ldw	r3,32(sp)
 1001654:	d8801a15 	stw	r2,104(sp)
 1001658:	d9401a17 	ldw	r5,104(sp)
 100165c:	00800044 	movi	r2,1
 1001660:	d8c01915 	stw	r3,100(sp)
 1001664:	28800826 	beq	r5,r2,1001688 <__cxa_call_unexpected+0xc4>
 1001668:	d8000715 	stw	zero,28(sp)
 100166c:	1001d580 	call	1001d58 <__cxa_end_catch>
 1001670:	d8000715 	stw	zero,28(sp)
 1001674:	1001d580 	call	1001d58 <__cxa_end_catch>
 1001678:	d9001917 	ldw	r4,100(sp)
 100167c:	00bfffc4 	movi	r2,-1
 1001680:	d8800715 	stw	r2,28(sp)
 1001684:	10029100 	call	1002910 <_Unwind_SjLj_Resume>
 1001688:	d9001917 	ldw	r4,100(sp)
 100168c:	1001dfc0 	call	1001dfc <__cxa_begin_catch>
 1001690:	10026340 	call	1002634 <__cxa_get_globals_fast>
 1001694:	10800017 	ldw	r2,0(r2)
 1001698:	d8c01a17 	ldw	r3,104(sp)
 100169c:	0009883a 	mov	r4,zero
 10016a0:	11401004 	addi	r5,r2,64
 10016a4:	d9401315 	stw	r5,76(sp)
 10016a8:	d8801415 	stw	r2,80(sp)
 10016ac:	d8c00715 	stw	r3,28(sp)
 10016b0:	d9401717 	ldw	r5,92(sp)
 10016b4:	d80d883a 	mov	r6,sp
 10016b8:	10013bc0 	call	10013bc <_Z17parse_lsda_headerP15_Unwind_ContextPKhP16lsda_header_info>
 10016bc:	d8801417 	ldw	r2,80(sp)
 10016c0:	d809883a 	mov	r4,sp
 10016c4:	d9801317 	ldw	r6,76(sp)
 10016c8:	11400017 	ldw	r5,0(r2)
 10016cc:	d9c01617 	ldw	r7,88(sp)
 10016d0:	10015400 	call	1001540 <_Z20check_exception_specP16lsda_header_infoPKSt9type_infoPvi>
 10016d4:	10803fcc 	andi	r2,r2,255
 10016d8:	1000151e 	bne	r2,zero,1001730 <__cxa_call_unexpected+0x16c>
 10016dc:	d8c01a17 	ldw	r3,104(sp)
 10016e0:	d809883a 	mov	r4,sp
 10016e4:	014040b4 	movhi	r5,258
 10016e8:	2963b704 	addi	r5,r5,-28964
 10016ec:	d8c00715 	stw	r3,28(sp)
 10016f0:	000d883a 	mov	r6,zero
 10016f4:	d9c01617 	ldw	r7,88(sp)
 10016f8:	10015400 	call	1001540 <_Z20check_exception_specP16lsda_header_infoPKSt9type_infoPvi>
 10016fc:	10803fcc 	andi	r2,r2,255
 1001700:	10000c26 	beq	r2,zero,1001734 <__cxa_call_unexpected+0x170>
 1001704:	01000104 	movi	r4,4
 1001708:	10022c80 	call	10022c8 <__cxa_allocate_exception>
 100170c:	1009883a 	mov	r4,r2
 1001710:	008040b4 	movhi	r2,258
 1001714:	10a3aa04 	addi	r2,r2,-29016
 1001718:	20800015 	stw	r2,0(r4)
 100171c:	014040b4 	movhi	r5,258
 1001720:	2963b704 	addi	r5,r5,-28964
 1001724:	01804034 	movhi	r6,256
 1001728:	31895c04 	addi	r6,r6,9584
 100172c:	1001f940 	call	1001f94 <__cxa_throw>
 1001730:	1001f200 	call	1001f20 <__cxa_rethrow>
 1001734:	d9401a17 	ldw	r5,104(sp)
 1001738:	d9001517 	ldw	r4,84(sp)
 100173c:	d9400715 	stw	r5,28(sp)
 1001740:	1001c4c0 	call	1001c4c <_ZN10__cxxabiv111__terminateEPFvvE>

01001744 <__gxx_personality_sj0>:
 1001744:	deffd304 	addi	sp,sp,-180
 1001748:	00804034 	movhi	r2,256
 100174c:	1086f804 	addi	r2,r2,7136
 1001750:	00c040b4 	movhi	r3,258
 1001754:	18e33d04 	addi	r3,r3,-29452
 1001758:	d8801315 	stw	r2,76(sp)
 100175c:	d9002315 	stw	r4,140(sp)
 1001760:	00804034 	movhi	r2,256
 1001764:	1085d104 	addi	r2,r2,5956
 1001768:	d9000a04 	addi	r4,sp,40
 100176c:	d8801015 	stw	r2,64(sp)
 1001770:	d8c01115 	stw	r3,68(sp)
 1001774:	dfc02c15 	stw	ra,176(sp)
 1001778:	df002b15 	stw	fp,172(sp)
 100177c:	ddc02a15 	stw	r23,168(sp)
 1001780:	dec01215 	stw	sp,72(sp)
 1001784:	dec01415 	stw	sp,80(sp)
 1001788:	d9802515 	stw	r6,148(sp)
 100178c:	d9402415 	stw	r5,144(sp)
 1001790:	d9c02615 	stw	r7,152(sp)
 1001794:	10026440 	call	1002644 <_Unwind_SjLj_Register>
 1001798:	d8c02317 	ldw	r3,140(sp)
 100179c:	00800044 	movi	r2,1
 10017a0:	18800a26 	beq	r3,r2,10017cc <__gxx_personality_sj0+0x88>
 10017a4:	010000c4 	movi	r4,3
 10017a8:	d9002215 	stw	r4,136(sp)
 10017ac:	d9000a04 	addi	r4,sp,40
 10017b0:	10026540 	call	1002654 <_Unwind_SjLj_Unregister>
 10017b4:	d8802217 	ldw	r2,136(sp)
 10017b8:	dfc02c17 	ldw	ra,176(sp)
 10017bc:	df002b17 	ldw	fp,172(sp)
 10017c0:	ddc02a17 	ldw	r23,168(sp)
 10017c4:	dec02d04 	addi	sp,sp,180
 10017c8:	f800283a 	ret
 10017cc:	d9402d17 	ldw	r5,180(sp)
 10017d0:	d9002517 	ldw	r4,148(sp)
 10017d4:	0007883a 	mov	r3,zero
 10017d8:	28800504 	addi	r2,r5,20
 10017dc:	d8800015 	stw	r2,0(sp)
 10017e0:	28bff504 	addi	r2,r5,-44
 10017e4:	d8801a15 	stw	r2,104(sp)
 10017e8:	0090caf4 	movhi	r2,17195
 10017ec:	108ac004 	addi	r2,r2,11008
 10017f0:	2080ad26 	beq	r4,r2,1001aa8 <__gxx_personality_sj0+0x364>
 10017f4:	d8c02105 	stb	r3,132(sp)
 10017f8:	d8c02417 	ldw	r3,144(sp)
 10017fc:	00800184 	movi	r2,6
 1001800:	1880281e 	bne	r3,r2,10018a4 <__gxx_personality_sj0+0x160>
 1001804:	d8802103 	ldbu	r2,132(sp)
 1001808:	10002626 	beq	r2,zero,10018a4 <__gxx_personality_sj0+0x160>
 100180c:	d9001a17 	ldw	r4,104(sp)
 1001810:	d9401a17 	ldw	r5,104(sp)
 1001814:	d8801a17 	ldw	r2,104(sp)
 1001818:	21000917 	ldw	r4,36(r4)
 100181c:	29400617 	ldw	r5,24(r5)
 1001820:	10800817 	ldw	r2,32(r2)
 1001824:	d9001d15 	stw	r4,116(sp)
 1001828:	d9401b15 	stw	r5,108(sp)
 100182c:	d8802015 	stw	r2,128(sp)
 1001830:	2000ad1e 	bne	r4,zero,1001ae8 <__gxx_personality_sj0+0x3a4>
 1001834:	01000044 	movi	r4,1
 1001838:	00800044 	movi	r2,1
 100183c:	2080e126 	beq	r4,r2,1001bc4 <__gxx_personality_sj0+0x480>
 1001840:	d8801b17 	ldw	r2,108(sp)
 1001844:	1000d316 	blt	r2,zero,1001b94 <__gxx_personality_sj0+0x450>
 1001848:	d9802d17 	ldw	r6,180(sp)
 100184c:	d9002e17 	ldw	r4,184(sp)
 1001850:	00bfffc4 	movi	r2,-1
 1001854:	000b883a 	mov	r5,zero
 1001858:	d8800b15 	stw	r2,44(sp)
 100185c:	100268c0 	call	100268c <_Unwind_SetGR>
 1001860:	d9801b17 	ldw	r6,108(sp)
 1001864:	d9002e17 	ldw	r4,184(sp)
 1001868:	01400044 	movi	r5,1
 100186c:	100268c0 	call	100268c <_Unwind_SetGR>
 1001870:	d9002e17 	ldw	r4,184(sp)
 1001874:	d9401d17 	ldw	r5,116(sp)
 1001878:	10026c80 	call	10026c8 <_Unwind_SetIP>
 100187c:	010001c4 	movi	r4,7
 1001880:	d9002215 	stw	r4,136(sp)
 1001884:	d9000a04 	addi	r4,sp,40
 1001888:	10026540 	call	1002654 <_Unwind_SjLj_Unregister>
 100188c:	d8802217 	ldw	r2,136(sp)
 1001890:	dfc02c17 	ldw	ra,176(sp)
 1001894:	df002b17 	ldw	fp,172(sp)
 1001898:	ddc02a17 	ldw	r23,168(sp)
 100189c:	dec02d04 	addi	sp,sp,180
 10018a0:	f800283a 	ret
 10018a4:	d9002e17 	ldw	r4,184(sp)
 10018a8:	00ffffc4 	movi	r3,-1
 10018ac:	d8c00b15 	stw	r3,44(sp)
 10018b0:	10026d80 	call	10026d8 <_Unwind_GetLanguageSpecificData>
 10018b4:	10007226 	beq	r2,zero,1001a80 <__gxx_personality_sj0+0x33c>
 10018b8:	d9002e17 	ldw	r4,184(sp)
 10018bc:	d9800404 	addi	r6,sp,16
 10018c0:	100b883a 	mov	r5,r2
 10018c4:	d8802015 	stw	r2,128(sp)
 10018c8:	10013bc0 	call	10013bc <_Z17parse_lsda_headerP15_Unwind_ContextPKhP16lsda_header_info>
 10018cc:	d9000903 	ldbu	r4,36(sp)
 10018d0:	d9402e17 	ldw	r5,184(sp)
 10018d4:	d8801e15 	stw	r2,120(sp)
 10018d8:	100132c0 	call	100132c <_Z21base_of_encoded_valuehP15_Unwind_Context>
 10018dc:	d9002e17 	ldw	r4,184(sp)
 10018e0:	d8800615 	stw	r2,24(sp)
 10018e4:	10026a40 	call	10026a4 <_Unwind_GetIP>
 10018e8:	10bfffc4 	addi	r2,r2,-1
 10018ec:	d8801c15 	stw	r2,112(sp)
 10018f0:	10006316 	blt	r2,zero,1001a80 <__gxx_personality_sj0+0x33c>
 10018f4:	10001b1e 	bne	r2,zero,1001964 <__gxx_personality_sj0+0x220>
 10018f8:	01000044 	movi	r4,1
 10018fc:	d8001f15 	stw	zero,124(sp)
 1001900:	d8001d15 	stw	zero,116(sp)
 1001904:	d8001b15 	stw	zero,108(sp)
 1001908:	d9402417 	ldw	r5,144(sp)
 100190c:	00c00044 	movi	r3,1
 1001910:	28c4703a 	and	r2,r5,r3
 1001914:	1005003a 	cmpeq	r2,r2,zero
 1001918:	10006a1e 	bne	r2,zero,1001ac4 <__gxx_personality_sj0+0x380>
 100191c:	00800084 	movi	r2,2
 1001920:	20805726 	beq	r4,r2,1001a80 <__gxx_personality_sj0+0x33c>
 1001924:	d8802103 	ldbu	r2,132(sp)
 1001928:	10008626 	beq	r2,zero,1001b44 <__gxx_personality_sj0+0x400>
 100192c:	d9001a17 	ldw	r4,104(sp)
 1001930:	d9401d17 	ldw	r5,116(sp)
 1001934:	d8801b17 	ldw	r2,108(sp)
 1001938:	00c00184 	movi	r3,6
 100193c:	d8c02215 	stw	r3,136(sp)
 1001940:	21400915 	stw	r5,36(r4)
 1001944:	20800615 	stw	r2,24(r4)
 1001948:	d8c01f17 	ldw	r3,124(sp)
 100194c:	d9402017 	ldw	r5,128(sp)
 1001950:	d8800017 	ldw	r2,0(sp)
 1001954:	20c00715 	stw	r3,28(r4)
 1001958:	21400815 	stw	r5,32(r4)
 100195c:	20800a15 	stw	r2,40(r4)
 1001960:	003f9206 	br	10017ac <__gxx_personality_sj0+0x68>
 1001964:	d9001e17 	ldw	r4,120(sp)
 1001968:	d9400204 	addi	r5,sp,8
 100196c:	10010380 	call	1001038 <_Z12read_uleb128PKhPj>
 1001970:	d9401c17 	ldw	r5,112(sp)
 1001974:	1009883a 	mov	r4,r2
 1001978:	297fffc4 	addi	r5,r5,-1
 100197c:	d9401c15 	stw	r5,112(sp)
 1001980:	d9400104 	addi	r5,sp,4
 1001984:	10010380 	call	1001038 <_Z12read_uleb128PKhPj>
 1001988:	d8801e15 	stw	r2,120(sp)
 100198c:	d8801c17 	ldw	r2,112(sp)
 1001990:	103ff41e 	bne	r2,zero,1001964 <__gxx_personality_sj0+0x220>
 1001994:	d8800217 	ldw	r2,8(sp)
 1001998:	d8c00117 	ldw	r3,4(sp)
 100199c:	01000044 	movi	r4,1
 10019a0:	1105883a 	add	r2,r2,r4
 10019a4:	d8801d15 	stw	r2,116(sp)
 10019a8:	1800541e 	bne	r3,zero,1001afc <__gxx_personality_sj0+0x3b8>
 10019ac:	d8001f15 	stw	zero,124(sp)
 10019b0:	d8c01d17 	ldw	r3,116(sp)
 10019b4:	18003226 	beq	r3,zero,1001a80 <__gxx_personality_sj0+0x33c>
 10019b8:	d9001f17 	ldw	r4,124(sp)
 10019bc:	20007226 	beq	r4,zero,1001b88 <__gxx_personality_sj0+0x444>
 10019c0:	d9402417 	ldw	r5,144(sp)
 10019c4:	2880020c 	andi	r2,r5,8
 10019c8:	10006a1e 	bne	r2,zero,1001b74 <__gxx_personality_sj0+0x430>
 10019cc:	d8802103 	ldbu	r2,132(sp)
 10019d0:	10006826 	beq	r2,zero,1001b74 <__gxx_personality_sj0+0x430>
 10019d4:	d8801a17 	ldw	r2,104(sp)
 10019d8:	10800017 	ldw	r2,0(r2)
 10019dc:	d8801915 	stw	r2,100(sp)
 10019e0:	d8c01917 	ldw	r3,100(sp)
 10019e4:	d8001805 	stb	zero,96(sp)
 10019e8:	1807003a 	cmpeq	r3,r3,zero
 10019ec:	d8c02715 	stw	r3,156(sp)
 10019f0:	00000706 	br	1001a10 <__gxx_personality_sj0+0x2cc>
 10019f4:	01000044 	movi	r4,1
 10019f8:	d9001805 	stb	r4,96(sp)
 10019fc:	d8800217 	ldw	r2,8(sp)
 1001a00:	10005e26 	beq	r2,zero,1001b7c <__gxx_personality_sj0+0x438>
 1001a04:	d8c01717 	ldw	r3,92(sp)
 1001a08:	1885883a 	add	r2,r3,r2
 1001a0c:	d8801f15 	stw	r2,124(sp)
 1001a10:	d9001f17 	ldw	r4,124(sp)
 1001a14:	d9400104 	addi	r5,sp,4
 1001a18:	10010680 	call	1001068 <_Z12read_sleb128PKhPi>
 1001a1c:	1009883a 	mov	r4,r2
 1001a20:	d9400204 	addi	r5,sp,8
 1001a24:	d8801715 	stw	r2,92(sp)
 1001a28:	10010680 	call	1001068 <_Z12read_sleb128PKhPi>
 1001a2c:	d8800117 	ldw	r2,4(sp)
 1001a30:	103ff026 	beq	r2,zero,10019f4 <__gxx_personality_sj0+0x2b0>
 1001a34:	0080360e 	bge	zero,r2,1001b10 <__gxx_personality_sj0+0x3cc>
 1001a38:	017fffc4 	movi	r5,-1
 1001a3c:	d9400b15 	stw	r5,44(sp)
 1001a40:	d9000404 	addi	r4,sp,16
 1001a44:	100b883a 	mov	r5,r2
 1001a48:	10014bc0 	call	10014bc <_Z15get_ttype_entryP16lsda_header_infoj>
 1001a4c:	10000826 	beq	r2,zero,1001a70 <__gxx_personality_sj0+0x32c>
 1001a50:	d8c02717 	ldw	r3,156(sp)
 1001a54:	183fe91e 	bne	r3,zero,10019fc <__gxx_personality_sj0+0x2b8>
 1001a58:	d9401917 	ldw	r5,100(sp)
 1001a5c:	1009883a 	mov	r4,r2
 1001a60:	d80d883a 	mov	r6,sp
 1001a64:	10010bc0 	call	10010bc <_Z16get_adjusted_ptrPKSt9type_infoS1_PPv>
 1001a68:	10803fcc 	andi	r2,r2,255
 1001a6c:	103fe326 	beq	r2,zero,10019fc <__gxx_personality_sj0+0x2b8>
 1001a70:	d9000117 	ldw	r4,4(sp)
 1001a74:	d9001b15 	stw	r4,108(sp)
 1001a78:	010000c4 	movi	r4,3
 1001a7c:	003fa206 	br	1001908 <__gxx_personality_sj0+0x1c4>
 1001a80:	01400204 	movi	r5,8
 1001a84:	d9000a04 	addi	r4,sp,40
 1001a88:	d9402215 	stw	r5,136(sp)
 1001a8c:	10026540 	call	1002654 <_Unwind_SjLj_Unregister>
 1001a90:	d8802217 	ldw	r2,136(sp)
 1001a94:	dfc02c17 	ldw	ra,176(sp)
 1001a98:	df002b17 	ldw	fp,172(sp)
 1001a9c:	ddc02a17 	ldw	r23,168(sp)
 1001aa0:	dec02d04 	addi	sp,sp,180
 1001aa4:	f800283a 	ret
 1001aa8:	d9402617 	ldw	r5,152(sp)
 1001aac:	0091d3b4 	movhi	r2,18254
 1001ab0:	109550c4 	addi	r2,r2,21827
 1001ab4:	28bf4f1e 	bne	r5,r2,10017f4 <__gxx_personality_sj0+0xb0>
 1001ab8:	d8802317 	ldw	r2,140(sp)
 1001abc:	1007883a 	mov	r3,r2
 1001ac0:	003f4c06 	br	10017f4 <__gxx_personality_sj0+0xb0>
 1001ac4:	d9402417 	ldw	r5,144(sp)
 1001ac8:	2880020c 	andi	r2,r5,8
 1001acc:	10000826 	beq	r2,zero,1001af0 <__gxx_personality_sj0+0x3ac>
 1001ad0:	20c04026 	beq	r4,r3,1001bd4 <__gxx_personality_sj0+0x490>
 1001ad4:	d8801b17 	ldw	r2,108(sp)
 1001ad8:	103f5b0e 	bge	r2,zero,1001848 <__gxx_personality_sj0+0x104>
 1001adc:	00800084 	movi	r2,2
 1001ae0:	d8800b15 	stw	r2,44(sp)
 1001ae4:	1001d180 	call	1001d18 <_ZSt10unexpectedv>
 1001ae8:	010000c4 	movi	r4,3
 1001aec:	003f5206 	br	1001838 <__gxx_personality_sj0+0xf4>
 1001af0:	d8802103 	ldbu	r2,132(sp)
 1001af4:	103f501e 	bne	r2,zero,1001838 <__gxx_personality_sj0+0xf4>
 1001af8:	003ff506 	br	1001ad0 <__gxx_personality_sj0+0x38c>
 1001afc:	d8800817 	ldw	r2,32(sp)
 1001b00:	1885883a 	add	r2,r3,r2
 1001b04:	1105c83a 	sub	r2,r2,r4
 1001b08:	d8801f15 	stw	r2,124(sp)
 1001b0c:	003fa806 	br	10019b0 <__gxx_personality_sj0+0x26c>
 1001b10:	d9002717 	ldw	r4,156(sp)
 1001b14:	20000e1e 	bne	r4,zero,1001b50 <__gxx_personality_sj0+0x40c>
 1001b18:	017fffc4 	movi	r5,-1
 1001b1c:	d9400b15 	stw	r5,44(sp)
 1001b20:	d9800017 	ldw	r6,0(sp)
 1001b24:	d9401917 	ldw	r5,100(sp)
 1001b28:	100f883a 	mov	r7,r2
 1001b2c:	d9000404 	addi	r4,sp,16
 1001b30:	10015400 	call	1001540 <_Z20check_exception_specP16lsda_header_infoPKSt9type_infoPvi>
 1001b34:	1080005c 	xori	r2,r2,1
 1001b38:	10803fcc 	andi	r2,r2,255
 1001b3c:	103faf26 	beq	r2,zero,10019fc <__gxx_personality_sj0+0x2b8>
 1001b40:	003fcb06 	br	1001a70 <__gxx_personality_sj0+0x32c>
 1001b44:	00800184 	movi	r2,6
 1001b48:	d8802215 	stw	r2,136(sp)
 1001b4c:	003f1706 	br	10017ac <__gxx_personality_sj0+0x68>
 1001b50:	d9000717 	ldw	r4,28(sp)
 1001b54:	d9400304 	addi	r5,sp,12
 1001b58:	2089c83a 	sub	r4,r4,r2
 1001b5c:	213fffc4 	addi	r4,r4,-1
 1001b60:	10010380 	call	1001038 <_Z12read_uleb128PKhPj>
 1001b64:	d8c00317 	ldw	r3,12(sp)
 1001b68:	1807003a 	cmpeq	r3,r3,zero
 1001b6c:	1805883a 	mov	r2,r3
 1001b70:	003ff106 	br	1001b38 <__gxx_personality_sj0+0x3f4>
 1001b74:	d8001915 	stw	zero,100(sp)
 1001b78:	003f9906 	br	10019e0 <__gxx_personality_sj0+0x29c>
 1001b7c:	d8801803 	ldbu	r2,96(sp)
 1001b80:	1004c03a 	cmpne	r2,r2,zero
 1001b84:	103fbe26 	beq	r2,zero,1001a80 <__gxx_personality_sj0+0x33c>
 1001b88:	01000084 	movi	r4,2
 1001b8c:	d8001b15 	stw	zero,108(sp)
 1001b90:	003f5d06 	br	1001908 <__gxx_personality_sj0+0x1c4>
 1001b94:	d9402017 	ldw	r5,128(sp)
 1001b98:	d9002e17 	ldw	r4,184(sp)
 1001b9c:	00bfffc4 	movi	r2,-1
 1001ba0:	d9800404 	addi	r6,sp,16
 1001ba4:	d8800b15 	stw	r2,44(sp)
 1001ba8:	10013bc0 	call	10013bc <_Z17parse_lsda_headerP15_Unwind_ContextPKhP16lsda_header_info>
 1001bac:	d9000903 	ldbu	r4,36(sp)
 1001bb0:	d9402e17 	ldw	r5,184(sp)
 1001bb4:	100132c0 	call	100132c <_Z21base_of_encoded_valuehP15_Unwind_Context>
 1001bb8:	d8c01a17 	ldw	r3,104(sp)
 1001bbc:	18800915 	stw	r2,36(r3)
 1001bc0:	003f2106 	br	1001848 <__gxx_personality_sj0+0x104>
 1001bc4:	d9002d17 	ldw	r4,180(sp)
 1001bc8:	00bfffc4 	movi	r2,-1
 1001bcc:	d8800b15 	stw	r2,44(sp)
 1001bd0:	10025900 	call	1002590 <__cxa_call_terminate>
 1001bd4:	00bfffc4 	movi	r2,-1
 1001bd8:	d8800b15 	stw	r2,44(sp)
 1001bdc:	1001cf00 	call	1001cf0 <_ZSt9terminatev>
 1001be0:	d9000b17 	ldw	r4,44(sp)
 1001be4:	d9400c17 	ldw	r5,48(sp)
 1001be8:	00800044 	movi	r2,1
 1001bec:	d9002915 	stw	r4,164(sp)
 1001bf0:	d9402815 	stw	r5,160(sp)
 1001bf4:	20800626 	beq	r4,r2,1001c10 <__gxx_personality_sj0+0x4cc>
 1001bf8:	d8000b15 	stw	zero,44(sp)
 1001bfc:	1001d580 	call	1001d58 <__cxa_end_catch>
 1001c00:	d9002817 	ldw	r4,160(sp)
 1001c04:	00bfffc4 	movi	r2,-1
 1001c08:	d8800b15 	stw	r2,44(sp)
 1001c0c:	10029100 	call	1002910 <_Unwind_SjLj_Resume>
 1001c10:	d9002817 	ldw	r4,160(sp)
 1001c14:	1001dfc0 	call	1001dfc <__cxa_begin_catch>
 1001c18:	d8c02917 	ldw	r3,164(sp)
 1001c1c:	d8c00b15 	stw	r3,44(sp)
 1001c20:	1001cf00 	call	1001cf0 <_ZSt9terminatev>

01001c24 <_ZSt13set_terminatePFvvE>:
 1001c24:	00c040b4 	movhi	r3,258
 1001c28:	18ebe004 	addi	r3,r3,-20608
 1001c2c:	18800017 	ldw	r2,0(r3)
 1001c30:	19000015 	stw	r4,0(r3)
 1001c34:	f800283a 	ret

01001c38 <_ZSt14set_unexpectedPFvvE>:
 1001c38:	00c040b4 	movhi	r3,258
 1001c3c:	18ebe604 	addi	r3,r3,-20584
 1001c40:	18800017 	ldw	r2,0(r3)
 1001c44:	19000015 	stw	r4,0(r3)
 1001c48:	f800283a 	ret

01001c4c <_ZN10__cxxabiv111__terminateEPFvvE>:
 1001c4c:	deffed04 	addi	sp,sp,-76
 1001c50:	00804034 	movhi	r2,256
 1001c54:	1085d104 	addi	r2,r2,5956
 1001c58:	d8800615 	stw	r2,24(sp)
 1001c5c:	00c040b4 	movhi	r3,258
 1001c60:	18e34104 	addi	r3,r3,-29436
 1001c64:	00804034 	movhi	r2,256
 1001c68:	10872a04 	addi	r2,r2,7336
 1001c6c:	d9000d15 	stw	r4,52(sp)
 1001c70:	d809883a 	mov	r4,sp
 1001c74:	d8800915 	stw	r2,36(sp)
 1001c78:	dfc01215 	stw	ra,72(sp)
 1001c7c:	df001115 	stw	fp,68(sp)
 1001c80:	ddc01015 	stw	r23,64(sp)
 1001c84:	d8c00715 	stw	r3,28(sp)
 1001c88:	dec00815 	stw	sp,32(sp)
 1001c8c:	dec00a15 	stw	sp,40(sp)
 1001c90:	10026440 	call	1002644 <_Unwind_SjLj_Register>
 1001c94:	00800084 	movi	r2,2
 1001c98:	d8800115 	stw	r2,4(sp)
 1001c9c:	d8800d17 	ldw	r2,52(sp)
 1001ca0:	103ee83a 	callr	r2
 1001ca4:	1002b8c0 	call	1002b8c <abort>
 1001ca8:	d8800117 	ldw	r2,4(sp)
 1001cac:	d8c00217 	ldw	r3,8(sp)
 1001cb0:	d8800f15 	stw	r2,60(sp)
 1001cb4:	d8c00e15 	stw	r3,56(sp)
 1001cb8:	d8c00f17 	ldw	r3,60(sp)
 1001cbc:	00800044 	movi	r2,1
 1001cc0:	18800626 	beq	r3,r2,1001cdc <_ZN10__cxxabiv111__terminateEPFvvE+0x90>
 1001cc4:	d8000115 	stw	zero,4(sp)
 1001cc8:	1001d580 	call	1001d58 <__cxa_end_catch>
 1001ccc:	d9000e17 	ldw	r4,56(sp)
 1001cd0:	00bfffc4 	movi	r2,-1
 1001cd4:	d8800115 	stw	r2,4(sp)
 1001cd8:	10029100 	call	1002910 <_Unwind_SjLj_Resume>
 1001cdc:	d9000e17 	ldw	r4,56(sp)
 1001ce0:	1001dfc0 	call	1001dfc <__cxa_begin_catch>
 1001ce4:	d8c00f17 	ldw	r3,60(sp)
 1001ce8:	d8c00115 	stw	r3,4(sp)
 1001cec:	1002b8c0 	call	1002b8c <abort>

01001cf0 <_ZSt9terminatev>:
 1001cf0:	008040b4 	movhi	r2,258
 1001cf4:	10abe004 	addi	r2,r2,-20608
 1001cf8:	11000017 	ldw	r4,0(r2)
 1001cfc:	deffff04 	addi	sp,sp,-4
 1001d00:	dfc00015 	stw	ra,0(sp)
 1001d04:	1001c4c0 	call	1001c4c <_ZN10__cxxabiv111__terminateEPFvvE>

01001d08 <_ZN10__cxxabiv112__unexpectedEPFvvE>:
 1001d08:	deffff04 	addi	sp,sp,-4
 1001d0c:	dfc00015 	stw	ra,0(sp)
 1001d10:	203ee83a 	callr	r4
 1001d14:	1001cf00 	call	1001cf0 <_ZSt9terminatev>

01001d18 <_ZSt10unexpectedv>:
 1001d18:	008040b4 	movhi	r2,258
 1001d1c:	10abe604 	addi	r2,r2,-20584
 1001d20:	11000017 	ldw	r4,0(r2)
 1001d24:	deffff04 	addi	sp,sp,-4
 1001d28:	dfc00015 	stw	ra,0(sp)
 1001d2c:	1001d080 	call	1001d08 <_ZN10__cxxabiv112__unexpectedEPFvvE>

01001d30 <__cxa_get_exception_ptr>:
 1001d30:	20bfff17 	ldw	r2,-4(r4)
 1001d34:	f800283a 	ret

01001d38 <_ZSt18uncaught_exceptionv>:
 1001d38:	deffff04 	addi	sp,sp,-4
 1001d3c:	dfc00015 	stw	ra,0(sp)
 1001d40:	100263c0 	call	100263c <__cxa_get_globals>
 1001d44:	10800117 	ldw	r2,4(r2)
 1001d48:	1004c03a 	cmpne	r2,r2,zero
 1001d4c:	dfc00017 	ldw	ra,0(sp)
 1001d50:	dec00104 	addi	sp,sp,4
 1001d54:	f800283a 	ret

01001d58 <__cxa_end_catch>:
 1001d58:	deffff04 	addi	sp,sp,-4
 1001d5c:	dfc00015 	stw	ra,0(sp)
 1001d60:	10026340 	call	1002634 <__cxa_get_globals_fast>
 1001d64:	11000017 	ldw	r4,0(r2)
 1001d68:	1007883a 	mov	r3,r2
 1001d6c:	20001326 	beq	r4,zero,1001dbc <__cxa_end_catch+0x64>
 1001d70:	21400b17 	ldw	r5,44(r4)
 1001d74:	0090caf4 	movhi	r2,17195
 1001d78:	108ac004 	addi	r2,r2,11008
 1001d7c:	21800c17 	ldw	r6,48(r4)
 1001d80:	28800526 	beq	r5,r2,1001d98 <__cxa_end_catch+0x40>
 1001d84:	21000b04 	addi	r4,r4,44
 1001d88:	18000015 	stw	zero,0(r3)
 1001d8c:	dfc00017 	ldw	ra,0(sp)
 1001d90:	dec00104 	addi	sp,sp,4
 1001d94:	10028041 	jmpi	1002804 <_Unwind_DeleteException>
 1001d98:	0091d3b4 	movhi	r2,18254
 1001d9c:	109550c4 	addi	r2,r2,21827
 1001da0:	30bff81e 	bne	r6,r2,1001d84 <__cxa_end_catch+0x2c>
 1001da4:	20800517 	ldw	r2,20(r4)
 1001da8:	10000e16 	blt	r2,zero,1001de4 <__cxa_end_catch+0x8c>
 1001dac:	117fffc4 	addi	r5,r2,-1
 1001db0:	28000526 	beq	r5,zero,1001dc8 <__cxa_end_catch+0x70>
 1001db4:	28000a16 	blt	r5,zero,1001de0 <__cxa_end_catch+0x88>
 1001db8:	21400515 	stw	r5,20(r4)
 1001dbc:	dfc00017 	ldw	ra,0(sp)
 1001dc0:	dec00104 	addi	sp,sp,4
 1001dc4:	f800283a 	ret
 1001dc8:	20800417 	ldw	r2,16(r4)
 1001dcc:	21000b04 	addi	r4,r4,44
 1001dd0:	18800015 	stw	r2,0(r3)
 1001dd4:	dfc00017 	ldw	ra,0(sp)
 1001dd8:	dec00104 	addi	sp,sp,4
 1001ddc:	10028041 	jmpi	1002804 <_Unwind_DeleteException>
 1001de0:	1001cf00 	call	1001cf0 <_ZSt9terminatev>
 1001de4:	11400044 	addi	r5,r2,1
 1001de8:	283ff31e 	bne	r5,zero,1001db8 <__cxa_end_catch+0x60>
 1001dec:	20800417 	ldw	r2,16(r4)
 1001df0:	21400515 	stw	r5,20(r4)
 1001df4:	18800015 	stw	r2,0(r3)
 1001df8:	003ff006 	br	1001dbc <__cxa_end_catch+0x64>

01001dfc <__cxa_begin_catch>:
 1001dfc:	deffee04 	addi	sp,sp,-72
 1001e00:	00804034 	movhi	r2,256
 1001e04:	1085d104 	addi	r2,r2,5956
 1001e08:	00c040b4 	movhi	r3,258
 1001e0c:	18e34504 	addi	r3,r3,-29420
 1001e10:	d8800615 	stw	r2,24(sp)
 1001e14:	d9000e15 	stw	r4,56(sp)
 1001e18:	00804034 	movhi	r2,256
 1001e1c:	1087bc04 	addi	r2,r2,7920
 1001e20:	d809883a 	mov	r4,sp
 1001e24:	d8c00715 	stw	r3,28(sp)
 1001e28:	dfc01115 	stw	ra,68(sp)
 1001e2c:	d8800915 	stw	r2,36(sp)
 1001e30:	df001015 	stw	fp,64(sp)
 1001e34:	ddc00f15 	stw	r23,60(sp)
 1001e38:	dec00815 	stw	sp,32(sp)
 1001e3c:	dec00a15 	stw	sp,40(sp)
 1001e40:	10026440 	call	1002644 <_Unwind_SjLj_Register>
 1001e44:	100263c0 	call	100263c <__cxa_get_globals>
 1001e48:	100d883a 	mov	r6,r2
 1001e4c:	d8800e17 	ldw	r2,56(sp)
 1001e50:	31c00017 	ldw	r7,0(r6)
 1001e54:	117ff504 	addi	r5,r2,-44
 1001e58:	28c00b17 	ldw	r3,44(r5)
 1001e5c:	0090caf4 	movhi	r2,17195
 1001e60:	108ac004 	addi	r2,r2,11008
 1001e64:	29000c17 	ldw	r4,48(r5)
 1001e68:	18800b26 	beq	r3,r2,1001e98 <__cxa_begin_catch+0x9c>
 1001e6c:	38001d1e 	bne	r7,zero,1001ee4 <__cxa_begin_catch+0xe8>
 1001e70:	d8000d15 	stw	zero,52(sp)
 1001e74:	31400015 	stw	r5,0(r6)
 1001e78:	d809883a 	mov	r4,sp
 1001e7c:	10026540 	call	1002654 <_Unwind_SjLj_Unregister>
 1001e80:	d8800d17 	ldw	r2,52(sp)
 1001e84:	dfc01117 	ldw	ra,68(sp)
 1001e88:	df001017 	ldw	fp,64(sp)
 1001e8c:	ddc00f17 	ldw	r23,60(sp)
 1001e90:	dec01204 	addi	sp,sp,72
 1001e94:	f800283a 	ret
 1001e98:	0091d3b4 	movhi	r2,18254
 1001e9c:	109550c4 	addi	r2,r2,21827
 1001ea0:	20bff21e 	bne	r4,r2,1001e6c <__cxa_begin_catch+0x70>
 1001ea4:	28c00517 	ldw	r3,20(r5)
 1001ea8:	18000b16 	blt	r3,zero,1001ed8 <__cxa_begin_catch+0xdc>
 1001eac:	18800044 	addi	r2,r3,1
 1001eb0:	28800515 	stw	r2,20(r5)
 1001eb4:	30800117 	ldw	r2,4(r6)
 1001eb8:	10bfffc4 	addi	r2,r2,-1
 1001ebc:	30800115 	stw	r2,4(r6)
 1001ec0:	39400226 	beq	r7,r5,1001ecc <__cxa_begin_catch+0xd0>
 1001ec4:	29c00415 	stw	r7,16(r5)
 1001ec8:	31400015 	stw	r5,0(r6)
 1001ecc:	29400a17 	ldw	r5,40(r5)
 1001ed0:	d9400d15 	stw	r5,52(sp)
 1001ed4:	003fe806 	br	1001e78 <__cxa_begin_catch+0x7c>
 1001ed8:	00800044 	movi	r2,1
 1001edc:	10c5c83a 	sub	r2,r2,r3
 1001ee0:	003ff306 	br	1001eb0 <__cxa_begin_catch+0xb4>
 1001ee4:	00800044 	movi	r2,1
 1001ee8:	d8800115 	stw	r2,4(sp)
 1001eec:	1001cf00 	call	1001cf0 <_ZSt9terminatev>
 1001ef0:	d8800317 	ldw	r2,12(sp)
 1001ef4:	00ffffc4 	movi	r3,-1
 1001ef8:	d9000217 	ldw	r4,8(sp)
 1001efc:	10c00226 	beq	r2,r3,1001f08 <__cxa_begin_catch+0x10c>
 1001f00:	d8c00115 	stw	r3,4(sp)
 1001f04:	10029100 	call	1002910 <_Unwind_SjLj_Resume>
 1001f08:	00bfffc4 	movi	r2,-1
 1001f0c:	d8800115 	stw	r2,4(sp)
 1001f10:	10015c40 	call	10015c4 <__cxa_call_unexpected>

01001f14 <_ZdlPv>:
 1001f14:	20000126 	beq	r4,zero,1001f1c <_ZdlPv+0x8>
 1001f18:	1002ba41 	jmpi	1002ba4 <free>
 1001f1c:	f800283a 	ret

01001f20 <__cxa_rethrow>:
 1001f20:	defffe04 	addi	sp,sp,-8
 1001f24:	dc400015 	stw	r17,0(sp)
 1001f28:	dfc00115 	stw	ra,4(sp)
 1001f2c:	100263c0 	call	100263c <__cxa_get_globals>
 1001f30:	100b883a 	mov	r5,r2
 1001f34:	10800117 	ldw	r2,4(r2)
 1001f38:	2c400017 	ldw	r17,0(r5)
 1001f3c:	10800044 	addi	r2,r2,1
 1001f40:	28800115 	stw	r2,4(r5)
 1001f44:	88000b26 	beq	r17,zero,1001f74 <__cxa_rethrow+0x54>
 1001f48:	88c00b17 	ldw	r3,44(r17)
 1001f4c:	0090caf4 	movhi	r2,17195
 1001f50:	108ac004 	addi	r2,r2,11008
 1001f54:	89000c17 	ldw	r4,48(r17)
 1001f58:	18800726 	beq	r3,r2,1001f78 <__cxa_rethrow+0x58>
 1001f5c:	28000015 	stw	zero,0(r5)
 1001f60:	8c400b04 	addi	r17,r17,44
 1001f64:	8809883a 	mov	r4,r17
 1001f68:	1002b340 	call	1002b34 <_Unwind_SjLj_Resume_or_Rethrow>
 1001f6c:	8809883a 	mov	r4,r17
 1001f70:	1001dfc0 	call	1001dfc <__cxa_begin_catch>
 1001f74:	1001cf00 	call	1001cf0 <_ZSt9terminatev>
 1001f78:	0091d3b4 	movhi	r2,18254
 1001f7c:	109550c4 	addi	r2,r2,21827
 1001f80:	20bff61e 	bne	r4,r2,1001f5c <__cxa_rethrow+0x3c>
 1001f84:	88800517 	ldw	r2,20(r17)
 1001f88:	0085c83a 	sub	r2,zero,r2
 1001f8c:	88800515 	stw	r2,20(r17)
 1001f90:	003ff306 	br	1001f60 <__cxa_rethrow+0x40>

01001f94 <__cxa_throw>:
 1001f94:	008040b4 	movhi	r2,258
 1001f98:	10abe604 	addi	r2,r2,-20584
 1001f9c:	00c040b4 	movhi	r3,258
 1001fa0:	18ebe004 	addi	r3,r3,-20608
 1001fa4:	12000017 	ldw	r8,0(r2)
 1001fa8:	19c00017 	ldw	r7,0(r3)
 1001fac:	defffe04 	addi	sp,sp,-8
 1001fb0:	213ff004 	addi	r4,r4,-64
 1001fb4:	dfc00115 	stw	ra,4(sp)
 1001fb8:	dc400015 	stw	r17,0(sp)
 1001fbc:	0090caf4 	movhi	r2,17195
 1001fc0:	108ac004 	addi	r2,r2,11008
 1001fc4:	20800b15 	stw	r2,44(r4)
 1001fc8:	00d1d3b4 	movhi	r3,18254
 1001fcc:	18d550c4 	addi	r3,r3,21827
 1001fd0:	24400b04 	addi	r17,r4,44
 1001fd4:	00804034 	movhi	r2,256
 1001fd8:	10880204 	addi	r2,r2,8200
 1001fdc:	21400015 	stw	r5,0(r4)
 1001fe0:	21800115 	stw	r6,4(r4)
 1001fe4:	22000215 	stw	r8,8(r4)
 1001fe8:	21c00315 	stw	r7,12(r4)
 1001fec:	20c00c15 	stw	r3,48(r4)
 1001ff0:	20800d15 	stw	r2,52(r4)
 1001ff4:	8809883a 	mov	r4,r17
 1001ff8:	100296c0 	call	100296c <_Unwind_SjLj_RaiseException>
 1001ffc:	8809883a 	mov	r4,r17
 1002000:	1001dfc0 	call	1001dfc <__cxa_begin_catch>
 1002004:	1001cf00 	call	1001cf0 <_ZSt9terminatev>

01002008 <_Z23__gxx_exception_cleanup19_Unwind_Reason_CodeP17_Unwind_Exception>:
 1002008:	defffe04 	addi	sp,sp,-8
 100200c:	00800044 	movi	r2,1
 1002010:	dfc00115 	stw	ra,4(sp)
 1002014:	dc000015 	stw	r16,0(sp)
 1002018:	28fff504 	addi	r3,r5,-44
 100201c:	11001036 	bltu	r2,r4,1002060 <_Z23__gxx_exception_cleanup19_Unwind_Reason_CodeP17_Unwind_Exception+0x58>
 1002020:	18800117 	ldw	r2,4(r3)
 1002024:	10000826 	beq	r2,zero,1002048 <_Z23__gxx_exception_cleanup19_Unwind_Reason_CodeP17_Unwind_Exception+0x40>
 1002028:	2c000504 	addi	r16,r5,20
 100202c:	8009883a 	mov	r4,r16
 1002030:	103ee83a 	callr	r2
 1002034:	8009883a 	mov	r4,r16
 1002038:	dfc00117 	ldw	ra,4(sp)
 100203c:	dc000017 	ldw	r16,0(sp)
 1002040:	dec00204 	addi	sp,sp,8
 1002044:	10022881 	jmpi	1002288 <__cxa_free_exception>
 1002048:	2c000504 	addi	r16,r5,20
 100204c:	8009883a 	mov	r4,r16
 1002050:	dfc00117 	ldw	ra,4(sp)
 1002054:	dc000017 	ldw	r16,0(sp)
 1002058:	dec00204 	addi	sp,sp,8
 100205c:	10022881 	jmpi	1002288 <__cxa_free_exception>
 1002060:	19000317 	ldw	r4,12(r3)
 1002064:	1001c4c0 	call	1001c4c <_ZN10__cxxabiv111__terminateEPFvvE>

01002068 <_ZNK10__cxxabiv120__si_class_type_info11__do_upcastEPKNS_17__class_type_infoEPKvRNS1_15__upcast_resultE>:
 1002068:	defffb04 	addi	sp,sp,-20
 100206c:	dd400315 	stw	r21,12(sp)
 1002070:	dcc00215 	stw	r19,8(sp)
 1002074:	dc400115 	stw	r17,4(sp)
 1002078:	dc000015 	stw	r16,0(sp)
 100207c:	2823883a 	mov	r17,r5
 1002080:	3027883a 	mov	r19,r6
 1002084:	382b883a 	mov	r21,r7
 1002088:	dfc00415 	stw	ra,16(sp)
 100208c:	2021883a 	mov	r16,r4
 1002090:	1000fbc0 	call	1000fbc <_ZNK10__cxxabiv117__class_type_info11__do_upcastEPKS0_PKvRNS0_15__upcast_resultE>
 1002094:	10803fcc 	andi	r2,r2,255
 1002098:	880b883a 	mov	r5,r17
 100209c:	980d883a 	mov	r6,r19
 10020a0:	a80f883a 	mov	r7,r21
 10020a4:	00c00044 	movi	r3,1
 10020a8:	1000051e 	bne	r2,zero,10020c0 <_ZNK10__cxxabiv120__si_class_type_info11__do_upcastEPKNS_17__class_type_infoEPKvRNS1_15__upcast_resultE+0x58>
 10020ac:	81000217 	ldw	r4,8(r16)
 10020b0:	20800017 	ldw	r2,0(r4)
 10020b4:	10c00617 	ldw	r3,24(r2)
 10020b8:	183ee83a 	callr	r3
 10020bc:	10c03fcc 	andi	r3,r2,255
 10020c0:	1805883a 	mov	r2,r3
 10020c4:	dfc00417 	ldw	ra,16(sp)
 10020c8:	dd400317 	ldw	r21,12(sp)
 10020cc:	dcc00217 	ldw	r19,8(sp)
 10020d0:	dc400117 	ldw	r17,4(sp)
 10020d4:	dc000017 	ldw	r16,0(sp)
 10020d8:	dec00504 	addi	sp,sp,20
 10020dc:	f800283a 	ret

010020e0 <_ZN10__cxxabiv120__si_class_type_infoD0Ev>:
 10020e0:	defffe04 	addi	sp,sp,-8
 10020e4:	008040b4 	movhi	r2,258
 10020e8:	10a38604 	addi	r2,r2,-29160
 10020ec:	dc400015 	stw	r17,0(sp)
 10020f0:	20800015 	stw	r2,0(r4)
 10020f4:	2023883a 	mov	r17,r4
 10020f8:	dfc00115 	stw	ra,4(sp)
 10020fc:	1000f4c0 	call	1000f4c <_ZN10__cxxabiv117__class_type_infoD2Ev>
 1002100:	8809883a 	mov	r4,r17
 1002104:	dfc00117 	ldw	ra,4(sp)
 1002108:	dc400017 	ldw	r17,0(sp)
 100210c:	dec00204 	addi	sp,sp,8
 1002110:	1001f141 	jmpi	1001f14 <_ZdlPv>

01002114 <_ZN10__cxxabiv120__si_class_type_infoD1Ev>:
 1002114:	008040b4 	movhi	r2,258
 1002118:	10a38604 	addi	r2,r2,-29160
 100211c:	20800015 	stw	r2,0(r4)
 1002120:	1000f4c1 	jmpi	1000f4c <_ZN10__cxxabiv117__class_type_infoD2Ev>

01002124 <_ZN10__cxxabiv120__si_class_type_infoD2Ev>:
 1002124:	008040b4 	movhi	r2,258
 1002128:	10a38604 	addi	r2,r2,-29160
 100212c:	20800015 	stw	r2,0(r4)
 1002130:	1000f4c1 	jmpi	1000f4c <_ZN10__cxxabiv117__class_type_infoD2Ev>

01002134 <_ZNK10__cxxabiv120__si_class_type_info20__do_find_public_srcElPKvPKNS_17__class_type_infoES2_>:
 1002134:	da400017 	ldw	r9,0(sp)
 1002138:	2011883a 	mov	r8,r4
 100213c:	49800526 	beq	r9,r6,1002154 <_ZNK10__cxxabiv120__si_class_type_info20__do_find_public_srcElPKvPKNS_17__class_type_infoES2_+0x20>
 1002140:	41000217 	ldw	r4,8(r8)
 1002144:	20800017 	ldw	r2,0(r4)
 1002148:	da400015 	stw	r9,0(sp)
 100214c:	10c00817 	ldw	r3,32(r2)
 1002150:	1800683a 	jmp	r3
 1002154:	39000117 	ldw	r4,4(r7)
 1002158:	40c00117 	ldw	r3,4(r8)
 100215c:	00800184 	movi	r2,6
 1002160:	193ff71e 	bne	r3,r4,1002140 <_ZNK10__cxxabiv120__si_class_type_info20__do_find_public_srcElPKvPKNS_17__class_type_infoES2_+0xc>
 1002164:	f800283a 	ret

01002168 <_ZNK10__cxxabiv120__si_class_type_info12__do_dyncastElNS_17__class_type_info10__sub_kindEPKS1_PKvS4_S6_RNS1_16__dyncast_resultE>:
 1002168:	20c00117 	ldw	r3,4(r4)
 100216c:	38800117 	ldw	r2,4(r7)
 1002170:	defffb04 	addi	sp,sp,-20
 1002174:	dfc00415 	stw	ra,16(sp)
 1002178:	da000517 	ldw	r8,20(sp)
 100217c:	dac00617 	ldw	r11,24(sp)
 1002180:	da400717 	ldw	r9,28(sp)
 1002184:	da800817 	ldw	r10,32(sp)
 1002188:	18800c1e 	bne	r3,r2,10021bc <_ZNK10__cxxabiv120__si_class_type_info12__do_dyncastElNS_17__class_type_info10__sub_kindEPKS1_PKvS4_S6_RNS1_16__dyncast_resultE+0x54>
 100218c:	51800115 	stw	r6,4(r10)
 1002190:	52000015 	stw	r8,0(r10)
 1002194:	28001c16 	blt	r5,zero,1002208 <_ZNK10__cxxabiv120__si_class_type_info12__do_dyncastElNS_17__class_type_info10__sub_kindEPKS1_PKvS4_S6_RNS1_16__dyncast_resultE+0xa0>
 1002198:	4145883a 	add	r2,r8,r5
 100219c:	48801e26 	beq	r9,r2,1002218 <_ZNK10__cxxabiv120__si_class_type_info12__do_dyncastElNS_17__class_type_info10__sub_kindEPKS1_PKvS4_S6_RNS1_16__dyncast_resultE+0xb0>
 10021a0:	00800044 	movi	r2,1
 10021a4:	0007883a 	mov	r3,zero
 10021a8:	50800315 	stw	r2,12(r10)
 10021ac:	1805883a 	mov	r2,r3
 10021b0:	dfc00417 	ldw	ra,16(sp)
 10021b4:	dec00504 	addi	sp,sp,20
 10021b8:	f800283a 	ret
 10021bc:	42400d26 	beq	r8,r9,10021f4 <_ZNK10__cxxabiv120__si_class_type_info12__do_dyncastElNS_17__class_type_info10__sub_kindEPKS1_PKvS4_S6_RNS1_16__dyncast_resultE+0x8c>
 10021c0:	21000217 	ldw	r4,8(r4)
 10021c4:	20800017 	ldw	r2,0(r4)
 10021c8:	da000015 	stw	r8,0(sp)
 10021cc:	dac00115 	stw	r11,4(sp)
 10021d0:	da400215 	stw	r9,8(sp)
 10021d4:	da800315 	stw	r10,12(sp)
 10021d8:	10c00717 	ldw	r3,28(r2)
 10021dc:	183ee83a 	callr	r3
 10021e0:	10c03fcc 	andi	r3,r2,255
 10021e4:	1805883a 	mov	r2,r3
 10021e8:	dfc00417 	ldw	ra,16(sp)
 10021ec:	dec00504 	addi	sp,sp,20
 10021f0:	f800283a 	ret
 10021f4:	58800117 	ldw	r2,4(r11)
 10021f8:	18bff11e 	bne	r3,r2,10021c0 <_ZNK10__cxxabiv120__si_class_type_info12__do_dyncastElNS_17__class_type_info10__sub_kindEPKS1_PKvS4_S6_RNS1_16__dyncast_resultE+0x58>
 10021fc:	0007883a 	mov	r3,zero
 1002200:	51800215 	stw	r6,8(r10)
 1002204:	003fe906 	br	10021ac <_ZNK10__cxxabiv120__si_class_type_info12__do_dyncastElNS_17__class_type_info10__sub_kindEPKS1_PKvS4_S6_RNS1_16__dyncast_resultE+0x44>
 1002208:	00bfff84 	movi	r2,-2
 100220c:	28800426 	beq	r5,r2,1002220 <_ZNK10__cxxabiv120__si_class_type_info12__do_dyncastElNS_17__class_type_info10__sub_kindEPKS1_PKvS4_S6_RNS1_16__dyncast_resultE+0xb8>
 1002210:	0007883a 	mov	r3,zero
 1002214:	003fe506 	br	10021ac <_ZNK10__cxxabiv120__si_class_type_info12__do_dyncastElNS_17__class_type_info10__sub_kindEPKS1_PKvS4_S6_RNS1_16__dyncast_resultE+0x44>
 1002218:	00800184 	movi	r2,6
 100221c:	003fe106 	br	10021a4 <_ZNK10__cxxabiv120__si_class_type_info12__do_dyncastElNS_17__class_type_info10__sub_kindEPKS1_PKvS4_S6_RNS1_16__dyncast_resultE+0x3c>
 1002220:	00800044 	movi	r2,1
 1002224:	0007883a 	mov	r3,zero
 1002228:	50800315 	stw	r2,12(r10)
 100222c:	003fdf06 	br	10021ac <_ZNK10__cxxabiv120__si_class_type_info12__do_dyncastElNS_17__class_type_info10__sub_kindEPKS1_PKvS4_S6_RNS1_16__dyncast_resultE+0x44>

01002230 <_ZNKSt9type_info14__is_pointer_pEv>:
 1002230:	0005883a 	mov	r2,zero
 1002234:	f800283a 	ret

01002238 <_ZNKSt9type_info15__is_function_pEv>:
 1002238:	0005883a 	mov	r2,zero
 100223c:	f800283a 	ret

01002240 <_ZNKSt9type_info10__do_catchEPKS_PPvj>:
 1002240:	20c00117 	ldw	r3,4(r4)
 1002244:	28800117 	ldw	r2,4(r5)
 1002248:	1885003a 	cmpeq	r2,r3,r2
 100224c:	f800283a 	ret

01002250 <_ZNKSt9type_info11__do_upcastEPKN10__cxxabiv117__class_type_infoEPPv>:
 1002250:	0005883a 	mov	r2,zero
 1002254:	f800283a 	ret

01002258 <_ZNSt9type_infoD0Ev>:
 1002258:	008040b4 	movhi	r2,258
 100225c:	10a39e04 	addi	r2,r2,-29064
 1002260:	20800015 	stw	r2,0(r4)
 1002264:	1001f141 	jmpi	1001f14 <_ZdlPv>

01002268 <_ZNSt9type_infoD1Ev>:
 1002268:	008040b4 	movhi	r2,258
 100226c:	10a39e04 	addi	r2,r2,-29064
 1002270:	20800015 	stw	r2,0(r4)
 1002274:	f800283a 	ret

01002278 <_ZNSt9type_infoD2Ev>:
 1002278:	008040b4 	movhi	r2,258
 100227c:	10a39e04 	addi	r2,r2,-29064
 1002280:	20800015 	stw	r2,0(r4)
 1002284:	f800283a 	ret

01002288 <__cxa_free_exception>:
 1002288:	2007883a 	mov	r3,r4
 100228c:	008040b4 	movhi	r2,258
 1002290:	108b7004 	addi	r2,r2,11712
 1002294:	213ff004 	addi	r4,r4,-64
 1002298:	11420004 	addi	r5,r2,2048
 100229c:	18800336 	bltu	r3,r2,10022ac <__cxa_free_exception+0x24>
 10022a0:	1885c83a 	sub	r2,r3,r2
 10022a4:	1004d27a 	srli	r2,r2,9
 10022a8:	19400136 	bltu	r3,r5,10022b0 <__cxa_free_exception+0x28>
 10022ac:	1002ba41 	jmpi	1002ba4 <free>
 10022b0:	00ffff84 	movi	r3,-2
 10022b4:	1886183a 	rol	r3,r3,r2
 10022b8:	d0a76317 	ldw	r2,-25204(gp)
 10022bc:	10c4703a 	and	r2,r2,r3
 10022c0:	d0a76315 	stw	r2,-25204(gp)
 10022c4:	f800283a 	ret

010022c8 <__cxa_allocate_exception>:
 10022c8:	deffed04 	addi	sp,sp,-76
 10022cc:	00804034 	movhi	r2,256
 10022d0:	1085d104 	addi	r2,r2,5956
 10022d4:	21001004 	addi	r4,r4,64
 10022d8:	00c040b4 	movhi	r3,258
 10022dc:	18e34904 	addi	r3,r3,-29404
 10022e0:	d8800615 	stw	r2,24(sp)
 10022e4:	d9000d15 	stw	r4,52(sp)
 10022e8:	00804034 	movhi	r2,256
 10022ec:	1088f604 	addi	r2,r2,9176
 10022f0:	d809883a 	mov	r4,sp
 10022f4:	dfc01215 	stw	ra,72(sp)
 10022f8:	d8c00715 	stw	r3,28(sp)
 10022fc:	d8800915 	stw	r2,36(sp)
 1002300:	df001115 	stw	fp,68(sp)
 1002304:	ddc01015 	stw	r23,64(sp)
 1002308:	dec00815 	stw	sp,32(sp)
 100230c:	dec00a15 	stw	sp,40(sp)
 1002310:	10026440 	call	1002644 <_Unwind_SjLj_Register>
 1002314:	d9000d17 	ldw	r4,52(sp)
 1002318:	1002bb80 	call	1002bb8 <malloc>
 100231c:	d8800e15 	stw	r2,56(sp)
 1002320:	1000171e 	bne	r2,zero,1002380 <__cxa_allocate_exception+0xb8>
 1002324:	d8c00d17 	ldw	r3,52(sp)
 1002328:	00808004 	movi	r2,512
 100232c:	d1e76317 	ldw	r7,-25204(gp)
 1002330:	10c02636 	bltu	r2,r3,10023cc <__cxa_allocate_exception+0x104>
 1002334:	3807883a 	mov	r3,r7
 1002338:	01400044 	movi	r5,1
 100233c:	1944703a 	and	r2,r3,r5
 1002340:	0009883a 	mov	r4,zero
 1002344:	01800104 	movi	r6,4
 1002348:	10000526 	beq	r2,zero,1002360 <__cxa_allocate_exception+0x98>
 100234c:	2149883a 	add	r4,r4,r5
 1002350:	21801e26 	beq	r4,r6,10023cc <__cxa_allocate_exception+0x104>
 1002354:	1806d07a 	srli	r3,r3,1
 1002358:	1944703a 	and	r2,r3,r5
 100235c:	103ffb1e 	bne	r2,zero,100234c <__cxa_allocate_exception+0x84>
 1002360:	2904983a 	sll	r2,r5,r4
 1002364:	2008927a 	slli	r4,r4,9
 1002368:	00c040b4 	movhi	r3,258
 100236c:	18cb7004 	addi	r3,r3,11712
 1002370:	3884b03a 	or	r2,r7,r2
 1002374:	20c9883a 	add	r4,r4,r3
 1002378:	d9000e15 	stw	r4,56(sp)
 100237c:	d0a76315 	stw	r2,-25204(gp)
 1002380:	100263c0 	call	100263c <__cxa_get_globals>
 1002384:	10c00117 	ldw	r3,4(r2)
 1002388:	d9000e17 	ldw	r4,56(sp)
 100238c:	000b883a 	mov	r5,zero
 1002390:	18c00044 	addi	r3,r3,1
 1002394:	10c00115 	stw	r3,4(r2)
 1002398:	01801004 	movi	r6,64
 100239c:	100330c0 	call	100330c <memset>
 10023a0:	d8800e17 	ldw	r2,56(sp)
 10023a4:	d809883a 	mov	r4,sp
 10023a8:	10801004 	addi	r2,r2,64
 10023ac:	d8800f15 	stw	r2,60(sp)
 10023b0:	10026540 	call	1002654 <_Unwind_SjLj_Unregister>
 10023b4:	d8800f17 	ldw	r2,60(sp)
 10023b8:	dfc01217 	ldw	ra,72(sp)
 10023bc:	df001117 	ldw	fp,68(sp)
 10023c0:	ddc01017 	ldw	r23,64(sp)
 10023c4:	dec01304 	addi	sp,sp,76
 10023c8:	f800283a 	ret
 10023cc:	00800044 	movi	r2,1
 10023d0:	d8800115 	stw	r2,4(sp)
 10023d4:	1001cf00 	call	1001cf0 <_ZSt9terminatev>
 10023d8:	d8800317 	ldw	r2,12(sp)
 10023dc:	00ffffc4 	movi	r3,-1
 10023e0:	d9000217 	ldw	r4,8(sp)
 10023e4:	10c00226 	beq	r2,r3,10023f0 <__cxa_allocate_exception+0x128>
 10023e8:	d8c00115 	stw	r3,4(sp)
 10023ec:	10029100 	call	1002910 <_Unwind_SjLj_Resume>
 10023f0:	00bfffc4 	movi	r2,-1
 10023f4:	d8800115 	stw	r2,4(sp)
 10023f8:	10015c40 	call	10015c4 <__cxa_call_unexpected>

010023fc <_Znwm>:
 10023fc:	deffee04 	addi	sp,sp,-72
 1002400:	00804034 	movhi	r2,256
 1002404:	1085d104 	addi	r2,r2,5956
 1002408:	d8800615 	stw	r2,24(sp)
 100240c:	00c040b4 	movhi	r3,258
 1002410:	18e34d04 	addi	r3,r3,-29388
 1002414:	00804034 	movhi	r2,256
 1002418:	10893604 	addi	r2,r2,9432
 100241c:	d9000e15 	stw	r4,56(sp)
 1002420:	d809883a 	mov	r4,sp
 1002424:	d8800915 	stw	r2,36(sp)
 1002428:	dfc01115 	stw	ra,68(sp)
 100242c:	df001015 	stw	fp,64(sp)
 1002430:	ddc00f15 	stw	r23,60(sp)
 1002434:	d8c00715 	stw	r3,28(sp)
 1002438:	dec00815 	stw	sp,32(sp)
 100243c:	dec00a15 	stw	sp,40(sp)
 1002440:	10026440 	call	1002644 <_Unwind_SjLj_Register>
 1002444:	d8800e17 	ldw	r2,56(sp)
 1002448:	10000a1e 	bne	r2,zero,1002474 <_Znwm+0x78>
 100244c:	00800044 	movi	r2,1
 1002450:	d8800e15 	stw	r2,56(sp)
 1002454:	00000706 	br	1002474 <_Znwm+0x78>
 1002458:	008040b4 	movhi	r2,258
 100245c:	10b34204 	addi	r2,r2,-13048
 1002460:	10c00017 	ldw	r3,0(r2)
 1002464:	18000f26 	beq	r3,zero,10024a4 <_Znwm+0xa8>
 1002468:	00800044 	movi	r2,1
 100246c:	d8800115 	stw	r2,4(sp)
 1002470:	183ee83a 	callr	r3
 1002474:	d9000e17 	ldw	r4,56(sp)
 1002478:	1002bb80 	call	1002bb8 <malloc>
 100247c:	d8800d15 	stw	r2,52(sp)
 1002480:	103ff526 	beq	r2,zero,1002458 <_Znwm+0x5c>
 1002484:	d809883a 	mov	r4,sp
 1002488:	10026540 	call	1002654 <_Unwind_SjLj_Unregister>
 100248c:	d8800d17 	ldw	r2,52(sp)
 1002490:	dfc01117 	ldw	ra,68(sp)
 1002494:	df001017 	ldw	fp,64(sp)
 1002498:	ddc00f17 	ldw	r23,60(sp)
 100249c:	dec01204 	addi	sp,sp,72
 10024a0:	f800283a 	ret
 10024a4:	01000104 	movi	r4,4
 10024a8:	10022c80 	call	10022c8 <__cxa_allocate_exception>
 10024ac:	1009883a 	mov	r4,r2
 10024b0:	008040b4 	movhi	r2,258
 10024b4:	10a3c004 	addi	r2,r2,-28928
 10024b8:	20800015 	stw	r2,0(r4)
 10024bc:	00c00044 	movi	r3,1
 10024c0:	d8c00115 	stw	r3,4(sp)
 10024c4:	014040b4 	movhi	r5,258
 10024c8:	2963c704 	addi	r5,r5,-28900
 10024cc:	01804034 	movhi	r6,256
 10024d0:	31898504 	addi	r6,r6,9748
 10024d4:	1001f940 	call	1001f94 <__cxa_throw>
 10024d8:	d8800317 	ldw	r2,12(sp)
 10024dc:	00ffffc4 	movi	r3,-1
 10024e0:	d9000217 	ldw	r4,8(sp)
 10024e4:	10c00226 	beq	r2,r3,10024f0 <_Znwm+0xf4>
 10024e8:	d8c00115 	stw	r3,4(sp)
 10024ec:	10029100 	call	1002910 <_Unwind_SjLj_Resume>
 10024f0:	00bfffc4 	movi	r2,-1
 10024f4:	d8800115 	stw	r2,4(sp)
 10024f8:	10015c40 	call	10015c4 <__cxa_call_unexpected>

010024fc <_ZNKSt9exception4whatEv>:
 10024fc:	20800017 	ldw	r2,0(r4)
 1002500:	10ffff17 	ldw	r3,-4(r2)
 1002504:	18800117 	ldw	r2,4(r3)
 1002508:	f800283a 	ret

0100250c <_ZNSt9exceptionD0Ev>:
 100250c:	008040b4 	movhi	r2,258
 1002510:	10a3af04 	addi	r2,r2,-28996
 1002514:	20800015 	stw	r2,0(r4)
 1002518:	1001f141 	jmpi	1001f14 <_ZdlPv>

0100251c <_ZNSt9exceptionD1Ev>:
 100251c:	008040b4 	movhi	r2,258
 1002520:	10a3af04 	addi	r2,r2,-28996
 1002524:	20800015 	stw	r2,0(r4)
 1002528:	f800283a 	ret

0100252c <_ZNSt9exceptionD2Ev>:
 100252c:	008040b4 	movhi	r2,258
 1002530:	10a3af04 	addi	r2,r2,-28996
 1002534:	20800015 	stw	r2,0(r4)
 1002538:	f800283a 	ret

0100253c <_ZNSt13bad_exceptionD0Ev>:
 100253c:	defffe04 	addi	sp,sp,-8
 1002540:	008040b4 	movhi	r2,258
 1002544:	10a3aa04 	addi	r2,r2,-29016
 1002548:	dc400015 	stw	r17,0(sp)
 100254c:	20800015 	stw	r2,0(r4)
 1002550:	2023883a 	mov	r17,r4
 1002554:	dfc00115 	stw	ra,4(sp)
 1002558:	100252c0 	call	100252c <_ZNSt9exceptionD2Ev>
 100255c:	8809883a 	mov	r4,r17
 1002560:	dfc00117 	ldw	ra,4(sp)
 1002564:	dc400017 	ldw	r17,0(sp)
 1002568:	dec00204 	addi	sp,sp,8
 100256c:	1001f141 	jmpi	1001f14 <_ZdlPv>

01002570 <_ZNSt13bad_exceptionD1Ev>:
 1002570:	008040b4 	movhi	r2,258
 1002574:	10a3aa04 	addi	r2,r2,-29016
 1002578:	20800015 	stw	r2,0(r4)
 100257c:	100252c1 	jmpi	100252c <_ZNSt9exceptionD2Ev>

01002580 <_ZNSt13bad_exceptionD2Ev>:
 1002580:	008040b4 	movhi	r2,258
 1002584:	10a3aa04 	addi	r2,r2,-29016
 1002588:	20800015 	stw	r2,0(r4)
 100258c:	100252c1 	jmpi	100252c <_ZNSt9exceptionD2Ev>

01002590 <__cxa_call_terminate>:
 1002590:	defffe04 	addi	sp,sp,-8
 1002594:	dc000015 	stw	r16,0(sp)
 1002598:	dfc00115 	stw	ra,4(sp)
 100259c:	2021883a 	mov	r16,r4
 10025a0:	20000626 	beq	r4,zero,10025bc <__cxa_call_terminate+0x2c>
 10025a4:	1001dfc0 	call	1001dfc <__cxa_begin_catch>
 10025a8:	80c00017 	ldw	r3,0(r16)
 10025ac:	0090caf4 	movhi	r2,17195
 10025b0:	108ac004 	addi	r2,r2,11008
 10025b4:	81000117 	ldw	r4,4(r16)
 10025b8:	18800126 	beq	r3,r2,10025c0 <__cxa_call_terminate+0x30>
 10025bc:	1001cf00 	call	1001cf0 <_ZSt9terminatev>
 10025c0:	0091d3b4 	movhi	r2,18254
 10025c4:	109550c4 	addi	r2,r2,21827
 10025c8:	20bffc1e 	bne	r4,r2,10025bc <__cxa_call_terminate+0x2c>
 10025cc:	813ff817 	ldw	r4,-32(r16)
 10025d0:	1001c4c0 	call	1001c4c <_ZN10__cxxabiv111__terminateEPFvvE>

010025d4 <_ZSt15set_new_handlerPFvvE>:
 10025d4:	d0a76417 	ldw	r2,-25200(gp)
 10025d8:	d1276415 	stw	r4,-25200(gp)
 10025dc:	f800283a 	ret

010025e0 <_ZNSt9bad_allocD0Ev>:
 10025e0:	defffe04 	addi	sp,sp,-8
 10025e4:	008040b4 	movhi	r2,258
 10025e8:	10a3c004 	addi	r2,r2,-28928
 10025ec:	dc400015 	stw	r17,0(sp)
 10025f0:	20800015 	stw	r2,0(r4)
 10025f4:	2023883a 	mov	r17,r4
 10025f8:	dfc00115 	stw	ra,4(sp)
 10025fc:	100252c0 	call	100252c <_ZNSt9exceptionD2Ev>
 1002600:	8809883a 	mov	r4,r17
 1002604:	dfc00117 	ldw	ra,4(sp)
 1002608:	dc400017 	ldw	r17,0(sp)
 100260c:	dec00204 	addi	sp,sp,8
 1002610:	1001f141 	jmpi	1001f14 <_ZdlPv>

01002614 <_ZNSt9bad_allocD1Ev>:
 1002614:	008040b4 	movhi	r2,258
 1002618:	10a3c004 	addi	r2,r2,-28928
 100261c:	20800015 	stw	r2,0(r4)
 1002620:	100252c1 	jmpi	100252c <_ZNSt9exceptionD2Ev>

01002624 <_ZNSt9bad_allocD2Ev>:
 1002624:	008040b4 	movhi	r2,258
 1002628:	10a3c004 	addi	r2,r2,-28928
 100262c:	20800015 	stw	r2,0(r4)
 1002630:	100252c1 	jmpi	100252c <_ZNSt9exceptionD2Ev>

01002634 <__cxa_get_globals_fast>:
 1002634:	d0a76504 	addi	r2,gp,-25196
 1002638:	f800283a 	ret

0100263c <__cxa_get_globals>:
 100263c:	d0a76504 	addi	r2,gp,-25196
 1002640:	f800283a 	ret

01002644 <_Unwind_SjLj_Register>:
 1002644:	d0a76717 	ldw	r2,-25188(gp)
 1002648:	20800015 	stw	r2,0(r4)
 100264c:	d1276715 	stw	r4,-25188(gp)
 1002650:	f800283a 	ret

01002654 <_Unwind_SjLj_Unregister>:
 1002654:	20800017 	ldw	r2,0(r4)
 1002658:	d0a76715 	stw	r2,-25188(gp)
 100265c:	f800283a 	ret

01002660 <_Unwind_GetGR>:
 1002660:	20800017 	ldw	r2,0(r4)
 1002664:	294b883a 	add	r5,r5,r5
 1002668:	294b883a 	add	r5,r5,r5
 100266c:	288b883a 	add	r5,r5,r2
 1002670:	28800217 	ldw	r2,8(r5)
 1002674:	f800283a 	ret

01002678 <_Unwind_GetCFA>:
 1002678:	21000017 	ldw	r4,0(r4)
 100267c:	0005883a 	mov	r2,zero
 1002680:	20000126 	beq	r4,zero,1002688 <_Unwind_GetCFA+0x10>
 1002684:	20800a17 	ldw	r2,40(r4)
 1002688:	f800283a 	ret

0100268c <_Unwind_SetGR>:
 100268c:	20800017 	ldw	r2,0(r4)
 1002690:	294b883a 	add	r5,r5,r5
 1002694:	294b883a 	add	r5,r5,r5
 1002698:	288b883a 	add	r5,r5,r2
 100269c:	29800215 	stw	r6,8(r5)
 10026a0:	f800283a 	ret

010026a4 <_Unwind_GetIP>:
 10026a4:	20c00017 	ldw	r3,0(r4)
 10026a8:	18800117 	ldw	r2,4(r3)
 10026ac:	10800044 	addi	r2,r2,1
 10026b0:	f800283a 	ret

010026b4 <_Unwind_GetIPInfo>:
 10026b4:	20c00017 	ldw	r3,0(r4)
 10026b8:	28000015 	stw	zero,0(r5)
 10026bc:	18800117 	ldw	r2,4(r3)
 10026c0:	10800044 	addi	r2,r2,1
 10026c4:	f800283a 	ret

010026c8 <_Unwind_SetIP>:
 10026c8:	20800017 	ldw	r2,0(r4)
 10026cc:	297fffc4 	addi	r5,r5,-1
 10026d0:	11400115 	stw	r5,4(r2)
 10026d4:	f800283a 	ret

010026d8 <_Unwind_GetLanguageSpecificData>:
 10026d8:	20c00017 	ldw	r3,0(r4)
 10026dc:	18800717 	ldw	r2,28(r3)
 10026e0:	f800283a 	ret

010026e4 <_Unwind_GetRegionStart>:
 10026e4:	0005883a 	mov	r2,zero
 10026e8:	f800283a 	ret

010026ec <_Unwind_FindEnclosingFunction>:
 10026ec:	0005883a 	mov	r2,zero
 10026f0:	f800283a 	ret

010026f4 <_Unwind_GetDataRelBase>:
 10026f4:	0005883a 	mov	r2,zero
 10026f8:	f800283a 	ret

010026fc <_Unwind_GetTextRelBase>:
 10026fc:	0005883a 	mov	r2,zero
 1002700:	f800283a 	ret

01002704 <_Unwind_ForcedUnwind_Phase2>:
 1002704:	defff604 	addi	sp,sp,-40
 1002708:	dd400815 	stw	r21,32(sp)
 100270c:	dd000715 	stw	r20,28(sp)
 1002710:	25400317 	ldw	r21,12(r4)
 1002714:	25000417 	ldw	r20,16(r4)
 1002718:	28800017 	ldw	r2,0(r5)
 100271c:	dc800515 	stw	r18,20(sp)
 1002720:	dc000315 	stw	r16,12(sp)
 1002724:	2825883a 	mov	r18,r5
 1002728:	2021883a 	mov	r16,r4
 100272c:	dfc00915 	stw	ra,36(sp)
 1002730:	dcc00615 	stw	r19,24(sp)
 1002734:	dc400415 	stw	r17,16(sp)
 1002738:	00001406 	br	100278c <_Unwind_ForcedUnwind_Phase2+0x88>
 100273c:	00800144 	movi	r2,5
 1002740:	88802626 	beq	r17,r2,10027dc <_Unwind_ForcedUnwind_Phase2+0xd8>
 1002744:	98000c26 	beq	r19,zero,1002778 <_Unwind_ForcedUnwind_Phase2+0x74>
 1002748:	82000017 	ldw	r8,0(r16)
 100274c:	dc000015 	stw	r16,0(sp)
 1002750:	dc800115 	stw	r18,4(sp)
 1002754:	82400117 	ldw	r9,4(r16)
 1002758:	400d883a 	mov	r6,r8
 100275c:	480f883a 	mov	r7,r9
 1002760:	983ee83a 	callr	r19
 1002764:	1023883a 	mov	r17,r2
 1002768:	008001c4 	movi	r2,7
 100276c:	88801b26 	beq	r17,r2,10027dc <_Unwind_ForcedUnwind_Phase2+0xd8>
 1002770:	00800204 	movi	r2,8
 1002774:	8880181e 	bne	r17,r2,10027d8 <_Unwind_ForcedUnwind_Phase2+0xd4>
 1002778:	91000017 	ldw	r4,0(r18)
 100277c:	10026540 	call	1002654 <_Unwind_SjLj_Unregister>
 1002780:	90800017 	ldw	r2,0(r18)
 1002784:	10800017 	ldw	r2,0(r2)
 1002788:	90800015 	stw	r2,0(r18)
 100278c:	01400684 	movi	r5,26
 1002790:	04400144 	movi	r17,5
 1002794:	0027883a 	mov	r19,zero
 1002798:	10000326 	beq	r2,zero,10027a8 <_Unwind_ForcedUnwind_Phase2+0xa4>
 100279c:	14c00617 	ldw	r19,24(r2)
 10027a0:	0023883a 	mov	r17,zero
 10027a4:	01400284 	movi	r5,10
 10027a8:	dc000015 	stw	r16,0(sp)
 10027ac:	dc800115 	stw	r18,4(sp)
 10027b0:	80800017 	ldw	r2,0(r16)
 10027b4:	dd000215 	stw	r20,8(sp)
 10027b8:	80c00117 	ldw	r3,4(r16)
 10027bc:	01000044 	movi	r4,1
 10027c0:	100d883a 	mov	r6,r2
 10027c4:	180f883a 	mov	r7,r3
 10027c8:	a83ee83a 	callr	r21
 10027cc:	01400284 	movi	r5,10
 10027d0:	01000044 	movi	r4,1
 10027d4:	103fd926 	beq	r2,zero,100273c <_Unwind_ForcedUnwind_Phase2+0x38>
 10027d8:	04400084 	movi	r17,2
 10027dc:	8805883a 	mov	r2,r17
 10027e0:	dfc00917 	ldw	ra,36(sp)
 10027e4:	dd400817 	ldw	r21,32(sp)
 10027e8:	dd000717 	ldw	r20,28(sp)
 10027ec:	dcc00617 	ldw	r19,24(sp)
 10027f0:	dc800517 	ldw	r18,20(sp)
 10027f4:	dc400417 	ldw	r17,16(sp)
 10027f8:	dc000317 	ldw	r16,12(sp)
 10027fc:	dec00a04 	addi	sp,sp,40
 1002800:	f800283a 	ret

01002804 <_Unwind_DeleteException>:
 1002804:	20800217 	ldw	r2,8(r4)
 1002808:	200b883a 	mov	r5,r4
 100280c:	01000044 	movi	r4,1
 1002810:	10000126 	beq	r2,zero,1002818 <_Unwind_DeleteException+0x14>
 1002814:	1000683a 	jmp	r2
 1002818:	f800283a 	ret

0100281c <_Unwind_RaiseException_Phase2>:
 100281c:	defffa04 	addi	sp,sp,-24
 1002820:	dc800415 	stw	r18,16(sp)
 1002824:	2825883a 	mov	r18,r5
 1002828:	29400017 	ldw	r5,0(r5)
 100282c:	dc400315 	stw	r17,12(sp)
 1002830:	dfc00515 	stw	ra,20(sp)
 1002834:	dc000215 	stw	r16,8(sp)
 1002838:	2023883a 	mov	r17,r4
 100283c:	28001b26 	beq	r5,zero,10028ac <_Unwind_RaiseException_Phase2+0x90>
 1002840:	88800417 	ldw	r2,16(r17)
 1002844:	0007883a 	mov	r3,zero
 1002848:	2a000617 	ldw	r8,24(r5)
 100284c:	28a1003a 	cmpeq	r16,r5,r2
 1002850:	802090ba 	slli	r16,r16,2
 1002854:	18001b1e 	bne	r3,zero,10028c4 <_Unwind_RaiseException_Phase2+0xa8>
 1002858:	40000e26 	beq	r8,zero,1002894 <_Unwind_RaiseException_Phase2+0x78>
 100285c:	88800017 	ldw	r2,0(r17)
 1002860:	dc400015 	stw	r17,0(sp)
 1002864:	dc800115 	stw	r18,4(sp)
 1002868:	88c00117 	ldw	r3,4(r17)
 100286c:	01000044 	movi	r4,1
 1002870:	81400094 	ori	r5,r16,2
 1002874:	180f883a 	mov	r7,r3
 1002878:	100d883a 	mov	r6,r2
 100287c:	403ee83a 	callr	r8
 1002880:	1007883a 	mov	r3,r2
 1002884:	008001c4 	movi	r2,7
 1002888:	18800f26 	beq	r3,r2,10028c8 <_Unwind_RaiseException_Phase2+0xac>
 100288c:	00800204 	movi	r2,8
 1002890:	18800c1e 	bne	r3,r2,10028c4 <_Unwind_RaiseException_Phase2+0xa8>
 1002894:	8000131e 	bne	r16,zero,10028e4 <_Unwind_RaiseException_Phase2+0xc8>
 1002898:	91400017 	ldw	r5,0(r18)
 100289c:	28800017 	ldw	r2,0(r5)
 10028a0:	100b883a 	mov	r5,r2
 10028a4:	90800015 	stw	r2,0(r18)
 10028a8:	283fe51e 	bne	r5,zero,1002840 <_Unwind_RaiseException_Phase2+0x24>
 10028ac:	88800417 	ldw	r2,16(r17)
 10028b0:	00c00144 	movi	r3,5
 10028b4:	0011883a 	mov	r8,zero
 10028b8:	28a1003a 	cmpeq	r16,r5,r2
 10028bc:	802090ba 	slli	r16,r16,2
 10028c0:	183fe526 	beq	r3,zero,1002858 <_Unwind_RaiseException_Phase2+0x3c>
 10028c4:	00c00084 	movi	r3,2
 10028c8:	1805883a 	mov	r2,r3
 10028cc:	dfc00517 	ldw	ra,20(sp)
 10028d0:	dc800417 	ldw	r18,16(sp)
 10028d4:	dc400317 	ldw	r17,12(sp)
 10028d8:	dc000217 	ldw	r16,8(sp)
 10028dc:	dec00604 	addi	sp,sp,24
 10028e0:	f800283a 	ret
 10028e4:	1002b8c0 	call	1002b8c <abort>

010028e8 <uw_install_context>:
 10028e8:	28800017 	ldw	r2,0(r5)
 10028ec:	deffff04 	addi	sp,sp,-4
 10028f0:	df000015 	stw	fp,0(sp)
 10028f4:	10c00804 	addi	r3,r2,32
 10028f8:	d839883a 	mov	fp,sp
 10028fc:	d0a76715 	stw	r2,-25188(gp)
 1002900:	19000117 	ldw	r4,4(r3)
 1002904:	1f000017 	ldw	fp,0(r3)
 1002908:	1ec00217 	ldw	sp,8(r3)
 100290c:	2000683a 	jmp	r4

01002910 <_Unwind_SjLj_Resume>:
 1002910:	d0e76717 	ldw	r3,-25188(gp)
 1002914:	20800317 	ldw	r2,12(r4)
 1002918:	defffc04 	addi	sp,sp,-16
 100291c:	dfc00315 	stw	ra,12(sp)
 1002920:	dc000215 	stw	r16,8(sp)
 1002924:	d8c00015 	stw	r3,0(sp)
 1002928:	d8c00115 	stw	r3,4(sp)
 100292c:	1000071e 	bne	r2,zero,100294c <_Unwind_SjLj_Resume+0x3c>
 1002930:	dc000104 	addi	r16,sp,4
 1002934:	800b883a 	mov	r5,r16
 1002938:	100281c0 	call	100281c <_Unwind_RaiseException_Phase2>
 100293c:	1007883a 	mov	r3,r2
 1002940:	008001c4 	movi	r2,7
 1002944:	18800626 	beq	r3,r2,1002960 <_Unwind_SjLj_Resume+0x50>
 1002948:	1002b8c0 	call	1002b8c <abort>
 100294c:	dc000104 	addi	r16,sp,4
 1002950:	800b883a 	mov	r5,r16
 1002954:	10027040 	call	1002704 <_Unwind_ForcedUnwind_Phase2>
 1002958:	1007883a 	mov	r3,r2
 100295c:	003ff806 	br	1002940 <_Unwind_SjLj_Resume+0x30>
 1002960:	800b883a 	mov	r5,r16
 1002964:	d809883a 	mov	r4,sp
 1002968:	10028e80 	call	10028e8 <uw_install_context>

0100296c <_Unwind_SjLj_RaiseException>:
 100296c:	d0a76717 	ldw	r2,-25188(gp)
 1002970:	defff804 	addi	sp,sp,-32
 1002974:	dc000415 	stw	r16,16(sp)
 1002978:	dfc00715 	stw	ra,28(sp)
 100297c:	dc800615 	stw	r18,24(sp)
 1002980:	dc400515 	stw	r17,20(sp)
 1002984:	2021883a 	mov	r16,r4
 1002988:	d8800215 	stw	r2,8(sp)
 100298c:	d8800315 	stw	r2,12(sp)
 1002990:	10001626 	beq	r2,zero,10029ec <_Unwind_SjLj_RaiseException+0x80>
 1002994:	dc400304 	addi	r17,sp,12
 1002998:	04800184 	movi	r18,6
 100299c:	00000106 	br	10029a4 <_Unwind_SjLj_RaiseException+0x38>
 10029a0:	d8800315 	stw	r2,12(sp)
 10029a4:	12000617 	ldw	r8,24(r2)
 10029a8:	40000d26 	beq	r8,zero,10029e0 <_Unwind_SjLj_RaiseException+0x74>
 10029ac:	80800017 	ldw	r2,0(r16)
 10029b0:	dc000015 	stw	r16,0(sp)
 10029b4:	80c00117 	ldw	r3,4(r16)
 10029b8:	01000044 	movi	r4,1
 10029bc:	dc400115 	stw	r17,4(sp)
 10029c0:	180f883a 	mov	r7,r3
 10029c4:	200b883a 	mov	r5,r4
 10029c8:	100d883a 	mov	r6,r2
 10029cc:	403ee83a 	callr	r8
 10029d0:	1007883a 	mov	r3,r2
 10029d4:	14800d26 	beq	r2,r18,1002a0c <_Unwind_SjLj_RaiseException+0xa0>
 10029d8:	00800204 	movi	r2,8
 10029dc:	1880191e 	bne	r3,r2,1002a44 <_Unwind_SjLj_RaiseException+0xd8>
 10029e0:	d8800317 	ldw	r2,12(sp)
 10029e4:	10800017 	ldw	r2,0(r2)
 10029e8:	103fed1e 	bne	r2,zero,10029a0 <_Unwind_SjLj_RaiseException+0x34>
 10029ec:	00c00144 	movi	r3,5
 10029f0:	1805883a 	mov	r2,r3
 10029f4:	dfc00717 	ldw	ra,28(sp)
 10029f8:	dc800617 	ldw	r18,24(sp)
 10029fc:	dc400517 	ldw	r17,20(sp)
 1002a00:	dc000417 	ldw	r16,16(sp)
 1002a04:	dec00804 	addi	sp,sp,32
 1002a08:	f800283a 	ret
 1002a0c:	d8800317 	ldw	r2,12(sp)
 1002a10:	80000315 	stw	zero,12(r16)
 1002a14:	8009883a 	mov	r4,r16
 1002a18:	80800415 	stw	r2,16(r16)
 1002a1c:	d8800217 	ldw	r2,8(sp)
 1002a20:	880b883a 	mov	r5,r17
 1002a24:	d8800315 	stw	r2,12(sp)
 1002a28:	100281c0 	call	100281c <_Unwind_RaiseException_Phase2>
 1002a2c:	1007883a 	mov	r3,r2
 1002a30:	008001c4 	movi	r2,7
 1002a34:	18bfee1e 	bne	r3,r2,10029f0 <_Unwind_SjLj_RaiseException+0x84>
 1002a38:	880b883a 	mov	r5,r17
 1002a3c:	d9000204 	addi	r4,sp,8
 1002a40:	10028e80 	call	10028e8 <uw_install_context>
 1002a44:	00c000c4 	movi	r3,3
 1002a48:	1805883a 	mov	r2,r3
 1002a4c:	dfc00717 	ldw	ra,28(sp)
 1002a50:	dc800617 	ldw	r18,24(sp)
 1002a54:	dc400517 	ldw	r17,20(sp)
 1002a58:	dc000417 	ldw	r16,16(sp)
 1002a5c:	dec00804 	addi	sp,sp,32
 1002a60:	f800283a 	ret

01002a64 <_Unwind_SjLj_ForcedUnwind>:
 1002a64:	defffc04 	addi	sp,sp,-16
 1002a68:	d0a76717 	ldw	r2,-25188(gp)
 1002a6c:	dc000215 	stw	r16,8(sp)
 1002a70:	dc000104 	addi	r16,sp,4
 1002a74:	21400315 	stw	r5,12(r4)
 1002a78:	21800415 	stw	r6,16(r4)
 1002a7c:	800b883a 	mov	r5,r16
 1002a80:	dfc00315 	stw	ra,12(sp)
 1002a84:	d8800015 	stw	r2,0(sp)
 1002a88:	d8800115 	stw	r2,4(sp)
 1002a8c:	10027040 	call	1002704 <_Unwind_ForcedUnwind_Phase2>
 1002a90:	00c001c4 	movi	r3,7
 1002a94:	10c00426 	beq	r2,r3,1002aa8 <_Unwind_SjLj_ForcedUnwind+0x44>
 1002a98:	dfc00317 	ldw	ra,12(sp)
 1002a9c:	dc000217 	ldw	r16,8(sp)
 1002aa0:	dec00404 	addi	sp,sp,16
 1002aa4:	f800283a 	ret
 1002aa8:	800b883a 	mov	r5,r16
 1002aac:	d809883a 	mov	r4,sp
 1002ab0:	10028e80 	call	10028e8 <uw_install_context>

01002ab4 <_Unwind_Backtrace>:
 1002ab4:	d0a76717 	ldw	r2,-25188(gp)
 1002ab8:	defffa04 	addi	sp,sp,-24
 1002abc:	dcc00415 	stw	r19,16(sp)
 1002ac0:	dc800315 	stw	r18,12(sp)
 1002ac4:	dc400215 	stw	r17,8(sp)
 1002ac8:	2025883a 	mov	r18,r4
 1002acc:	2823883a 	mov	r17,r5
 1002ad0:	04c00144 	movi	r19,5
 1002ad4:	dfc00515 	stw	ra,20(sp)
 1002ad8:	dc000115 	stw	r16,4(sp)
 1002adc:	d8800015 	stw	r2,0(sp)
 1002ae0:	00000406 	br	1002af4 <_Unwind_Backtrace+0x40>
 1002ae4:	84c00b26 	beq	r16,r19,1002b14 <_Unwind_Backtrace+0x60>
 1002ae8:	d8800017 	ldw	r2,0(sp)
 1002aec:	10800017 	ldw	r2,0(r2)
 1002af0:	d8800015 	stw	r2,0(sp)
 1002af4:	04000144 	movi	r16,5
 1002af8:	10000126 	beq	r2,zero,1002b00 <_Unwind_Backtrace+0x4c>
 1002afc:	0021883a 	mov	r16,zero
 1002b00:	d809883a 	mov	r4,sp
 1002b04:	880b883a 	mov	r5,r17
 1002b08:	903ee83a 	callr	r18
 1002b0c:	103ff526 	beq	r2,zero,1002ae4 <_Unwind_Backtrace+0x30>
 1002b10:	040000c4 	movi	r16,3
 1002b14:	8005883a 	mov	r2,r16
 1002b18:	dfc00517 	ldw	ra,20(sp)
 1002b1c:	dcc00417 	ldw	r19,16(sp)
 1002b20:	dc800317 	ldw	r18,12(sp)
 1002b24:	dc400217 	ldw	r17,8(sp)
 1002b28:	dc000117 	ldw	r16,4(sp)
 1002b2c:	dec00604 	addi	sp,sp,24
 1002b30:	f800283a 	ret

01002b34 <_Unwind_SjLj_Resume_or_Rethrow>:
 1002b34:	20800317 	ldw	r2,12(r4)
 1002b38:	defffc04 	addi	sp,sp,-16
 1002b3c:	dfc00315 	stw	ra,12(sp)
 1002b40:	dc000215 	stw	r16,8(sp)
 1002b44:	10000926 	beq	r2,zero,1002b6c <_Unwind_SjLj_Resume_or_Rethrow+0x38>
 1002b48:	d0a76717 	ldw	r2,-25188(gp)
 1002b4c:	dc000104 	addi	r16,sp,4
 1002b50:	800b883a 	mov	r5,r16
 1002b54:	d8800015 	stw	r2,0(sp)
 1002b58:	d8800115 	stw	r2,4(sp)
 1002b5c:	10027040 	call	1002704 <_Unwind_ForcedUnwind_Phase2>
 1002b60:	00c001c4 	movi	r3,7
 1002b64:	10c00626 	beq	r2,r3,1002b80 <_Unwind_SjLj_Resume_or_Rethrow+0x4c>
 1002b68:	1002b8c0 	call	1002b8c <abort>
 1002b6c:	100296c0 	call	100296c <_Unwind_SjLj_RaiseException>
 1002b70:	dfc00317 	ldw	ra,12(sp)
 1002b74:	dc000217 	ldw	r16,8(sp)
 1002b78:	dec00404 	addi	sp,sp,16
 1002b7c:	f800283a 	ret
 1002b80:	800b883a 	mov	r5,r16
 1002b84:	d809883a 	mov	r4,sp
 1002b88:	10028e80 	call	10028e8 <uw_install_context>

01002b8c <abort>:
 1002b8c:	deffff04 	addi	sp,sp,-4
 1002b90:	01000184 	movi	r4,6
 1002b94:	dfc00015 	stw	ra,0(sp)
 1002b98:	100360c0 	call	100360c <raise>
 1002b9c:	01000044 	movi	r4,1
 1002ba0:	100c8280 	call	100c828 <_exit>

01002ba4 <free>:
 1002ba4:	008040b4 	movhi	r2,258
 1002ba8:	10abe904 	addi	r2,r2,-20572
 1002bac:	200b883a 	mov	r5,r4
 1002bb0:	11000017 	ldw	r4,0(r2)
 1002bb4:	10077501 	jmpi	1007750 <_free_r>

01002bb8 <malloc>:
 1002bb8:	008040b4 	movhi	r2,258
 1002bbc:	10abe904 	addi	r2,r2,-20572
 1002bc0:	200b883a 	mov	r5,r4
 1002bc4:	11000017 	ldw	r4,0(r2)
 1002bc8:	1002bcc1 	jmpi	1002bcc <_malloc_r>

01002bcc <_malloc_r>:
 1002bcc:	defff604 	addi	sp,sp,-40
 1002bd0:	28c002c4 	addi	r3,r5,11
 1002bd4:	00800584 	movi	r2,22
 1002bd8:	dc800215 	stw	r18,8(sp)
 1002bdc:	dfc00915 	stw	ra,36(sp)
 1002be0:	df000815 	stw	fp,32(sp)
 1002be4:	ddc00715 	stw	r23,28(sp)
 1002be8:	dd800615 	stw	r22,24(sp)
 1002bec:	dd400515 	stw	r21,20(sp)
 1002bf0:	dd000415 	stw	r20,16(sp)
 1002bf4:	dcc00315 	stw	r19,12(sp)
 1002bf8:	dc400115 	stw	r17,4(sp)
 1002bfc:	dc000015 	stw	r16,0(sp)
 1002c00:	2025883a 	mov	r18,r4
 1002c04:	10c01236 	bltu	r2,r3,1002c50 <_malloc_r+0x84>
 1002c08:	04400404 	movi	r17,16
 1002c0c:	8940142e 	bgeu	r17,r5,1002c60 <_malloc_r+0x94>
 1002c10:	00800304 	movi	r2,12
 1002c14:	0007883a 	mov	r3,zero
 1002c18:	90800015 	stw	r2,0(r18)
 1002c1c:	1805883a 	mov	r2,r3
 1002c20:	dfc00917 	ldw	ra,36(sp)
 1002c24:	df000817 	ldw	fp,32(sp)
 1002c28:	ddc00717 	ldw	r23,28(sp)
 1002c2c:	dd800617 	ldw	r22,24(sp)
 1002c30:	dd400517 	ldw	r21,20(sp)
 1002c34:	dd000417 	ldw	r20,16(sp)
 1002c38:	dcc00317 	ldw	r19,12(sp)
 1002c3c:	dc800217 	ldw	r18,8(sp)
 1002c40:	dc400117 	ldw	r17,4(sp)
 1002c44:	dc000017 	ldw	r16,0(sp)
 1002c48:	dec00a04 	addi	sp,sp,40
 1002c4c:	f800283a 	ret
 1002c50:	00bffe04 	movi	r2,-8
 1002c54:	18a2703a 	and	r17,r3,r2
 1002c58:	883fed16 	blt	r17,zero,1002c10 <_malloc_r+0x44>
 1002c5c:	897fec36 	bltu	r17,r5,1002c10 <_malloc_r+0x44>
 1002c60:	9009883a 	mov	r4,r18
 1002c64:	100d75c0 	call	100d75c <__malloc_lock>
 1002c68:	00807dc4 	movi	r2,503
 1002c6c:	14402b2e 	bgeu	r2,r17,1002d1c <_malloc_r+0x150>
 1002c70:	8806d27a 	srli	r3,r17,9
 1002c74:	18003f1e 	bne	r3,zero,1002d74 <_malloc_r+0x1a8>
 1002c78:	880cd0fa 	srli	r6,r17,3
 1002c7c:	300490fa 	slli	r2,r6,3
 1002c80:	02c040b4 	movhi	r11,258
 1002c84:	5ae4ec04 	addi	r11,r11,-27728
 1002c88:	12cb883a 	add	r5,r2,r11
 1002c8c:	2c000317 	ldw	r16,12(r5)
 1002c90:	580f883a 	mov	r7,r11
 1002c94:	2c00041e 	bne	r5,r16,1002ca8 <_malloc_r+0xdc>
 1002c98:	00000a06 	br	1002cc4 <_malloc_r+0xf8>
 1002c9c:	1800860e 	bge	r3,zero,1002eb8 <_malloc_r+0x2ec>
 1002ca0:	84000317 	ldw	r16,12(r16)
 1002ca4:	2c000726 	beq	r5,r16,1002cc4 <_malloc_r+0xf8>
 1002ca8:	80800117 	ldw	r2,4(r16)
 1002cac:	00ffff04 	movi	r3,-4
 1002cb0:	10c8703a 	and	r4,r2,r3
 1002cb4:	2447c83a 	sub	r3,r4,r17
 1002cb8:	008003c4 	movi	r2,15
 1002cbc:	10fff70e 	bge	r2,r3,1002c9c <_malloc_r+0xd0>
 1002cc0:	31bfffc4 	addi	r6,r6,-1
 1002cc4:	32400044 	addi	r9,r6,1
 1002cc8:	028040b4 	movhi	r10,258
 1002ccc:	52a4ee04 	addi	r10,r10,-27720
 1002cd0:	54000217 	ldw	r16,8(r10)
 1002cd4:	8280a026 	beq	r16,r10,1002f58 <_malloc_r+0x38c>
 1002cd8:	80800117 	ldw	r2,4(r16)
 1002cdc:	00ffff04 	movi	r3,-4
 1002ce0:	10ca703a 	and	r5,r2,r3
 1002ce4:	2c4dc83a 	sub	r6,r5,r17
 1002ce8:	008003c4 	movi	r2,15
 1002cec:	11808316 	blt	r2,r6,1002efc <_malloc_r+0x330>
 1002cf0:	52800315 	stw	r10,12(r10)
 1002cf4:	52800215 	stw	r10,8(r10)
 1002cf8:	30002916 	blt	r6,zero,1002da0 <_malloc_r+0x1d4>
 1002cfc:	8147883a 	add	r3,r16,r5
 1002d00:	18800117 	ldw	r2,4(r3)
 1002d04:	9009883a 	mov	r4,r18
 1002d08:	10800054 	ori	r2,r2,1
 1002d0c:	18800115 	stw	r2,4(r3)
 1002d10:	100d8640 	call	100d864 <__malloc_unlock>
 1002d14:	80c00204 	addi	r3,r16,8
 1002d18:	003fc006 	br	1002c1c <_malloc_r+0x50>
 1002d1c:	02c040b4 	movhi	r11,258
 1002d20:	5ae4ec04 	addi	r11,r11,-27728
 1002d24:	8ac5883a 	add	r2,r17,r11
 1002d28:	14000317 	ldw	r16,12(r2)
 1002d2c:	580f883a 	mov	r7,r11
 1002d30:	8806d0fa 	srli	r3,r17,3
 1002d34:	14006c26 	beq	r2,r16,1002ee8 <_malloc_r+0x31c>
 1002d38:	80c00117 	ldw	r3,4(r16)
 1002d3c:	00bfff04 	movi	r2,-4
 1002d40:	81800317 	ldw	r6,12(r16)
 1002d44:	1886703a 	and	r3,r3,r2
 1002d48:	80c7883a 	add	r3,r16,r3
 1002d4c:	18800117 	ldw	r2,4(r3)
 1002d50:	81400217 	ldw	r5,8(r16)
 1002d54:	9009883a 	mov	r4,r18
 1002d58:	10800054 	ori	r2,r2,1
 1002d5c:	18800115 	stw	r2,4(r3)
 1002d60:	31400215 	stw	r5,8(r6)
 1002d64:	29800315 	stw	r6,12(r5)
 1002d68:	100d8640 	call	100d864 <__malloc_unlock>
 1002d6c:	80c00204 	addi	r3,r16,8
 1002d70:	003faa06 	br	1002c1c <_malloc_r+0x50>
 1002d74:	00800104 	movi	r2,4
 1002d78:	10c0052e 	bgeu	r2,r3,1002d90 <_malloc_r+0x1c4>
 1002d7c:	00800504 	movi	r2,20
 1002d80:	10c07836 	bltu	r2,r3,1002f64 <_malloc_r+0x398>
 1002d84:	198016c4 	addi	r6,r3,91
 1002d88:	300490fa 	slli	r2,r6,3
 1002d8c:	003fbc06 	br	1002c80 <_malloc_r+0xb4>
 1002d90:	8804d1ba 	srli	r2,r17,6
 1002d94:	11800e04 	addi	r6,r2,56
 1002d98:	300490fa 	slli	r2,r6,3
 1002d9c:	003fb806 	br	1002c80 <_malloc_r+0xb4>
 1002da0:	00807fc4 	movi	r2,511
 1002da4:	1140bb36 	bltu	r2,r5,1003094 <_malloc_r+0x4c8>
 1002da8:	2806d0fa 	srli	r3,r5,3
 1002dac:	573ffe04 	addi	fp,r10,-8
 1002db0:	00800044 	movi	r2,1
 1002db4:	180890fa 	slli	r4,r3,3
 1002db8:	1807d0ba 	srai	r3,r3,2
 1002dbc:	e1c00117 	ldw	r7,4(fp)
 1002dc0:	5909883a 	add	r4,r11,r4
 1002dc4:	21400217 	ldw	r5,8(r4)
 1002dc8:	10c4983a 	sll	r2,r2,r3
 1002dcc:	81000315 	stw	r4,12(r16)
 1002dd0:	81400215 	stw	r5,8(r16)
 1002dd4:	388eb03a 	or	r7,r7,r2
 1002dd8:	2c000315 	stw	r16,12(r5)
 1002ddc:	24000215 	stw	r16,8(r4)
 1002de0:	e1c00115 	stw	r7,4(fp)
 1002de4:	4807883a 	mov	r3,r9
 1002de8:	4800cd16 	blt	r9,zero,1003120 <_malloc_r+0x554>
 1002dec:	1807d0ba 	srai	r3,r3,2
 1002df0:	00800044 	movi	r2,1
 1002df4:	10c8983a 	sll	r4,r2,r3
 1002df8:	39004436 	bltu	r7,r4,1002f0c <_malloc_r+0x340>
 1002dfc:	21c4703a 	and	r2,r4,r7
 1002e00:	10000a1e 	bne	r2,zero,1002e2c <_malloc_r+0x260>
 1002e04:	2109883a 	add	r4,r4,r4
 1002e08:	00bfff04 	movi	r2,-4
 1002e0c:	4884703a 	and	r2,r9,r2
 1002e10:	3906703a 	and	r3,r7,r4
 1002e14:	12400104 	addi	r9,r2,4
 1002e18:	1800041e 	bne	r3,zero,1002e2c <_malloc_r+0x260>
 1002e1c:	2109883a 	add	r4,r4,r4
 1002e20:	3904703a 	and	r2,r7,r4
 1002e24:	4a400104 	addi	r9,r9,4
 1002e28:	103ffc26 	beq	r2,zero,1002e1c <_malloc_r+0x250>
 1002e2c:	480490fa 	slli	r2,r9,3
 1002e30:	4819883a 	mov	r12,r9
 1002e34:	023fff04 	movi	r8,-4
 1002e38:	589b883a 	add	r13,r11,r2
 1002e3c:	6807883a 	mov	r3,r13
 1002e40:	014003c4 	movi	r5,15
 1002e44:	1c000317 	ldw	r16,12(r3)
 1002e48:	1c00041e 	bne	r3,r16,1002e5c <_malloc_r+0x290>
 1002e4c:	0000a706 	br	10030ec <_malloc_r+0x520>
 1002e50:	3000ab0e 	bge	r6,zero,1003100 <_malloc_r+0x534>
 1002e54:	84000317 	ldw	r16,12(r16)
 1002e58:	1c00a426 	beq	r3,r16,10030ec <_malloc_r+0x520>
 1002e5c:	80800117 	ldw	r2,4(r16)
 1002e60:	1204703a 	and	r2,r2,r8
 1002e64:	144dc83a 	sub	r6,r2,r17
 1002e68:	29bff90e 	bge	r5,r6,1002e50 <_malloc_r+0x284>
 1002e6c:	81000317 	ldw	r4,12(r16)
 1002e70:	80c00217 	ldw	r3,8(r16)
 1002e74:	89400054 	ori	r5,r17,1
 1002e78:	8445883a 	add	r2,r16,r17
 1002e7c:	20c00215 	stw	r3,8(r4)
 1002e80:	19000315 	stw	r4,12(r3)
 1002e84:	81400115 	stw	r5,4(r16)
 1002e88:	1187883a 	add	r3,r2,r6
 1002e8c:	31000054 	ori	r4,r6,1
 1002e90:	50800315 	stw	r2,12(r10)
 1002e94:	50800215 	stw	r2,8(r10)
 1002e98:	19800015 	stw	r6,0(r3)
 1002e9c:	11000115 	stw	r4,4(r2)
 1002ea0:	12800215 	stw	r10,8(r2)
 1002ea4:	12800315 	stw	r10,12(r2)
 1002ea8:	9009883a 	mov	r4,r18
 1002eac:	100d8640 	call	100d864 <__malloc_unlock>
 1002eb0:	80c00204 	addi	r3,r16,8
 1002eb4:	003f5906 	br	1002c1c <_malloc_r+0x50>
 1002eb8:	8109883a 	add	r4,r16,r4
 1002ebc:	20800117 	ldw	r2,4(r4)
 1002ec0:	80c00217 	ldw	r3,8(r16)
 1002ec4:	81400317 	ldw	r5,12(r16)
 1002ec8:	10800054 	ori	r2,r2,1
 1002ecc:	20800115 	stw	r2,4(r4)
 1002ed0:	28c00215 	stw	r3,8(r5)
 1002ed4:	19400315 	stw	r5,12(r3)
 1002ed8:	9009883a 	mov	r4,r18
 1002edc:	100d8640 	call	100d864 <__malloc_unlock>
 1002ee0:	80c00204 	addi	r3,r16,8
 1002ee4:	003f4d06 	br	1002c1c <_malloc_r+0x50>
 1002ee8:	80800204 	addi	r2,r16,8
 1002eec:	14000317 	ldw	r16,12(r2)
 1002ef0:	143f911e 	bne	r2,r16,1002d38 <_malloc_r+0x16c>
 1002ef4:	1a400084 	addi	r9,r3,2
 1002ef8:	003f7306 	br	1002cc8 <_malloc_r+0xfc>
 1002efc:	88c00054 	ori	r3,r17,1
 1002f00:	8445883a 	add	r2,r16,r17
 1002f04:	80c00115 	stw	r3,4(r16)
 1002f08:	003fdf06 	br	1002e88 <_malloc_r+0x2bc>
 1002f0c:	e4000217 	ldw	r16,8(fp)
 1002f10:	00bfff04 	movi	r2,-4
 1002f14:	80c00117 	ldw	r3,4(r16)
 1002f18:	802d883a 	mov	r22,r16
 1002f1c:	18aa703a 	and	r21,r3,r2
 1002f20:	ac401636 	bltu	r21,r17,1002f7c <_malloc_r+0x3b0>
 1002f24:	ac49c83a 	sub	r4,r21,r17
 1002f28:	008003c4 	movi	r2,15
 1002f2c:	1100130e 	bge	r2,r4,1002f7c <_malloc_r+0x3b0>
 1002f30:	88800054 	ori	r2,r17,1
 1002f34:	8447883a 	add	r3,r16,r17
 1002f38:	80800115 	stw	r2,4(r16)
 1002f3c:	20800054 	ori	r2,r4,1
 1002f40:	18800115 	stw	r2,4(r3)
 1002f44:	e0c00215 	stw	r3,8(fp)
 1002f48:	9009883a 	mov	r4,r18
 1002f4c:	100d8640 	call	100d864 <__malloc_unlock>
 1002f50:	80c00204 	addi	r3,r16,8
 1002f54:	003f3106 	br	1002c1c <_malloc_r+0x50>
 1002f58:	39c00117 	ldw	r7,4(r7)
 1002f5c:	573ffe04 	addi	fp,r10,-8
 1002f60:	003fa006 	br	1002de4 <_malloc_r+0x218>
 1002f64:	00801504 	movi	r2,84
 1002f68:	10c06736 	bltu	r2,r3,1003108 <_malloc_r+0x53c>
 1002f6c:	8804d33a 	srli	r2,r17,12
 1002f70:	11801b84 	addi	r6,r2,110
 1002f74:	300490fa 	slli	r2,r6,3
 1002f78:	003f4106 	br	1002c80 <_malloc_r+0xb4>
 1002f7c:	d0a76817 	ldw	r2,-25184(gp)
 1002f80:	d0e00a17 	ldw	r3,-32728(gp)
 1002f84:	053fffc4 	movi	r20,-1
 1002f88:	10800404 	addi	r2,r2,16
 1002f8c:	88a7883a 	add	r19,r17,r2
 1002f90:	1d000326 	beq	r3,r20,1002fa0 <_malloc_r+0x3d4>
 1002f94:	98c3ffc4 	addi	r3,r19,4095
 1002f98:	00bc0004 	movi	r2,-4096
 1002f9c:	18a6703a 	and	r19,r3,r2
 1002fa0:	9009883a 	mov	r4,r18
 1002fa4:	980b883a 	mov	r5,r19
 1002fa8:	10034d00 	call	10034d0 <_sbrk_r>
 1002fac:	1009883a 	mov	r4,r2
 1002fb0:	15000426 	beq	r2,r20,1002fc4 <_malloc_r+0x3f8>
 1002fb4:	854b883a 	add	r5,r16,r21
 1002fb8:	1029883a 	mov	r20,r2
 1002fbc:	11405a2e 	bgeu	r2,r5,1003128 <_malloc_r+0x55c>
 1002fc0:	87000c26 	beq	r16,fp,1002ff4 <_malloc_r+0x428>
 1002fc4:	e4000217 	ldw	r16,8(fp)
 1002fc8:	80c00117 	ldw	r3,4(r16)
 1002fcc:	00bfff04 	movi	r2,-4
 1002fd0:	1884703a 	and	r2,r3,r2
 1002fd4:	14400336 	bltu	r2,r17,1002fe4 <_malloc_r+0x418>
 1002fd8:	1449c83a 	sub	r4,r2,r17
 1002fdc:	008003c4 	movi	r2,15
 1002fe0:	113fd316 	blt	r2,r4,1002f30 <_malloc_r+0x364>
 1002fe4:	9009883a 	mov	r4,r18
 1002fe8:	100d8640 	call	100d864 <__malloc_unlock>
 1002fec:	0007883a 	mov	r3,zero
 1002ff0:	003f0a06 	br	1002c1c <_malloc_r+0x50>
 1002ff4:	05c040b4 	movhi	r23,258
 1002ff8:	bdcd7004 	addi	r23,r23,13760
 1002ffc:	b8800017 	ldw	r2,0(r23)
 1003000:	988d883a 	add	r6,r19,r2
 1003004:	b9800015 	stw	r6,0(r23)
 1003008:	d0e00a17 	ldw	r3,-32728(gp)
 100300c:	00bfffc4 	movi	r2,-1
 1003010:	18808e26 	beq	r3,r2,100324c <_malloc_r+0x680>
 1003014:	2145c83a 	sub	r2,r4,r5
 1003018:	3085883a 	add	r2,r6,r2
 100301c:	b8800015 	stw	r2,0(r23)
 1003020:	20c001cc 	andi	r3,r4,7
 1003024:	18005f1e 	bne	r3,zero,10031a4 <_malloc_r+0x5d8>
 1003028:	000b883a 	mov	r5,zero
 100302c:	a4c5883a 	add	r2,r20,r19
 1003030:	1083ffcc 	andi	r2,r2,4095
 1003034:	00c40004 	movi	r3,4096
 1003038:	1887c83a 	sub	r3,r3,r2
 100303c:	28e7883a 	add	r19,r5,r3
 1003040:	9009883a 	mov	r4,r18
 1003044:	980b883a 	mov	r5,r19
 1003048:	10034d00 	call	10034d0 <_sbrk_r>
 100304c:	1007883a 	mov	r3,r2
 1003050:	00bfffc4 	movi	r2,-1
 1003054:	18807a26 	beq	r3,r2,1003240 <_malloc_r+0x674>
 1003058:	1d05c83a 	sub	r2,r3,r20
 100305c:	9885883a 	add	r2,r19,r2
 1003060:	10c00054 	ori	r3,r2,1
 1003064:	b8800017 	ldw	r2,0(r23)
 1003068:	a021883a 	mov	r16,r20
 100306c:	a0c00115 	stw	r3,4(r20)
 1003070:	9885883a 	add	r2,r19,r2
 1003074:	b8800015 	stw	r2,0(r23)
 1003078:	e5000215 	stw	r20,8(fp)
 100307c:	b7003626 	beq	r22,fp,1003158 <_malloc_r+0x58c>
 1003080:	018003c4 	movi	r6,15
 1003084:	35404b36 	bltu	r6,r21,10031b4 <_malloc_r+0x5e8>
 1003088:	00800044 	movi	r2,1
 100308c:	a0800115 	stw	r2,4(r20)
 1003090:	003fcd06 	br	1002fc8 <_malloc_r+0x3fc>
 1003094:	2808d27a 	srli	r4,r5,9
 1003098:	2000371e 	bne	r4,zero,1003178 <_malloc_r+0x5ac>
 100309c:	2808d0fa 	srli	r4,r5,3
 10030a0:	200690fa 	slli	r3,r4,3
 10030a4:	1ad1883a 	add	r8,r3,r11
 10030a8:	41800217 	ldw	r6,8(r8)
 10030ac:	41805b26 	beq	r8,r6,100321c <_malloc_r+0x650>
 10030b0:	30800117 	ldw	r2,4(r6)
 10030b4:	00ffff04 	movi	r3,-4
 10030b8:	10c4703a 	and	r2,r2,r3
 10030bc:	2880022e 	bgeu	r5,r2,10030c8 <_malloc_r+0x4fc>
 10030c0:	31800217 	ldw	r6,8(r6)
 10030c4:	41bffa1e 	bne	r8,r6,10030b0 <_malloc_r+0x4e4>
 10030c8:	32000317 	ldw	r8,12(r6)
 10030cc:	39c00117 	ldw	r7,4(r7)
 10030d0:	82000315 	stw	r8,12(r16)
 10030d4:	81800215 	stw	r6,8(r16)
 10030d8:	070040b4 	movhi	fp,258
 10030dc:	e724ec04 	addi	fp,fp,-27728
 10030e0:	34000315 	stw	r16,12(r6)
 10030e4:	44000215 	stw	r16,8(r8)
 10030e8:	003f3e06 	br	1002de4 <_malloc_r+0x218>
 10030ec:	63000044 	addi	r12,r12,1
 10030f0:	608000cc 	andi	r2,r12,3
 10030f4:	10005d26 	beq	r2,zero,100326c <_malloc_r+0x6a0>
 10030f8:	18c00204 	addi	r3,r3,8
 10030fc:	003f5106 	br	1002e44 <_malloc_r+0x278>
 1003100:	8089883a 	add	r4,r16,r2
 1003104:	003f6d06 	br	1002ebc <_malloc_r+0x2f0>
 1003108:	00805504 	movi	r2,340
 100310c:	10c02036 	bltu	r2,r3,1003190 <_malloc_r+0x5c4>
 1003110:	8804d3fa 	srli	r2,r17,15
 1003114:	11801dc4 	addi	r6,r2,119
 1003118:	300490fa 	slli	r2,r6,3
 100311c:	003ed806 	br	1002c80 <_malloc_r+0xb4>
 1003120:	48c000c4 	addi	r3,r9,3
 1003124:	003f3106 	br	1002dec <_malloc_r+0x220>
 1003128:	05c040b4 	movhi	r23,258
 100312c:	bdcd7004 	addi	r23,r23,13760
 1003130:	b8800017 	ldw	r2,0(r23)
 1003134:	988d883a 	add	r6,r19,r2
 1003138:	b9800015 	stw	r6,0(r23)
 100313c:	293fb21e 	bne	r5,r4,1003008 <_malloc_r+0x43c>
 1003140:	2083ffcc 	andi	r2,r4,4095
 1003144:	103fb01e 	bne	r2,zero,1003008 <_malloc_r+0x43c>
 1003148:	e4000217 	ldw	r16,8(fp)
 100314c:	9d45883a 	add	r2,r19,r21
 1003150:	10800054 	ori	r2,r2,1
 1003154:	80800115 	stw	r2,4(r16)
 1003158:	b8c00017 	ldw	r3,0(r23)
 100315c:	d0a76917 	ldw	r2,-25180(gp)
 1003160:	10c0012e 	bgeu	r2,r3,1003168 <_malloc_r+0x59c>
 1003164:	d0e76915 	stw	r3,-25180(gp)
 1003168:	d0a76a17 	ldw	r2,-25176(gp)
 100316c:	10ff962e 	bgeu	r2,r3,1002fc8 <_malloc_r+0x3fc>
 1003170:	d0e76a15 	stw	r3,-25176(gp)
 1003174:	003f9406 	br	1002fc8 <_malloc_r+0x3fc>
 1003178:	00800104 	movi	r2,4
 100317c:	11001e36 	bltu	r2,r4,10031f8 <_malloc_r+0x62c>
 1003180:	2804d1ba 	srli	r2,r5,6
 1003184:	11000e04 	addi	r4,r2,56
 1003188:	200690fa 	slli	r3,r4,3
 100318c:	003fc506 	br	10030a4 <_malloc_r+0x4d8>
 1003190:	00815504 	movi	r2,1364
 1003194:	10c01d2e 	bgeu	r2,r3,100320c <_malloc_r+0x640>
 1003198:	01801f84 	movi	r6,126
 100319c:	0080fc04 	movi	r2,1008
 10031a0:	003eb706 	br	1002c80 <_malloc_r+0xb4>
 10031a4:	00800204 	movi	r2,8
 10031a8:	10cbc83a 	sub	r5,r2,r3
 10031ac:	2169883a 	add	r20,r4,r5
 10031b0:	003f9e06 	br	100302c <_malloc_r+0x460>
 10031b4:	00bffe04 	movi	r2,-8
 10031b8:	a93ffd04 	addi	r4,r21,-12
 10031bc:	2088703a 	and	r4,r4,r2
 10031c0:	b10b883a 	add	r5,r22,r4
 10031c4:	00c00144 	movi	r3,5
 10031c8:	28c00215 	stw	r3,8(r5)
 10031cc:	28c00115 	stw	r3,4(r5)
 10031d0:	b0800117 	ldw	r2,4(r22)
 10031d4:	1080004c 	andi	r2,r2,1
 10031d8:	2084b03a 	or	r2,r4,r2
 10031dc:	b0800115 	stw	r2,4(r22)
 10031e0:	313fdd2e 	bgeu	r6,r4,1003158 <_malloc_r+0x58c>
 10031e4:	b1400204 	addi	r5,r22,8
 10031e8:	9009883a 	mov	r4,r18
 10031ec:	10077500 	call	1007750 <_free_r>
 10031f0:	e4000217 	ldw	r16,8(fp)
 10031f4:	003fd806 	br	1003158 <_malloc_r+0x58c>
 10031f8:	00800504 	movi	r2,20
 10031fc:	11001536 	bltu	r2,r4,1003254 <_malloc_r+0x688>
 1003200:	210016c4 	addi	r4,r4,91
 1003204:	200690fa 	slli	r3,r4,3
 1003208:	003fa606 	br	10030a4 <_malloc_r+0x4d8>
 100320c:	8804d4ba 	srli	r2,r17,18
 1003210:	11801f04 	addi	r6,r2,124
 1003214:	300490fa 	slli	r2,r6,3
 1003218:	003e9906 	br	1002c80 <_malloc_r+0xb4>
 100321c:	2009d0ba 	srai	r4,r4,2
 1003220:	014040b4 	movhi	r5,258
 1003224:	2964ec04 	addi	r5,r5,-27728
 1003228:	00c00044 	movi	r3,1
 100322c:	28800117 	ldw	r2,4(r5)
 1003230:	1906983a 	sll	r3,r3,r4
 1003234:	10c4b03a 	or	r2,r2,r3
 1003238:	28800115 	stw	r2,4(r5)
 100323c:	003fa306 	br	10030cc <_malloc_r+0x500>
 1003240:	0027883a 	mov	r19,zero
 1003244:	00c00044 	movi	r3,1
 1003248:	003f8606 	br	1003064 <_malloc_r+0x498>
 100324c:	d1200a15 	stw	r4,-32728(gp)
 1003250:	003f7306 	br	1003020 <_malloc_r+0x454>
 1003254:	00801504 	movi	r2,84
 1003258:	11001936 	bltu	r2,r4,10032c0 <_malloc_r+0x6f4>
 100325c:	2804d33a 	srli	r2,r5,12
 1003260:	11001b84 	addi	r4,r2,110
 1003264:	200690fa 	slli	r3,r4,3
 1003268:	003f8e06 	br	10030a4 <_malloc_r+0x4d8>
 100326c:	480b883a 	mov	r5,r9
 1003270:	6807883a 	mov	r3,r13
 1003274:	288000cc 	andi	r2,r5,3
 1003278:	18fffe04 	addi	r3,r3,-8
 100327c:	297fffc4 	addi	r5,r5,-1
 1003280:	10001526 	beq	r2,zero,10032d8 <_malloc_r+0x70c>
 1003284:	18800217 	ldw	r2,8(r3)
 1003288:	10fffa26 	beq	r2,r3,1003274 <_malloc_r+0x6a8>
 100328c:	2109883a 	add	r4,r4,r4
 1003290:	393f1e36 	bltu	r7,r4,1002f0c <_malloc_r+0x340>
 1003294:	203f1d26 	beq	r4,zero,1002f0c <_malloc_r+0x340>
 1003298:	21c4703a 	and	r2,r4,r7
 100329c:	10000226 	beq	r2,zero,10032a8 <_malloc_r+0x6dc>
 10032a0:	6013883a 	mov	r9,r12
 10032a4:	003ee106 	br	1002e2c <_malloc_r+0x260>
 10032a8:	2109883a 	add	r4,r4,r4
 10032ac:	3904703a 	and	r2,r7,r4
 10032b0:	63000104 	addi	r12,r12,4
 10032b4:	103ffc26 	beq	r2,zero,10032a8 <_malloc_r+0x6dc>
 10032b8:	6013883a 	mov	r9,r12
 10032bc:	003edb06 	br	1002e2c <_malloc_r+0x260>
 10032c0:	00805504 	movi	r2,340
 10032c4:	11000836 	bltu	r2,r4,10032e8 <_malloc_r+0x71c>
 10032c8:	2804d3fa 	srli	r2,r5,15
 10032cc:	11001dc4 	addi	r4,r2,119
 10032d0:	200690fa 	slli	r3,r4,3
 10032d4:	003f7306 	br	10030a4 <_malloc_r+0x4d8>
 10032d8:	0104303a 	nor	r2,zero,r4
 10032dc:	388e703a 	and	r7,r7,r2
 10032e0:	e1c00115 	stw	r7,4(fp)
 10032e4:	003fe906 	br	100328c <_malloc_r+0x6c0>
 10032e8:	00815504 	movi	r2,1364
 10032ec:	1100032e 	bgeu	r2,r4,10032fc <_malloc_r+0x730>
 10032f0:	01001f84 	movi	r4,126
 10032f4:	00c0fc04 	movi	r3,1008
 10032f8:	003f6a06 	br	10030a4 <_malloc_r+0x4d8>
 10032fc:	2804d4ba 	srli	r2,r5,18
 1003300:	11001f04 	addi	r4,r2,124
 1003304:	200690fa 	slli	r3,r4,3
 1003308:	003f6606 	br	10030a4 <_malloc_r+0x4d8>

0100330c <memset>:
 100330c:	008000c4 	movi	r2,3
 1003310:	29403fcc 	andi	r5,r5,255
 1003314:	2007883a 	mov	r3,r4
 1003318:	1180022e 	bgeu	r2,r6,1003324 <memset+0x18>
 100331c:	2084703a 	and	r2,r4,r2
 1003320:	10000826 	beq	r2,zero,1003344 <memset+0x38>
 1003324:	30000526 	beq	r6,zero,100333c <memset+0x30>
 1003328:	2805883a 	mov	r2,r5
 100332c:	30cd883a 	add	r6,r6,r3
 1003330:	18800005 	stb	r2,0(r3)
 1003334:	18c00044 	addi	r3,r3,1
 1003338:	19bffd1e 	bne	r3,r6,1003330 <memset+0x24>
 100333c:	2005883a 	mov	r2,r4
 1003340:	f800283a 	ret
 1003344:	2804923a 	slli	r2,r5,8
 1003348:	020003c4 	movi	r8,15
 100334c:	200f883a 	mov	r7,r4
 1003350:	2884b03a 	or	r2,r5,r2
 1003354:	1006943a 	slli	r3,r2,16
 1003358:	10c6b03a 	or	r3,r2,r3
 100335c:	41800a2e 	bgeu	r8,r6,1003388 <memset+0x7c>
 1003360:	4005883a 	mov	r2,r8
 1003364:	31bffc04 	addi	r6,r6,-16
 1003368:	38c00015 	stw	r3,0(r7)
 100336c:	38c00115 	stw	r3,4(r7)
 1003370:	38c00215 	stw	r3,8(r7)
 1003374:	38c00315 	stw	r3,12(r7)
 1003378:	39c00404 	addi	r7,r7,16
 100337c:	11bff936 	bltu	r2,r6,1003364 <memset+0x58>
 1003380:	008000c4 	movi	r2,3
 1003384:	1180052e 	bgeu	r2,r6,100339c <memset+0x90>
 1003388:	31bfff04 	addi	r6,r6,-4
 100338c:	008000c4 	movi	r2,3
 1003390:	38c00015 	stw	r3,0(r7)
 1003394:	39c00104 	addi	r7,r7,4
 1003398:	11bffb36 	bltu	r2,r6,1003388 <memset+0x7c>
 100339c:	3807883a 	mov	r3,r7
 10033a0:	003fe006 	br	1003324 <memset+0x18>

010033a4 <printf>:
 10033a4:	defffb04 	addi	sp,sp,-20
 10033a8:	dfc00115 	stw	ra,4(sp)
 10033ac:	d9400215 	stw	r5,8(sp)
 10033b0:	d9800315 	stw	r6,12(sp)
 10033b4:	d9c00415 	stw	r7,16(sp)
 10033b8:	008040b4 	movhi	r2,258
 10033bc:	10abe904 	addi	r2,r2,-20572
 10033c0:	10c00017 	ldw	r3,0(r2)
 10033c4:	200b883a 	mov	r5,r4
 10033c8:	d8800204 	addi	r2,sp,8
 10033cc:	19000217 	ldw	r4,8(r3)
 10033d0:	100d883a 	mov	r6,r2
 10033d4:	d8800015 	stw	r2,0(sp)
 10033d8:	10058080 	call	1005808 <__vfprintf_internal>
 10033dc:	dfc00117 	ldw	ra,4(sp)
 10033e0:	dec00504 	addi	sp,sp,20
 10033e4:	f800283a 	ret

010033e8 <_printf_r>:
 10033e8:	defffc04 	addi	sp,sp,-16
 10033ec:	dfc00115 	stw	ra,4(sp)
 10033f0:	d9800215 	stw	r6,8(sp)
 10033f4:	d9c00315 	stw	r7,12(sp)
 10033f8:	280d883a 	mov	r6,r5
 10033fc:	21400217 	ldw	r5,8(r4)
 1003400:	d8c00204 	addi	r3,sp,8
 1003404:	180f883a 	mov	r7,r3
 1003408:	d8c00015 	stw	r3,0(sp)
 100340c:	100395c0 	call	100395c <___vfprintf_internal_r>
 1003410:	dfc00117 	ldw	ra,4(sp)
 1003414:	dec00404 	addi	sp,sp,16
 1003418:	f800283a 	ret

0100341c <_puts_r>:
 100341c:	defff604 	addi	sp,sp,-40
 1003420:	dc400715 	stw	r17,28(sp)
 1003424:	2023883a 	mov	r17,r4
 1003428:	2809883a 	mov	r4,r5
 100342c:	dfc00915 	stw	ra,36(sp)
 1003430:	dcc00815 	stw	r19,32(sp)
 1003434:	2827883a 	mov	r19,r5
 1003438:	10038900 	call	1003890 <strlen>
 100343c:	89400217 	ldw	r5,8(r17)
 1003440:	00c040b4 	movhi	r3,258
 1003444:	18e3ca04 	addi	r3,r3,-28888
 1003448:	01c00044 	movi	r7,1
 100344c:	12000044 	addi	r8,r2,1
 1003450:	d8c00515 	stw	r3,20(sp)
 1003454:	d9c00615 	stw	r7,24(sp)
 1003458:	d8c00304 	addi	r3,sp,12
 100345c:	01c00084 	movi	r7,2
 1003460:	8809883a 	mov	r4,r17
 1003464:	d80d883a 	mov	r6,sp
 1003468:	d8c00015 	stw	r3,0(sp)
 100346c:	dcc00315 	stw	r19,12(sp)
 1003470:	da000215 	stw	r8,8(sp)
 1003474:	d9c00115 	stw	r7,4(sp)
 1003478:	d8800415 	stw	r2,16(sp)
 100347c:	1007a640 	call	1007a64 <__sfvwrite_r>
 1003480:	00ffffc4 	movi	r3,-1
 1003484:	10000626 	beq	r2,zero,10034a0 <_puts_r+0x84>
 1003488:	1805883a 	mov	r2,r3
 100348c:	dfc00917 	ldw	ra,36(sp)
 1003490:	dcc00817 	ldw	r19,32(sp)
 1003494:	dc400717 	ldw	r17,28(sp)
 1003498:	dec00a04 	addi	sp,sp,40
 100349c:	f800283a 	ret
 10034a0:	00c00284 	movi	r3,10
 10034a4:	1805883a 	mov	r2,r3
 10034a8:	dfc00917 	ldw	ra,36(sp)
 10034ac:	dcc00817 	ldw	r19,32(sp)
 10034b0:	dc400717 	ldw	r17,28(sp)
 10034b4:	dec00a04 	addi	sp,sp,40
 10034b8:	f800283a 	ret

010034bc <puts>:
 10034bc:	008040b4 	movhi	r2,258
 10034c0:	10abe904 	addi	r2,r2,-20572
 10034c4:	200b883a 	mov	r5,r4
 10034c8:	11000017 	ldw	r4,0(r2)
 10034cc:	100341c1 	jmpi	100341c <_puts_r>

010034d0 <_sbrk_r>:
 10034d0:	defffd04 	addi	sp,sp,-12
 10034d4:	dc000015 	stw	r16,0(sp)
 10034d8:	040040b4 	movhi	r16,258
 10034dc:	84334904 	addi	r16,r16,-13020
 10034e0:	dc400115 	stw	r17,4(sp)
 10034e4:	80000015 	stw	zero,0(r16)
 10034e8:	2023883a 	mov	r17,r4
 10034ec:	2809883a 	mov	r4,r5
 10034f0:	dfc00215 	stw	ra,8(sp)
 10034f4:	100d4180 	call	100d418 <sbrk>
 10034f8:	1007883a 	mov	r3,r2
 10034fc:	00bfffc4 	movi	r2,-1
 1003500:	18800626 	beq	r3,r2,100351c <_sbrk_r+0x4c>
 1003504:	1805883a 	mov	r2,r3
 1003508:	dfc00217 	ldw	ra,8(sp)
 100350c:	dc400117 	ldw	r17,4(sp)
 1003510:	dc000017 	ldw	r16,0(sp)
 1003514:	dec00304 	addi	sp,sp,12
 1003518:	f800283a 	ret
 100351c:	80800017 	ldw	r2,0(r16)
 1003520:	103ff826 	beq	r2,zero,1003504 <_sbrk_r+0x34>
 1003524:	88800015 	stw	r2,0(r17)
 1003528:	1805883a 	mov	r2,r3
 100352c:	dfc00217 	ldw	ra,8(sp)
 1003530:	dc400117 	ldw	r17,4(sp)
 1003534:	dc000017 	ldw	r16,0(sp)
 1003538:	dec00304 	addi	sp,sp,12
 100353c:	f800283a 	ret

01003540 <_raise_r>:
 1003540:	defffd04 	addi	sp,sp,-12
 1003544:	008007c4 	movi	r2,31
 1003548:	dc400115 	stw	r17,4(sp)
 100354c:	dc000015 	stw	r16,0(sp)
 1003550:	dfc00215 	stw	ra,8(sp)
 1003554:	2821883a 	mov	r16,r5
 1003558:	2023883a 	mov	r17,r4
 100355c:	11402736 	bltu	r2,r5,10035fc <_raise_r+0xbc>
 1003560:	20c0b717 	ldw	r3,732(r4)
 1003564:	18001326 	beq	r3,zero,10035b4 <_raise_r+0x74>
 1003568:	2945883a 	add	r2,r5,r5
 100356c:	1085883a 	add	r2,r2,r2
 1003570:	188b883a 	add	r5,r3,r2
 1003574:	28c00017 	ldw	r3,0(r5)
 1003578:	18000e26 	beq	r3,zero,10035b4 <_raise_r+0x74>
 100357c:	01000044 	movi	r4,1
 1003580:	19000526 	beq	r3,r4,1003598 <_raise_r+0x58>
 1003584:	00bfffc4 	movi	r2,-1
 1003588:	18801326 	beq	r3,r2,10035d8 <_raise_r+0x98>
 100358c:	28000015 	stw	zero,0(r5)
 1003590:	8009883a 	mov	r4,r16
 1003594:	183ee83a 	callr	r3
 1003598:	0007883a 	mov	r3,zero
 100359c:	1805883a 	mov	r2,r3
 10035a0:	dfc00217 	ldw	ra,8(sp)
 10035a4:	dc400117 	ldw	r17,4(sp)
 10035a8:	dc000017 	ldw	r16,0(sp)
 10035ac:	dec00304 	addi	sp,sp,12
 10035b0:	f800283a 	ret
 10035b4:	10038180 	call	1003818 <_getpid_r>
 10035b8:	100b883a 	mov	r5,r2
 10035bc:	8809883a 	mov	r4,r17
 10035c0:	800d883a 	mov	r6,r16
 10035c4:	dfc00217 	ldw	ra,8(sp)
 10035c8:	dc400117 	ldw	r17,4(sp)
 10035cc:	dc000017 	ldw	r16,0(sp)
 10035d0:	dec00304 	addi	sp,sp,12
 10035d4:	100381c1 	jmpi	100381c <_kill_r>
 10035d8:	2007883a 	mov	r3,r4
 10035dc:	00800584 	movi	r2,22
 10035e0:	88800015 	stw	r2,0(r17)
 10035e4:	1805883a 	mov	r2,r3
 10035e8:	dfc00217 	ldw	ra,8(sp)
 10035ec:	dc400117 	ldw	r17,4(sp)
 10035f0:	dc000017 	ldw	r16,0(sp)
 10035f4:	dec00304 	addi	sp,sp,12
 10035f8:	f800283a 	ret
 10035fc:	00800584 	movi	r2,22
 1003600:	00ffffc4 	movi	r3,-1
 1003604:	20800015 	stw	r2,0(r4)
 1003608:	003fe406 	br	100359c <_raise_r+0x5c>

0100360c <raise>:
 100360c:	008040b4 	movhi	r2,258
 1003610:	10abe904 	addi	r2,r2,-20572
 1003614:	200b883a 	mov	r5,r4
 1003618:	11000017 	ldw	r4,0(r2)
 100361c:	10035401 	jmpi	1003540 <_raise_r>

01003620 <_init_signal_r>:
 1003620:	2080b717 	ldw	r2,732(r4)
 1003624:	defffe04 	addi	sp,sp,-8
 1003628:	dc000015 	stw	r16,0(sp)
 100362c:	dfc00115 	stw	ra,4(sp)
 1003630:	2021883a 	mov	r16,r4
 1003634:	10000526 	beq	r2,zero,100364c <_init_signal_r+0x2c>
 1003638:	0005883a 	mov	r2,zero
 100363c:	dfc00117 	ldw	ra,4(sp)
 1003640:	dc000017 	ldw	r16,0(sp)
 1003644:	dec00204 	addi	sp,sp,8
 1003648:	f800283a 	ret
 100364c:	01402004 	movi	r5,128
 1003650:	1002bcc0 	call	1002bcc <_malloc_r>
 1003654:	1009883a 	mov	r4,r2
 1003658:	8080b715 	stw	r2,732(r16)
 100365c:	10000726 	beq	r2,zero,100367c <_init_signal_r+0x5c>
 1003660:	0007883a 	mov	r3,zero
 1003664:	01402004 	movi	r5,128
 1003668:	20c5883a 	add	r2,r4,r3
 100366c:	18c00104 	addi	r3,r3,4
 1003670:	10000015 	stw	zero,0(r2)
 1003674:	197ffc1e 	bne	r3,r5,1003668 <_init_signal_r+0x48>
 1003678:	003fef06 	br	1003638 <_init_signal_r+0x18>
 100367c:	00bfffc4 	movi	r2,-1
 1003680:	003fee06 	br	100363c <_init_signal_r+0x1c>

01003684 <_init_signal>:
 1003684:	008040b4 	movhi	r2,258
 1003688:	10abe904 	addi	r2,r2,-20572
 100368c:	11000017 	ldw	r4,0(r2)
 1003690:	10036201 	jmpi	1003620 <_init_signal_r>

01003694 <__sigtramp_r>:
 1003694:	defffd04 	addi	sp,sp,-12
 1003698:	008007c4 	movi	r2,31
 100369c:	dc000115 	stw	r16,4(sp)
 10036a0:	dfc00215 	stw	ra,8(sp)
 10036a4:	2021883a 	mov	r16,r4
 10036a8:	11401336 	bltu	r2,r5,10036f8 <__sigtramp_r+0x64>
 10036ac:	20c0b717 	ldw	r3,732(r4)
 10036b0:	18001f26 	beq	r3,zero,1003730 <__sigtramp_r+0x9c>
 10036b4:	2945883a 	add	r2,r5,r5
 10036b8:	1085883a 	add	r2,r2,r2
 10036bc:	10c9883a 	add	r4,r2,r3
 10036c0:	20c00017 	ldw	r3,0(r4)
 10036c4:	18001626 	beq	r3,zero,1003720 <__sigtramp_r+0x8c>
 10036c8:	00bfffc4 	movi	r2,-1
 10036cc:	18801626 	beq	r3,r2,1003728 <__sigtramp_r+0x94>
 10036d0:	00800044 	movi	r2,1
 10036d4:	18800d26 	beq	r3,r2,100370c <__sigtramp_r+0x78>
 10036d8:	20000015 	stw	zero,0(r4)
 10036dc:	2809883a 	mov	r4,r5
 10036e0:	183ee83a 	callr	r3
 10036e4:	0005883a 	mov	r2,zero
 10036e8:	dfc00217 	ldw	ra,8(sp)
 10036ec:	dc000117 	ldw	r16,4(sp)
 10036f0:	dec00304 	addi	sp,sp,12
 10036f4:	f800283a 	ret
 10036f8:	00bfffc4 	movi	r2,-1
 10036fc:	dfc00217 	ldw	ra,8(sp)
 1003700:	dc000117 	ldw	r16,4(sp)
 1003704:	dec00304 	addi	sp,sp,12
 1003708:	f800283a 	ret
 100370c:	008000c4 	movi	r2,3
 1003710:	dfc00217 	ldw	ra,8(sp)
 1003714:	dc000117 	ldw	r16,4(sp)
 1003718:	dec00304 	addi	sp,sp,12
 100371c:	f800283a 	ret
 1003720:	00800044 	movi	r2,1
 1003724:	003ff006 	br	10036e8 <__sigtramp_r+0x54>
 1003728:	00800084 	movi	r2,2
 100372c:	003fee06 	br	10036e8 <__sigtramp_r+0x54>
 1003730:	d9400015 	stw	r5,0(sp)
 1003734:	10036200 	call	1003620 <_init_signal_r>
 1003738:	d9400017 	ldw	r5,0(sp)
 100373c:	103fee1e 	bne	r2,zero,10036f8 <__sigtramp_r+0x64>
 1003740:	80c0b717 	ldw	r3,732(r16)
 1003744:	003fdb06 	br	10036b4 <__sigtramp_r+0x20>

01003748 <__sigtramp>:
 1003748:	008040b4 	movhi	r2,258
 100374c:	10abe904 	addi	r2,r2,-20572
 1003750:	200b883a 	mov	r5,r4
 1003754:	11000017 	ldw	r4,0(r2)
 1003758:	10036941 	jmpi	1003694 <__sigtramp_r>

0100375c <_signal_r>:
 100375c:	defffc04 	addi	sp,sp,-16
 1003760:	008007c4 	movi	r2,31
 1003764:	dc800215 	stw	r18,8(sp)
 1003768:	dc400115 	stw	r17,4(sp)
 100376c:	dc000015 	stw	r16,0(sp)
 1003770:	dfc00315 	stw	ra,12(sp)
 1003774:	2823883a 	mov	r17,r5
 1003778:	00ffffc4 	movi	r3,-1
 100377c:	3025883a 	mov	r18,r6
 1003780:	2021883a 	mov	r16,r4
 1003784:	1140092e 	bgeu	r2,r5,10037ac <_signal_r+0x50>
 1003788:	00800584 	movi	r2,22
 100378c:	20800015 	stw	r2,0(r4)
 1003790:	1805883a 	mov	r2,r3
 1003794:	dfc00317 	ldw	ra,12(sp)
 1003798:	dc800217 	ldw	r18,8(sp)
 100379c:	dc400117 	ldw	r17,4(sp)
 10037a0:	dc000017 	ldw	r16,0(sp)
 10037a4:	dec00404 	addi	sp,sp,16
 10037a8:	f800283a 	ret
 10037ac:	2140b717 	ldw	r5,732(r4)
 10037b0:	28000c26 	beq	r5,zero,10037e4 <_signal_r+0x88>
 10037b4:	8c45883a 	add	r2,r17,r17
 10037b8:	1085883a 	add	r2,r2,r2
 10037bc:	1145883a 	add	r2,r2,r5
 10037c0:	10c00017 	ldw	r3,0(r2)
 10037c4:	14800015 	stw	r18,0(r2)
 10037c8:	1805883a 	mov	r2,r3
 10037cc:	dfc00317 	ldw	ra,12(sp)
 10037d0:	dc800217 	ldw	r18,8(sp)
 10037d4:	dc400117 	ldw	r17,4(sp)
 10037d8:	dc000017 	ldw	r16,0(sp)
 10037dc:	dec00404 	addi	sp,sp,16
 10037e0:	f800283a 	ret
 10037e4:	10036200 	call	1003620 <_init_signal_r>
 10037e8:	1000021e 	bne	r2,zero,10037f4 <_signal_r+0x98>
 10037ec:	8140b717 	ldw	r5,732(r16)
 10037f0:	003ff006 	br	10037b4 <_signal_r+0x58>
 10037f4:	00ffffc4 	movi	r3,-1
 10037f8:	003fe506 	br	1003790 <_signal_r+0x34>

010037fc <signal>:
 10037fc:	018040b4 	movhi	r6,258
 1003800:	31abe904 	addi	r6,r6,-20572
 1003804:	2007883a 	mov	r3,r4
 1003808:	31000017 	ldw	r4,0(r6)
 100380c:	280d883a 	mov	r6,r5
 1003810:	180b883a 	mov	r5,r3
 1003814:	100375c1 	jmpi	100375c <_signal_r>

01003818 <_getpid_r>:
 1003818:	100c9881 	jmpi	100c988 <getpid>

0100381c <_kill_r>:
 100381c:	defffd04 	addi	sp,sp,-12
 1003820:	dc000015 	stw	r16,0(sp)
 1003824:	040040b4 	movhi	r16,258
 1003828:	84334904 	addi	r16,r16,-13020
 100382c:	dc400115 	stw	r17,4(sp)
 1003830:	80000015 	stw	zero,0(r16)
 1003834:	2023883a 	mov	r17,r4
 1003838:	2809883a 	mov	r4,r5
 100383c:	300b883a 	mov	r5,r6
 1003840:	dfc00215 	stw	ra,8(sp)
 1003844:	100cd940 	call	100cd94 <kill>
 1003848:	1007883a 	mov	r3,r2
 100384c:	00bfffc4 	movi	r2,-1
 1003850:	18800626 	beq	r3,r2,100386c <_kill_r+0x50>
 1003854:	1805883a 	mov	r2,r3
 1003858:	dfc00217 	ldw	ra,8(sp)
 100385c:	dc400117 	ldw	r17,4(sp)
 1003860:	dc000017 	ldw	r16,0(sp)
 1003864:	dec00304 	addi	sp,sp,12
 1003868:	f800283a 	ret
 100386c:	80800017 	ldw	r2,0(r16)
 1003870:	103ff826 	beq	r2,zero,1003854 <_kill_r+0x38>
 1003874:	88800015 	stw	r2,0(r17)
 1003878:	1805883a 	mov	r2,r3
 100387c:	dfc00217 	ldw	ra,8(sp)
 1003880:	dc400117 	ldw	r17,4(sp)
 1003884:	dc000017 	ldw	r16,0(sp)
 1003888:	dec00304 	addi	sp,sp,12
 100388c:	f800283a 	ret

01003890 <strlen>:
 1003890:	208000cc 	andi	r2,r4,3
 1003894:	2011883a 	mov	r8,r4
 1003898:	1000161e 	bne	r2,zero,10038f4 <strlen+0x64>
 100389c:	20c00017 	ldw	r3,0(r4)
 10038a0:	017fbff4 	movhi	r5,65279
 10038a4:	297fbfc4 	addi	r5,r5,-257
 10038a8:	01e02074 	movhi	r7,32897
 10038ac:	39e02004 	addi	r7,r7,-32640
 10038b0:	1945883a 	add	r2,r3,r5
 10038b4:	11c4703a 	and	r2,r2,r7
 10038b8:	00c6303a 	nor	r3,zero,r3
 10038bc:	1886703a 	and	r3,r3,r2
 10038c0:	18000c1e 	bne	r3,zero,10038f4 <strlen+0x64>
 10038c4:	280d883a 	mov	r6,r5
 10038c8:	380b883a 	mov	r5,r7
 10038cc:	21000104 	addi	r4,r4,4
 10038d0:	20800017 	ldw	r2,0(r4)
 10038d4:	1187883a 	add	r3,r2,r6
 10038d8:	1946703a 	and	r3,r3,r5
 10038dc:	0084303a 	nor	r2,zero,r2
 10038e0:	10c4703a 	and	r2,r2,r3
 10038e4:	103ff926 	beq	r2,zero,10038cc <strlen+0x3c>
 10038e8:	20800007 	ldb	r2,0(r4)
 10038ec:	10000326 	beq	r2,zero,10038fc <strlen+0x6c>
 10038f0:	21000044 	addi	r4,r4,1
 10038f4:	20800007 	ldb	r2,0(r4)
 10038f8:	103ffd1e 	bne	r2,zero,10038f0 <strlen+0x60>
 10038fc:	2205c83a 	sub	r2,r4,r8
 1003900:	f800283a 	ret

01003904 <__sprint_r>:
 1003904:	30800217 	ldw	r2,8(r6)
 1003908:	defffe04 	addi	sp,sp,-8
 100390c:	dc000015 	stw	r16,0(sp)
 1003910:	dfc00115 	stw	ra,4(sp)
 1003914:	3021883a 	mov	r16,r6
 1003918:	0007883a 	mov	r3,zero
 100391c:	1000061e 	bne	r2,zero,1003938 <__sprint_r+0x34>
 1003920:	1805883a 	mov	r2,r3
 1003924:	30000115 	stw	zero,4(r6)
 1003928:	dfc00117 	ldw	ra,4(sp)
 100392c:	dc000017 	ldw	r16,0(sp)
 1003930:	dec00204 	addi	sp,sp,8
 1003934:	f800283a 	ret
 1003938:	1007a640 	call	1007a64 <__sfvwrite_r>
 100393c:	1007883a 	mov	r3,r2
 1003940:	1805883a 	mov	r2,r3
 1003944:	80000115 	stw	zero,4(r16)
 1003948:	80000215 	stw	zero,8(r16)
 100394c:	dfc00117 	ldw	ra,4(sp)
 1003950:	dc000017 	ldw	r16,0(sp)
 1003954:	dec00204 	addi	sp,sp,8
 1003958:	f800283a 	ret

0100395c <___vfprintf_internal_r>:
 100395c:	defea404 	addi	sp,sp,-1392
 1003960:	dd815815 	stw	r22,1376(sp)
 1003964:	dc015215 	stw	r16,1352(sp)
 1003968:	d9c15115 	stw	r7,1348(sp)
 100396c:	dfc15b15 	stw	ra,1388(sp)
 1003970:	df015a15 	stw	fp,1384(sp)
 1003974:	ddc15915 	stw	r23,1380(sp)
 1003978:	dd415715 	stw	r21,1372(sp)
 100397c:	dd015615 	stw	r20,1368(sp)
 1003980:	dcc15515 	stw	r19,1364(sp)
 1003984:	dc815415 	stw	r18,1360(sp)
 1003988:	dc415315 	stw	r17,1356(sp)
 100398c:	282d883a 	mov	r22,r5
 1003990:	3021883a 	mov	r16,r6
 1003994:	d9014f15 	stw	r4,1340(sp)
 1003998:	10080880 	call	1008088 <_localeconv_r>
 100399c:	10800017 	ldw	r2,0(r2)
 10039a0:	d9c15117 	ldw	r7,1348(sp)
 10039a4:	d8814915 	stw	r2,1316(sp)
 10039a8:	d8814f17 	ldw	r2,1340(sp)
 10039ac:	10000226 	beq	r2,zero,10039b8 <___vfprintf_internal_r+0x5c>
 10039b0:	10800e17 	ldw	r2,56(r2)
 10039b4:	10020d26 	beq	r2,zero,10041ec <___vfprintf_internal_r+0x890>
 10039b8:	b080030b 	ldhu	r2,12(r22)
 10039bc:	1080020c 	andi	r2,r2,8
 10039c0:	10020e26 	beq	r2,zero,10041fc <___vfprintf_internal_r+0x8a0>
 10039c4:	b0800417 	ldw	r2,16(r22)
 10039c8:	10020c26 	beq	r2,zero,10041fc <___vfprintf_internal_r+0x8a0>
 10039cc:	b200030b 	ldhu	r8,12(r22)
 10039d0:	00800284 	movi	r2,10
 10039d4:	40c0068c 	andi	r3,r8,26
 10039d8:	18802f1e 	bne	r3,r2,1003a98 <___vfprintf_internal_r+0x13c>
 10039dc:	b080038f 	ldh	r2,14(r22)
 10039e0:	10002d16 	blt	r2,zero,1003a98 <___vfprintf_internal_r+0x13c>
 10039e4:	b240038b 	ldhu	r9,14(r22)
 10039e8:	b2800717 	ldw	r10,28(r22)
 10039ec:	b2c00917 	ldw	r11,36(r22)
 10039f0:	d9014f17 	ldw	r4,1340(sp)
 10039f4:	dc402904 	addi	r17,sp,164
 10039f8:	d8804004 	addi	r2,sp,256
 10039fc:	00c10004 	movi	r3,1024
 1003a00:	423fff4c 	andi	r8,r8,65533
 1003a04:	800d883a 	mov	r6,r16
 1003a08:	880b883a 	mov	r5,r17
 1003a0c:	da002c0d 	sth	r8,176(sp)
 1003a10:	da402c8d 	sth	r9,178(sp)
 1003a14:	da803015 	stw	r10,192(sp)
 1003a18:	dac03215 	stw	r11,200(sp)
 1003a1c:	d8802d15 	stw	r2,180(sp)
 1003a20:	d8c02e15 	stw	r3,184(sp)
 1003a24:	d8802915 	stw	r2,164(sp)
 1003a28:	d8c02b15 	stw	r3,172(sp)
 1003a2c:	d8002f15 	stw	zero,188(sp)
 1003a30:	100395c0 	call	100395c <___vfprintf_internal_r>
 1003a34:	d8814b15 	stw	r2,1324(sp)
 1003a38:	10000416 	blt	r2,zero,1003a4c <___vfprintf_internal_r+0xf0>
 1003a3c:	d9014f17 	ldw	r4,1340(sp)
 1003a40:	880b883a 	mov	r5,r17
 1003a44:	10071340 	call	1007134 <_fflush_r>
 1003a48:	1002321e 	bne	r2,zero,1004314 <___vfprintf_internal_r+0x9b8>
 1003a4c:	d8802c0b 	ldhu	r2,176(sp)
 1003a50:	1080100c 	andi	r2,r2,64
 1003a54:	10000326 	beq	r2,zero,1003a64 <___vfprintf_internal_r+0x108>
 1003a58:	b080030b 	ldhu	r2,12(r22)
 1003a5c:	10801014 	ori	r2,r2,64
 1003a60:	b080030d 	sth	r2,12(r22)
 1003a64:	d8814b17 	ldw	r2,1324(sp)
 1003a68:	dfc15b17 	ldw	ra,1388(sp)
 1003a6c:	df015a17 	ldw	fp,1384(sp)
 1003a70:	ddc15917 	ldw	r23,1380(sp)
 1003a74:	dd815817 	ldw	r22,1376(sp)
 1003a78:	dd415717 	ldw	r21,1372(sp)
 1003a7c:	dd015617 	ldw	r20,1368(sp)
 1003a80:	dcc15517 	ldw	r19,1364(sp)
 1003a84:	dc815417 	ldw	r18,1360(sp)
 1003a88:	dc415317 	ldw	r17,1356(sp)
 1003a8c:	dc015217 	ldw	r16,1352(sp)
 1003a90:	dec15c04 	addi	sp,sp,1392
 1003a94:	f800283a 	ret
 1003a98:	0005883a 	mov	r2,zero
 1003a9c:	0007883a 	mov	r3,zero
 1003aa0:	dd401904 	addi	r21,sp,100
 1003aa4:	d8814215 	stw	r2,1288(sp)
 1003aa8:	802f883a 	mov	r23,r16
 1003aac:	d8c14315 	stw	r3,1292(sp)
 1003ab0:	d8014b15 	stw	zero,1324(sp)
 1003ab4:	d8014815 	stw	zero,1312(sp)
 1003ab8:	d8014415 	stw	zero,1296(sp)
 1003abc:	d8014715 	stw	zero,1308(sp)
 1003ac0:	dd400c15 	stw	r21,48(sp)
 1003ac4:	d8000e15 	stw	zero,56(sp)
 1003ac8:	d8000d15 	stw	zero,52(sp)
 1003acc:	b8800007 	ldb	r2,0(r23)
 1003ad0:	10001926 	beq	r2,zero,1003b38 <___vfprintf_internal_r+0x1dc>
 1003ad4:	00c00944 	movi	r3,37
 1003ad8:	10c01726 	beq	r2,r3,1003b38 <___vfprintf_internal_r+0x1dc>
 1003adc:	b821883a 	mov	r16,r23
 1003ae0:	00000106 	br	1003ae8 <___vfprintf_internal_r+0x18c>
 1003ae4:	10c00326 	beq	r2,r3,1003af4 <___vfprintf_internal_r+0x198>
 1003ae8:	84000044 	addi	r16,r16,1
 1003aec:	80800007 	ldb	r2,0(r16)
 1003af0:	103ffc1e 	bne	r2,zero,1003ae4 <___vfprintf_internal_r+0x188>
 1003af4:	85e7c83a 	sub	r19,r16,r23
 1003af8:	98000e26 	beq	r19,zero,1003b34 <___vfprintf_internal_r+0x1d8>
 1003afc:	dc800e17 	ldw	r18,56(sp)
 1003b00:	dc400d17 	ldw	r17,52(sp)
 1003b04:	008001c4 	movi	r2,7
 1003b08:	94e5883a 	add	r18,r18,r19
 1003b0c:	8c400044 	addi	r17,r17,1
 1003b10:	adc00015 	stw	r23,0(r21)
 1003b14:	dc800e15 	stw	r18,56(sp)
 1003b18:	acc00115 	stw	r19,4(r21)
 1003b1c:	dc400d15 	stw	r17,52(sp)
 1003b20:	14428b16 	blt	r2,r17,1004550 <___vfprintf_internal_r+0xbf4>
 1003b24:	ad400204 	addi	r21,r21,8
 1003b28:	d9014b17 	ldw	r4,1324(sp)
 1003b2c:	24c9883a 	add	r4,r4,r19
 1003b30:	d9014b15 	stw	r4,1324(sp)
 1003b34:	802f883a 	mov	r23,r16
 1003b38:	b8800007 	ldb	r2,0(r23)
 1003b3c:	10013c26 	beq	r2,zero,1004030 <___vfprintf_internal_r+0x6d4>
 1003b40:	bdc00044 	addi	r23,r23,1
 1003b44:	d8000405 	stb	zero,16(sp)
 1003b48:	b8c00007 	ldb	r3,0(r23)
 1003b4c:	04ffffc4 	movi	r19,-1
 1003b50:	d8014c15 	stw	zero,1328(sp)
 1003b54:	d8014a15 	stw	zero,1320(sp)
 1003b58:	d8c14d15 	stw	r3,1332(sp)
 1003b5c:	bdc00044 	addi	r23,r23,1
 1003b60:	d9414d17 	ldw	r5,1332(sp)
 1003b64:	00801604 	movi	r2,88
 1003b68:	28fff804 	addi	r3,r5,-32
 1003b6c:	10c06036 	bltu	r2,r3,1003cf0 <___vfprintf_internal_r+0x394>
 1003b70:	18c5883a 	add	r2,r3,r3
 1003b74:	1085883a 	add	r2,r2,r2
 1003b78:	00c04034 	movhi	r3,256
 1003b7c:	18cee304 	addi	r3,r3,15244
 1003b80:	10c5883a 	add	r2,r2,r3
 1003b84:	11000017 	ldw	r4,0(r2)
 1003b88:	2000683a 	jmp	r4
 1003b8c:	01004b00 	call	1004b0 <OSCtxSw_SWITCH_PC+0x100470>
 1003b90:	01003cf0 	cmpltui	r4,zero,243
 1003b94:	01003cf0 	cmpltui	r4,zero,243
 1003b98:	01004aec 	andhi	r4,zero,299
 1003b9c:	01003cf0 	cmpltui	r4,zero,243
 1003ba0:	01003cf0 	cmpltui	r4,zero,243
 1003ba4:	01003cf0 	cmpltui	r4,zero,243
 1003ba8:	01003cf0 	cmpltui	r4,zero,243
 1003bac:	01003cf0 	cmpltui	r4,zero,243
 1003bb0:	01003cf0 	cmpltui	r4,zero,243
 1003bb4:	010048cc 	andi	r4,zero,291
 1003bb8:	01004adc 	xori	r4,zero,299
 1003bbc:	01003cf0 	cmpltui	r4,zero,243
 1003bc0:	010048e4 	muli	r4,zero,291
 1003bc4:	01004b78 	rdprs	r4,zero,301
 1003bc8:	01003cf0 	cmpltui	r4,zero,243
 1003bcc:	01004b64 	muli	r4,zero,301
 1003bd0:	01004b2c 	andhi	r4,zero,300
 1003bd4:	01004b2c 	andhi	r4,zero,300
 1003bd8:	01004b2c 	andhi	r4,zero,300
 1003bdc:	01004b2c 	andhi	r4,zero,300
 1003be0:	01004b2c 	andhi	r4,zero,300
 1003be4:	01004b2c 	andhi	r4,zero,300
 1003be8:	01004b2c 	andhi	r4,zero,300
 1003bec:	01004b2c 	andhi	r4,zero,300
 1003bf0:	01004b2c 	andhi	r4,zero,300
 1003bf4:	01003cf0 	cmpltui	r4,zero,243
 1003bf8:	01003cf0 	cmpltui	r4,zero,243
 1003bfc:	01003cf0 	cmpltui	r4,zero,243
 1003c00:	01003cf0 	cmpltui	r4,zero,243
 1003c04:	01003cf0 	cmpltui	r4,zero,243
 1003c08:	01003cf0 	cmpltui	r4,zero,243
 1003c0c:	01003cf0 	cmpltui	r4,zero,243
 1003c10:	01003cf0 	cmpltui	r4,zero,243
 1003c14:	01003cf0 	cmpltui	r4,zero,243
 1003c18:	01003cf0 	cmpltui	r4,zero,243
 1003c1c:	01004348 	cmpgei	r4,zero,269
 1003c20:	010049b4 	movhi	r4,294
 1003c24:	01003cf0 	cmpltui	r4,zero,243
 1003c28:	010049b4 	movhi	r4,294
 1003c2c:	01003cf0 	cmpltui	r4,zero,243
 1003c30:	01003cf0 	cmpltui	r4,zero,243
 1003c34:	01003cf0 	cmpltui	r4,zero,243
 1003c38:	01003cf0 	cmpltui	r4,zero,243
 1003c3c:	01004b18 	cmpnei	r4,zero,300
 1003c40:	01003cf0 	cmpltui	r4,zero,243
 1003c44:	01003cf0 	cmpltui	r4,zero,243
 1003c48:	010043fc 	xorhi	r4,zero,271
 1003c4c:	01003cf0 	cmpltui	r4,zero,243
 1003c50:	01003cf0 	cmpltui	r4,zero,243
 1003c54:	01003cf0 	cmpltui	r4,zero,243
 1003c58:	01003cf0 	cmpltui	r4,zero,243
 1003c5c:	01003cf0 	cmpltui	r4,zero,243
 1003c60:	01004448 	cmpgei	r4,zero,273
 1003c64:	01003cf0 	cmpltui	r4,zero,243
 1003c68:	01003cf0 	cmpltui	r4,zero,243
 1003c6c:	01004a68 	cmpgeui	r4,zero,297
 1003c70:	01003cf0 	cmpltui	r4,zero,243
 1003c74:	01003cf0 	cmpltui	r4,zero,243
 1003c78:	01003cf0 	cmpltui	r4,zero,243
 1003c7c:	01003cf0 	cmpltui	r4,zero,243
 1003c80:	01003cf0 	cmpltui	r4,zero,243
 1003c84:	01003cf0 	cmpltui	r4,zero,243
 1003c88:	01003cf0 	cmpltui	r4,zero,243
 1003c8c:	01003cf0 	cmpltui	r4,zero,243
 1003c90:	01003cf0 	cmpltui	r4,zero,243
 1003c94:	01003cf0 	cmpltui	r4,zero,243
 1003c98:	01004a3c 	xorhi	r4,zero,296
 1003c9c:	01004354 	movui	r4,269
 1003ca0:	010049b4 	movhi	r4,294
 1003ca4:	010049b4 	movhi	r4,294
 1003ca8:	010049b4 	movhi	r4,294
 1003cac:	010049a0 	cmpeqi	r4,zero,294
 1003cb0:	01004354 	movui	r4,269
 1003cb4:	01003cf0 	cmpltui	r4,zero,243
 1003cb8:	01003cf0 	cmpltui	r4,zero,243
 1003cbc:	01004928 	cmpgeui	r4,zero,292
 1003cc0:	01003cf0 	cmpltui	r4,zero,243
 1003cc4:	010048f8 	rdprs	r4,zero,291
 1003cc8:	01004408 	cmpgei	r4,zero,272
 1003ccc:	01004958 	cmpnei	r4,zero,293
 1003cd0:	01004944 	movi	r4,293
 1003cd4:	01003cf0 	cmpltui	r4,zero,243
 1003cd8:	01004bd4 	movui	r4,303
 1003cdc:	01003cf0 	cmpltui	r4,zero,243
 1003ce0:	01004454 	movui	r4,273
 1003ce4:	01003cf0 	cmpltui	r4,zero,243
 1003ce8:	01003cf0 	cmpltui	r4,zero,243
 1003cec:	01004acc 	andi	r4,zero,299
 1003cf0:	d9014d17 	ldw	r4,1332(sp)
 1003cf4:	2000ce26 	beq	r4,zero,1004030 <___vfprintf_internal_r+0x6d4>
 1003cf8:	01400044 	movi	r5,1
 1003cfc:	d9800f04 	addi	r6,sp,60
 1003d00:	d9c14015 	stw	r7,1280(sp)
 1003d04:	d9414515 	stw	r5,1300(sp)
 1003d08:	d9814115 	stw	r6,1284(sp)
 1003d0c:	280f883a 	mov	r7,r5
 1003d10:	d9000f05 	stb	r4,60(sp)
 1003d14:	d8000405 	stb	zero,16(sp)
 1003d18:	d8014615 	stw	zero,1304(sp)
 1003d1c:	d8c14c17 	ldw	r3,1328(sp)
 1003d20:	1880008c 	andi	r2,r3,2
 1003d24:	1005003a 	cmpeq	r2,r2,zero
 1003d28:	d8815015 	stw	r2,1344(sp)
 1003d2c:	1000031e 	bne	r2,zero,1003d3c <___vfprintf_internal_r+0x3e0>
 1003d30:	d9014517 	ldw	r4,1300(sp)
 1003d34:	21000084 	addi	r4,r4,2
 1003d38:	d9014515 	stw	r4,1300(sp)
 1003d3c:	d9414c17 	ldw	r5,1328(sp)
 1003d40:	2940210c 	andi	r5,r5,132
 1003d44:	d9414e15 	stw	r5,1336(sp)
 1003d48:	28002d1e 	bne	r5,zero,1003e00 <___vfprintf_internal_r+0x4a4>
 1003d4c:	d9814a17 	ldw	r6,1320(sp)
 1003d50:	d8814517 	ldw	r2,1300(sp)
 1003d54:	30a1c83a 	sub	r16,r6,r2
 1003d58:	0400290e 	bge	zero,r16,1003e00 <___vfprintf_internal_r+0x4a4>
 1003d5c:	00800404 	movi	r2,16
 1003d60:	1404580e 	bge	r2,r16,1004ec4 <___vfprintf_internal_r+0x1568>
 1003d64:	dc800e17 	ldw	r18,56(sp)
 1003d68:	dc400d17 	ldw	r17,52(sp)
 1003d6c:	1027883a 	mov	r19,r2
 1003d70:	070040b4 	movhi	fp,258
 1003d74:	e723e684 	addi	fp,fp,-28774
 1003d78:	050001c4 	movi	r20,7
 1003d7c:	00000306 	br	1003d8c <___vfprintf_internal_r+0x430>
 1003d80:	843ffc04 	addi	r16,r16,-16
 1003d84:	ad400204 	addi	r21,r21,8
 1003d88:	9c00130e 	bge	r19,r16,1003dd8 <___vfprintf_internal_r+0x47c>
 1003d8c:	94800404 	addi	r18,r18,16
 1003d90:	8c400044 	addi	r17,r17,1
 1003d94:	af000015 	stw	fp,0(r21)
 1003d98:	acc00115 	stw	r19,4(r21)
 1003d9c:	dc800e15 	stw	r18,56(sp)
 1003da0:	dc400d15 	stw	r17,52(sp)
 1003da4:	a47ff60e 	bge	r20,r17,1003d80 <___vfprintf_internal_r+0x424>
 1003da8:	d9014f17 	ldw	r4,1340(sp)
 1003dac:	b00b883a 	mov	r5,r22
 1003db0:	d9800c04 	addi	r6,sp,48
 1003db4:	d9c15115 	stw	r7,1348(sp)
 1003db8:	10039040 	call	1003904 <__sprint_r>
 1003dbc:	d9c15117 	ldw	r7,1348(sp)
 1003dc0:	10009e1e 	bne	r2,zero,100403c <___vfprintf_internal_r+0x6e0>
 1003dc4:	843ffc04 	addi	r16,r16,-16
 1003dc8:	dc800e17 	ldw	r18,56(sp)
 1003dcc:	dc400d17 	ldw	r17,52(sp)
 1003dd0:	dd401904 	addi	r21,sp,100
 1003dd4:	9c3fed16 	blt	r19,r16,1003d8c <___vfprintf_internal_r+0x430>
 1003dd8:	9425883a 	add	r18,r18,r16
 1003ddc:	8c400044 	addi	r17,r17,1
 1003de0:	008001c4 	movi	r2,7
 1003de4:	af000015 	stw	fp,0(r21)
 1003de8:	ac000115 	stw	r16,4(r21)
 1003dec:	dc800e15 	stw	r18,56(sp)
 1003df0:	dc400d15 	stw	r17,52(sp)
 1003df4:	1441f516 	blt	r2,r17,10045cc <___vfprintf_internal_r+0xc70>
 1003df8:	ad400204 	addi	r21,r21,8
 1003dfc:	00000206 	br	1003e08 <___vfprintf_internal_r+0x4ac>
 1003e00:	dc800e17 	ldw	r18,56(sp)
 1003e04:	dc400d17 	ldw	r17,52(sp)
 1003e08:	d8800407 	ldb	r2,16(sp)
 1003e0c:	10000b26 	beq	r2,zero,1003e3c <___vfprintf_internal_r+0x4e0>
 1003e10:	00800044 	movi	r2,1
 1003e14:	94800044 	addi	r18,r18,1
 1003e18:	8c400044 	addi	r17,r17,1
 1003e1c:	a8800115 	stw	r2,4(r21)
 1003e20:	d8c00404 	addi	r3,sp,16
 1003e24:	008001c4 	movi	r2,7
 1003e28:	a8c00015 	stw	r3,0(r21)
 1003e2c:	dc800e15 	stw	r18,56(sp)
 1003e30:	dc400d15 	stw	r17,52(sp)
 1003e34:	1441da16 	blt	r2,r17,10045a0 <___vfprintf_internal_r+0xc44>
 1003e38:	ad400204 	addi	r21,r21,8
 1003e3c:	d9015017 	ldw	r4,1344(sp)
 1003e40:	20000b1e 	bne	r4,zero,1003e70 <___vfprintf_internal_r+0x514>
 1003e44:	d8800444 	addi	r2,sp,17
 1003e48:	94800084 	addi	r18,r18,2
 1003e4c:	8c400044 	addi	r17,r17,1
 1003e50:	a8800015 	stw	r2,0(r21)
 1003e54:	00c00084 	movi	r3,2
 1003e58:	008001c4 	movi	r2,7
 1003e5c:	a8c00115 	stw	r3,4(r21)
 1003e60:	dc800e15 	stw	r18,56(sp)
 1003e64:	dc400d15 	stw	r17,52(sp)
 1003e68:	1441c216 	blt	r2,r17,1004574 <___vfprintf_internal_r+0xc18>
 1003e6c:	ad400204 	addi	r21,r21,8
 1003e70:	d9414e17 	ldw	r5,1336(sp)
 1003e74:	00802004 	movi	r2,128
 1003e78:	2880b126 	beq	r5,r2,1004140 <___vfprintf_internal_r+0x7e4>
 1003e7c:	d8c14617 	ldw	r3,1304(sp)
 1003e80:	19e1c83a 	sub	r16,r3,r7
 1003e84:	0400260e 	bge	zero,r16,1003f20 <___vfprintf_internal_r+0x5c4>
 1003e88:	00800404 	movi	r2,16
 1003e8c:	1403c90e 	bge	r2,r16,1004db4 <___vfprintf_internal_r+0x1458>
 1003e90:	1027883a 	mov	r19,r2
 1003e94:	070040b4 	movhi	fp,258
 1003e98:	e723e284 	addi	fp,fp,-28790
 1003e9c:	050001c4 	movi	r20,7
 1003ea0:	00000306 	br	1003eb0 <___vfprintf_internal_r+0x554>
 1003ea4:	843ffc04 	addi	r16,r16,-16
 1003ea8:	ad400204 	addi	r21,r21,8
 1003eac:	9c00130e 	bge	r19,r16,1003efc <___vfprintf_internal_r+0x5a0>
 1003eb0:	94800404 	addi	r18,r18,16
 1003eb4:	8c400044 	addi	r17,r17,1
 1003eb8:	af000015 	stw	fp,0(r21)
 1003ebc:	acc00115 	stw	r19,4(r21)
 1003ec0:	dc800e15 	stw	r18,56(sp)
 1003ec4:	dc400d15 	stw	r17,52(sp)
 1003ec8:	a47ff60e 	bge	r20,r17,1003ea4 <___vfprintf_internal_r+0x548>
 1003ecc:	d9014f17 	ldw	r4,1340(sp)
 1003ed0:	b00b883a 	mov	r5,r22
 1003ed4:	d9800c04 	addi	r6,sp,48
 1003ed8:	d9c15115 	stw	r7,1348(sp)
 1003edc:	10039040 	call	1003904 <__sprint_r>
 1003ee0:	d9c15117 	ldw	r7,1348(sp)
 1003ee4:	1000551e 	bne	r2,zero,100403c <___vfprintf_internal_r+0x6e0>
 1003ee8:	843ffc04 	addi	r16,r16,-16
 1003eec:	dc800e17 	ldw	r18,56(sp)
 1003ef0:	dc400d17 	ldw	r17,52(sp)
 1003ef4:	dd401904 	addi	r21,sp,100
 1003ef8:	9c3fed16 	blt	r19,r16,1003eb0 <___vfprintf_internal_r+0x554>
 1003efc:	9425883a 	add	r18,r18,r16
 1003f00:	8c400044 	addi	r17,r17,1
 1003f04:	008001c4 	movi	r2,7
 1003f08:	af000015 	stw	fp,0(r21)
 1003f0c:	ac000115 	stw	r16,4(r21)
 1003f10:	dc800e15 	stw	r18,56(sp)
 1003f14:	dc400d15 	stw	r17,52(sp)
 1003f18:	14418216 	blt	r2,r17,1004524 <___vfprintf_internal_r+0xbc8>
 1003f1c:	ad400204 	addi	r21,r21,8
 1003f20:	d9014c17 	ldw	r4,1328(sp)
 1003f24:	2080400c 	andi	r2,r4,256
 1003f28:	10004a1e 	bne	r2,zero,1004054 <___vfprintf_internal_r+0x6f8>
 1003f2c:	d9414117 	ldw	r5,1284(sp)
 1003f30:	91e5883a 	add	r18,r18,r7
 1003f34:	8c400044 	addi	r17,r17,1
 1003f38:	008001c4 	movi	r2,7
 1003f3c:	a9400015 	stw	r5,0(r21)
 1003f40:	a9c00115 	stw	r7,4(r21)
 1003f44:	dc800e15 	stw	r18,56(sp)
 1003f48:	dc400d15 	stw	r17,52(sp)
 1003f4c:	14416716 	blt	r2,r17,10044ec <___vfprintf_internal_r+0xb90>
 1003f50:	a8c00204 	addi	r3,r21,8
 1003f54:	d9814c17 	ldw	r6,1328(sp)
 1003f58:	3080010c 	andi	r2,r6,4
 1003f5c:	10002826 	beq	r2,zero,1004000 <___vfprintf_internal_r+0x6a4>
 1003f60:	d8814a17 	ldw	r2,1320(sp)
 1003f64:	d9014517 	ldw	r4,1300(sp)
 1003f68:	1121c83a 	sub	r16,r2,r4
 1003f6c:	0400240e 	bge	zero,r16,1004000 <___vfprintf_internal_r+0x6a4>
 1003f70:	00800404 	movi	r2,16
 1003f74:	14044f0e 	bge	r2,r16,10050b4 <___vfprintf_internal_r+0x1758>
 1003f78:	dc400d17 	ldw	r17,52(sp)
 1003f7c:	1027883a 	mov	r19,r2
 1003f80:	070040b4 	movhi	fp,258
 1003f84:	e723e684 	addi	fp,fp,-28774
 1003f88:	050001c4 	movi	r20,7
 1003f8c:	00000306 	br	1003f9c <___vfprintf_internal_r+0x640>
 1003f90:	843ffc04 	addi	r16,r16,-16
 1003f94:	18c00204 	addi	r3,r3,8
 1003f98:	9c00110e 	bge	r19,r16,1003fe0 <___vfprintf_internal_r+0x684>
 1003f9c:	94800404 	addi	r18,r18,16
 1003fa0:	8c400044 	addi	r17,r17,1
 1003fa4:	1f000015 	stw	fp,0(r3)
 1003fa8:	1cc00115 	stw	r19,4(r3)
 1003fac:	dc800e15 	stw	r18,56(sp)
 1003fb0:	dc400d15 	stw	r17,52(sp)
 1003fb4:	a47ff60e 	bge	r20,r17,1003f90 <___vfprintf_internal_r+0x634>
 1003fb8:	d9014f17 	ldw	r4,1340(sp)
 1003fbc:	b00b883a 	mov	r5,r22
 1003fc0:	d9800c04 	addi	r6,sp,48
 1003fc4:	10039040 	call	1003904 <__sprint_r>
 1003fc8:	10001c1e 	bne	r2,zero,100403c <___vfprintf_internal_r+0x6e0>
 1003fcc:	843ffc04 	addi	r16,r16,-16
 1003fd0:	dc800e17 	ldw	r18,56(sp)
 1003fd4:	dc400d17 	ldw	r17,52(sp)
 1003fd8:	d8c01904 	addi	r3,sp,100
 1003fdc:	9c3fef16 	blt	r19,r16,1003f9c <___vfprintf_internal_r+0x640>
 1003fe0:	9425883a 	add	r18,r18,r16
 1003fe4:	8c400044 	addi	r17,r17,1
 1003fe8:	008001c4 	movi	r2,7
 1003fec:	1f000015 	stw	fp,0(r3)
 1003ff0:	1c000115 	stw	r16,4(r3)
 1003ff4:	dc800e15 	stw	r18,56(sp)
 1003ff8:	dc400d15 	stw	r17,52(sp)
 1003ffc:	1440cb16 	blt	r2,r17,100432c <___vfprintf_internal_r+0x9d0>
 1004000:	d8814a17 	ldw	r2,1320(sp)
 1004004:	d9414517 	ldw	r5,1300(sp)
 1004008:	1140010e 	bge	r2,r5,1004010 <___vfprintf_internal_r+0x6b4>
 100400c:	2805883a 	mov	r2,r5
 1004010:	d9814b17 	ldw	r6,1324(sp)
 1004014:	308d883a 	add	r6,r6,r2
 1004018:	d9814b15 	stw	r6,1324(sp)
 100401c:	90013b1e 	bne	r18,zero,100450c <___vfprintf_internal_r+0xbb0>
 1004020:	d9c14017 	ldw	r7,1280(sp)
 1004024:	dd401904 	addi	r21,sp,100
 1004028:	d8000d15 	stw	zero,52(sp)
 100402c:	003ea706 	br	1003acc <___vfprintf_internal_r+0x170>
 1004030:	d8800e17 	ldw	r2,56(sp)
 1004034:	10053f1e 	bne	r2,zero,1005534 <___vfprintf_internal_r+0x1bd8>
 1004038:	d8000d15 	stw	zero,52(sp)
 100403c:	b080030b 	ldhu	r2,12(r22)
 1004040:	1080100c 	andi	r2,r2,64
 1004044:	103e8726 	beq	r2,zero,1003a64 <___vfprintf_internal_r+0x108>
 1004048:	00bfffc4 	movi	r2,-1
 100404c:	d8814b15 	stw	r2,1324(sp)
 1004050:	003e8406 	br	1003a64 <___vfprintf_internal_r+0x108>
 1004054:	d9814d17 	ldw	r6,1332(sp)
 1004058:	00801944 	movi	r2,101
 100405c:	11806e16 	blt	r2,r6,1004218 <___vfprintf_internal_r+0x8bc>
 1004060:	d9414717 	ldw	r5,1308(sp)
 1004064:	00c00044 	movi	r3,1
 1004068:	1943430e 	bge	r3,r5,1004d78 <___vfprintf_internal_r+0x141c>
 100406c:	d8814117 	ldw	r2,1284(sp)
 1004070:	94800044 	addi	r18,r18,1
 1004074:	8c400044 	addi	r17,r17,1
 1004078:	a8800015 	stw	r2,0(r21)
 100407c:	008001c4 	movi	r2,7
 1004080:	a8c00115 	stw	r3,4(r21)
 1004084:	dc800e15 	stw	r18,56(sp)
 1004088:	dc400d15 	stw	r17,52(sp)
 100408c:	1441ca16 	blt	r2,r17,10047b8 <___vfprintf_internal_r+0xe5c>
 1004090:	a8c00204 	addi	r3,r21,8
 1004094:	d9014917 	ldw	r4,1316(sp)
 1004098:	00800044 	movi	r2,1
 100409c:	94800044 	addi	r18,r18,1
 10040a0:	8c400044 	addi	r17,r17,1
 10040a4:	18800115 	stw	r2,4(r3)
 10040a8:	008001c4 	movi	r2,7
 10040ac:	19000015 	stw	r4,0(r3)
 10040b0:	dc800e15 	stw	r18,56(sp)
 10040b4:	dc400d15 	stw	r17,52(sp)
 10040b8:	1441b616 	blt	r2,r17,1004794 <___vfprintf_internal_r+0xe38>
 10040bc:	1cc00204 	addi	r19,r3,8
 10040c0:	d9014217 	ldw	r4,1288(sp)
 10040c4:	d9414317 	ldw	r5,1292(sp)
 10040c8:	000d883a 	mov	r6,zero
 10040cc:	000f883a 	mov	r7,zero
 10040d0:	100b9640 	call	100b964 <__nedf2>
 10040d4:	10017426 	beq	r2,zero,10046a8 <___vfprintf_internal_r+0xd4c>
 10040d8:	d9414717 	ldw	r5,1308(sp)
 10040dc:	d9814117 	ldw	r6,1284(sp)
 10040e0:	8c400044 	addi	r17,r17,1
 10040e4:	2c85883a 	add	r2,r5,r18
 10040e8:	14bfffc4 	addi	r18,r2,-1
 10040ec:	28bfffc4 	addi	r2,r5,-1
 10040f0:	30c00044 	addi	r3,r6,1
 10040f4:	98800115 	stw	r2,4(r19)
 10040f8:	008001c4 	movi	r2,7
 10040fc:	98c00015 	stw	r3,0(r19)
 1004100:	dc800e15 	stw	r18,56(sp)
 1004104:	dc400d15 	stw	r17,52(sp)
 1004108:	14418e16 	blt	r2,r17,1004744 <___vfprintf_internal_r+0xde8>
 100410c:	9cc00204 	addi	r19,r19,8
 1004110:	d9414817 	ldw	r5,1312(sp)
 1004114:	d8800804 	addi	r2,sp,32
 1004118:	8c400044 	addi	r17,r17,1
 100411c:	9165883a 	add	r18,r18,r5
 1004120:	98800015 	stw	r2,0(r19)
 1004124:	008001c4 	movi	r2,7
 1004128:	99400115 	stw	r5,4(r19)
 100412c:	dc800e15 	stw	r18,56(sp)
 1004130:	dc400d15 	stw	r17,52(sp)
 1004134:	1440ed16 	blt	r2,r17,10044ec <___vfprintf_internal_r+0xb90>
 1004138:	98c00204 	addi	r3,r19,8
 100413c:	003f8506 	br	1003f54 <___vfprintf_internal_r+0x5f8>
 1004140:	d9814a17 	ldw	r6,1320(sp)
 1004144:	d8814517 	ldw	r2,1300(sp)
 1004148:	30a1c83a 	sub	r16,r6,r2
 100414c:	043f4b0e 	bge	zero,r16,1003e7c <___vfprintf_internal_r+0x520>
 1004150:	00800404 	movi	r2,16
 1004154:	1404340e 	bge	r2,r16,1005228 <___vfprintf_internal_r+0x18cc>
 1004158:	1027883a 	mov	r19,r2
 100415c:	070040b4 	movhi	fp,258
 1004160:	e723e284 	addi	fp,fp,-28790
 1004164:	050001c4 	movi	r20,7
 1004168:	00000306 	br	1004178 <___vfprintf_internal_r+0x81c>
 100416c:	843ffc04 	addi	r16,r16,-16
 1004170:	ad400204 	addi	r21,r21,8
 1004174:	9c00130e 	bge	r19,r16,10041c4 <___vfprintf_internal_r+0x868>
 1004178:	94800404 	addi	r18,r18,16
 100417c:	8c400044 	addi	r17,r17,1
 1004180:	af000015 	stw	fp,0(r21)
 1004184:	acc00115 	stw	r19,4(r21)
 1004188:	dc800e15 	stw	r18,56(sp)
 100418c:	dc400d15 	stw	r17,52(sp)
 1004190:	a47ff60e 	bge	r20,r17,100416c <___vfprintf_internal_r+0x810>
 1004194:	d9014f17 	ldw	r4,1340(sp)
 1004198:	b00b883a 	mov	r5,r22
 100419c:	d9800c04 	addi	r6,sp,48
 10041a0:	d9c15115 	stw	r7,1348(sp)
 10041a4:	10039040 	call	1003904 <__sprint_r>
 10041a8:	d9c15117 	ldw	r7,1348(sp)
 10041ac:	103fa31e 	bne	r2,zero,100403c <___vfprintf_internal_r+0x6e0>
 10041b0:	843ffc04 	addi	r16,r16,-16
 10041b4:	dc800e17 	ldw	r18,56(sp)
 10041b8:	dc400d17 	ldw	r17,52(sp)
 10041bc:	dd401904 	addi	r21,sp,100
 10041c0:	9c3fed16 	blt	r19,r16,1004178 <___vfprintf_internal_r+0x81c>
 10041c4:	9425883a 	add	r18,r18,r16
 10041c8:	8c400044 	addi	r17,r17,1
 10041cc:	008001c4 	movi	r2,7
 10041d0:	af000015 	stw	fp,0(r21)
 10041d4:	ac000115 	stw	r16,4(r21)
 10041d8:	dc800e15 	stw	r18,56(sp)
 10041dc:	dc400d15 	stw	r17,52(sp)
 10041e0:	14416116 	blt	r2,r17,1004768 <___vfprintf_internal_r+0xe0c>
 10041e4:	ad400204 	addi	r21,r21,8
 10041e8:	003f2406 	br	1003e7c <___vfprintf_internal_r+0x520>
 10041ec:	d9014f17 	ldw	r4,1340(sp)
 10041f0:	10073cc0 	call	10073cc <__sinit>
 10041f4:	d9c15117 	ldw	r7,1348(sp)
 10041f8:	003def06 	br	10039b8 <___vfprintf_internal_r+0x5c>
 10041fc:	d9014f17 	ldw	r4,1340(sp)
 1004200:	b00b883a 	mov	r5,r22
 1004204:	d9c15115 	stw	r7,1348(sp)
 1004208:	100582c0 	call	100582c <__swsetup_r>
 100420c:	d9c15117 	ldw	r7,1348(sp)
 1004210:	103dee26 	beq	r2,zero,10039cc <___vfprintf_internal_r+0x70>
 1004214:	003f8c06 	br	1004048 <___vfprintf_internal_r+0x6ec>
 1004218:	d9014217 	ldw	r4,1288(sp)
 100421c:	d9414317 	ldw	r5,1292(sp)
 1004220:	000d883a 	mov	r6,zero
 1004224:	000f883a 	mov	r7,zero
 1004228:	100b8dc0 	call	100b8dc <__eqdf2>
 100422c:	1000f21e 	bne	r2,zero,10045f8 <___vfprintf_internal_r+0xc9c>
 1004230:	008040b4 	movhi	r2,258
 1004234:	10a3e204 	addi	r2,r2,-28792
 1004238:	94800044 	addi	r18,r18,1
 100423c:	8c400044 	addi	r17,r17,1
 1004240:	a8800015 	stw	r2,0(r21)
 1004244:	00c00044 	movi	r3,1
 1004248:	008001c4 	movi	r2,7
 100424c:	a8c00115 	stw	r3,4(r21)
 1004250:	dc800e15 	stw	r18,56(sp)
 1004254:	dc400d15 	stw	r17,52(sp)
 1004258:	1442fa16 	blt	r2,r17,1004e44 <___vfprintf_internal_r+0x14e8>
 100425c:	a8c00204 	addi	r3,r21,8
 1004260:	d8800517 	ldw	r2,20(sp)
 1004264:	d9014717 	ldw	r4,1308(sp)
 1004268:	11015c0e 	bge	r2,r4,10047dc <___vfprintf_internal_r+0xe80>
 100426c:	dc400d17 	ldw	r17,52(sp)
 1004270:	d9814917 	ldw	r6,1316(sp)
 1004274:	00800044 	movi	r2,1
 1004278:	94800044 	addi	r18,r18,1
 100427c:	8c400044 	addi	r17,r17,1
 1004280:	18800115 	stw	r2,4(r3)
 1004284:	008001c4 	movi	r2,7
 1004288:	19800015 	stw	r6,0(r3)
 100428c:	dc800e15 	stw	r18,56(sp)
 1004290:	dc400d15 	stw	r17,52(sp)
 1004294:	14431016 	blt	r2,r17,1004ed8 <___vfprintf_internal_r+0x157c>
 1004298:	18c00204 	addi	r3,r3,8
 100429c:	d8814717 	ldw	r2,1308(sp)
 10042a0:	143fffc4 	addi	r16,r2,-1
 10042a4:	043f2b0e 	bge	zero,r16,1003f54 <___vfprintf_internal_r+0x5f8>
 10042a8:	00800404 	movi	r2,16
 10042ac:	1402a20e 	bge	r2,r16,1004d38 <___vfprintf_internal_r+0x13dc>
 10042b0:	dc400d17 	ldw	r17,52(sp)
 10042b4:	1027883a 	mov	r19,r2
 10042b8:	070040b4 	movhi	fp,258
 10042bc:	e723e284 	addi	fp,fp,-28790
 10042c0:	050001c4 	movi	r20,7
 10042c4:	00000306 	br	10042d4 <___vfprintf_internal_r+0x978>
 10042c8:	18c00204 	addi	r3,r3,8
 10042cc:	843ffc04 	addi	r16,r16,-16
 10042d0:	9c029c0e 	bge	r19,r16,1004d44 <___vfprintf_internal_r+0x13e8>
 10042d4:	94800404 	addi	r18,r18,16
 10042d8:	8c400044 	addi	r17,r17,1
 10042dc:	1f000015 	stw	fp,0(r3)
 10042e0:	1cc00115 	stw	r19,4(r3)
 10042e4:	dc800e15 	stw	r18,56(sp)
 10042e8:	dc400d15 	stw	r17,52(sp)
 10042ec:	a47ff60e 	bge	r20,r17,10042c8 <___vfprintf_internal_r+0x96c>
 10042f0:	d9014f17 	ldw	r4,1340(sp)
 10042f4:	b00b883a 	mov	r5,r22
 10042f8:	d9800c04 	addi	r6,sp,48
 10042fc:	10039040 	call	1003904 <__sprint_r>
 1004300:	103f4e1e 	bne	r2,zero,100403c <___vfprintf_internal_r+0x6e0>
 1004304:	dc800e17 	ldw	r18,56(sp)
 1004308:	dc400d17 	ldw	r17,52(sp)
 100430c:	d8c01904 	addi	r3,sp,100
 1004310:	003fee06 	br	10042cc <___vfprintf_internal_r+0x970>
 1004314:	d8802c0b 	ldhu	r2,176(sp)
 1004318:	00ffffc4 	movi	r3,-1
 100431c:	d8c14b15 	stw	r3,1324(sp)
 1004320:	1080100c 	andi	r2,r2,64
 1004324:	103dcc1e 	bne	r2,zero,1003a58 <___vfprintf_internal_r+0xfc>
 1004328:	003dce06 	br	1003a64 <___vfprintf_internal_r+0x108>
 100432c:	d9014f17 	ldw	r4,1340(sp)
 1004330:	b00b883a 	mov	r5,r22
 1004334:	d9800c04 	addi	r6,sp,48
 1004338:	10039040 	call	1003904 <__sprint_r>
 100433c:	103f3f1e 	bne	r2,zero,100403c <___vfprintf_internal_r+0x6e0>
 1004340:	dc800e17 	ldw	r18,56(sp)
 1004344:	003f2e06 	br	1004000 <___vfprintf_internal_r+0x6a4>
 1004348:	d9414c17 	ldw	r5,1328(sp)
 100434c:	29400414 	ori	r5,r5,16
 1004350:	d9414c15 	stw	r5,1328(sp)
 1004354:	d9814c17 	ldw	r6,1328(sp)
 1004358:	3080080c 	andi	r2,r6,32
 100435c:	10014f1e 	bne	r2,zero,100489c <___vfprintf_internal_r+0xf40>
 1004360:	d8c14c17 	ldw	r3,1328(sp)
 1004364:	1880040c 	andi	r2,r3,16
 1004368:	1002ea1e 	bne	r2,zero,1004f14 <___vfprintf_internal_r+0x15b8>
 100436c:	d9014c17 	ldw	r4,1328(sp)
 1004370:	2080100c 	andi	r2,r4,64
 1004374:	1002e726 	beq	r2,zero,1004f14 <___vfprintf_internal_r+0x15b8>
 1004378:	3880000f 	ldh	r2,0(r7)
 100437c:	39c00104 	addi	r7,r7,4
 1004380:	d9c14015 	stw	r7,1280(sp)
 1004384:	1023d7fa 	srai	r17,r2,31
 1004388:	1021883a 	mov	r16,r2
 100438c:	88037216 	blt	r17,zero,1005158 <___vfprintf_internal_r+0x17fc>
 1004390:	01000044 	movi	r4,1
 1004394:	98000416 	blt	r19,zero,10043a8 <___vfprintf_internal_r+0xa4c>
 1004398:	d8c14c17 	ldw	r3,1328(sp)
 100439c:	00bfdfc4 	movi	r2,-129
 10043a0:	1886703a 	and	r3,r3,r2
 10043a4:	d8c14c15 	stw	r3,1328(sp)
 10043a8:	8444b03a 	or	r2,r16,r17
 10043ac:	1002261e 	bne	r2,zero,1004c48 <___vfprintf_internal_r+0x12ec>
 10043b0:	9802251e 	bne	r19,zero,1004c48 <___vfprintf_internal_r+0x12ec>
 10043b4:	20803fcc 	andi	r2,r4,255
 10043b8:	10029b26 	beq	r2,zero,1004e28 <___vfprintf_internal_r+0x14cc>
 10043bc:	d8c01904 	addi	r3,sp,100
 10043c0:	dd000f04 	addi	r20,sp,60
 10043c4:	d8c14115 	stw	r3,1284(sp)
 10043c8:	d8c14117 	ldw	r3,1284(sp)
 10043cc:	dcc14515 	stw	r19,1300(sp)
 10043d0:	a0c5c83a 	sub	r2,r20,r3
 10043d4:	11c00a04 	addi	r7,r2,40
 10043d8:	99c0010e 	bge	r19,r7,10043e0 <___vfprintf_internal_r+0xa84>
 10043dc:	d9c14515 	stw	r7,1300(sp)
 10043e0:	dcc14615 	stw	r19,1304(sp)
 10043e4:	d8800407 	ldb	r2,16(sp)
 10043e8:	103e4c26 	beq	r2,zero,1003d1c <___vfprintf_internal_r+0x3c0>
 10043ec:	d8814517 	ldw	r2,1300(sp)
 10043f0:	10800044 	addi	r2,r2,1
 10043f4:	d8814515 	stw	r2,1300(sp)
 10043f8:	003e4806 	br	1003d1c <___vfprintf_internal_r+0x3c0>
 10043fc:	d9814c17 	ldw	r6,1328(sp)
 1004400:	31800414 	ori	r6,r6,16
 1004404:	d9814c15 	stw	r6,1328(sp)
 1004408:	d8c14c17 	ldw	r3,1328(sp)
 100440c:	1880080c 	andi	r2,r3,32
 1004410:	1001271e 	bne	r2,zero,10048b0 <___vfprintf_internal_r+0xf54>
 1004414:	d9414c17 	ldw	r5,1328(sp)
 1004418:	2880040c 	andi	r2,r5,16
 100441c:	1002b61e 	bne	r2,zero,1004ef8 <___vfprintf_internal_r+0x159c>
 1004420:	d9814c17 	ldw	r6,1328(sp)
 1004424:	3080100c 	andi	r2,r6,64
 1004428:	1002b326 	beq	r2,zero,1004ef8 <___vfprintf_internal_r+0x159c>
 100442c:	3c00000b 	ldhu	r16,0(r7)
 1004430:	0009883a 	mov	r4,zero
 1004434:	39c00104 	addi	r7,r7,4
 1004438:	0023883a 	mov	r17,zero
 100443c:	d9c14015 	stw	r7,1280(sp)
 1004440:	d8000405 	stb	zero,16(sp)
 1004444:	003fd306 	br	1004394 <___vfprintf_internal_r+0xa38>
 1004448:	d9014c17 	ldw	r4,1328(sp)
 100444c:	21000414 	ori	r4,r4,16
 1004450:	d9014c15 	stw	r4,1328(sp)
 1004454:	d9414c17 	ldw	r5,1328(sp)
 1004458:	2880080c 	andi	r2,r5,32
 100445c:	1001081e 	bne	r2,zero,1004880 <___vfprintf_internal_r+0xf24>
 1004460:	d8c14c17 	ldw	r3,1328(sp)
 1004464:	1880040c 	andi	r2,r3,16
 1004468:	1002b01e 	bne	r2,zero,1004f2c <___vfprintf_internal_r+0x15d0>
 100446c:	d9014c17 	ldw	r4,1328(sp)
 1004470:	2080100c 	andi	r2,r4,64
 1004474:	1002ad26 	beq	r2,zero,1004f2c <___vfprintf_internal_r+0x15d0>
 1004478:	3c00000b 	ldhu	r16,0(r7)
 100447c:	01000044 	movi	r4,1
 1004480:	39c00104 	addi	r7,r7,4
 1004484:	0023883a 	mov	r17,zero
 1004488:	d9c14015 	stw	r7,1280(sp)
 100448c:	d8000405 	stb	zero,16(sp)
 1004490:	003fc006 	br	1004394 <___vfprintf_internal_r+0xa38>
 1004494:	d9014f17 	ldw	r4,1340(sp)
 1004498:	b00b883a 	mov	r5,r22
 100449c:	d9800c04 	addi	r6,sp,48
 10044a0:	10039040 	call	1003904 <__sprint_r>
 10044a4:	103ee51e 	bne	r2,zero,100403c <___vfprintf_internal_r+0x6e0>
 10044a8:	dc800e17 	ldw	r18,56(sp)
 10044ac:	d8c01904 	addi	r3,sp,100
 10044b0:	d9814c17 	ldw	r6,1328(sp)
 10044b4:	3080004c 	andi	r2,r6,1
 10044b8:	1005003a 	cmpeq	r2,r2,zero
 10044bc:	103ea51e 	bne	r2,zero,1003f54 <___vfprintf_internal_r+0x5f8>
 10044c0:	00800044 	movi	r2,1
 10044c4:	dc400d17 	ldw	r17,52(sp)
 10044c8:	18800115 	stw	r2,4(r3)
 10044cc:	d8814917 	ldw	r2,1316(sp)
 10044d0:	94800044 	addi	r18,r18,1
 10044d4:	8c400044 	addi	r17,r17,1
 10044d8:	18800015 	stw	r2,0(r3)
 10044dc:	008001c4 	movi	r2,7
 10044e0:	dc800e15 	stw	r18,56(sp)
 10044e4:	dc400d15 	stw	r17,52(sp)
 10044e8:	14421e0e 	bge	r2,r17,1004d64 <___vfprintf_internal_r+0x1408>
 10044ec:	d9014f17 	ldw	r4,1340(sp)
 10044f0:	b00b883a 	mov	r5,r22
 10044f4:	d9800c04 	addi	r6,sp,48
 10044f8:	10039040 	call	1003904 <__sprint_r>
 10044fc:	103ecf1e 	bne	r2,zero,100403c <___vfprintf_internal_r+0x6e0>
 1004500:	dc800e17 	ldw	r18,56(sp)
 1004504:	d8c01904 	addi	r3,sp,100
 1004508:	003e9206 	br	1003f54 <___vfprintf_internal_r+0x5f8>
 100450c:	d9014f17 	ldw	r4,1340(sp)
 1004510:	b00b883a 	mov	r5,r22
 1004514:	d9800c04 	addi	r6,sp,48
 1004518:	10039040 	call	1003904 <__sprint_r>
 100451c:	103ec026 	beq	r2,zero,1004020 <___vfprintf_internal_r+0x6c4>
 1004520:	003ec606 	br	100403c <___vfprintf_internal_r+0x6e0>
 1004524:	d9014f17 	ldw	r4,1340(sp)
 1004528:	b00b883a 	mov	r5,r22
 100452c:	d9800c04 	addi	r6,sp,48
 1004530:	d9c15115 	stw	r7,1348(sp)
 1004534:	10039040 	call	1003904 <__sprint_r>
 1004538:	d9c15117 	ldw	r7,1348(sp)
 100453c:	103ebf1e 	bne	r2,zero,100403c <___vfprintf_internal_r+0x6e0>
 1004540:	dc800e17 	ldw	r18,56(sp)
 1004544:	dc400d17 	ldw	r17,52(sp)
 1004548:	dd401904 	addi	r21,sp,100
 100454c:	003e7406 	br	1003f20 <___vfprintf_internal_r+0x5c4>
 1004550:	d9014f17 	ldw	r4,1340(sp)
 1004554:	b00b883a 	mov	r5,r22
 1004558:	d9800c04 	addi	r6,sp,48
 100455c:	d9c15115 	stw	r7,1348(sp)
 1004560:	10039040 	call	1003904 <__sprint_r>
 1004564:	d9c15117 	ldw	r7,1348(sp)
 1004568:	103eb41e 	bne	r2,zero,100403c <___vfprintf_internal_r+0x6e0>
 100456c:	dd401904 	addi	r21,sp,100
 1004570:	003d6d06 	br	1003b28 <___vfprintf_internal_r+0x1cc>
 1004574:	d9014f17 	ldw	r4,1340(sp)
 1004578:	b00b883a 	mov	r5,r22
 100457c:	d9800c04 	addi	r6,sp,48
 1004580:	d9c15115 	stw	r7,1348(sp)
 1004584:	10039040 	call	1003904 <__sprint_r>
 1004588:	d9c15117 	ldw	r7,1348(sp)
 100458c:	103eab1e 	bne	r2,zero,100403c <___vfprintf_internal_r+0x6e0>
 1004590:	dc800e17 	ldw	r18,56(sp)
 1004594:	dc400d17 	ldw	r17,52(sp)
 1004598:	dd401904 	addi	r21,sp,100
 100459c:	003e3406 	br	1003e70 <___vfprintf_internal_r+0x514>
 10045a0:	d9014f17 	ldw	r4,1340(sp)
 10045a4:	b00b883a 	mov	r5,r22
 10045a8:	d9800c04 	addi	r6,sp,48
 10045ac:	d9c15115 	stw	r7,1348(sp)
 10045b0:	10039040 	call	1003904 <__sprint_r>
 10045b4:	d9c15117 	ldw	r7,1348(sp)
 10045b8:	103ea01e 	bne	r2,zero,100403c <___vfprintf_internal_r+0x6e0>
 10045bc:	dc800e17 	ldw	r18,56(sp)
 10045c0:	dc400d17 	ldw	r17,52(sp)
 10045c4:	dd401904 	addi	r21,sp,100
 10045c8:	003e1c06 	br	1003e3c <___vfprintf_internal_r+0x4e0>
 10045cc:	d9014f17 	ldw	r4,1340(sp)
 10045d0:	b00b883a 	mov	r5,r22
 10045d4:	d9800c04 	addi	r6,sp,48
 10045d8:	d9c15115 	stw	r7,1348(sp)
 10045dc:	10039040 	call	1003904 <__sprint_r>
 10045e0:	d9c15117 	ldw	r7,1348(sp)
 10045e4:	103e951e 	bne	r2,zero,100403c <___vfprintf_internal_r+0x6e0>
 10045e8:	dc800e17 	ldw	r18,56(sp)
 10045ec:	dc400d17 	ldw	r17,52(sp)
 10045f0:	dd401904 	addi	r21,sp,100
 10045f4:	003e0406 	br	1003e08 <___vfprintf_internal_r+0x4ac>
 10045f8:	d9000517 	ldw	r4,20(sp)
 10045fc:	0102520e 	bge	zero,r4,1004f48 <___vfprintf_internal_r+0x15ec>
 1004600:	d9814717 	ldw	r6,1308(sp)
 1004604:	21807a16 	blt	r4,r6,10047f0 <___vfprintf_internal_r+0xe94>
 1004608:	d8814117 	ldw	r2,1284(sp)
 100460c:	91a5883a 	add	r18,r18,r6
 1004610:	8c400044 	addi	r17,r17,1
 1004614:	a8800015 	stw	r2,0(r21)
 1004618:	008001c4 	movi	r2,7
 100461c:	a9800115 	stw	r6,4(r21)
 1004620:	dc800e15 	stw	r18,56(sp)
 1004624:	dc400d15 	stw	r17,52(sp)
 1004628:	1442f616 	blt	r2,r17,1005204 <___vfprintf_internal_r+0x18a8>
 100462c:	a8c00204 	addi	r3,r21,8
 1004630:	d9414717 	ldw	r5,1308(sp)
 1004634:	2161c83a 	sub	r16,r4,r5
 1004638:	043f9d0e 	bge	zero,r16,10044b0 <___vfprintf_internal_r+0xb54>
 100463c:	00800404 	movi	r2,16
 1004640:	1402130e 	bge	r2,r16,1004e90 <___vfprintf_internal_r+0x1534>
 1004644:	dc400d17 	ldw	r17,52(sp)
 1004648:	1027883a 	mov	r19,r2
 100464c:	070040b4 	movhi	fp,258
 1004650:	e723e284 	addi	fp,fp,-28790
 1004654:	050001c4 	movi	r20,7
 1004658:	00000306 	br	1004668 <___vfprintf_internal_r+0xd0c>
 100465c:	18c00204 	addi	r3,r3,8
 1004660:	843ffc04 	addi	r16,r16,-16
 1004664:	9c020d0e 	bge	r19,r16,1004e9c <___vfprintf_internal_r+0x1540>
 1004668:	94800404 	addi	r18,r18,16
 100466c:	8c400044 	addi	r17,r17,1
 1004670:	1f000015 	stw	fp,0(r3)
 1004674:	1cc00115 	stw	r19,4(r3)
 1004678:	dc800e15 	stw	r18,56(sp)
 100467c:	dc400d15 	stw	r17,52(sp)
 1004680:	a47ff60e 	bge	r20,r17,100465c <___vfprintf_internal_r+0xd00>
 1004684:	d9014f17 	ldw	r4,1340(sp)
 1004688:	b00b883a 	mov	r5,r22
 100468c:	d9800c04 	addi	r6,sp,48
 1004690:	10039040 	call	1003904 <__sprint_r>
 1004694:	103e691e 	bne	r2,zero,100403c <___vfprintf_internal_r+0x6e0>
 1004698:	dc800e17 	ldw	r18,56(sp)
 100469c:	dc400d17 	ldw	r17,52(sp)
 10046a0:	d8c01904 	addi	r3,sp,100
 10046a4:	003fee06 	br	1004660 <___vfprintf_internal_r+0xd04>
 10046a8:	d8814717 	ldw	r2,1308(sp)
 10046ac:	143fffc4 	addi	r16,r2,-1
 10046b0:	043e970e 	bge	zero,r16,1004110 <___vfprintf_internal_r+0x7b4>
 10046b4:	00800404 	movi	r2,16
 10046b8:	1400180e 	bge	r2,r16,100471c <___vfprintf_internal_r+0xdc0>
 10046bc:	1029883a 	mov	r20,r2
 10046c0:	070040b4 	movhi	fp,258
 10046c4:	e723e284 	addi	fp,fp,-28790
 10046c8:	054001c4 	movi	r21,7
 10046cc:	00000306 	br	10046dc <___vfprintf_internal_r+0xd80>
 10046d0:	9cc00204 	addi	r19,r19,8
 10046d4:	843ffc04 	addi	r16,r16,-16
 10046d8:	a400120e 	bge	r20,r16,1004724 <___vfprintf_internal_r+0xdc8>
 10046dc:	94800404 	addi	r18,r18,16
 10046e0:	8c400044 	addi	r17,r17,1
 10046e4:	9f000015 	stw	fp,0(r19)
 10046e8:	9d000115 	stw	r20,4(r19)
 10046ec:	dc800e15 	stw	r18,56(sp)
 10046f0:	dc400d15 	stw	r17,52(sp)
 10046f4:	ac7ff60e 	bge	r21,r17,10046d0 <___vfprintf_internal_r+0xd74>
 10046f8:	d9014f17 	ldw	r4,1340(sp)
 10046fc:	b00b883a 	mov	r5,r22
 1004700:	d9800c04 	addi	r6,sp,48
 1004704:	10039040 	call	1003904 <__sprint_r>
 1004708:	103e4c1e 	bne	r2,zero,100403c <___vfprintf_internal_r+0x6e0>
 100470c:	dc800e17 	ldw	r18,56(sp)
 1004710:	dc400d17 	ldw	r17,52(sp)
 1004714:	dcc01904 	addi	r19,sp,100
 1004718:	003fee06 	br	10046d4 <___vfprintf_internal_r+0xd78>
 100471c:	070040b4 	movhi	fp,258
 1004720:	e723e284 	addi	fp,fp,-28790
 1004724:	9425883a 	add	r18,r18,r16
 1004728:	8c400044 	addi	r17,r17,1
 100472c:	008001c4 	movi	r2,7
 1004730:	9f000015 	stw	fp,0(r19)
 1004734:	9c000115 	stw	r16,4(r19)
 1004738:	dc800e15 	stw	r18,56(sp)
 100473c:	dc400d15 	stw	r17,52(sp)
 1004740:	147e720e 	bge	r2,r17,100410c <___vfprintf_internal_r+0x7b0>
 1004744:	d9014f17 	ldw	r4,1340(sp)
 1004748:	b00b883a 	mov	r5,r22
 100474c:	d9800c04 	addi	r6,sp,48
 1004750:	10039040 	call	1003904 <__sprint_r>
 1004754:	103e391e 	bne	r2,zero,100403c <___vfprintf_internal_r+0x6e0>
 1004758:	dc800e17 	ldw	r18,56(sp)
 100475c:	dc400d17 	ldw	r17,52(sp)
 1004760:	dcc01904 	addi	r19,sp,100
 1004764:	003e6a06 	br	1004110 <___vfprintf_internal_r+0x7b4>
 1004768:	d9014f17 	ldw	r4,1340(sp)
 100476c:	b00b883a 	mov	r5,r22
 1004770:	d9800c04 	addi	r6,sp,48
 1004774:	d9c15115 	stw	r7,1348(sp)
 1004778:	10039040 	call	1003904 <__sprint_r>
 100477c:	d9c15117 	ldw	r7,1348(sp)
 1004780:	103e2e1e 	bne	r2,zero,100403c <___vfprintf_internal_r+0x6e0>
 1004784:	dc800e17 	ldw	r18,56(sp)
 1004788:	dc400d17 	ldw	r17,52(sp)
 100478c:	dd401904 	addi	r21,sp,100
 1004790:	003dba06 	br	1003e7c <___vfprintf_internal_r+0x520>
 1004794:	d9014f17 	ldw	r4,1340(sp)
 1004798:	b00b883a 	mov	r5,r22
 100479c:	d9800c04 	addi	r6,sp,48
 10047a0:	10039040 	call	1003904 <__sprint_r>
 10047a4:	103e251e 	bne	r2,zero,100403c <___vfprintf_internal_r+0x6e0>
 10047a8:	dc800e17 	ldw	r18,56(sp)
 10047ac:	dc400d17 	ldw	r17,52(sp)
 10047b0:	dcc01904 	addi	r19,sp,100
 10047b4:	003e4206 	br	10040c0 <___vfprintf_internal_r+0x764>
 10047b8:	d9014f17 	ldw	r4,1340(sp)
 10047bc:	b00b883a 	mov	r5,r22
 10047c0:	d9800c04 	addi	r6,sp,48
 10047c4:	10039040 	call	1003904 <__sprint_r>
 10047c8:	103e1c1e 	bne	r2,zero,100403c <___vfprintf_internal_r+0x6e0>
 10047cc:	dc800e17 	ldw	r18,56(sp)
 10047d0:	dc400d17 	ldw	r17,52(sp)
 10047d4:	d8c01904 	addi	r3,sp,100
 10047d8:	003e2e06 	br	1004094 <___vfprintf_internal_r+0x738>
 10047dc:	d9414c17 	ldw	r5,1328(sp)
 10047e0:	2880004c 	andi	r2,r5,1
 10047e4:	1005003a 	cmpeq	r2,r2,zero
 10047e8:	103dda1e 	bne	r2,zero,1003f54 <___vfprintf_internal_r+0x5f8>
 10047ec:	003e9f06 	br	100426c <___vfprintf_internal_r+0x910>
 10047f0:	d8c14117 	ldw	r3,1284(sp)
 10047f4:	9125883a 	add	r18,r18,r4
 10047f8:	8c400044 	addi	r17,r17,1
 10047fc:	008001c4 	movi	r2,7
 1004800:	a8c00015 	stw	r3,0(r21)
 1004804:	a9000115 	stw	r4,4(r21)
 1004808:	dc800e15 	stw	r18,56(sp)
 100480c:	dc400d15 	stw	r17,52(sp)
 1004810:	14426616 	blt	r2,r17,10051ac <___vfprintf_internal_r+0x1850>
 1004814:	a8c00204 	addi	r3,r21,8
 1004818:	d9414917 	ldw	r5,1316(sp)
 100481c:	00800044 	movi	r2,1
 1004820:	94800044 	addi	r18,r18,1
 1004824:	8c400044 	addi	r17,r17,1
 1004828:	18800115 	stw	r2,4(r3)
 100482c:	008001c4 	movi	r2,7
 1004830:	19400015 	stw	r5,0(r3)
 1004834:	dc800e15 	stw	r18,56(sp)
 1004838:	dc400d15 	stw	r17,52(sp)
 100483c:	2021883a 	mov	r16,r4
 1004840:	14425016 	blt	r2,r17,1005184 <___vfprintf_internal_r+0x1828>
 1004844:	19400204 	addi	r5,r3,8
 1004848:	d9814717 	ldw	r6,1308(sp)
 100484c:	8c400044 	addi	r17,r17,1
 1004850:	dc400d15 	stw	r17,52(sp)
 1004854:	3107c83a 	sub	r3,r6,r4
 1004858:	d9014117 	ldw	r4,1284(sp)
 100485c:	90e5883a 	add	r18,r18,r3
 1004860:	28c00115 	stw	r3,4(r5)
 1004864:	8105883a 	add	r2,r16,r4
 1004868:	28800015 	stw	r2,0(r5)
 100486c:	008001c4 	movi	r2,7
 1004870:	dc800e15 	stw	r18,56(sp)
 1004874:	147f1d16 	blt	r2,r17,10044ec <___vfprintf_internal_r+0xb90>
 1004878:	28c00204 	addi	r3,r5,8
 100487c:	003db506 	br	1003f54 <___vfprintf_internal_r+0x5f8>
 1004880:	3c000017 	ldw	r16,0(r7)
 1004884:	3c400117 	ldw	r17,4(r7)
 1004888:	39800204 	addi	r6,r7,8
 100488c:	01000044 	movi	r4,1
 1004890:	d9814015 	stw	r6,1280(sp)
 1004894:	d8000405 	stb	zero,16(sp)
 1004898:	003ebe06 	br	1004394 <___vfprintf_internal_r+0xa38>
 100489c:	3c000017 	ldw	r16,0(r7)
 10048a0:	3c400117 	ldw	r17,4(r7)
 10048a4:	38800204 	addi	r2,r7,8
 10048a8:	d8814015 	stw	r2,1280(sp)
 10048ac:	003eb706 	br	100438c <___vfprintf_internal_r+0xa30>
 10048b0:	3c000017 	ldw	r16,0(r7)
 10048b4:	3c400117 	ldw	r17,4(r7)
 10048b8:	39000204 	addi	r4,r7,8
 10048bc:	d9014015 	stw	r4,1280(sp)
 10048c0:	0009883a 	mov	r4,zero
 10048c4:	d8000405 	stb	zero,16(sp)
 10048c8:	003eb206 	br	1004394 <___vfprintf_internal_r+0xa38>
 10048cc:	38c00017 	ldw	r3,0(r7)
 10048d0:	39c00104 	addi	r7,r7,4
 10048d4:	d8c14a15 	stw	r3,1320(sp)
 10048d8:	1800d10e 	bge	r3,zero,1004c20 <___vfprintf_internal_r+0x12c4>
 10048dc:	00c7c83a 	sub	r3,zero,r3
 10048e0:	d8c14a15 	stw	r3,1320(sp)
 10048e4:	d9014c17 	ldw	r4,1328(sp)
 10048e8:	b8c00007 	ldb	r3,0(r23)
 10048ec:	21000114 	ori	r4,r4,4
 10048f0:	d9014c15 	stw	r4,1328(sp)
 10048f4:	003c9806 	br	1003b58 <___vfprintf_internal_r+0x1fc>
 10048f8:	d9814c17 	ldw	r6,1328(sp)
 10048fc:	3080080c 	andi	r2,r6,32
 1004900:	1001f026 	beq	r2,zero,10050c4 <___vfprintf_internal_r+0x1768>
 1004904:	d9014b17 	ldw	r4,1324(sp)
 1004908:	38800017 	ldw	r2,0(r7)
 100490c:	39c00104 	addi	r7,r7,4
 1004910:	d9c14015 	stw	r7,1280(sp)
 1004914:	2007d7fa 	srai	r3,r4,31
 1004918:	d9c14017 	ldw	r7,1280(sp)
 100491c:	11000015 	stw	r4,0(r2)
 1004920:	10c00115 	stw	r3,4(r2)
 1004924:	003c6906 	br	1003acc <___vfprintf_internal_r+0x170>
 1004928:	b8c00007 	ldb	r3,0(r23)
 100492c:	00801b04 	movi	r2,108
 1004930:	18824f26 	beq	r3,r2,1005270 <___vfprintf_internal_r+0x1914>
 1004934:	d9414c17 	ldw	r5,1328(sp)
 1004938:	29400414 	ori	r5,r5,16
 100493c:	d9414c15 	stw	r5,1328(sp)
 1004940:	003c8506 	br	1003b58 <___vfprintf_internal_r+0x1fc>
 1004944:	d9814c17 	ldw	r6,1328(sp)
 1004948:	b8c00007 	ldb	r3,0(r23)
 100494c:	31800814 	ori	r6,r6,32
 1004950:	d9814c15 	stw	r6,1328(sp)
 1004954:	003c8006 	br	1003b58 <___vfprintf_internal_r+0x1fc>
 1004958:	d8814c17 	ldw	r2,1328(sp)
 100495c:	3c000017 	ldw	r16,0(r7)
 1004960:	00c01e04 	movi	r3,120
 1004964:	10800094 	ori	r2,r2,2
 1004968:	d8814c15 	stw	r2,1328(sp)
 100496c:	39c00104 	addi	r7,r7,4
 1004970:	014040b4 	movhi	r5,258
 1004974:	2963cb04 	addi	r5,r5,-28884
 1004978:	00800c04 	movi	r2,48
 100497c:	0023883a 	mov	r17,zero
 1004980:	01000084 	movi	r4,2
 1004984:	d9c14015 	stw	r7,1280(sp)
 1004988:	d8c14d15 	stw	r3,1332(sp)
 100498c:	d9414415 	stw	r5,1296(sp)
 1004990:	d8800445 	stb	r2,17(sp)
 1004994:	d8c00485 	stb	r3,18(sp)
 1004998:	d8000405 	stb	zero,16(sp)
 100499c:	003e7d06 	br	1004394 <___vfprintf_internal_r+0xa38>
 10049a0:	d8814c17 	ldw	r2,1328(sp)
 10049a4:	b8c00007 	ldb	r3,0(r23)
 10049a8:	10801014 	ori	r2,r2,64
 10049ac:	d8814c15 	stw	r2,1328(sp)
 10049b0:	003c6906 	br	1003b58 <___vfprintf_internal_r+0x1fc>
 10049b4:	d9414c17 	ldw	r5,1328(sp)
 10049b8:	2880020c 	andi	r2,r5,8
 10049bc:	1001df26 	beq	r2,zero,100513c <___vfprintf_internal_r+0x17e0>
 10049c0:	39800017 	ldw	r6,0(r7)
 10049c4:	38800204 	addi	r2,r7,8
 10049c8:	d8814015 	stw	r2,1280(sp)
 10049cc:	d9814215 	stw	r6,1288(sp)
 10049d0:	39c00117 	ldw	r7,4(r7)
 10049d4:	d9c14315 	stw	r7,1292(sp)
 10049d8:	d9014217 	ldw	r4,1288(sp)
 10049dc:	d9414317 	ldw	r5,1292(sp)
 10049e0:	1009b240 	call	1009b24 <__isinfd>
 10049e4:	10021726 	beq	r2,zero,1005244 <___vfprintf_internal_r+0x18e8>
 10049e8:	d9014217 	ldw	r4,1288(sp)
 10049ec:	d9414317 	ldw	r5,1292(sp)
 10049f0:	000d883a 	mov	r6,zero
 10049f4:	000f883a 	mov	r7,zero
 10049f8:	100bafc0 	call	100bafc <__ltdf2>
 10049fc:	1002ca16 	blt	r2,zero,1005528 <___vfprintf_internal_r+0x1bcc>
 1004a00:	d9414d17 	ldw	r5,1332(sp)
 1004a04:	008011c4 	movi	r2,71
 1004a08:	11420a16 	blt	r2,r5,1005234 <___vfprintf_internal_r+0x18d8>
 1004a0c:	018040b4 	movhi	r6,258
 1004a10:	31a3d004 	addi	r6,r6,-28864
 1004a14:	d9814115 	stw	r6,1284(sp)
 1004a18:	d9014c17 	ldw	r4,1328(sp)
 1004a1c:	00c000c4 	movi	r3,3
 1004a20:	00bfdfc4 	movi	r2,-129
 1004a24:	2088703a 	and	r4,r4,r2
 1004a28:	180f883a 	mov	r7,r3
 1004a2c:	d8c14515 	stw	r3,1300(sp)
 1004a30:	d9014c15 	stw	r4,1328(sp)
 1004a34:	d8014615 	stw	zero,1304(sp)
 1004a38:	003e6a06 	br	10043e4 <___vfprintf_internal_r+0xa88>
 1004a3c:	38800017 	ldw	r2,0(r7)
 1004a40:	00c00044 	movi	r3,1
 1004a44:	39c00104 	addi	r7,r7,4
 1004a48:	d9c14015 	stw	r7,1280(sp)
 1004a4c:	d9000f04 	addi	r4,sp,60
 1004a50:	180f883a 	mov	r7,r3
 1004a54:	d8c14515 	stw	r3,1300(sp)
 1004a58:	d9014115 	stw	r4,1284(sp)
 1004a5c:	d8800f05 	stb	r2,60(sp)
 1004a60:	d8000405 	stb	zero,16(sp)
 1004a64:	003cac06 	br	1003d18 <___vfprintf_internal_r+0x3bc>
 1004a68:	014040b4 	movhi	r5,258
 1004a6c:	2963d604 	addi	r5,r5,-28840
 1004a70:	d9414415 	stw	r5,1296(sp)
 1004a74:	d9814c17 	ldw	r6,1328(sp)
 1004a78:	3080080c 	andi	r2,r6,32
 1004a7c:	1000f926 	beq	r2,zero,1004e64 <___vfprintf_internal_r+0x1508>
 1004a80:	3c000017 	ldw	r16,0(r7)
 1004a84:	3c400117 	ldw	r17,4(r7)
 1004a88:	38800204 	addi	r2,r7,8
 1004a8c:	d8814015 	stw	r2,1280(sp)
 1004a90:	d9414c17 	ldw	r5,1328(sp)
 1004a94:	2880004c 	andi	r2,r5,1
 1004a98:	1005003a 	cmpeq	r2,r2,zero
 1004a9c:	1000b31e 	bne	r2,zero,1004d6c <___vfprintf_internal_r+0x1410>
 1004aa0:	8444b03a 	or	r2,r16,r17
 1004aa4:	1000b126 	beq	r2,zero,1004d6c <___vfprintf_internal_r+0x1410>
 1004aa8:	d9814d17 	ldw	r6,1332(sp)
 1004aac:	29400094 	ori	r5,r5,2
 1004ab0:	00800c04 	movi	r2,48
 1004ab4:	01000084 	movi	r4,2
 1004ab8:	d9414c15 	stw	r5,1328(sp)
 1004abc:	d8800445 	stb	r2,17(sp)
 1004ac0:	d9800485 	stb	r6,18(sp)
 1004ac4:	d8000405 	stb	zero,16(sp)
 1004ac8:	003e3206 	br	1004394 <___vfprintf_internal_r+0xa38>
 1004acc:	018040b4 	movhi	r6,258
 1004ad0:	31a3cb04 	addi	r6,r6,-28884
 1004ad4:	d9814415 	stw	r6,1296(sp)
 1004ad8:	003fe606 	br	1004a74 <___vfprintf_internal_r+0x1118>
 1004adc:	00800ac4 	movi	r2,43
 1004ae0:	d8800405 	stb	r2,16(sp)
 1004ae4:	b8c00007 	ldb	r3,0(r23)
 1004ae8:	003c1b06 	br	1003b58 <___vfprintf_internal_r+0x1fc>
 1004aec:	d8814c17 	ldw	r2,1328(sp)
 1004af0:	b8c00007 	ldb	r3,0(r23)
 1004af4:	10800054 	ori	r2,r2,1
 1004af8:	d8814c15 	stw	r2,1328(sp)
 1004afc:	003c1606 	br	1003b58 <___vfprintf_internal_r+0x1fc>
 1004b00:	d8800407 	ldb	r2,16(sp)
 1004b04:	1000461e 	bne	r2,zero,1004c20 <___vfprintf_internal_r+0x12c4>
 1004b08:	00800804 	movi	r2,32
 1004b0c:	d8800405 	stb	r2,16(sp)
 1004b10:	b8c00007 	ldb	r3,0(r23)
 1004b14:	003c1006 	br	1003b58 <___vfprintf_internal_r+0x1fc>
 1004b18:	d9814c17 	ldw	r6,1328(sp)
 1004b1c:	b8c00007 	ldb	r3,0(r23)
 1004b20:	31800214 	ori	r6,r6,8
 1004b24:	d9814c15 	stw	r6,1328(sp)
 1004b28:	003c0b06 	br	1003b58 <___vfprintf_internal_r+0x1fc>
 1004b2c:	0007883a 	mov	r3,zero
 1004b30:	01000244 	movi	r4,9
 1004b34:	188002a4 	muli	r2,r3,10
 1004b38:	b8c00007 	ldb	r3,0(r23)
 1004b3c:	d9814d17 	ldw	r6,1332(sp)
