Archive member included because of file (symbol)

c:/altera/12.1sp1/nios2eds/bin/gnu/h-i686-mingw32/bin/../lib/gcc/nios2-elf/4.1.2/../../../../nios2-elf/lib\libc.a(lib_a-puts.o)
                              obj/default/hello_ucosii.o (puts)
c:/altera/12.1sp1/nios2eds/bin/gnu/h-i686-mingw32/bin/../lib/gcc/nios2-elf/4.1.2/../../../../nios2-elf/lib\libc.a(lib_a-strlen.o)
                              c:/altera/12.1sp1/nios2eds/bin/gnu/h-i686-mingw32/bin/../lib/gcc/nios2-elf/4.1.2/../../../../nios2-elf/lib\libc.a(lib_a-puts.o) (strlen)
c:/altera/12.1sp1/nios2eds/bin/gnu/h-i686-mingw32/bin/../lib/gcc/nios2-elf/4.1.2/../../../../nios2-elf/lib\libc.a(lib_a-fvwrite.o)
                              c:/altera/12.1sp1/nios2eds/bin/gnu/h-i686-mingw32/bin/../lib/gcc/nios2-elf/4.1.2/../../../../nios2-elf/lib\libc.a(lib_a-puts.o) (__sfvwrite_r)
c:/altera/12.1sp1/nios2eds/bin/gnu/h-i686-mingw32/bin/../lib/gcc/nios2-elf/4.1.2/../../../../nios2-elf/lib\libc.a(lib_a-impure.o)
                              c:/altera/12.1sp1/nios2eds/bin/gnu/h-i686-mingw32/bin/../lib/gcc/nios2-elf/4.1.2/../../../../nios2-elf/lib\libc.a(lib_a-puts.o) (_impure_ptr)
c:/altera/12.1sp1/nios2eds/bin/gnu/h-i686-mingw32/bin/../lib/gcc/nios2-elf/4.1.2/../../../../nios2-elf/lib\libc.a(lib_a-mallocr.o)
                              c:/altera/12.1sp1/nios2eds/bin/gnu/h-i686-mingw32/bin/../lib/gcc/nios2-elf/4.1.2/../../../../nios2-elf/lib\libc.a(lib_a-fvwrite.o) (_malloc_r)
c:/altera/12.1sp1/nios2eds/bin/gnu/h-i686-mingw32/bin/../lib/gcc/nios2-elf/4.1.2/../../../../nios2-elf/lib\libc.a(lib_a-memchr.o)
                              c:/altera/12.1sp1/nios2eds/bin/gnu/h-i686-mingw32/bin/../lib/gcc/nios2-elf/4.1.2/../../../../nios2-elf/lib\libc.a(lib_a-fvwrite.o) (memchr)
c:/altera/12.1sp1/nios2eds/bin/gnu/h-i686-mingw32/bin/../lib/gcc/nios2-elf/4.1.2/../../../../nios2-elf/lib\libc.a(lib_a-memcpy.o)
                              c:/altera/12.1sp1/nios2eds/bin/gnu/h-i686-mingw32/bin/../lib/gcc/nios2-elf/4.1.2/../../../../nios2-elf/lib\libc.a(lib_a-fvwrite.o) (memcpy)
c:/altera/12.1sp1/nios2eds/bin/gnu/h-i686-mingw32/bin/../lib/gcc/nios2-elf/4.1.2/../../../../nios2-elf/lib\libc.a(lib_a-memmove.o)
                              c:/altera/12.1sp1/nios2eds/bin/gnu/h-i686-mingw32/bin/../lib/gcc/nios2-elf/4.1.2/../../../../nios2-elf/lib\libc.a(lib_a-fvwrite.o) (memmove)
c:/altera/12.1sp1/nios2eds/bin/gnu/h-i686-mingw32/bin/../lib/gcc/nios2-elf/4.1.2/../../../../nios2-elf/lib\libc.a(lib_a-reallocr.o)
                              c:/altera/12.1sp1/nios2eds/bin/gnu/h-i686-mingw32/bin/../lib/gcc/nios2-elf/4.1.2/../../../../nios2-elf/lib\libc.a(lib_a-fvwrite.o) (_realloc_r)
c:/altera/12.1sp1/nios2eds/bin/gnu/h-i686-mingw32/bin/../lib/gcc/nios2-elf/4.1.2/../../../../nios2-elf/lib\libc.a(lib_a-sbrkr.o)
                              c:/altera/12.1sp1/nios2eds/bin/gnu/h-i686-mingw32/bin/../lib/gcc/nios2-elf/4.1.2/../../../../nios2-elf/lib\libc.a(lib_a-mallocr.o) (_sbrk_r)
c:/altera/12.1sp1/nios2eds/bin/gnu/h-i686-mingw32/bin/../lib/gcc/nios2-elf/4.1.2/../../../../nios2-elf/lib\libc.a(lib_a-wsetup.o)
                              c:/altera/12.1sp1/nios2eds/bin/gnu/h-i686-mingw32/bin/../lib/gcc/nios2-elf/4.1.2/../../../../nios2-elf/lib\libc.a(lib_a-fvwrite.o) (__swsetup_r)
c:/altera/12.1sp1/nios2eds/bin/gnu/h-i686-mingw32/bin/../lib/gcc/nios2-elf/4.1.2/../../../../nios2-elf/lib\libc.a(lib_a-fflush.o)
                              c:/altera/12.1sp1/nios2eds/bin/gnu/h-i686-mingw32/bin/../lib/gcc/nios2-elf/4.1.2/../../../../nios2-elf/lib\libc.a(lib_a-fvwrite.o) (_fflush_r)
c:/altera/12.1sp1/nios2eds/bin/gnu/h-i686-mingw32/bin/../lib/gcc/nios2-elf/4.1.2/../../../../nios2-elf/lib\libc.a(lib_a-findfp.o)
                              c:/altera/12.1sp1/nios2eds/bin/gnu/h-i686-mingw32/bin/../lib/gcc/nios2-elf/4.1.2/../../../../nios2-elf/lib\libc.a(lib_a-wsetup.o) (__sinit)
c:/altera/12.1sp1/nios2eds/bin/gnu/h-i686-mingw32/bin/../lib/gcc/nios2-elf/4.1.2/../../../../nios2-elf/lib\libc.a(lib_a-freer.o)
                              c:/altera/12.1sp1/nios2eds/bin/gnu/h-i686-mingw32/bin/../lib/gcc/nios2-elf/4.1.2/../../../../nios2-elf/lib\libc.a(lib_a-fvwrite.o) (_free_r)
c:/altera/12.1sp1/nios2eds/bin/gnu/h-i686-mingw32/bin/../lib/gcc/nios2-elf/4.1.2/../../../../nios2-elf/lib\libc.a(lib_a-fwalk.o)
                              c:/altera/12.1sp1/nios2eds/bin/gnu/h-i686-mingw32/bin/../lib/gcc/nios2-elf/4.1.2/../../../../nios2-elf/lib\libc.a(lib_a-fflush.o) (_fwalk_reent)
c:/altera/12.1sp1/nios2eds/bin/gnu/h-i686-mingw32/bin/../lib/gcc/nios2-elf/4.1.2/../../../../nios2-elf/lib\libc.a(lib_a-int_errno.o)
                              c:/altera/12.1sp1/nios2eds/bin/gnu/h-i686-mingw32/bin/../lib/gcc/nios2-elf/4.1.2/../../../../nios2-elf/lib\libc.a(lib_a-sbrkr.o) (errno)
c:/altera/12.1sp1/nios2eds/bin/gnu/h-i686-mingw32/bin/../lib/gcc/nios2-elf/4.1.2/../../../../nios2-elf/lib\libc.a(lib_a-makebuf.o)
                              c:/altera/12.1sp1/nios2eds/bin/gnu/h-i686-mingw32/bin/../lib/gcc/nios2-elf/4.1.2/../../../../nios2-elf/lib\libc.a(lib_a-wsetup.o) (__smakebuf_r)
c:/altera/12.1sp1/nios2eds/bin/gnu/h-i686-mingw32/bin/../lib/gcc/nios2-elf/4.1.2/../../../../nios2-elf/lib\libc.a(lib_a-memset.o)
                              c:/altera/12.1sp1/nios2eds/bin/gnu/h-i686-mingw32/bin/../lib/gcc/nios2-elf/4.1.2/../../../../nios2-elf/lib\libc.a(lib_a-findfp.o) (memset)
c:/altera/12.1sp1/nios2eds/bin/gnu/h-i686-mingw32/bin/../lib/gcc/nios2-elf/4.1.2/../../../../nios2-elf/lib\libc.a(lib_a-stdio.o)
                              c:/altera/12.1sp1/nios2eds/bin/gnu/h-i686-mingw32/bin/../lib/gcc/nios2-elf/4.1.2/../../../../nios2-elf/lib\libc.a(lib_a-findfp.o) (__sclose)
c:/altera/12.1sp1/nios2eds/bin/gnu/h-i686-mingw32/bin/../lib/gcc/nios2-elf/4.1.2/../../../../nios2-elf/lib\libc.a(lib_a-writer.o)
                              c:/altera/12.1sp1/nios2eds/bin/gnu/h-i686-mingw32/bin/../lib/gcc/nios2-elf/4.1.2/../../../../nios2-elf/lib\libc.a(lib_a-stdio.o) (_write_r)
c:/altera/12.1sp1/nios2eds/bin/gnu/h-i686-mingw32/bin/../lib/gcc/nios2-elf/4.1.2/../../../../nios2-elf/lib\libc.a(lib_a-closer.o)
                              c:/altera/12.1sp1/nios2eds/bin/gnu/h-i686-mingw32/bin/../lib/gcc/nios2-elf/4.1.2/../../../../nios2-elf/lib\libc.a(lib_a-stdio.o) (_close_r)
c:/altera/12.1sp1/nios2eds/bin/gnu/h-i686-mingw32/bin/../lib/gcc/nios2-elf/4.1.2/../../../../nios2-elf/lib\libc.a(lib_a-fclose.o)
                              c:/altera/12.1sp1/nios2eds/bin/gnu/h-i686-mingw32/bin/../lib/gcc/nios2-elf/4.1.2/../../../../nios2-elf/lib\libc.a(lib_a-findfp.o) (fclose)
c:/altera/12.1sp1/nios2eds/bin/gnu/h-i686-mingw32/bin/../lib/gcc/nios2-elf/4.1.2/../../../../nios2-elf/lib\libc.a(lib_a-fstatr.o)
                              c:/altera/12.1sp1/nios2eds/bin/gnu/h-i686-mingw32/bin/../lib/gcc/nios2-elf/4.1.2/../../../../nios2-elf/lib\libc.a(lib_a-makebuf.o) (_fstat_r)
c:/altera/12.1sp1/nios2eds/bin/gnu/h-i686-mingw32/bin/../lib/gcc/nios2-elf/4.1.2/../../../../nios2-elf/lib\libc.a(lib_a-isattyr.o)
                              c:/altera/12.1sp1/nios2eds/bin/gnu/h-i686-mingw32/bin/../lib/gcc/nios2-elf/4.1.2/../../../../nios2-elf/lib\libc.a(lib_a-makebuf.o) (_isatty_r)
c:/altera/12.1sp1/nios2eds/bin/gnu/h-i686-mingw32/bin/../lib/gcc/nios2-elf/4.1.2/../../../../nios2-elf/lib\libc.a(lib_a-lseekr.o)
                              c:/altera/12.1sp1/nios2eds/bin/gnu/h-i686-mingw32/bin/../lib/gcc/nios2-elf/4.1.2/../../../../nios2-elf/lib\libc.a(lib_a-stdio.o) (_lseek_r)
c:/altera/12.1sp1/nios2eds/bin/gnu/h-i686-mingw32/bin/../lib/gcc/nios2-elf/4.1.2/../../../../nios2-elf/lib\libc.a(lib_a-readr.o)
                              c:/altera/12.1sp1/nios2eds/bin/gnu/h-i686-mingw32/bin/../lib/gcc/nios2-elf/4.1.2/../../../../nios2-elf/lib\libc.a(lib_a-stdio.o) (_read_r)
../NanoTest_bsp/\libucosii_bsp.a(alt_close.o)
                              c:/altera/12.1sp1/nios2eds/bin/gnu/h-i686-mingw32/bin/../lib/gcc/nios2-elf/4.1.2/../../../../nios2-elf/lib\libc.a(lib_a-closer.o) (close)
../NanoTest_bsp/\libucosii_bsp.a(alt_dev.o)
                              ../NanoTest_bsp/\libucosii_bsp.a(alt_close.o) (alt_fd_list)
../NanoTest_bsp/\libucosii_bsp.a(alt_errno.o)
                              ../NanoTest_bsp/\libucosii_bsp.a(alt_close.o) (alt_errno)
../NanoTest_bsp/\libucosii_bsp.a(alt_fstat.o)
                              c:/altera/12.1sp1/nios2eds/bin/gnu/h-i686-mingw32/bin/../lib/gcc/nios2-elf/4.1.2/../../../../nios2-elf/lib\libc.a(lib_a-fstatr.o) (fstat)
../NanoTest_bsp/\libucosii_bsp.a(alt_isatty.o)
                              c:/altera/12.1sp1/nios2eds/bin/gnu/h-i686-mingw32/bin/../lib/gcc/nios2-elf/4.1.2/../../../../nios2-elf/lib\libc.a(lib_a-isattyr.o) (isatty)
../NanoTest_bsp/\libucosii_bsp.a(alt_load.o)
                              ../NanoTest_bsp//obj/HAL/src/crt0.o (alt_load)
../NanoTest_bsp/\libucosii_bsp.a(alt_lseek.o)
                              c:/altera/12.1sp1/nios2eds/bin/gnu/h-i686-mingw32/bin/../lib/gcc/nios2-elf/4.1.2/../../../../nios2-elf/lib\libc.a(lib_a-lseekr.o) (lseek)
../NanoTest_bsp/\libucosii_bsp.a(alt_main.o)
                              ../NanoTest_bsp//obj/HAL/src/crt0.o (alt_main)
../NanoTest_bsp/\libucosii_bsp.a(alt_read.o)
                              c:/altera/12.1sp1/nios2eds/bin/gnu/h-i686-mingw32/bin/../lib/gcc/nios2-elf/4.1.2/../../../../nios2-elf/lib\libc.a(lib_a-readr.o) (read)
../NanoTest_bsp/\libucosii_bsp.a(alt_release_fd.o)
                              ../NanoTest_bsp/\libucosii_bsp.a(alt_close.o) (alt_release_fd)
../NanoTest_bsp/\libucosii_bsp.a(alt_sbrk.o)
                              c:/altera/12.1sp1/nios2eds/bin/gnu/h-i686-mingw32/bin/../lib/gcc/nios2-elf/4.1.2/../../../../nios2-elf/lib\libc.a(lib_a-sbrkr.o) (sbrk)
../NanoTest_bsp/\libucosii_bsp.a(alt_write.o)
                              c:/altera/12.1sp1/nios2eds/bin/gnu/h-i686-mingw32/bin/../lib/gcc/nios2-elf/4.1.2/../../../../nios2-elf/lib\libc.a(lib_a-writer.o) (write)
../NanoTest_bsp/\libucosii_bsp.a(alt_env_lock.o)
                              ../NanoTest_bsp/\libucosii_bsp.a(alt_main.o) (alt_envsem)
../NanoTest_bsp/\libucosii_bsp.a(alt_malloc_lock.o)
                              c:/altera/12.1sp1/nios2eds/bin/gnu/h-i686-mingw32/bin/../lib/gcc/nios2-elf/4.1.2/../../../../nios2-elf/lib\libc.a(lib_a-mallocr.o) (__malloc_lock)
../NanoTest_bsp/\libucosii_bsp.a(os_core.o)
                              ../NanoTest_bsp/\libucosii_bsp.a(alt_main.o) (OSInit)
../NanoTest_bsp/\libucosii_bsp.a(os_dbg.o)
                              ../NanoTest_bsp/\libucosii_bsp.a(os_core.o) (OSDebugInit)
../NanoTest_bsp/\libucosii_bsp.a(os_flag.o)
                              ../NanoTest_bsp/\libucosii_bsp.a(os_core.o) (OS_FlagInit)
../NanoTest_bsp/\libucosii_bsp.a(os_mem.o)
                              ../NanoTest_bsp/\libucosii_bsp.a(os_core.o) (OS_MemInit)
../NanoTest_bsp/\libucosii_bsp.a(os_q.o)
                              ../NanoTest_bsp/\libucosii_bsp.a(os_core.o) (OS_QInit)
../NanoTest_bsp/\libucosii_bsp.a(os_sem.o)
                              ../NanoTest_bsp/\libucosii_bsp.a(alt_main.o) (OSSemCreate)
../NanoTest_bsp/\libucosii_bsp.a(os_task.o)
                              obj/default/hello_ucosii.o (OSTaskCreateExt)
../NanoTest_bsp/\libucosii_bsp.a(os_time.o)
                              ../NanoTest_bsp/\libucosii_bsp.a(os_core.o) (OSTimeDly)
../NanoTest_bsp/\libucosii_bsp.a(alt_sys_init.o)
                              ../NanoTest_bsp/\libucosii_bsp.a(alt_main.o) (alt_irq_init)
../NanoTest_bsp/\libucosii_bsp.a(altera_avalon_jtag_uart_fd.o)
                              ../NanoTest_bsp/\libucosii_bsp.a(alt_sys_init.o) (altera_avalon_jtag_uart_read_fd)
../NanoTest_bsp/\libucosii_bsp.a(altera_avalon_jtag_uart_init.o)
                              ../NanoTest_bsp/\libucosii_bsp.a(alt_sys_init.o) (altera_avalon_jtag_uart_init)
../NanoTest_bsp/\libucosii_bsp.a(altera_avalon_jtag_uart_ioctl.o)
                              ../NanoTest_bsp/\libucosii_bsp.a(altera_avalon_jtag_uart_fd.o) (altera_avalon_jtag_uart_ioctl)
../NanoTest_bsp/\libucosii_bsp.a(altera_avalon_jtag_uart_read.o)
                              ../NanoTest_bsp/\libucosii_bsp.a(altera_avalon_jtag_uart_fd.o) (altera_avalon_jtag_uart_read)
../NanoTest_bsp/\libucosii_bsp.a(altera_avalon_jtag_uart_write.o)
                              ../NanoTest_bsp/\libucosii_bsp.a(altera_avalon_jtag_uart_fd.o) (altera_avalon_jtag_uart_write)
../NanoTest_bsp/\libucosii_bsp.a(altera_avalon_timer_sc.o)
                              ../NanoTest_bsp/\libucosii_bsp.a(alt_sys_init.o) (alt_avalon_timer_sc_init)
../NanoTest_bsp/\libucosii_bsp.a(altera_avalon_uart_fd.o)
                              ../NanoTest_bsp/\libucosii_bsp.a(alt_sys_init.o) (altera_avalon_uart_read_fd)
../NanoTest_bsp/\libucosii_bsp.a(altera_avalon_uart_init.o)
                              ../NanoTest_bsp/\libucosii_bsp.a(alt_sys_init.o) (altera_avalon_uart_init)
../NanoTest_bsp/\libucosii_bsp.a(altera_avalon_uart_read.o)
                              ../NanoTest_bsp/\libucosii_bsp.a(altera_avalon_uart_fd.o) (altera_avalon_uart_read)
../NanoTest_bsp/\libucosii_bsp.a(altera_avalon_uart_write.o)
                              ../NanoTest_bsp/\libucosii_bsp.a(altera_avalon_uart_fd.o) (altera_avalon_uart_write)
../NanoTest_bsp/\libucosii_bsp.a(alt_alarm_start.o)
                              ../NanoTest_bsp/\libucosii_bsp.a(altera_avalon_jtag_uart_init.o) (alt_alarm_start)
../NanoTest_bsp/\libucosii_bsp.a(alt_dcache_flush_all.o)
                              ../NanoTest_bsp/\libucosii_bsp.a(alt_load.o) (alt_dcache_flush_all)
../NanoTest_bsp/\libucosii_bsp.a(alt_dev_llist_insert.o)
                              ../NanoTest_bsp/\libucosii_bsp.a(alt_sys_init.o) (alt_dev_llist_insert)
../NanoTest_bsp/\libucosii_bsp.a(alt_do_ctors.o)
                              ../NanoTest_bsp/\libucosii_bsp.a(alt_main.o) (_do_ctors)
../NanoTest_bsp/\libucosii_bsp.a(alt_do_dtors.o)
                              ../NanoTest_bsp/\libucosii_bsp.a(alt_main.o) (_do_dtors)
../NanoTest_bsp/\libucosii_bsp.a(alt_icache_flush_all.o)
                              ../NanoTest_bsp/\libucosii_bsp.a(alt_load.o) (alt_icache_flush_all)
../NanoTest_bsp/\libucosii_bsp.a(alt_iic.o)
                              ../NanoTest_bsp/\libucosii_bsp.a(altera_avalon_jtag_uart_init.o) (alt_ic_isr_register)
../NanoTest_bsp/\libucosii_bsp.a(alt_iic_isr_register.o)
                              ../NanoTest_bsp/\libucosii_bsp.a(alt_iic.o) (alt_iic_isr_register)
../NanoTest_bsp/\libucosii_bsp.a(alt_io_redirect.o)
                              ../NanoTest_bsp/\libucosii_bsp.a(alt_main.o) (alt_io_redirect)
../NanoTest_bsp/\libucosii_bsp.a(alt_irq_entry.o)
                              ../NanoTest_bsp/\libucosii_bsp.a(alt_iic_isr_register.o) (alt_irq_entry)
../NanoTest_bsp/\libucosii_bsp.a(alt_irq_handler.o)
                              ../NanoTest_bsp/\libucosii_bsp.a(alt_iic_isr_register.o) (alt_irq_handler)
../NanoTest_bsp/\libucosii_bsp.a(alt_irq_vars.o)
                              ../NanoTest_bsp/\libucosii_bsp.a(alt_iic.o) (alt_irq_active)
../NanoTest_bsp/\libucosii_bsp.a(alt_open.o)
                              ../NanoTest_bsp/\libucosii_bsp.a(alt_io_redirect.o) (open)
../NanoTest_bsp/\libucosii_bsp.a(alt_tick.o)
                              ../NanoTest_bsp/\libucosii_bsp.a(altera_avalon_jtag_uart_init.o) (_alt_tick_rate)
../NanoTest_bsp/\libucosii_bsp.a(altera_nios2_qsys_irq.o)
                              ../NanoTest_bsp/\libucosii_bsp.a(alt_sys_init.o) (altera_nios2_qsys_irq_init)
../NanoTest_bsp/\libucosii_bsp.a(os_cpu_a.o)
                              ../NanoTest_bsp/\libucosii_bsp.a(os_core.o) (OSIntCtxSw)
../NanoTest_bsp/\libucosii_bsp.a(os_cpu_c.o)
                              ../NanoTest_bsp/\libucosii_bsp.a(os_task.o) (OSTaskStkInit)
../NanoTest_bsp/\libucosii_bsp.a(alt_exception_entry.o)
                              ../NanoTest_bsp/\libucosii_bsp.a(alt_irq_entry.o) (alt_exception)
../NanoTest_bsp/\libucosii_bsp.a(alt_find_dev.o)
                              ../NanoTest_bsp/\libucosii_bsp.a(alt_open.o) (alt_find_dev)
../NanoTest_bsp/\libucosii_bsp.a(alt_find_file.o)
                              ../NanoTest_bsp/\libucosii_bsp.a(alt_open.o) (alt_find_file)
../NanoTest_bsp/\libucosii_bsp.a(alt_get_fd.o)
                              ../NanoTest_bsp/\libucosii_bsp.a(alt_open.o) (alt_get_fd)
../NanoTest_bsp/\libucosii_bsp.a(alt_icache_flush.o)
                              ../NanoTest_bsp/\libucosii_bsp.a(alt_icache_flush_all.o) (alt_icache_flush)
c:/altera/12.1sp1/nios2eds/bin/gnu/h-i686-mingw32/bin/../lib/gcc/nios2-elf/4.1.2/../../../../nios2-elf/lib\libc.a(lib_a-atexit.o)
                              ../NanoTest_bsp/\libucosii_bsp.a(alt_main.o) (atexit)
c:/altera/12.1sp1/nios2eds/bin/gnu/h-i686-mingw32/bin/../lib/gcc/nios2-elf/4.1.2/../../../../nios2-elf/lib\libc.a(lib_a-exit.o)
                              ../NanoTest_bsp/\libucosii_bsp.a(alt_main.o) (exit)
c:/altera/12.1sp1/nios2eds/bin/gnu/h-i686-mingw32/bin/../lib/gcc/nios2-elf/4.1.2/../../../../nios2-elf/lib\libc.a(lib_a-memcmp.o)
                              ../NanoTest_bsp/\libucosii_bsp.a(alt_find_dev.o) (memcmp)
c:/altera/12.1sp1/nios2eds/bin/gnu/h-i686-mingw32/bin/../lib/gcc/nios2-elf/4.1.2/../../../../nios2-elf/lib\libc.a(lib_a-__atexit.o)
                              c:/altera/12.1sp1/nios2eds/bin/gnu/h-i686-mingw32/bin/../lib/gcc/nios2-elf/4.1.2/../../../../nios2-elf/lib\libc.a(lib_a-atexit.o) (__register_exitproc)
c:/altera/12.1sp1/nios2eds/bin/gnu/h-i686-mingw32/bin/../lib/gcc/nios2-elf/4.1.2/../../../../nios2-elf/lib\libc.a(lib_a-__call_atexit.o)
                              c:/altera/12.1sp1/nios2eds/bin/gnu/h-i686-mingw32/bin/../lib/gcc/nios2-elf/4.1.2/../../../../nios2-elf/lib\libc.a(lib_a-exit.o) (__call_exitprocs)
c:/altera/12.1sp1/nios2eds/bin/gnu/h-i686-mingw32/bin/../lib/gcc/nios2-elf/4.1.2\libgcc.a(lib2-divmod.o)
                              ../NanoTest_bsp/\libucosii_bsp.a(os_core.o) (__udivsi3)
../NanoTest_bsp/\libucosii_bsp.a(alt_exit.o)
                              c:/altera/12.1sp1/nios2eds/bin/gnu/h-i686-mingw32/bin/../lib/gcc/nios2-elf/4.1.2/../../../../nios2-elf/lib\libc.a(lib_a-exit.o) (_exit)

Allocating common symbols
Common symbol       size              file

alt_irq             0x100             ../NanoTest_bsp/\libucosii_bsp.a(alt_irq_handler.o)
task1_stk           0x2000            obj/default/hello_ucosii.o
OSLockNesting       0x1               ../NanoTest_bsp/\libucosii_bsp.a(os_core.o)
OSRunning           0x1               ../NanoTest_bsp/\libucosii_bsp.a(os_core.o)
OSIdleCtr           0x4               ../NanoTest_bsp/\libucosii_bsp.a(os_core.o)
OSPrioHighRdy       0x1               ../NanoTest_bsp/\libucosii_bsp.a(os_core.o)
errno               0x4               c:/altera/12.1sp1/nios2eds/bin/gnu/h-i686-mingw32/bin/../lib/gcc/nios2-elf/4.1.2/../../../../nios2-elf/lib\libc.a(lib_a-int_errno.o)
alt_heapsem         0x4               ../NanoTest_bsp/\libucosii_bsp.a(alt_malloc_lock.o)
OSFlagTbl           0x370             ../NanoTest_bsp/\libucosii_bsp.a(os_core.o)
OSPrioCur           0x1               ../NanoTest_bsp/\libucosii_bsp.a(os_core.o)
OSTCBList           0x4               ../NanoTest_bsp/\libucosii_bsp.a(os_core.o)
alt_fd_list_lock    0x4               ../NanoTest_bsp/\libucosii_bsp.a(alt_dev.o)
OSMemTbl            0xc30             ../NanoTest_bsp/\libucosii_bsp.a(os_core.o)
OSTickStepState     0x1               ../NanoTest_bsp/\libucosii_bsp.a(os_core.o)
OSTaskStatStk       0x800             ../NanoTest_bsp/\libucosii_bsp.a(os_core.o)
OSCtxSwCtr          0x4               ../NanoTest_bsp/\libucosii_bsp.a(os_core.o)
OSIdleCtrMax        0x4               ../NanoTest_bsp/\libucosii_bsp.a(os_core.o)
OSTCBFreeList       0x4               ../NanoTest_bsp/\libucosii_bsp.a(os_core.o)
OSCPUUsage          0x1               ../NanoTest_bsp/\libucosii_bsp.a(os_core.o)
OSTaskCtr           0x1               ../NanoTest_bsp/\libucosii_bsp.a(os_core.o)
OSMemFreeList       0x4               ../NanoTest_bsp/\libucosii_bsp.a(os_core.o)
OSQTbl              0x1e0             ../NanoTest_bsp/\libucosii_bsp.a(os_core.o)
OSTCBHighRdy        0x4               ../NanoTest_bsp/\libucosii_bsp.a(os_core.o)
OSQFreeList         0x4               ../NanoTest_bsp/\libucosii_bsp.a(os_core.o)
OSRdyGrp            0x1               ../NanoTest_bsp/\libucosii_bsp.a(os_core.o)
task2_stk           0x2000            obj/default/hello_ucosii.o
_atexit0            0x190             c:/altera/12.1sp1/nios2eds/bin/gnu/h-i686-mingw32/bin/../lib/gcc/nios2-elf/4.1.2/../../../../nios2-elf/lib\libc.a(lib_a-atexit.o)
OSRdyTbl            0x3               ../NanoTest_bsp/\libucosii_bsp.a(os_core.o)
OSEventFreeList     0x4               ../NanoTest_bsp/\libucosii_bsp.a(os_core.o)
OSIntNesting        0x1               ../NanoTest_bsp/\libucosii_bsp.a(os_core.o)
OSTCBCur            0x4               ../NanoTest_bsp/\libucosii_bsp.a(os_core.o)
OSTime              0x4               ../NanoTest_bsp/\libucosii_bsp.a(os_core.o)
OSTaskIdleStk       0x800             ../NanoTest_bsp/\libucosii_bsp.a(os_core.o)
OSEventTbl          0xb40             ../NanoTest_bsp/\libucosii_bsp.a(os_core.o)
OSTCBTbl            0x510             ../NanoTest_bsp/\libucosii_bsp.a(os_core.o)
OSFlagFreeList      0x4               ../NanoTest_bsp/\libucosii_bsp.a(os_core.o)
OSStatRdy           0x1               ../NanoTest_bsp/\libucosii_bsp.a(os_core.o)
OSTCBPrioTbl        0x54              ../NanoTest_bsp/\libucosii_bsp.a(os_core.o)
alt_envsem          0x4               ../NanoTest_bsp/\libucosii_bsp.a(alt_env_lock.o)
OSIdleCtrRun        0x4               ../NanoTest_bsp/\libucosii_bsp.a(os_core.o)

Memory Configuration

Name             Origin             Length             Attributes
reset            0x01000000         0x00000020
sdram            0x01000020         0x00ffffe0
*default*        0x00000000         0xffffffff

Linker script and memory map

LOAD ../NanoTest_bsp//obj/HAL/src/crt0.o
LOAD obj/default/hello_ucosii.o
LOAD c:/altera/12.1sp1/nios2eds/bin/gnu/h-i686-mingw32/bin/../lib/gcc/nios2-elf/4.1.2/../../../../nios2-elf/lib\libstdc++.a
LOAD c:/altera/12.1sp1/nios2eds/bin/gnu/h-i686-mingw32/bin/../lib/gcc/nios2-elf/4.1.2/../../../../nios2-elf/lib\libm.a
LOAD c:/altera/12.1sp1/nios2eds/bin/gnu/h-i686-mingw32/bin/../lib/gcc/nios2-elf/4.1.2\libgcc.a
START GROUP
LOAD c:/altera/12.1sp1/nios2eds/bin/gnu/h-i686-mingw32/bin/../lib/gcc/nios2-elf/4.1.2/../../../../nios2-elf/lib\libc.a
LOAD c:/altera/12.1sp1/nios2eds/bin/gnu/h-i686-mingw32/bin/../lib/gcc/nios2-elf/4.1.2\libgcc.a
LOAD ../NanoTest_bsp/\libucosii_bsp.a
END GROUP
LOAD c:/altera/12.1sp1/nios2eds/bin/gnu/h-i686-mingw32/bin/../lib/gcc/nios2-elf/4.1.2\libgcc.a
                0x01000000                __alt_mem_sdram = 0x1000000

.entry          0x01000000       0x20
 *(.entry)
 .entry         0x01000000       0x20 ../NanoTest_bsp//obj/HAL/src/crt0.o
                0x01000000                __reset

.exceptions     0x01000020      0x19c
                0x01000020                PROVIDE (__ram_exceptions_start, ABSOLUTE (.))
                0x01000020                . = ALIGN (0x20)
 *(.irq)
 *(.exceptions.entry.label)
 .exceptions.entry.label
                0x01000020        0x0 ../NanoTest_bsp/\libucosii_bsp.a(alt_irq_entry.o)
                0x01000020                alt_irq_entry
 .exceptions.entry.label
                0x01000020        0x0 ../NanoTest_bsp/\libucosii_bsp.a(alt_exception_entry.o)
                0x01000020                alt_exception
 *(.exceptions.entry.user)
 *(.exceptions.entry)
 .exceptions.entry
                0x01000020       0x54 ../NanoTest_bsp/\libucosii_bsp.a(alt_exception_entry.o)
 *(.exceptions.irqtest.user)
 *(.exceptions.irqtest)
 .exceptions.irqtest
                0x01000074       0x10 ../NanoTest_bsp/\libucosii_bsp.a(alt_irq_entry.o)
 *(.exceptions.irqhandler.user)
 *(.exceptions.irqhandler)
 .exceptions.irqhandler
                0x01000084        0x4 ../NanoTest_bsp/\libucosii_bsp.a(alt_irq_entry.o)
 *(.exceptions.irqreturn.user)
 *(.exceptions.irqreturn)
 .exceptions.irqreturn
                0x01000088        0x4 ../NanoTest_bsp/\libucosii_bsp.a(alt_irq_entry.o)
 *(.exceptions.notirq.label)
 .exceptions.notirq.label
                0x0100008c        0x0 ../NanoTest_bsp/\libucosii_bsp.a(alt_irq_entry.o)
 *(.exceptions.notirq.user)
 *(.exceptions.notirq)
 .exceptions.notirq
                0x0100008c        0x8 ../NanoTest_bsp/\libucosii_bsp.a(alt_exception_entry.o)
 *(.exceptions.soft.user)
 *(.exceptions.soft)
 *(.exceptions.unknown.user)
 *(.exceptions.unknown)
 .exceptions.unknown
                0x01000094        0x4 ../NanoTest_bsp/\libucosii_bsp.a(alt_exception_entry.o)
 *(.exceptions.exit.label)
 .exceptions.exit.label
                0x01000098        0x0 ../NanoTest_bsp/\libucosii_bsp.a(alt_irq_entry.o)
 .exceptions.exit.label
                0x01000098        0x0 ../NanoTest_bsp/\libucosii_bsp.a(alt_exception_entry.o)
 *(.exceptions.exit.user)
 *(.exceptions.exit)
 .exceptions.exit
                0x01000098       0x54 ../NanoTest_bsp/\libucosii_bsp.a(alt_exception_entry.o)
 *(.exceptions)
 .exceptions    0x010000ec       0xd0 ../NanoTest_bsp/\libucosii_bsp.a(alt_irq_handler.o)
                0x010000ec                alt_irq_handler
                0x010001bc                PROVIDE (__ram_exceptions_end, ABSOLUTE (.))
                0x01000020                PROVIDE (__flash_exceptions_start, LOADADDR (.exceptions))

.text           0x010001bc     0xf04c
                0x010001bc                PROVIDE (stext, ABSOLUTE (.))
 *(.interp)
 *(.hash)
 *(.dynsym)
 *(.dynstr)
 *(.gnu.version)
 *(.gnu.version_d)
 *(.gnu.version_r)
 *(.rel.init)
 *(.rela.init)
 *(.rel.text .rel.text.* .rel.gnu.linkonce.t.*)
 *(.rela.text .rela.text.* .rela.gnu.linkonce.t.*)
 *(.rel.fini)
 *(.rela.fini)
 *(.rel.rodata .rel.rodata.* .rel.gnu.linkonce.r.*)
 *(.rela.rodata .rela.rodata.* .rela.gnu.linkonce.r.*)
 *(.rel.data .rel.data.* .rel.gnu.linkonce.d.*)
 *(.rela.data .rela.data.* .rela.gnu.linkonce.d.*)
 *(.rel.tdata .rel.tdata.* .rel.gnu.linkonce.td.*)
 *(.rela.tdata .rela.tdata.* .rela.gnu.linkonce.td.*)
 *(.rel.tbss .rel.tbss.* .rel.gnu.linkonce.tb.*)
 *(.rela.tbss .rela.tbss.* .rela.gnu.linkonce.tb.*)
 *(.rel.ctors)
 *(.rela.ctors)
 *(.rel.dtors)
 *(.rela.dtors)
 *(.rel.got)
 *(.rela.got)
 *(.rel.sdata .rel.sdata.* .rel.gnu.linkonce.s.*)
 *(.rela.sdata .rela.sdata.* .rela.gnu.linkonce.s.*)
 *(.rel.sbss .rel.sbss.* .rel.gnu.linkonce.sb.*)
 *(.rela.sbss .rela.sbss.* .rela.gnu.linkonce.sb.*)
 *(.rel.sdata2 .rel.sdata2.* .rel.gnu.linkonce.s2.*)
 *(.rela.sdata2 .rela.sdata2.* .rela.gnu.linkonce.s2.*)
 *(.rel.sbss2 .rel.sbss2.* .rel.gnu.linkonce.sb2.*)
 *(.rela.sbss2 .rela.sbss2.* .rela.gnu.linkonce.sb2.*)
 *(.rel.bss .rel.bss.* .rel.gnu.linkonce.b.*)
 *(.rela.bss .rela.bss.* .rela.gnu.linkonce.b.*)
 *(.rel.plt)
 *(.rela.plt)
 *(.rel.dyn)
 *(.init)
 *(.plt)
 *(.text .stub .text.* .gnu.linkonce.t.*)
 .text          0x010001bc       0x4c ../NanoTest_bsp//obj/HAL/src/crt0.o
                0x010001bc                _start
 .text          0x01000208      0x11c obj/default/hello_ucosii.o
                0x01000208                task1
                0x01000240                task2
                0x01000278                main
 .text          0x01000324       0xb4 c:/altera/12.1sp1/nios2eds/bin/gnu/h-i686-mingw32/bin/../lib/gcc/nios2-elf/4.1.2/../../../../nios2-elf/lib\libc.a(lib_a-puts.o)
                0x01000324                _puts_r
                0x010003c4                puts
 .text          0x010003d8       0x74 c:/altera/12.1sp1/nios2eds/bin/gnu/h-i686-mingw32/bin/../lib/gcc/nios2-elf/4.1.2/../../../../nios2-elf/lib\libc.a(lib_a-strlen.o)
                0x010003d8                strlen
 .text          0x0100044c      0x49c c:/altera/12.1sp1/nios2eds/bin/gnu/h-i686-mingw32/bin/../lib/gcc/nios2-elf/4.1.2/../../../../nios2-elf/lib\libc.a(lib_a-fvwrite.o)
                0x0100044c                __sfvwrite_r
 .text          0x010008e8        0x0 c:/altera/12.1sp1/nios2eds/bin/gnu/h-i686-mingw32/bin/../lib/gcc/nios2-elf/4.1.2/../../../../nios2-elf/lib\libc.a(lib_a-impure.o)
 .text          0x010008e8      0x740 c:/altera/12.1sp1/nios2eds/bin/gnu/h-i686-mingw32/bin/../lib/gcc/nios2-elf/4.1.2/../../../../nios2-elf/lib\libc.a(lib_a-mallocr.o)
                0x010008e8                _malloc_r
 .text          0x01001028       0xe4 c:/altera/12.1sp1/nios2eds/bin/gnu/h-i686-mingw32/bin/../lib/gcc/nios2-elf/4.1.2/../../../../nios2-elf/lib\libc.a(lib_a-memchr.o)
                0x01001028                memchr
 .text          0x0100110c       0xa0 c:/altera/12.1sp1/nios2eds/bin/gnu/h-i686-mingw32/bin/../lib/gcc/nios2-elf/4.1.2/../../../../nios2-elf/lib\libc.a(lib_a-memcpy.o)
                0x0100110c                memcpy
 .text          0x010011ac       0xe0 c:/altera/12.1sp1/nios2eds/bin/gnu/h-i686-mingw32/bin/../lib/gcc/nios2-elf/4.1.2/../../../../nios2-elf/lib\libc.a(lib_a-memmove.o)
                0x010011ac                memmove
 .text          0x0100128c      0x5f4 c:/altera/12.1sp1/nios2eds/bin/gnu/h-i686-mingw32/bin/../lib/gcc/nios2-elf/4.1.2/../../../../nios2-elf/lib\libc.a(lib_a-reallocr.o)
                0x0100128c                _realloc_r
 .text          0x01001880       0x70 c:/altera/12.1sp1/nios2eds/bin/gnu/h-i686-mingw32/bin/../lib/gcc/nios2-elf/4.1.2/../../../../nios2-elf/lib\libc.a(lib_a-sbrkr.o)
                0x01001880                _sbrk_r
 .text          0x010018f0      0x13c c:/altera/12.1sp1/nios2eds/bin/gnu/h-i686-mingw32/bin/../lib/gcc/nios2-elf/4.1.2/../../../../nios2-elf/lib\libc.a(lib_a-wsetup.o)
                0x010018f0                __swsetup_r
 .text          0x01001a2c      0x230 c:/altera/12.1sp1/nios2eds/bin/gnu/h-i686-mingw32/bin/../lib/gcc/nios2-elf/4.1.2/../../../../nios2-elf/lib\libc.a(lib_a-fflush.o)
                0x01001a2c                _fflush_r
                0x01001c28                fflush
 .text          0x01001c5c      0x2c0 c:/altera/12.1sp1/nios2eds/bin/gnu/h-i686-mingw32/bin/../lib/gcc/nios2-elf/4.1.2/../../../../nios2-elf/lib\libc.a(lib_a-findfp.o)
                0x01001cb4                __sfp_lock_acquire
                0x01001cb8                __sfp_lock_release
                0x01001cbc                __sinit_lock_acquire
                0x01001cc0                __sinit_lock_release
                0x01001cc4                __sinit
                0x01001d78                __fp_unlock_all
                0x01001d90                __fp_lock_all
                0x01001da8                _cleanup_r
                0x01001db4                _cleanup
                0x01001dc4                __sfmoreglue
                0x01001e2c                __sfp
 .text          0x01001f1c      0x440 c:/altera/12.1sp1/nios2eds/bin/gnu/h-i686-mingw32/bin/../lib/gcc/nios2-elf/4.1.2/../../../../nios2-elf/lib\libc.a(lib_a-freer.o)
                0x01001f1c                _malloc_trim_r
                0x01002048                _free_r
 .text          0x0100235c      0x180 c:/altera/12.1sp1/nios2eds/bin/gnu/h-i686-mingw32/bin/../lib/gcc/nios2-elf/4.1.2/../../../../nios2-elf/lib\libc.a(lib_a-fwalk.o)
                0x0100235c                _fwalk_reent
                0x01002424                _fwalk
 .text          0x010024dc        0x0 c:/altera/12.1sp1/nios2eds/bin/gnu/h-i686-mingw32/bin/../lib/gcc/nios2-elf/4.1.2/../../../../nios2-elf/lib\libc.a(lib_a-int_errno.o)
 .text          0x010024dc      0x194 c:/altera/12.1sp1/nios2eds/bin/gnu/h-i686-mingw32/bin/../lib/gcc/nios2-elf/4.1.2/../../../../nios2-elf/lib\libc.a(lib_a-makebuf.o)
                0x010024dc                __smakebuf_r
 .text          0x01002670       0x98 c:/altera/12.1sp1/nios2eds/bin/gnu/h-i686-mingw32/bin/../lib/gcc/nios2-elf/4.1.2/../../../../nios2-elf/lib\libc.a(lib_a-memset.o)
                0x01002670                memset
 .text          0x01002708      0x14c c:/altera/12.1sp1/nios2eds/bin/gnu/h-i686-mingw32/bin/../lib/gcc/nios2-elf/4.1.2/../../../../nios2-elf/lib\libc.a(lib_a-stdio.o)
                0x01002708                __sclose
                0x01002710                __sseek
                0x01002778                __swrite
                0x010027f4                __sread
 .text          0x01002854       0x78 c:/altera/12.1sp1/nios2eds/bin/gnu/h-i686-mingw32/bin/../lib/gcc/nios2-elf/4.1.2/../../../../nios2-elf/lib\libc.a(lib_a-writer.o)
                0x01002854                _write_r
 .text          0x010028cc       0x70 c:/altera/12.1sp1/nios2eds/bin/gnu/h-i686-mingw32/bin/../lib/gcc/nios2-elf/4.1.2/../../../../nios2-elf/lib\libc.a(lib_a-closer.o)
                0x010028cc                _close_r
 .text          0x0100293c      0x124 c:/altera/12.1sp1/nios2eds/bin/gnu/h-i686-mingw32/bin/../lib/gcc/nios2-elf/4.1.2/../../../../nios2-elf/lib\libc.a(lib_a-fclose.o)
                0x0100293c                _fclose_r
                0x01002a4c                fclose
 .text          0x01002a60       0x74 c:/altera/12.1sp1/nios2eds/bin/gnu/h-i686-mingw32/bin/../lib/gcc/nios2-elf/4.1.2/../../../../nios2-elf/lib\libc.a(lib_a-fstatr.o)
                0x01002a60                _fstat_r
 .text          0x01002ad4       0x70 c:/altera/12.1sp1/nios2eds/bin/gnu/h-i686-mingw32/bin/../lib/gcc/nios2-elf/4.1.2/../../../../nios2-elf/lib\libc.a(lib_a-isattyr.o)
                0x01002ad4                _isatty_r
 .text          0x01002b44       0x78 c:/altera/12.1sp1/nios2eds/bin/gnu/h-i686-mingw32/bin/../lib/gcc/nios2-elf/4.1.2/../../../../nios2-elf/lib\libc.a(lib_a-lseekr.o)
                0x01002b44                _lseek_r
 .text          0x01002bbc       0x78 c:/altera/12.1sp1/nios2eds/bin/gnu/h-i686-mingw32/bin/../lib/gcc/nios2-elf/4.1.2/../../../../nios2-elf/lib\libc.a(lib_a-readr.o)
                0x01002bbc                _read_r
 .text          0x01002c34      0x15c ../NanoTest_bsp/\libucosii_bsp.a(alt_close.o)
                0x01002c34                close
 .text          0x01002d90       0x2c ../NanoTest_bsp/\libucosii_bsp.a(alt_dev.o)
 .text          0x01002dbc        0x0 ../NanoTest_bsp/\libucosii_bsp.a(alt_errno.o)
 .text          0x01002dbc      0x134 ../NanoTest_bsp/\libucosii_bsp.a(alt_fstat.o)
                0x01002dbc                fstat
 .text          0x01002ef0      0x120 ../NanoTest_bsp/\libucosii_bsp.a(alt_isatty.o)
                0x01002ef0                isatty
 .text          0x01003010       0xec ../NanoTest_bsp/\libucosii_bsp.a(alt_load.o)
                0x01003010                alt_load
 .text          0x010030fc      0x150 ../NanoTest_bsp/\libucosii_bsp.a(alt_lseek.o)
                0x010030fc                lseek
 .text          0x0100324c       0xc8 ../NanoTest_bsp/\libucosii_bsp.a(alt_main.o)
                0x0100324c                alt_main
 .text          0x01003314      0x180 ../NanoTest_bsp/\libucosii_bsp.a(alt_read.o)
                0x01003314                read
 .text          0x01003494       0x60 ../NanoTest_bsp/\libucosii_bsp.a(alt_release_fd.o)
                0x01003494                alt_release_fd
 .text          0x010034f4       0xbc ../NanoTest_bsp/\libucosii_bsp.a(alt_sbrk.o)
                0x010034f4                sbrk
 .text          0x010035b0      0x180 ../NanoTest_bsp/\libucosii_bsp.a(alt_write.o)
                0x010035b0                write
 .text          0x01003730      0x108 ../NanoTest_bsp/\libucosii_bsp.a(alt_env_lock.o)
                0x01003730                __env_lock
                0x010037dc                __env_unlock
 .text          0x01003838      0x1d8 ../NanoTest_bsp/\libucosii_bsp.a(alt_malloc_lock.o)
                0x01003838                __malloc_lock
                0x01003940                __malloc_unlock
 .text          0x01003a10     0x2128 ../NanoTest_bsp/\libucosii_bsp.a(os_core.o)
                0x01003a10                OSEventNameGet
                0x01003b40                OSEventNameSet
                0x01003c84                OSEventPendMulti
                0x01004338                OSInit
                0x0100438c                OSIntEnter
                0x01004408                OSIntExit
                0x01004508                OSSchedLock
                0x01004594                OSSchedUnlock
                0x01004678                OSStart
                0x010046e8                OSStatInit
                0x01004794                OSTimeTick
                0x010049d4                OSVersion
                0x010049f4                OS_Dummy
                0x01004a10                OS_EventTaskRdy
                0x01004ba4                OS_EventTaskWait
                0x01004cb4                OS_EventTaskWaitMulti
                0x01004e08                OS_EventTaskRemove
                0x01004ec0                OS_EventTaskRemoveMulti
                0x01004fc4                OS_EventWaitListInit
                0x01005390                OS_MemClr
                0x010053e4                OS_MemCopy
                0x01005450                OS_Sched
                0x01005594                OS_StrCopy
                0x01005614                OS_StrLen
                0x0100566c                OS_TaskIdle
                0x010056c8                OS_TaskStat
                0x01005790                OS_TaskStatStkChk
                0x01005858                OS_TCBInit
 .text          0x01005b38      0x18c ../NanoTest_bsp/\libucosii_bsp.a(os_dbg.o)
                0x01005b38                OSDebugInit
 .text          0x01005cc4     0x193c ../NanoTest_bsp/\libucosii_bsp.a(os_flag.o)
                0x01005cc4                OSFlagAccept
                0x01005ff8                OSFlagCreate
                0x01006134                OSFlagDel
                0x010063dc                OSFlagNameGet
                0x01006520                OSFlagNameSet
                0x01006674                OSFlagPend
                0x01006cb8                OSFlagPendGetFlagsRdy
                0x01006d20                OSFlagPost
                0x010070c8                OSFlagQuery
                0x01007360                OS_FlagInit
                0x01007554                OS_FlagUnlink
 .text          0x01007600      0x808 ../NanoTest_bsp/\libucosii_bsp.a(os_mem.o)
                0x01007600                OSMemCreate
                0x0100781c                OSMemGet
                0x01007920                OSMemNameGet
                0x01007a2c                OSMemNameSet
                0x01007b4c                OSMemPut
                0x01007c3c                OSMemQuery
                0x01007d38                OS_MemInit
 .text          0x01007e08     0x1334 ../NanoTest_bsp/\libucosii_bsp.a(os_q.o)
                0x01007e08                OSQAccept
                0x01007f5c                OSQCreate
                0x01008170                OSQDel
                0x01008470                OSQFlush
                0x01008538                OSQPend
                0x01008858                OSQPendAbort
                0x010089d4                OSQPost
                0x01008b54                OSQPostFront
                0x01008cdc                OSQPostOpt
                0x01008f10                OSQQuery
                0x01009090                OS_QInit
 .text          0x0100913c      0xbc8 ../NanoTest_bsp/\libucosii_bsp.a(os_sem.o)
                0x0100913c                OSSemAccept
                0x010091fc                OSSemCreate
                0x01009310                OSSemDel
                0x010095b0                OSSemPend
                0x0100982c                OSSemPendAbort
                0x010099a8                OSSemPost
                0x01009ad0                OSSemQuery
                0x01009c00                OSSemSet
 .text          0x01009d04     0x1a40 ../NanoTest_bsp/\libucosii_bsp.a(os_task.o)
                0x01009d04                OSTaskChangePrio
                0x0100a278                OSTaskCreate
                0x0100a44c                OSTaskCreateExt
                0x0100a64c                OSTaskDel
                0x0100aa58                OSTaskDelReq
                0x0100abc8                OSTaskNameGet
                0x0100ad80                OSTaskNameSet
                0x0100af44                OSTaskResume
                0x0100b15c                OSTaskStkChk
                0x0100b358                OSTaskSuspend
                0x0100b584                OSTaskQuery
                0x0100b6c8                OS_TaskStkClr
 .text          0x0100b744      0x598 ../NanoTest_bsp/\libucosii_bsp.a(os_time.o)
                0x0100b744                OSTimeDly
                0x0100b890                OSTimeDlyHMSM
                0x0100ba04                OSTimeDlyResume
                0x0100bc14                OSTimeGet
                0x0100bc78                OSTimeSet
 .text          0x0100bcdc       0xe8 ../NanoTest_bsp/\libucosii_bsp.a(alt_sys_init.o)
                0x0100bcdc                alt_irq_init
                0x0100bd10                alt_sys_init
 .text          0x0100bdc4      0x148 ../NanoTest_bsp/\libucosii_bsp.a(altera_avalon_jtag_uart_fd.o)
                0x0100bdc4                altera_avalon_jtag_uart_read_fd
                0x0100be1c                altera_avalon_jtag_uart_write_fd
                0x0100be74                altera_avalon_jtag_uart_close_fd
                0x0100bebc                altera_avalon_jtag_uart_ioctl_fd
 .text          0x0100bf0c      0x584 ../NanoTest_bsp/\libucosii_bsp.a(altera_avalon_jtag_uart_init.o)
                0x0100bf0c                altera_avalon_jtag_uart_init
                0x0100c41c                altera_avalon_jtag_uart_close
 .text          0x0100c490       0xf4 ../NanoTest_bsp/\libucosii_bsp.a(altera_avalon_jtag_uart_ioctl.o)
                0x0100c490                altera_avalon_jtag_uart_ioctl
 .text          0x0100c584      0x2c0 ../NanoTest_bsp/\libucosii_bsp.a(altera_avalon_jtag_uart_read.o)
                0x0100c584                altera_avalon_jtag_uart_read
 .text          0x0100c844      0x2dc ../NanoTest_bsp/\libucosii_bsp.a(altera_avalon_jtag_uart_write.o)
                0x0100c844                altera_avalon_jtag_uart_write
 .text          0x0100cb20      0x100 ../NanoTest_bsp/\libucosii_bsp.a(altera_avalon_timer_sc.o)
                0x0100cb90                alt_avalon_timer_sc_init
 .text          0x0100cc20       0xf8 ../NanoTest_bsp/\libucosii_bsp.a(altera_avalon_uart_fd.o)
                0x0100cc20                altera_avalon_uart_read_fd
                0x0100cc78                altera_avalon_uart_write_fd
                0x0100ccd0                altera_avalon_uart_close_fd
 .text          0x0100cd18      0x57c ../NanoTest_bsp/\libucosii_bsp.a(altera_avalon_uart_init.o)
                0x0100cd18                altera_avalon_uart_init
                0x0100d234                altera_avalon_uart_close
 .text          0x0100d294      0x310 ../NanoTest_bsp/\libucosii_bsp.a(altera_avalon_uart_read.o)
                0x0100d294                altera_avalon_uart_read
 .text          0x0100d5a4      0x2a8 ../NanoTest_bsp/\libucosii_bsp.a(altera_avalon_uart_write.o)
                0x0100d5a4                altera_avalon_uart_write
 .text          0x0100d84c      0x154 ../NanoTest_bsp/\libucosii_bsp.a(alt_alarm_start.o)
                0x0100d84c                alt_alarm_start
 .text          0x0100d9a0       0x44 ../NanoTest_bsp/\libucosii_bsp.a(alt_dcache_flush_all.o)
                0x0100d9a0                alt_dcache_flush_all
 .text          0x0100d9e4      0x114 ../NanoTest_bsp/\libucosii_bsp.a(alt_dev_llist_insert.o)
                0x0100d9e4                alt_dev_llist_insert
 .text          0x0100daf8       0x64 ../NanoTest_bsp/\libucosii_bsp.a(alt_do_ctors.o)
                0x0100daf8                _do_ctors
 .text          0x0100db5c       0x64 ../NanoTest_bsp/\libucosii_bsp.a(alt_do_dtors.o)
                0x0100db5c                _do_dtors
 .text          0x0100dbc0       0x30 ../NanoTest_bsp/\libucosii_bsp.a(alt_icache_flush_all.o)
                0x0100dbc0                alt_icache_flush_all
 .text          0x0100dbf0      0x1d4 ../NanoTest_bsp/\libucosii_bsp.a(alt_iic.o)
                0x0100dbf0                alt_ic_isr_register
                0x0100dc40                alt_ic_irq_enable
                0x0100dcdc                alt_ic_irq_disable
                0x0100dd7c                alt_ic_irq_enabled
 .text          0x0100ddc4       0xf8 ../NanoTest_bsp/\libucosii_bsp.a(alt_iic_isr_register.o)
                0x0100ddc4                alt_iic_isr_register
 .text          0x0100debc      0x13c ../NanoTest_bsp/\libucosii_bsp.a(alt_io_redirect.o)
                0x0100df80                alt_io_redirect
 .text          0x0100dff8        0x0 ../NanoTest_bsp/\libucosii_bsp.a(alt_irq_entry.o)
 .text          0x0100dff8        0x0 ../NanoTest_bsp/\libucosii_bsp.a(alt_irq_handler.o)
 .text          0x0100dff8        0x0 ../NanoTest_bsp/\libucosii_bsp.a(alt_irq_vars.o)
 .text          0x0100dff8      0x2c4 ../NanoTest_bsp/\libucosii_bsp.a(alt_open.o)
                0x0100e0d4                open
 .text          0x0100e2bc      0x1a8 ../NanoTest_bsp/\libucosii_bsp.a(alt_tick.o)
                0x0100e2bc                alt_alarm_stop
                0x0100e354                alt_tick
 .text          0x0100e464       0x20 ../NanoTest_bsp/\libucosii_bsp.a(altera_nios2_qsys_irq.o)
                0x0100e464                altera_nios2_qsys_irq_init
 .text          0x0100e484       0xd0 ../NanoTest_bsp/\libucosii_bsp.a(os_cpu_a.o)
                0x0100e484                OSCtxSw
                0x0100e484                OSIntCtxSw
                0x0100e510                OSStartHighRdy
                0x0100e530                OSStartTsk
 .text          0x0100e554      0x418 ../NanoTest_bsp/\libucosii_bsp.a(os_cpu_c.o)
                0x0100e554                OSTaskStkInit
                0x0100e864                OSTaskCreateHook
                0x0100e884                OSTaskDelHook
                0x0100e8a4                OSTaskSwHook
                0x0100e8c0                OSTaskStatHook
                0x0100e8dc                OSTimeTickHook
                0x0100e8f8                OSInitHookBegin
                0x0100e914                OSInitHookEnd
                0x0100e930                OSTaskIdleHook
                0x0100e94c                OSTCBInitHook
 .text          0x0100e96c        0x0 ../NanoTest_bsp/\libucosii_bsp.a(alt_exception_entry.o)
 .text          0x0100e96c       0x94 ../NanoTest_bsp/\libucosii_bsp.a(alt_find_dev.o)
                0x0100e96c                alt_find_dev
 .text          0x0100ea00      0x120 ../NanoTest_bsp/\libucosii_bsp.a(alt_find_file.o)
                0x0100ea00                alt_find_file
 .text          0x0100eb20       0xf4 ../NanoTest_bsp/\libucosii_bsp.a(alt_get_fd.o)
                0x0100eb20                alt_get_fd
 .text          0x0100ec14       0x90 ../NanoTest_bsp/\libucosii_bsp.a(alt_icache_flush.o)
                0x0100ec14                alt_icache_flush
 .text          0x0100eca4       0x14 c:/altera/12.1sp1/nios2eds/bin/gnu/h-i686-mingw32/bin/../lib/gcc/nios2-elf/4.1.2/../../../../nios2-elf/lib\libc.a(lib_a-atexit.o)
                0x0100eca4                atexit
 .text          0x0100ecb8       0x38 c:/altera/12.1sp1/nios2eds/bin/gnu/h-i686-mingw32/bin/../lib/gcc/nios2-elf/4.1.2/../../../../nios2-elf/lib\libc.a(lib_a-exit.o)
                0x0100ecb8                exit
 .text          0x0100ecf0       0x74 c:/altera/12.1sp1/nios2eds/bin/gnu/h-i686-mingw32/bin/../lib/gcc/nios2-elf/4.1.2/../../../../nios2-elf/lib\libc.a(lib_a-memcmp.o)
                0x0100ecf0                memcmp
 .text          0x0100ed64      0x134 c:/altera/12.1sp1/nios2eds/bin/gnu/h-i686-mingw32/bin/../lib/gcc/nios2-elf/4.1.2/../../../../nios2-elf/lib\libc.a(lib_a-__atexit.o)
                0x0100ed64                __register_exitproc
 .text          0x0100ee98      0x1b4 c:/altera/12.1sp1/nios2eds/bin/gnu/h-i686-mingw32/bin/../lib/gcc/nios2-elf/4.1.2/../../../../nios2-elf/lib\libc.a(lib_a-__call_atexit.o)
                0x0100ee9c                __call_exitprocs
 .text          0x0100f04c      0x14c c:/altera/12.1sp1/nios2eds/bin/gnu/h-i686-mingw32/bin/../lib/gcc/nios2-elf/4.1.2\libgcc.a(lib2-divmod.o)
                0x0100f0c8                __divsi3
                0x0100f128                __modsi3
                0x0100f188                __udivsi3
                0x0100f190                __umodsi3
 .text          0x0100f198       0x6c ../NanoTest_bsp/\libucosii_bsp.a(alt_exit.o)
                0x0100f1d8                _exit
 *(.gnu.warning.*)
 *(.fini)
                0x0100f204                PROVIDE (__etext, ABSOLUTE (.))
                0x0100f204                PROVIDE (_etext, ABSOLUTE (.))
                0x0100f204                PROVIDE (etext, ABSOLUTE (.))
 *(.eh_frame_hdr)
                0x0100f204                . = ALIGN (0x4)
                0x0100f204                PROVIDE (__preinit_array_start, ABSOLUTE (.))
 *(.preinit_array)
                0x0100f204                PROVIDE (__preinit_array_end, ABSOLUTE (.))
                0x0100f204                PROVIDE (__init_array_start, ABSOLUTE (.))
 *(.init_array)
                0x0100f204                PROVIDE (__init_array_end, ABSOLUTE (.))
                0x0100f204                PROVIDE (__fini_array_start, ABSOLUTE (.))
 *(.fini_array)
                0x0100f204                PROVIDE (__fini_array_end, ABSOLUTE (.))
 *(.eh_frame)
 *(.gcc_except_table)
 *(.dynamic)
                0x0100f204                PROVIDE (__CTOR_LIST__, ABSOLUTE (.))
 *(.ctors)
 *(SORT(.ctors.*))
 .ctors.65535   0x0100f204        0x4 c:/altera/12.1sp1/nios2eds/bin/gnu/h-i686-mingw32/bin/../lib/gcc/nios2-elf/4.1.2/../../../../nios2-elf/lib\libc.a(lib_a-__call_atexit.o)
                0x0100f208                PROVIDE (__CTOR_END__, ABSOLUTE (.))
                0x0100f208                PROVIDE (__DTOR_LIST__, ABSOLUTE (.))
 *(.dtors)
 *(SORT(.dtors.*))
                0x0100f208                PROVIDE (__DTOR_END__, ABSOLUTE (.))
 *(.jcr)
                0x0100f208                . = ALIGN (0x4)

.rodata         0x0100f208      0x194
                0x0100f208                PROVIDE (__ram_rodata_start, ABSOLUTE (.))
                0x0100f208                . = ALIGN (0x4)
 *(.rodata .rodata.* .gnu.linkonce.r.*)
 .rodata        0x0100f208       0x28 obj/default/hello_ucosii.o
 .rodata.str1.4
                0x0100f230        0x2 c:/altera/12.1sp1/nios2eds/bin/gnu/h-i686-mingw32/bin/../lib/gcc/nios2-elf/4.1.2/../../../../nios2-elf/lib\libc.a(lib_a-puts.o)
                                  0x4 (size before relaxing)
 *fill*         0x0100f232        0x2 00
 .rodata.str1.4
                0x0100f234        0x4 c:/altera/12.1sp1/nios2eds/bin/gnu/h-i686-mingw32/bin/../lib/gcc/nios2-elf/4.1.2/../../../../nios2-elf/lib\libc.a(lib_a-impure.o)
 .rodata        0x0100f238        0xc ../NanoTest_bsp/\libucosii_bsp.a(alt_dev.o)
 .rodata        0x0100f244       0x14 ../NanoTest_bsp/\libucosii_bsp.a(alt_main.o)
 .rodata        0x0100f258      0x120 ../NanoTest_bsp/\libucosii_bsp.a(os_core.o)
                0x0100f258                OSUnMapTbl
 .rodata        0x0100f378       0x20 ../NanoTest_bsp/\libucosii_bsp.a(alt_sys_init.o)
 .rodata        0x0100f398        0x4 ../NanoTest_bsp/\libucosii_bsp.a(os_cpu_c.o)
 *(.rodata1)
                0x0100f39c                . = ALIGN (0x4)
                0x0100f39c                PROVIDE (__ram_rodata_end, ABSOLUTE (.))
                0x0100f208                PROVIDE (__flash_rodata_start, LOADADDR (.rodata))

.rwdata         0x0100f39c     0x1ba0 load address 0x01010f3c
                0x0100f39c                PROVIDE (__ram_rwdata_start, ABSOLUTE (.))
                0x0100f39c                . = ALIGN (0x4)
 *(.got.plt)
 *(.got)
 *(.data1)
 *(.data .data.* .gnu.linkonce.d.*)
 .data          0x0100f39c        0x0 ../NanoTest_bsp//obj/HAL/src/crt0.o
 .data          0x0100f39c        0x0 obj/default/hello_ucosii.o
 .data          0x0100f39c        0x0 c:/altera/12.1sp1/nios2eds/bin/gnu/h-i686-mingw32/bin/../lib/gcc/nios2-elf/4.1.2/../../../../nios2-elf/lib\libc.a(lib_a-puts.o)
 .data          0x0100f39c        0x0 c:/altera/12.1sp1/nios2eds/bin/gnu/h-i686-mingw32/bin/../lib/gcc/nios2-elf/4.1.2/../../../../nios2-elf/lib\libc.a(lib_a-strlen.o)
 .data          0x0100f39c        0x0 c:/altera/12.1sp1/nios2eds/bin/gnu/h-i686-mingw32/bin/../lib/gcc/nios2-elf/4.1.2/../../../../nios2-elf/lib\libc.a(lib_a-fvwrite.o)
 .data          0x0100f39c      0x400 c:/altera/12.1sp1/nios2eds/bin/gnu/h-i686-mingw32/bin/../lib/gcc/nios2-elf/4.1.2/../../../../nios2-elf/lib\libc.a(lib_a-impure.o)
 .data          0x0100f79c      0x408 c:/altera/12.1sp1/nios2eds/bin/gnu/h-i686-mingw32/bin/../lib/gcc/nios2-elf/4.1.2/../../../../nios2-elf/lib\libc.a(lib_a-mallocr.o)
                0x0100f79c                __malloc_av_
 .data          0x0100fba4        0x0 c:/altera/12.1sp1/nios2eds/bin/gnu/h-i686-mingw32/bin/../lib/gcc/nios2-elf/4.1.2/../../../../nios2-elf/lib\libc.a(lib_a-memchr.o)
 .data          0x0100fba4        0x0 c:/altera/12.1sp1/nios2eds/bin/gnu/h-i686-mingw32/bin/../lib/gcc/nios2-elf/4.1.2/../../../../nios2-elf/lib\libc.a(lib_a-memcpy.o)
 .data          0x0100fba4        0x0 c:/altera/12.1sp1/nios2eds/bin/gnu/h-i686-mingw32/bin/../lib/gcc/nios2-elf/4.1.2/../../../../nios2-elf/lib\libc.a(lib_a-memmove.o)
 .data          0x0100fba4        0x0 c:/altera/12.1sp1/nios2eds/bin/gnu/h-i686-mingw32/bin/../lib/gcc/nios2-elf/4.1.2/../../../../nios2-elf/lib\libc.a(lib_a-reallocr.o)
 .data          0x0100fba4        0x0 c:/altera/12.1sp1/nios2eds/bin/gnu/h-i686-mingw32/bin/../lib/gcc/nios2-elf/4.1.2/../../../../nios2-elf/lib\libc.a(lib_a-sbrkr.o)
 .data          0x0100fba4        0x0 c:/altera/12.1sp1/nios2eds/bin/gnu/h-i686-mingw32/bin/../lib/gcc/nios2-elf/4.1.2/../../../../nios2-elf/lib\libc.a(lib_a-wsetup.o)
 .data          0x0100fba4        0x0 c:/altera/12.1sp1/nios2eds/bin/gnu/h-i686-mingw32/bin/../lib/gcc/nios2-elf/4.1.2/../../../../nios2-elf/lib\libc.a(lib_a-fflush.o)
 .data          0x0100fba4        0x0 c:/altera/12.1sp1/nios2eds/bin/gnu/h-i686-mingw32/bin/../lib/gcc/nios2-elf/4.1.2/../../../../nios2-elf/lib\libc.a(lib_a-findfp.o)
 .data          0x0100fba4        0x0 c:/altera/12.1sp1/nios2eds/bin/gnu/h-i686-mingw32/bin/../lib/gcc/nios2-elf/4.1.2/../../../../nios2-elf/lib\libc.a(lib_a-freer.o)
 .data          0x0100fba4        0x0 c:/altera/12.1sp1/nios2eds/bin/gnu/h-i686-mingw32/bin/../lib/gcc/nios2-elf/4.1.2/../../../../nios2-elf/lib\libc.a(lib_a-fwalk.o)
 .data          0x0100fba4        0x0 c:/altera/12.1sp1/nios2eds/bin/gnu/h-i686-mingw32/bin/../lib/gcc/nios2-elf/4.1.2/../../../../nios2-elf/lib\libc.a(lib_a-int_errno.o)
 .data          0x0100fba4        0x0 c:/altera/12.1sp1/nios2eds/bin/gnu/h-i686-mingw32/bin/../lib/gcc/nios2-elf/4.1.2/../../../../nios2-elf/lib\libc.a(lib_a-makebuf.o)
 .data          0x0100fba4        0x0 c:/altera/12.1sp1/nios2eds/bin/gnu/h-i686-mingw32/bin/../lib/gcc/nios2-elf/4.1.2/../../../../nios2-elf/lib\libc.a(lib_a-memset.o)
 .data          0x0100fba4        0x0 c:/altera/12.1sp1/nios2eds/bin/gnu/h-i686-mingw32/bin/../lib/gcc/nios2-elf/4.1.2/../../../../nios2-elf/lib\libc.a(lib_a-stdio.o)
 .data          0x0100fba4        0x0 c:/altera/12.1sp1/nios2eds/bin/gnu/h-i686-mingw32/bin/../lib/gcc/nios2-elf/4.1.2/../../../../nios2-elf/lib\libc.a(lib_a-writer.o)
 .data          0x0100fba4        0x0 c:/altera/12.1sp1/nios2eds/bin/gnu/h-i686-mingw32/bin/../lib/gcc/nios2-elf/4.1.2/../../../../nios2-elf/lib\libc.a(lib_a-closer.o)
 .data          0x0100fba4        0x0 c:/altera/12.1sp1/nios2eds/bin/gnu/h-i686-mingw32/bin/../lib/gcc/nios2-elf/4.1.2/../../../../nios2-elf/lib\libc.a(lib_a-fclose.o)
 .data          0x0100fba4        0x0 c:/altera/12.1sp1/nios2eds/bin/gnu/h-i686-mingw32/bin/../lib/gcc/nios2-elf/4.1.2/../../../../nios2-elf/lib\libc.a(lib_a-fstatr.o)
 .data          0x0100fba4        0x0 c:/altera/12.1sp1/nios2eds/bin/gnu/h-i686-mingw32/bin/../lib/gcc/nios2-elf/4.1.2/../../../../nios2-elf/lib\libc.a(lib_a-isattyr.o)
 .data          0x0100fba4        0x0 c:/altera/12.1sp1/nios2eds/bin/gnu/h-i686-mingw32/bin/../lib/gcc/nios2-elf/4.1.2/../../../../nios2-elf/lib\libc.a(lib_a-lseekr.o)
 .data          0x0100fba4        0x0 c:/altera/12.1sp1/nios2eds/bin/gnu/h-i686-mingw32/bin/../lib/gcc/nios2-elf/4.1.2/../../../../nios2-elf/lib\libc.a(lib_a-readr.o)
 .data          0x0100fba4        0x0 ../NanoTest_bsp/\libucosii_bsp.a(alt_close.o)
 .data          0x0100fba4      0x1a8 ../NanoTest_bsp/\libucosii_bsp.a(alt_dev.o)
                0x0100fba4                alt_dev_null
                0x0100fbcc                alt_fd_list
 .data          0x0100fd4c        0x0 ../NanoTest_bsp/\libucosii_bsp.a(alt_errno.o)
 .data          0x0100fd4c        0x0 ../NanoTest_bsp/\libucosii_bsp.a(alt_fstat.o)
 .data          0x0100fd4c        0x0 ../NanoTest_bsp/\libucosii_bsp.a(alt_isatty.o)
 .data          0x0100fd4c        0x0 ../NanoTest_bsp/\libucosii_bsp.a(alt_load.o)
 .data          0x0100fd4c        0x0 ../NanoTest_bsp/\libucosii_bsp.a(alt_lseek.o)
 .data          0x0100fd4c        0x0 ../NanoTest_bsp/\libucosii_bsp.a(alt_main.o)
 .data          0x0100fd4c        0x0 ../NanoTest_bsp/\libucosii_bsp.a(alt_read.o)
 .data          0x0100fd4c        0x0 ../NanoTest_bsp/\libucosii_bsp.a(alt_release_fd.o)
 .data          0x0100fd4c        0x0 ../NanoTest_bsp/\libucosii_bsp.a(alt_sbrk.o)
 .data          0x0100fd4c        0x0 ../NanoTest_bsp/\libucosii_bsp.a(alt_write.o)
 .data          0x0100fd4c        0x0 ../NanoTest_bsp/\libucosii_bsp.a(alt_env_lock.o)
 .data          0x0100fd4c        0x0 ../NanoTest_bsp/\libucosii_bsp.a(alt_malloc_lock.o)
 .data          0x0100fd4c        0x0 ../NanoTest_bsp/\libucosii_bsp.a(os_core.o)
 .data          0x0100fd4c        0x0 ../NanoTest_bsp/\libucosii_bsp.a(os_dbg.o)
 .data          0x0100fd4c        0x0 ../NanoTest_bsp/\libucosii_bsp.a(os_flag.o)
 .data          0x0100fd4c        0x0 ../NanoTest_bsp/\libucosii_bsp.a(os_mem.o)
 .data          0x0100fd4c        0x0 ../NanoTest_bsp/\libucosii_bsp.a(os_q.o)
 .data          0x0100fd4c        0x0 ../NanoTest_bsp/\libucosii_bsp.a(os_sem.o)
 .data          0x0100fd4c        0x0 ../NanoTest_bsp/\libucosii_bsp.a(os_task.o)
 .data          0x0100fd4c        0x0 ../NanoTest_bsp/\libucosii_bsp.a(os_time.o)
 .data          0x0100fd4c     0x113c ../NanoTest_bsp/\libucosii_bsp.a(alt_sys_init.o)
 .data          0x01010e88        0x0 ../NanoTest_bsp/\libucosii_bsp.a(altera_avalon_jtag_uart_fd.o)
 .data          0x01010e88        0x0 ../NanoTest_bsp/\libucosii_bsp.a(altera_avalon_jtag_uart_init.o)
 .data          0x01010e88        0x0 ../NanoTest_bsp/\libucosii_bsp.a(altera_avalon_jtag_uart_ioctl.o)
 .data          0x01010e88        0x0 ../NanoTest_bsp/\libucosii_bsp.a(altera_avalon_jtag_uart_read.o)
 .data          0x01010e88        0x0 ../NanoTest_bsp/\libucosii_bsp.a(altera_avalon_jtag_uart_write.o)
 .data          0x01010e88        0x0 ../NanoTest_bsp/\libucosii_bsp.a(altera_avalon_timer_sc.o)
 .data          0x01010e88        0x0 ../NanoTest_bsp/\libucosii_bsp.a(altera_avalon_uart_fd.o)
 .data          0x01010e88        0x0 ../NanoTest_bsp/\libucosii_bsp.a(altera_avalon_uart_init.o)
 .data          0x01010e88        0x0 ../NanoTest_bsp/\libucosii_bsp.a(altera_avalon_uart_read.o)
 .data          0x01010e88        0x0 ../NanoTest_bsp/\libucosii_bsp.a(altera_avalon_uart_write.o)
 .data          0x01010e88        0x0 ../NanoTest_bsp/\libucosii_bsp.a(alt_alarm_start.o)
 .data          0x01010e88        0x0 ../NanoTest_bsp/\libucosii_bsp.a(alt_dcache_flush_all.o)
 .data          0x01010e88        0x0 ../NanoTest_bsp/\libucosii_bsp.a(alt_dev_llist_insert.o)
 .data          0x01010e88        0x0 ../NanoTest_bsp/\libucosii_bsp.a(alt_do_ctors.o)
 .data          0x01010e88        0x0 ../NanoTest_bsp/\libucosii_bsp.a(alt_do_dtors.o)
 .data          0x01010e88        0x0 ../NanoTest_bsp/\libucosii_bsp.a(alt_icache_flush_all.o)
 .data          0x01010e88        0x0 ../NanoTest_bsp/\libucosii_bsp.a(alt_iic.o)
 .data          0x01010e88        0x0 ../NanoTest_bsp/\libucosii_bsp.a(alt_iic_isr_register.o)
 .data          0x01010e88        0x0 ../NanoTest_bsp/\libucosii_bsp.a(alt_io_redirect.o)
 .data          0x01010e88        0x0 ../NanoTest_bsp/\libucosii_bsp.a(alt_irq_entry.o)
 .data          0x01010e88        0x0 ../NanoTest_bsp/\libucosii_bsp.a(alt_irq_handler.o)
 .data          0x01010e88        0x0 ../NanoTest_bsp/\libucosii_bsp.a(alt_irq_vars.o)
 .data          0x01010e88        0x0 ../NanoTest_bsp/\libucosii_bsp.a(alt_open.o)
 .data          0x01010e88        0x0 ../NanoTest_bsp/\libucosii_bsp.a(alt_tick.o)
 .data          0x01010e88        0x0 ../NanoTest_bsp/\libucosii_bsp.a(altera_nios2_qsys_irq.o)
 .data          0x01010e88        0x0 ../NanoTest_bsp/\libucosii_bsp.a(os_cpu_a.o)
 .data          0x01010e88        0x0 ../NanoTest_bsp/\libucosii_bsp.a(os_cpu_c.o)
 .data          0x01010e88        0x0 ../NanoTest_bsp/\libucosii_bsp.a(alt_exception_entry.o)
 .data          0x01010e88        0x0 ../NanoTest_bsp/\libucosii_bsp.a(alt_find_dev.o)
 .data          0x01010e88        0x0 ../NanoTest_bsp/\libucosii_bsp.a(alt_find_file.o)
 .data          0x01010e88        0x0 ../NanoTest_bsp/\libucosii_bsp.a(alt_get_fd.o)
 .data          0x01010e88        0x0 ../NanoTest_bsp/\libucosii_bsp.a(alt_icache_flush.o)
 .data          0x01010e88        0x0 c:/altera/12.1sp1/nios2eds/bin/gnu/h-i686-mingw32/bin/../lib/gcc/nios2-elf/4.1.2/../../../../nios2-elf/lib\libc.a(lib_a-atexit.o)
 .data          0x01010e88        0x0 c:/altera/12.1sp1/nios2eds/bin/gnu/h-i686-mingw32/bin/../lib/gcc/nios2-elf/4.1.2/../../../../nios2-elf/lib\libc.a(lib_a-exit.o)
 .data          0x01010e88        0x0 c:/altera/12.1sp1/nios2eds/bin/gnu/h-i686-mingw32/bin/../lib/gcc/nios2-elf/4.1.2/../../../../nios2-elf/lib\libc.a(lib_a-memcmp.o)
 .data          0x01010e88        0x0 c:/altera/12.1sp1/nios2eds/bin/gnu/h-i686-mingw32/bin/../lib/gcc/nios2-elf/4.1.2/../../../../nios2-elf/lib\libc.a(lib_a-__atexit.o)
 .data          0x01010e88        0x0 c:/altera/12.1sp1/nios2eds/bin/gnu/h-i686-mingw32/bin/../lib/gcc/nios2-elf/4.1.2/../../../../nios2-elf/lib\libc.a(lib_a-__call_atexit.o)
 .data          0x01010e88        0x0 c:/altera/12.1sp1/nios2eds/bin/gnu/h-i686-mingw32/bin/../lib/gcc/nios2-elf/4.1.2\libgcc.a(lib2-divmod.o)
 .data          0x01010e88        0x0 ../NanoTest_bsp/\libucosii_bsp.a(alt_exit.o)
                0x01018e88                _gp = ABSOLUTE ((. + 0x8000))
                0x01018e88                PROVIDE (gp, _gp)
 *(.rwdata .rwdata.*)
 *(.sdata .sdata.* .gnu.linkonce.s.*)
 .sdata         0x01010e88        0x8 c:/altera/12.1sp1/nios2eds/bin/gnu/h-i686-mingw32/bin/../lib/gcc/nios2-elf/4.1.2/../../../../nios2-elf/lib\libc.a(lib_a-impure.o)
                0x01010e88                _impure_ptr
                0x01010e8c                _global_impure_ptr
 .sdata         0x01010e90        0x8 c:/altera/12.1sp1/nios2eds/bin/gnu/h-i686-mingw32/bin/../lib/gcc/nios2-elf/4.1.2/../../../../nios2-elf/lib\libc.a(lib_a-mallocr.o)
                0x01010e90                __malloc_trim_threshold
                0x01010e94                __malloc_sbrk_base
 .sdata         0x01010e98       0x14 ../NanoTest_bsp/\libucosii_bsp.a(alt_dev.o)
                0x01010e98                alt_fs_list
                0x01010ea0                alt_dev_list
                0x01010ea8                alt_max_fd
 .sdata         0x01010eac        0x4 ../NanoTest_bsp/\libucosii_bsp.a(alt_errno.o)
                0x01010eac                alt_errno
 .sdata         0x01010eb0        0x4 ../NanoTest_bsp/\libucosii_bsp.a(alt_sbrk.o)
 .sdata         0x01010eb4        0x4 ../NanoTest_bsp/\libucosii_bsp.a(alt_env_lock.o)
 .sdata         0x01010eb8        0x4 ../NanoTest_bsp/\libucosii_bsp.a(alt_malloc_lock.o)
 .sdata         0x01010ebc       0x74 ../NanoTest_bsp/\libucosii_bsp.a(os_dbg.o)
                0x01010ebc                OSDebugEn
                0x01010ec0                OSEndiannessTest
                0x01010ec4                OSEventEn
                0x01010ec6                OSEventMax
                0x01010ec8                OSEventNameSize
                0x01010eca                OSEventSize
                0x01010ecc                OSEventTblSize
                0x01010ece                OSEventMultiEn
                0x01010ed0                OSFlagEn
                0x01010ed2                OSFlagGrpSize
                0x01010ed4                OSFlagNodeSize
                0x01010ed6                OSFlagWidth
                0x01010ed8                OSFlagMax
                0x01010eda                OSFlagNameSize
                0x01010edc                OSLowestPrio
                0x01010ede                OSMboxEn
                0x01010ee0                OSMemEn
                0x01010ee2                OSMemMax
                0x01010ee4                OSMemNameSize
                0x01010ee6                OSMemSize
                0x01010ee8                OSMemTblSize
                0x01010eea                OSMutexEn
                0x01010eec                OSPtrSize
                0x01010eee                OSQEn
                0x01010ef0                OSQMax
                0x01010ef2                OSQSize
                0x01010ef4                OSRdyTblSize
                0x01010ef6                OSSemEn
                0x01010ef8                OSStkWidth
                0x01010efa                OSTaskCreateEn
                0x01010efc                OSTaskCreateExtEn
                0x01010efe                OSTaskDelEn
                0x01010f00                OSTaskIdleStkSize
                0x01010f02                OSTaskProfileEn
                0x01010f04                OSTaskMax
                0x01010f06                OSTaskNameSize
                0x01010f08                OSTaskStatEn
                0x01010f0a                OSTaskStatStkSize
                0x01010f0c                OSTaskStatStkChkEn
                0x01010f0e                OSTaskSwHookEn
                0x01010f10                OSTCBPrioTblMax
                0x01010f12                OSTCBSize
                0x01010f14                OSTicksPerSec
                0x01010f16                OSTimeTickHookEn
                0x01010f18                OSVersionNbr
                0x01010f1a                OSTmrEn
                0x01010f1c                OSTmrCfgMax
                0x01010f1e                OSTmrCfgNameSize
                0x01010f20                OSTmrCfgWheelSize
                0x01010f22                OSTmrCfgTicksPerSec
                0x01010f24                OSTmrSize
                0x01010f26                OSTmrTblSize
                0x01010f28                OSTmrWheelSize
                0x01010f2a                OSTmrWheelTblSize
                0x01010f2c                OSDataSize
 .sdata         0x01010f30        0x4 ../NanoTest_bsp/\libucosii_bsp.a(alt_irq_vars.o)
                0x01010f30                alt_priority_mask
 .sdata         0x01010f34        0x8 ../NanoTest_bsp/\libucosii_bsp.a(alt_tick.o)
                0x01010f34                alt_alarm_list
 *(.sdata2 .sdata2.* .gnu.linkonce.s2.*)
                0x01010f3c                . = ALIGN (0x4)
                0x01010f3c                _edata = ABSOLUTE (.)
                0x01010f3c                PROVIDE (edata, ABSOLUTE (.))
                0x01010f3c                PROVIDE (__ram_rwdata_end, ABSOLUTE (.))
                0x01010f3c                PROVIDE (__flash_rwdata_start, LOADADDR (.rwdata))

.bss            0x01012adc     0x7568
                0x01012adc                __bss_start = ABSOLUTE (.)
                0x01012adc                PROVIDE (__sbss_start, ABSOLUTE (.))
                0x01012adc                PROVIDE (___sbss_start, ABSOLUTE (.))
 *(.dynsbss)
 *(.sbss .sbss.* .gnu.linkonce.sb.*)
 .sbss          0x01012adc        0xc c:/altera/12.1sp1/nios2eds/bin/gnu/h-i686-mingw32/bin/../lib/gcc/nios2-elf/4.1.2/../../../../nios2-elf/lib\libc.a(lib_a-mallocr.o)
                0x01012adc                __malloc_top_pad
                0x01012ae0                __malloc_max_sbrked_mem
                0x01012ae4                __malloc_max_total_mem
 .sbss          0x01012ae8        0x4 c:/altera/12.1sp1/nios2eds/bin/gnu/h-i686-mingw32/bin/../lib/gcc/nios2-elf/4.1.2/../../../../nios2-elf/lib\libc.a(lib_a-int_errno.o)
                0x01012ae8                errno
 .sbss          0x01012aec        0x4 ../NanoTest_bsp/\libucosii_bsp.a(alt_dev.o)
                0x01012aec                alt_fd_list_lock
 .sbss          0x01012af0        0xc ../NanoTest_bsp/\libucosii_bsp.a(alt_main.o)
                0x01012af0                alt_argc
                0x01012af4                alt_argv
                0x01012af8                alt_envp
 .sbss          0x01012afc        0x8 ../NanoTest_bsp/\libucosii_bsp.a(alt_env_lock.o)
                0x01012b00                alt_envsem
 .sbss          0x01012b04        0x8 ../NanoTest_bsp/\libucosii_bsp.a(alt_malloc_lock.o)
                0x01012b08                alt_heapsem
 .sbss          0x01012b0c       0x50 ../NanoTest_bsp/\libucosii_bsp.a(os_core.o)
                0x01012b0c                OSLockNesting
                0x01012b0d                OSRunning
                0x01012b10                OSIdleCtr
                0x01012b14                OSPrioHighRdy
                0x01012b15                OSPrioCur
                0x01012b18                OSTCBList
                0x01012b1c                OSTickStepState
                0x01012b20                OSCtxSwCtr
                0x01012b24                OSIdleCtrMax
                0x01012b28                OSTCBFreeList
                0x01012b2c                OSCPUUsage
                0x01012b2d                OSTaskCtr
                0x01012b30                OSMemFreeList
                0x01012b34                OSTCBHighRdy
                0x01012b38                OSQFreeList
                0x01012b3c                OSRdyGrp
                0x01012b3d                OSRdyTbl
                0x01012b40                OSEventFreeList
                0x01012b44                OSIntNesting
                0x01012b48                OSTCBCur
                0x01012b4c                OSTime
                0x01012b50                OSFlagFreeList
                0x01012b54                OSStatRdy
                0x01012b58                OSIdleCtrRun
 .sbss          0x01012b5c        0x4 ../NanoTest_bsp/\libucosii_bsp.a(alt_irq_vars.o)
                0x01012b5c                alt_irq_active
 .sbss          0x01012b60        0x8 ../NanoTest_bsp/\libucosii_bsp.a(alt_tick.o)
                0x01012b60                _alt_tick_rate
                0x01012b64                _alt_nticks
 *(.sbss2 .sbss2.* .gnu.linkonce.sb2.*)
 *(.scommon)
                0x01012b68                PROVIDE (__sbss_end, ABSOLUTE (.))
                0x01012b68                PROVIDE (___sbss_end, ABSOLUTE (.))
 *(.dynbss)
 *(.bss .bss.* .gnu.linkonce.b.*)
 .bss           0x01012b68        0x0 ../NanoTest_bsp//obj/HAL/src/crt0.o
 .bss           0x01012b68        0x0 obj/default/hello_ucosii.o
 .bss           0x01012b68        0x0 c:/altera/12.1sp1/nios2eds/bin/gnu/h-i686-mingw32/bin/../lib/gcc/nios2-elf/4.1.2/../../../../nios2-elf/lib\libc.a(lib_a-puts.o)
 .bss           0x01012b68        0x0 c:/altera/12.1sp1/nios2eds/bin/gnu/h-i686-mingw32/bin/../lib/gcc/nios2-elf/4.1.2/../../../../nios2-elf/lib\libc.a(lib_a-strlen.o)
 .bss           0x01012b68        0x0 c:/altera/12.1sp1/nios2eds/bin/gnu/h-i686-mingw32/bin/../lib/gcc/nios2-elf/4.1.2/../../../../nios2-elf/lib\libc.a(lib_a-fvwrite.o)
 .bss           0x01012b68        0x0 c:/altera/12.1sp1/nios2eds/bin/gnu/h-i686-mingw32/bin/../lib/gcc/nios2-elf/4.1.2/../../../../nios2-elf/lib\libc.a(lib_a-impure.o)
 .bss           0x01012b68       0x28 c:/altera/12.1sp1/nios2eds/bin/gnu/h-i686-mingw32/bin/../lib/gcc/nios2-elf/4.1.2/../../../../nios2-elf/lib\libc.a(lib_a-mallocr.o)
                0x01012b68                __malloc_current_mallinfo
 .bss           0x01012b90        0x0 c:/altera/12.1sp1/nios2eds/bin/gnu/h-i686-mingw32/bin/../lib/gcc/nios2-elf/4.1.2/../../../../nios2-elf/lib\libc.a(lib_a-memchr.o)
 .bss           0x01012b90        0x0 c:/altera/12.1sp1/nios2eds/bin/gnu/h-i686-mingw32/bin/../lib/gcc/nios2-elf/4.1.2/../../../../nios2-elf/lib\libc.a(lib_a-memcpy.o)
 .bss           0x01012b90        0x0 c:/altera/12.1sp1/nios2eds/bin/gnu/h-i686-mingw32/bin/../lib/gcc/nios2-elf/4.1.2/../../../../nios2-elf/lib\libc.a(lib_a-memmove.o)
 .bss           0x01012b90        0x0 c:/altera/12.1sp1/nios2eds/bin/gnu/h-i686-mingw32/bin/../lib/gcc/nios2-elf/4.1.2/../../../../nios2-elf/lib\libc.a(lib_a-reallocr.o)
 .bss           0x01012b90        0x0 c:/altera/12.1sp1/nios2eds/bin/gnu/h-i686-mingw32/bin/../lib/gcc/nios2-elf/4.1.2/../../../../nios2-elf/lib\libc.a(lib_a-sbrkr.o)
 .bss           0x01012b90        0x0 c:/altera/12.1sp1/nios2eds/bin/gnu/h-i686-mingw32/bin/../lib/gcc/nios2-elf/4.1.2/../../../../nios2-elf/lib\libc.a(lib_a-wsetup.o)
 .bss           0x01012b90        0x0 c:/altera/12.1sp1/nios2eds/bin/gnu/h-i686-mingw32/bin/../lib/gcc/nios2-elf/4.1.2/../../../../nios2-elf/lib\libc.a(lib_a-fflush.o)
 .bss           0x01012b90        0x0 c:/altera/12.1sp1/nios2eds/bin/gnu/h-i686-mingw32/bin/../lib/gcc/nios2-elf/4.1.2/../../../../nios2-elf/lib\libc.a(lib_a-findfp.o)
 .bss           0x01012b90        0x0 c:/altera/12.1sp1/nios2eds/bin/gnu/h-i686-mingw32/bin/../lib/gcc/nios2-elf/4.1.2/../../../../nios2-elf/lib\libc.a(lib_a-freer.o)
 .bss           0x01012b90        0x0 c:/altera/12.1sp1/nios2eds/bin/gnu/h-i686-mingw32/bin/../lib/gcc/nios2-elf/4.1.2/../../../../nios2-elf/lib\libc.a(lib_a-fwalk.o)
 .bss           0x01012b90        0x0 c:/altera/12.1sp1/nios2eds/bin/gnu/h-i686-mingw32/bin/../lib/gcc/nios2-elf/4.1.2/../../../../nios2-elf/lib\libc.a(lib_a-int_errno.o)
 .bss           0x01012b90        0x0 c:/altera/12.1sp1/nios2eds/bin/gnu/h-i686-mingw32/bin/../lib/gcc/nios2-elf/4.1.2/../../../../nios2-elf/lib\libc.a(lib_a-makebuf.o)
 .bss           0x01012b90        0x0 c:/altera/12.1sp1/nios2eds/bin/gnu/h-i686-mingw32/bin/../lib/gcc/nios2-elf/4.1.2/../../../../nios2-elf/lib\libc.a(lib_a-memset.o)
 .bss           0x01012b90        0x0 c:/altera/12.1sp1/nios2eds/bin/gnu/h-i686-mingw32/bin/../lib/gcc/nios2-elf/4.1.2/../../../../nios2-elf/lib\libc.a(lib_a-stdio.o)
 .bss           0x01012b90        0x0 c:/altera/12.1sp1/nios2eds/bin/gnu/h-i686-mingw32/bin/../lib/gcc/nios2-elf/4.1.2/../../../../nios2-elf/lib\libc.a(lib_a-writer.o)
 .bss           0x01012b90        0x0 c:/altera/12.1sp1/nios2eds/bin/gnu/h-i686-mingw32/bin/../lib/gcc/nios2-elf/4.1.2/../../../../nios2-elf/lib\libc.a(lib_a-closer.o)
 .bss           0x01012b90        0x0 c:/altera/12.1sp1/nios2eds/bin/gnu/h-i686-mingw32/bin/../lib/gcc/nios2-elf/4.1.2/../../../../nios2-elf/lib\libc.a(lib_a-fclose.o)
 .bss           0x01012b90        0x0 c:/altera/12.1sp1/nios2eds/bin/gnu/h-i686-mingw32/bin/../lib/gcc/nios2-elf/4.1.2/../../../../nios2-elf/lib\libc.a(lib_a-fstatr.o)
 .bss           0x01012b90        0x0 c:/altera/12.1sp1/nios2eds/bin/gnu/h-i686-mingw32/bin/../lib/gcc/nios2-elf/4.1.2/../../../../nios2-elf/lib\libc.a(lib_a-isattyr.o)
 .bss           0x01012b90        0x0 c:/altera/12.1sp1/nios2eds/bin/gnu/h-i686-mingw32/bin/../lib/gcc/nios2-elf/4.1.2/../../../../nios2-elf/lib\libc.a(lib_a-lseekr.o)
 .bss           0x01012b90        0x0 c:/altera/12.1sp1/nios2eds/bin/gnu/h-i686-mingw32/bin/../lib/gcc/nios2-elf/4.1.2/../../../../nios2-elf/lib\libc.a(lib_a-readr.o)
 .bss           0x01012b90        0x0 ../NanoTest_bsp/\libucosii_bsp.a(alt_close.o)
 .bss           0x01012b90        0x0 ../NanoTest_bsp/\libucosii_bsp.a(alt_dev.o)
 .bss           0x01012b90        0x0 ../NanoTest_bsp/\libucosii_bsp.a(alt_errno.o)
 .bss           0x01012b90        0x0 ../NanoTest_bsp/\libucosii_bsp.a(alt_fstat.o)
 .bss           0x01012b90        0x0 ../NanoTest_bsp/\libucosii_bsp.a(alt_isatty.o)
 .bss           0x01012b90        0x0 ../NanoTest_bsp/\libucosii_bsp.a(alt_load.o)
 .bss           0x01012b90        0x0 ../NanoTest_bsp/\libucosii_bsp.a(alt_lseek.o)
 .bss           0x01012b90        0x0 ../NanoTest_bsp/\libucosii_bsp.a(alt_main.o)
 .bss           0x01012b90        0x0 ../NanoTest_bsp/\libucosii_bsp.a(alt_read.o)
 .bss           0x01012b90        0x0 ../NanoTest_bsp/\libucosii_bsp.a(alt_release_fd.o)
 .bss           0x01012b90        0x0 ../NanoTest_bsp/\libucosii_bsp.a(alt_sbrk.o)
 .bss           0x01012b90        0x0 ../NanoTest_bsp/\libucosii_bsp.a(alt_write.o)
 .bss           0x01012b90        0x0 ../NanoTest_bsp/\libucosii_bsp.a(alt_env_lock.o)
 .bss           0x01012b90        0x0 ../NanoTest_bsp/\libucosii_bsp.a(alt_malloc_lock.o)
 .bss           0x01012b90        0x0 ../NanoTest_bsp/\libucosii_bsp.a(os_core.o)
 .bss           0x01012b90        0x0 ../NanoTest_bsp/\libucosii_bsp.a(os_dbg.o)
 .bss           0x01012b90        0x0 ../NanoTest_bsp/\libucosii_bsp.a(os_flag.o)
 .bss           0x01012b90        0x0 ../NanoTest_bsp/\libucosii_bsp.a(os_mem.o)
 .bss           0x01012b90        0x0 ../NanoTest_bsp/\libucosii_bsp.a(os_q.o)
 .bss           0x01012b90        0x0 ../NanoTest_bsp/\libucosii_bsp.a(os_sem.o)
 .bss           0x01012b90        0x0 ../NanoTest_bsp/\libucosii_bsp.a(os_task.o)
 .bss           0x01012b90        0x0 ../NanoTest_bsp/\libucosii_bsp.a(os_time.o)
 .bss           0x01012b90        0x0 ../NanoTest_bsp/\libucosii_bsp.a(alt_sys_init.o)
 .bss           0x01012b90        0x0 ../NanoTest_bsp/\libucosii_bsp.a(altera_avalon_jtag_uart_fd.o)
 .bss           0x01012b90        0x0 ../NanoTest_bsp/\libucosii_bsp.a(altera_avalon_jtag_uart_init.o)
 .bss           0x01012b90        0x0 ../NanoTest_bsp/\libucosii_bsp.a(altera_avalon_jtag_uart_ioctl.o)
 .bss           0x01012b90        0x0 ../NanoTest_bsp/\libucosii_bsp.a(altera_avalon_jtag_uart_read.o)
 .bss           0x01012b90        0x0 ../NanoTest_bsp/\libucosii_bsp.a(altera_avalon_jtag_uart_write.o)
 .bss           0x01012b90        0x0 ../NanoTest_bsp/\libucosii_bsp.a(altera_avalon_timer_sc.o)
 .bss           0x01012b90        0x0 ../NanoTest_bsp/\libucosii_bsp.a(altera_avalon_uart_fd.o)
 .bss           0x01012b90        0x0 ../NanoTest_bsp/\libucosii_bsp.a(altera_avalon_uart_init.o)
 .bss           0x01012b90        0x0 ../NanoTest_bsp/\libucosii_bsp.a(altera_avalon_uart_read.o)
 .bss           0x01012b90        0x0 ../NanoTest_bsp/\libucosii_bsp.a(altera_avalon_uart_write.o)
 .bss           0x01012b90        0x0 ../NanoTest_bsp/\libucosii_bsp.a(alt_alarm_start.o)
 .bss           0x01012b90        0x0 ../NanoTest_bsp/\libucosii_bsp.a(alt_dcache_flush_all.o)
 .bss           0x01012b90        0x0 ../NanoTest_bsp/\libucosii_bsp.a(alt_dev_llist_insert.o)
 .bss           0x01012b90        0x0 ../NanoTest_bsp/\libucosii_bsp.a(alt_do_ctors.o)
 .bss           0x01012b90        0x0 ../NanoTest_bsp/\libucosii_bsp.a(alt_do_dtors.o)
 .bss           0x01012b90        0x0 ../NanoTest_bsp/\libucosii_bsp.a(alt_icache_flush_all.o)
 .bss           0x01012b90        0x0 ../NanoTest_bsp/\libucosii_bsp.a(alt_iic.o)
 .bss           0x01012b90        0x0 ../NanoTest_bsp/\libucosii_bsp.a(alt_iic_isr_register.o)
 .bss           0x01012b90        0x0 ../NanoTest_bsp/\libucosii_bsp.a(alt_io_redirect.o)
 .bss           0x01012b90        0x0 ../NanoTest_bsp/\libucosii_bsp.a(alt_irq_entry.o)
 .bss           0x01012b90        0x0 ../NanoTest_bsp/\libucosii_bsp.a(alt_irq_handler.o)
 .bss           0x01012b90        0x0 ../NanoTest_bsp/\libucosii_bsp.a(alt_irq_vars.o)
 .bss           0x01012b90        0x0 ../NanoTest_bsp/\libucosii_bsp.a(alt_open.o)
 .bss           0x01012b90        0x0 ../NanoTest_bsp/\libucosii_bsp.a(alt_tick.o)
 .bss           0x01012b90        0x0 ../NanoTest_bsp/\libucosii_bsp.a(altera_nios2_qsys_irq.o)
 .bss           0x01012b90        0x0 ../NanoTest_bsp/\libucosii_bsp.a(os_cpu_a.o)
 .bss           0x01012b90        0x0 ../NanoTest_bsp/\libucosii_bsp.a(os_cpu_c.o)
 .bss           0x01012b90        0x0 ../NanoTest_bsp/\libucosii_bsp.a(alt_exception_entry.o)
 .bss           0x01012b90        0x0 ../NanoTest_bsp/\libucosii_bsp.a(alt_find_dev.o)
 .bss           0x01012b90        0x0 ../NanoTest_bsp/\libucosii_bsp.a(alt_find_file.o)
 .bss           0x01012b90        0x0 ../NanoTest_bsp/\libucosii_bsp.a(alt_get_fd.o)
 .bss           0x01012b90        0x0 ../NanoTest_bsp/\libucosii_bsp.a(alt_icache_flush.o)
 .bss           0x01012b90        0x0 c:/altera/12.1sp1/nios2eds/bin/gnu/h-i686-mingw32/bin/../lib/gcc/nios2-elf/4.1.2/../../../../nios2-elf/lib\libc.a(lib_a-atexit.o)
 .bss           0x01012b90        0x0 c:/altera/12.1sp1/nios2eds/bin/gnu/h-i686-mingw32/bin/../lib/gcc/nios2-elf/4.1.2/../../../../nios2-elf/lib\libc.a(lib_a-exit.o)
 .bss           0x01012b90        0x0 c:/altera/12.1sp1/nios2eds/bin/gnu/h-i686-mingw32/bin/../lib/gcc/nios2-elf/4.1.2/../../../../nios2-elf/lib\libc.a(lib_a-memcmp.o)
 .bss           0x01012b90        0x0 c:/altera/12.1sp1/nios2eds/bin/gnu/h-i686-mingw32/bin/../lib/gcc/nios2-elf/4.1.2/../../../../nios2-elf/lib\libc.a(lib_a-__atexit.o)
 .bss           0x01012b90        0x0 c:/altera/12.1sp1/nios2eds/bin/gnu/h-i686-mingw32/bin/../lib/gcc/nios2-elf/4.1.2/../../../../nios2-elf/lib\libc.a(lib_a-__call_atexit.o)
 .bss           0x01012b90        0x0 c:/altera/12.1sp1/nios2eds/bin/gnu/h-i686-mingw32/bin/../lib/gcc/nios2-elf/4.1.2\libgcc.a(lib2-divmod.o)
 .bss           0x01012b90        0x0 ../NanoTest_bsp/\libucosii_bsp.a(alt_exit.o)
 *(COMMON)
 COMMON         0x01012b90     0x4000 obj/default/hello_ucosii.o
                0x01012b90                task1_stk
                0x01014b90                task2_stk
 COMMON         0x01016b90     0x3224 ../NanoTest_bsp/\libucosii_bsp.a(os_core.o)
                0x01016b90                OSFlagTbl
                0x01016f00                OSMemTbl
                0x01017b30                OSTaskStatStk
                0x01018330                OSQTbl
                0x01018510                OSTaskIdleStk
                0x01018d10                OSEventTbl
                0x01019850                OSTCBTbl
                0x01019d60                OSTCBPrioTbl
 COMMON         0x01019db4      0x100 ../NanoTest_bsp/\libucosii_bsp.a(alt_irq_handler.o)
                0x01019db4                alt_irq
 COMMON         0x01019eb4      0x190 c:/altera/12.1sp1/nios2eds/bin/gnu/h-i686-mingw32/bin/../lib/gcc/nios2-elf/4.1.2/../../../../nios2-elf/lib\libc.a(lib_a-atexit.o)
                0x01019eb4                _atexit0
                0x0101a044                . = ALIGN (0x4)
                0x0101a044                __bss_end = ABSOLUTE (.)

.sdram          0x0101a044        0x0
                0x0101a044                PROVIDE (_alt_partition_sdram_start, ABSOLUTE (.))
 *(.sdram. sdram.*)
                0x0101a044                . = ALIGN (0x4)
                0x0101a044                PROVIDE (_alt_partition_sdram_end, ABSOLUTE (.))
                0x0101a044                _end = ABSOLUTE (.)
                0x0101a044                end = ABSOLUTE (.)
                0x0101a044                __alt_stack_base = ABSOLUTE (.)
                0x0101a044                PROVIDE (_alt_partition_sdram_load_addr, LOADADDR (.sdram))

.stab
 *(.stab)

.stabstr
 *(.stabstr)

.stab.excl
 *(.stab.excl)

.stab.exclstr
 *(.stab.exclstr)

.stab.index
 *(.stab.index)

.stab.indexstr
 *(.stab.indexstr)

.comment        0x00000000       0x26
 *(.comment)
 .comment       0x00000000       0x26 obj/default/hello_ucosii.o
                                 0x27 (size before relaxing)
 .comment       0x00000000       0x27 c:/altera/12.1sp1/nios2eds/bin/gnu/h-i686-mingw32/bin/../lib/gcc/nios2-elf/4.1.2/../../../../nios2-elf/lib\libc.a(lib_a-puts.o)
 .comment       0x00000000       0x27 c:/altera/12.1sp1/nios2eds/bin/gnu/h-i686-mingw32/bin/../lib/gcc/nios2-elf/4.1.2/../../../../nios2-elf/lib\libc.a(lib_a-strlen.o)
 .comment       0x00000000       0x27 c:/altera/12.1sp1/nios2eds/bin/gnu/h-i686-mingw32/bin/../lib/gcc/nios2-elf/4.1.2/../../../../nios2-elf/lib\libc.a(lib_a-fvwrite.o)
 .comment       0x00000000       0x27 c:/altera/12.1sp1/nios2eds/bin/gnu/h-i686-mingw32/bin/../lib/gcc/nios2-elf/4.1.2/../../../../nios2-elf/lib\libc.a(lib_a-impure.o)
 .comment       0x00000000       0x27 c:/altera/12.1sp1/nios2eds/bin/gnu/h-i686-mingw32/bin/../lib/gcc/nios2-elf/4.1.2/../../../../nios2-elf/lib\libc.a(lib_a-mallocr.o)
 .comment       0x00000000       0x27 c:/altera/12.1sp1/nios2eds/bin/gnu/h-i686-mingw32/bin/../lib/gcc/nios2-elf/4.1.2/../../../../nios2-elf/lib\libc.a(lib_a-memchr.o)
 .comment       0x00000000       0x27 c:/altera/12.1sp1/nios2eds/bin/gnu/h-i686-mingw32/bin/../lib/gcc/nios2-elf/4.1.2/../../../../nios2-elf/lib\libc.a(lib_a-memcpy.o)
 .comment       0x00000000       0x27 c:/altera/12.1sp1/nios2eds/bin/gnu/h-i686-mingw32/bin/../lib/gcc/nios2-elf/4.1.2/../../../../nios2-elf/lib\libc.a(lib_a-memmove.o)
 .comment       0x00000000       0x27 c:/altera/12.1sp1/nios2eds/bin/gnu/h-i686-mingw32/bin/../lib/gcc/nios2-elf/4.1.2/../../../../nios2-elf/lib\libc.a(lib_a-reallocr.o)
 .comment       0x00000000       0x27 c:/altera/12.1sp1/nios2eds/bin/gnu/h-i686-mingw32/bin/../lib/gcc/nios2-elf/4.1.2/../../../../nios2-elf/lib\libc.a(lib_a-sbrkr.o)
 .comment       0x00000000       0x27 c:/altera/12.1sp1/nios2eds/bin/gnu/h-i686-mingw32/bin/../lib/gcc/nios2-elf/4.1.2/../../../../nios2-elf/lib\libc.a(lib_a-wsetup.o)
 .comment       0x00000000       0x27 c:/altera/12.1sp1/nios2eds/bin/gnu/h-i686-mingw32/bin/../lib/gcc/nios2-elf/4.1.2/../../../../nios2-elf/lib\libc.a(lib_a-fflush.o)
 .comment       0x00000000       0x27 c:/altera/12.1sp1/nios2eds/bin/gnu/h-i686-mingw32/bin/../lib/gcc/nios2-elf/4.1.2/../../../../nios2-elf/lib\libc.a(lib_a-findfp.o)
 .comment       0x00000000       0x27 c:/altera/12.1sp1/nios2eds/bin/gnu/h-i686-mingw32/bin/../lib/gcc/nios2-elf/4.1.2/../../../../nios2-elf/lib\libc.a(lib_a-freer.o)
 .comment       0x00000000       0x27 c:/altera/12.1sp1/nios2eds/bin/gnu/h-i686-mingw32/bin/../lib/gcc/nios2-elf/4.1.2/../../../../nios2-elf/lib\libc.a(lib_a-fwalk.o)
 .comment       0x00000000       0x27 c:/altera/12.1sp1/nios2eds/bin/gnu/h-i686-mingw32/bin/../lib/gcc/nios2-elf/4.1.2/../../../../nios2-elf/lib\libc.a(lib_a-int_errno.o)
 .comment       0x00000000       0x27 c:/altera/12.1sp1/nios2eds/bin/gnu/h-i686-mingw32/bin/../lib/gcc/nios2-elf/4.1.2/../../../../nios2-elf/lib\libc.a(lib_a-makebuf.o)
 .comment       0x00000000       0x27 c:/altera/12.1sp1/nios2eds/bin/gnu/h-i686-mingw32/bin/../lib/gcc/nios2-elf/4.1.2/../../../../nios2-elf/lib\libc.a(lib_a-memset.o)
 .comment       0x00000000       0x27 c:/altera/12.1sp1/nios2eds/bin/gnu/h-i686-mingw32/bin/../lib/gcc/nios2-elf/4.1.2/../../../../nios2-elf/lib\libc.a(lib_a-stdio.o)
 .comment       0x00000000       0x27 c:/altera/12.1sp1/nios2eds/bin/gnu/h-i686-mingw32/bin/../lib/gcc/nios2-elf/4.1.2/../../../../nios2-elf/lib\libc.a(lib_a-writer.o)
 .comment       0x00000000       0x27 c:/altera/12.1sp1/nios2eds/bin/gnu/h-i686-mingw32/bin/../lib/gcc/nios2-elf/4.1.2/../../../../nios2-elf/lib\libc.a(lib_a-closer.o)
 .comment       0x00000000       0x27 c:/altera/12.1sp1/nios2eds/bin/gnu/h-i686-mingw32/bin/../lib/gcc/nios2-elf/4.1.2/../../../../nios2-elf/lib\libc.a(lib_a-fclose.o)
 .comment       0x00000000       0x27 c:/altera/12.1sp1/nios2eds/bin/gnu/h-i686-mingw32/bin/../lib/gcc/nios2-elf/4.1.2/../../../../nios2-elf/lib\libc.a(lib_a-fstatr.o)
 .comment       0x00000000       0x27 c:/altera/12.1sp1/nios2eds/bin/gnu/h-i686-mingw32/bin/../lib/gcc/nios2-elf/4.1.2/../../../../nios2-elf/lib\libc.a(lib_a-isattyr.o)
 .comment       0x00000000       0x27 c:/altera/12.1sp1/nios2eds/bin/gnu/h-i686-mingw32/bin/../lib/gcc/nios2-elf/4.1.2/../../../../nios2-elf/lib\libc.a(lib_a-lseekr.o)
 .comment       0x00000000       0x27 c:/altera/12.1sp1/nios2eds/bin/gnu/h-i686-mingw32/bin/../lib/gcc/nios2-elf/4.1.2/../../../../nios2-elf/lib\libc.a(lib_a-readr.o)
 .comment       0x00000000       0x27 ../NanoTest_bsp/\libucosii_bsp.a(alt_close.o)
 .comment       0x00000000       0x27 ../NanoTest_bsp/\libucosii_bsp.a(alt_dev.o)
 .comment       0x00000000       0x27 ../NanoTest_bsp/\libucosii_bsp.a(alt_errno.o)
 .comment       0x00000000       0x27 ../NanoTest_bsp/\libucosii_bsp.a(alt_fstat.o)
 .comment       0x00000000       0x27 ../NanoTest_bsp/\libucosii_bsp.a(alt_isatty.o)
 .comment       0x00000000       0x27 ../NanoTest_bsp/\libucosii_bsp.a(alt_load.o)
 .comment       0x00000000       0x27 ../NanoTest_bsp/\libucosii_bsp.a(alt_lseek.o)
 .comment       0x00000000       0x27 ../NanoTest_bsp/\libucosii_bsp.a(alt_main.o)
 .comment       0x00000000       0x27 ../NanoTest_bsp/\libucosii_bsp.a(alt_read.o)
 .comment       0x00000000       0x27 ../NanoTest_bsp/\libucosii_bsp.a(alt_release_fd.o)
 .comment       0x00000000       0x27 ../NanoTest_bsp/\libucosii_bsp.a(alt_sbrk.o)
 .comment       0x00000000       0x27 ../NanoTest_bsp/\libucosii_bsp.a(alt_write.o)
 .comment       0x00000000       0x27 ../NanoTest_bsp/\libucosii_bsp.a(alt_env_lock.o)
 .comment       0x00000000       0x27 ../NanoTest_bsp/\libucosii_bsp.a(alt_malloc_lock.o)
 .comment       0x00000000       0x27 ../NanoTest_bsp/\libucosii_bsp.a(os_core.o)
 .comment       0x00000000       0x27 ../NanoTest_bsp/\libucosii_bsp.a(os_dbg.o)
 .comment       0x00000000       0x27 ../NanoTest_bsp/\libucosii_bsp.a(os_flag.o)
 .comment       0x00000000       0x27 ../NanoTest_bsp/\libucosii_bsp.a(os_mem.o)
 .comment       0x00000000       0x27 ../NanoTest_bsp/\libucosii_bsp.a(os_q.o)
 .comment       0x00000000       0x27 ../NanoTest_bsp/\libucosii_bsp.a(os_sem.o)
 .comment       0x00000000       0x27 ../NanoTest_bsp/\libucosii_bsp.a(os_task.o)
 .comment       0x00000000       0x27 ../NanoTest_bsp/\libucosii_bsp.a(os_time.o)
 .comment       0x00000000       0x27 ../NanoTest_bsp/\libucosii_bsp.a(alt_sys_init.o)
 .comment       0x00000000       0x27 ../NanoTest_bsp/\libucosii_bsp.a(altera_avalon_jtag_uart_fd.o)
 .comment       0x00000000       0x27 ../NanoTest_bsp/\libucosii_bsp.a(altera_avalon_jtag_uart_init.o)
 .comment       0x00000000       0x27 ../NanoTest_bsp/\libucosii_bsp.a(altera_avalon_jtag_uart_ioctl.o)
 .comment       0x00000000       0x27 ../NanoTest_bsp/\libucosii_bsp.a(altera_avalon_jtag_uart_read.o)
 .comment       0x00000000       0x27 ../NanoTest_bsp/\libucosii_bsp.a(altera_avalon_jtag_uart_write.o)
 .comment       0x00000000       0x27 ../NanoTest_bsp/\libucosii_bsp.a(altera_avalon_timer_sc.o)
 .comment       0x00000000       0x27 ../NanoTest_bsp/\libucosii_bsp.a(altera_avalon_uart_fd.o)
 .comment       0x00000000       0x27 ../NanoTest_bsp/\libucosii_bsp.a(altera_avalon_uart_init.o)
 .comment       0x00000000       0x27 ../NanoTest_bsp/\libucosii_bsp.a(altera_avalon_uart_read.o)
 .comment       0x00000000       0x27 ../NanoTest_bsp/\libucosii_bsp.a(altera_avalon_uart_write.o)
 .comment       0x00000000       0x27 ../NanoTest_bsp/\libucosii_bsp.a(alt_alarm_start.o)
 .comment       0x00000000       0x27 ../NanoTest_bsp/\libucosii_bsp.a(alt_dcache_flush_all.o)
 .comment       0x00000000       0x27 ../NanoTest_bsp/\libucosii_bsp.a(alt_dev_llist_insert.o)
 .comment       0x00000000       0x27 ../NanoTest_bsp/\libucosii_bsp.a(alt_do_ctors.o)
 .comment       0x00000000       0x27 ../NanoTest_bsp/\libucosii_bsp.a(alt_do_dtors.o)
 .comment       0x00000000       0x27 ../NanoTest_bsp/\libucosii_bsp.a(alt_icache_flush_all.o)
 .comment       0x00000000       0x27 ../NanoTest_bsp/\libucosii_bsp.a(alt_iic.o)
 .comment       0x00000000       0x27 ../NanoTest_bsp/\libucosii_bsp.a(alt_iic_isr_register.o)
 .comment       0x00000000       0x27 ../NanoTest_bsp/\libucosii_bsp.a(alt_io_redirect.o)
 .comment       0x00000000       0x27 ../NanoTest_bsp/\libucosii_bsp.a(alt_irq_handler.o)
 .comment       0x00000000       0x27 ../NanoTest_bsp/\libucosii_bsp.a(alt_irq_vars.o)
 .comment       0x00000000       0x27 ../NanoTest_bsp/\libucosii_bsp.a(alt_open.o)
 .comment       0x00000000       0x27 ../NanoTest_bsp/\libucosii_bsp.a(alt_tick.o)
 .comment       0x00000000       0x27 ../NanoTest_bsp/\libucosii_bsp.a(altera_nios2_qsys_irq.o)
 .comment       0x00000000       0x27 ../NanoTest_bsp/\libucosii_bsp.a(os_cpu_c.o)
 .comment       0x00000000       0x27 ../NanoTest_bsp/\libucosii_bsp.a(alt_find_dev.o)
 .comment       0x00000000       0x27 ../NanoTest_bsp/\libucosii_bsp.a(alt_find_file.o)
 .comment       0x00000000       0x27 ../NanoTest_bsp/\libucosii_bsp.a(alt_get_fd.o)
 .comment       0x00000000       0x27 ../NanoTest_bsp/\libucosii_bsp.a(alt_icache_flush.o)
 .comment       0x00000000       0x27 c:/altera/12.1sp1/nios2eds/bin/gnu/h-i686-mingw32/bin/../lib/gcc/nios2-elf/4.1.2/../../../../nios2-elf/lib\libc.a(lib_a-atexit.o)
 .comment       0x00000000       0x27 c:/altera/12.1sp1/nios2eds/bin/gnu/h-i686-mingw32/bin/../lib/gcc/nios2-elf/4.1.2/../../../../nios2-elf/lib\libc.a(lib_a-exit.o)
 .comment       0x00000000       0x27 c:/altera/12.1sp1/nios2eds/bin/gnu/h-i686-mingw32/bin/../lib/gcc/nios2-elf/4.1.2/../../../../nios2-elf/lib\libc.a(lib_a-memcmp.o)
 .comment       0x00000000       0x27 c:/altera/12.1sp1/nios2eds/bin/gnu/h-i686-mingw32/bin/../lib/gcc/nios2-elf/4.1.2/../../../../nios2-elf/lib\libc.a(lib_a-__atexit.o)
 .comment       0x00000000       0x27 c:/altera/12.1sp1/nios2eds/bin/gnu/h-i686-mingw32/bin/../lib/gcc/nios2-elf/4.1.2/../../../../nios2-elf/lib\libc.a(lib_a-__call_atexit.o)
 .comment       0x00000000       0x27 c:/altera/12.1sp1/nios2eds/bin/gnu/h-i686-mingw32/bin/../lib/gcc/nios2-elf/4.1.2\libgcc.a(lib2-divmod.o)
 .comment       0x00000000       0x27 ../NanoTest_bsp/\libucosii_bsp.a(alt_exit.o)

.debug
 *(.debug)

.line
 *(.line)

.debug_srcinfo
 *(.debug_srcinfo)

.debug_sfnames
 *(.debug_sfnames)

.debug_aranges  0x00000000      0xaf8
 *(.debug_aranges)
 .debug_aranges
                0x00000000       0x28 ../NanoTest_bsp//obj/HAL/src/crt0.o
 .debug_aranges
                0x00000028       0x20 obj/default/hello_ucosii.o
 .debug_aranges
                0x00000048       0x20 c:/altera/12.1sp1/nios2eds/bin/gnu/h-i686-mingw32/bin/../lib/gcc/nios2-elf/4.1.2/../../../../nios2-elf/lib\libc.a(lib_a-puts.o)
 .debug_aranges
                0x00000068       0x20 c:/altera/12.1sp1/nios2eds/bin/gnu/h-i686-mingw32/bin/../lib/gcc/nios2-elf/4.1.2/../../../../nios2-elf/lib\libc.a(lib_a-strlen.o)
 .debug_aranges
                0x00000088       0x20 c:/altera/12.1sp1/nios2eds/bin/gnu/h-i686-mingw32/bin/../lib/gcc/nios2-elf/4.1.2/../../../../nios2-elf/lib\libc.a(lib_a-fvwrite.o)
 .debug_aranges
                0x000000a8       0x20 c:/altera/12.1sp1/nios2eds/bin/gnu/h-i686-mingw32/bin/../lib/gcc/nios2-elf/4.1.2/../../../../nios2-elf/lib\libc.a(lib_a-mallocr.o)
 .debug_aranges
                0x000000c8       0x20 c:/altera/12.1sp1/nios2eds/bin/gnu/h-i686-mingw32/bin/../lib/gcc/nios2-elf/4.1.2/../../../../nios2-elf/lib\libc.a(lib_a-memchr.o)
 .debug_aranges
                0x000000e8       0x20 c:/altera/12.1sp1/nios2eds/bin/gnu/h-i686-mingw32/bin/../lib/gcc/nios2-elf/4.1.2/../../../../nios2-elf/lib\libc.a(lib_a-memcpy.o)
 .debug_aranges
                0x00000108       0x20 c:/altera/12.1sp1/nios2eds/bin/gnu/h-i686-mingw32/bin/../lib/gcc/nios2-elf/4.1.2/../../../../nios2-elf/lib\libc.a(lib_a-memmove.o)
 .debug_aranges
                0x00000128       0x20 c:/altera/12.1sp1/nios2eds/bin/gnu/h-i686-mingw32/bin/../lib/gcc/nios2-elf/4.1.2/../../../../nios2-elf/lib\libc.a(lib_a-reallocr.o)
 .debug_aranges
                0x00000148       0x20 c:/altera/12.1sp1/nios2eds/bin/gnu/h-i686-mingw32/bin/../lib/gcc/nios2-elf/4.1.2/../../../../nios2-elf/lib\libc.a(lib_a-sbrkr.o)
 .debug_aranges
                0x00000168       0x20 c:/altera/12.1sp1/nios2eds/bin/gnu/h-i686-mingw32/bin/../lib/gcc/nios2-elf/4.1.2/../../../../nios2-elf/lib\libc.a(lib_a-wsetup.o)
 .debug_aranges
                0x00000188       0x20 c:/altera/12.1sp1/nios2eds/bin/gnu/h-i686-mingw32/bin/../lib/gcc/nios2-elf/4.1.2/../../../../nios2-elf/lib\libc.a(lib_a-fflush.o)
 .debug_aranges
                0x000001a8       0x20 c:/altera/12.1sp1/nios2eds/bin/gnu/h-i686-mingw32/bin/../lib/gcc/nios2-elf/4.1.2/../../../../nios2-elf/lib\libc.a(lib_a-findfp.o)
 .debug_aranges
                0x000001c8       0x20 c:/altera/12.1sp1/nios2eds/bin/gnu/h-i686-mingw32/bin/../lib/gcc/nios2-elf/4.1.2/../../../../nios2-elf/lib\libc.a(lib_a-freer.o)
 .debug_aranges
                0x000001e8       0x20 c:/altera/12.1sp1/nios2eds/bin/gnu/h-i686-mingw32/bin/../lib/gcc/nios2-elf/4.1.2/../../../../nios2-elf/lib\libc.a(lib_a-fwalk.o)
 .debug_aranges
                0x00000208       0x20 c:/altera/12.1sp1/nios2eds/bin/gnu/h-i686-mingw32/bin/../lib/gcc/nios2-elf/4.1.2/../../../../nios2-elf/lib\libc.a(lib_a-makebuf.o)
 .debug_aranges
                0x00000228       0x20 c:/altera/12.1sp1/nios2eds/bin/gnu/h-i686-mingw32/bin/../lib/gcc/nios2-elf/4.1.2/../../../../nios2-elf/lib\libc.a(lib_a-memset.o)
 .debug_aranges
                0x00000248       0x20 c:/altera/12.1sp1/nios2eds/bin/gnu/h-i686-mingw32/bin/../lib/gcc/nios2-elf/4.1.2/../../../../nios2-elf/lib\libc.a(lib_a-stdio.o)
 .debug_aranges
                0x00000268       0x20 c:/altera/12.1sp1/nios2eds/bin/gnu/h-i686-mingw32/bin/../lib/gcc/nios2-elf/4.1.2/../../../../nios2-elf/lib\libc.a(lib_a-writer.o)
 .debug_aranges
                0x00000288       0x20 c:/altera/12.1sp1/nios2eds/bin/gnu/h-i686-mingw32/bin/../lib/gcc/nios2-elf/4.1.2/../../../../nios2-elf/lib\libc.a(lib_a-closer.o)
 .debug_aranges
                0x000002a8       0x20 c:/altera/12.1sp1/nios2eds/bin/gnu/h-i686-mingw32/bin/../lib/gcc/nios2-elf/4.1.2/../../../../nios2-elf/lib\libc.a(lib_a-fclose.o)
 .debug_aranges
                0x000002c8       0x20 c:/altera/12.1sp1/nios2eds/bin/gnu/h-i686-mingw32/bin/../lib/gcc/nios2-elf/4.1.2/../../../../nios2-elf/lib\libc.a(lib_a-fstatr.o)
 .debug_aranges
                0x000002e8       0x20 c:/altera/12.1sp1/nios2eds/bin/gnu/h-i686-mingw32/bin/../lib/gcc/nios2-elf/4.1.2/../../../../nios2-elf/lib\libc.a(lib_a-isattyr.o)
 .debug_aranges
                0x00000308       0x20 c:/altera/12.1sp1/nios2eds/bin/gnu/h-i686-mingw32/bin/../lib/gcc/nios2-elf/4.1.2/../../../../nios2-elf/lib\libc.a(lib_a-lseekr.o)
 .debug_aranges
                0x00000328       0x20 c:/altera/12.1sp1/nios2eds/bin/gnu/h-i686-mingw32/bin/../lib/gcc/nios2-elf/4.1.2/../../../../nios2-elf/lib\libc.a(lib_a-readr.o)
 .debug_aranges
                0x00000348       0x20 ../NanoTest_bsp/\libucosii_bsp.a(alt_close.o)
 .debug_aranges
                0x00000368       0x20 ../NanoTest_bsp/\libucosii_bsp.a(alt_dev.o)
 .debug_aranges
                0x00000388       0x20 ../NanoTest_bsp/\libucosii_bsp.a(alt_fstat.o)
 .debug_aranges
                0x000003a8       0x20 ../NanoTest_bsp/\libucosii_bsp.a(alt_isatty.o)
 .debug_aranges
                0x000003c8       0x20 ../NanoTest_bsp/\libucosii_bsp.a(alt_load.o)
 .debug_aranges
                0x000003e8       0x20 ../NanoTest_bsp/\libucosii_bsp.a(alt_lseek.o)
 .debug_aranges
                0x00000408       0x20 ../NanoTest_bsp/\libucosii_bsp.a(alt_main.o)
 .debug_aranges
                0x00000428       0x20 ../NanoTest_bsp/\libucosii_bsp.a(alt_read.o)
 .debug_aranges
                0x00000448       0x20 ../NanoTest_bsp/\libucosii_bsp.a(alt_release_fd.o)
 .debug_aranges
                0x00000468       0x20 ../NanoTest_bsp/\libucosii_bsp.a(alt_sbrk.o)
 .debug_aranges
                0x00000488       0x20 ../NanoTest_bsp/\libucosii_bsp.a(alt_write.o)
 .debug_aranges
                0x000004a8       0x20 ../NanoTest_bsp/\libucosii_bsp.a(alt_env_lock.o)
 .debug_aranges
                0x000004c8       0x20 ../NanoTest_bsp/\libucosii_bsp.a(alt_malloc_lock.o)
 .debug_aranges
                0x000004e8       0x20 ../NanoTest_bsp/\libucosii_bsp.a(os_core.o)
 .debug_aranges
                0x00000508       0x20 ../NanoTest_bsp/\libucosii_bsp.a(os_dbg.o)
 .debug_aranges
                0x00000528       0x20 ../NanoTest_bsp/\libucosii_bsp.a(os_flag.o)
 .debug_aranges
                0x00000548       0x20 ../NanoTest_bsp/\libucosii_bsp.a(os_mem.o)
 .debug_aranges
                0x00000568       0x20 ../NanoTest_bsp/\libucosii_bsp.a(os_q.o)
 .debug_aranges
                0x00000588       0x20 ../NanoTest_bsp/\libucosii_bsp.a(os_sem.o)
 .debug_aranges
                0x000005a8       0x20 ../NanoTest_bsp/\libucosii_bsp.a(os_task.o)
 .debug_aranges
                0x000005c8       0x20 ../NanoTest_bsp/\libucosii_bsp.a(os_time.o)
 .debug_aranges
                0x000005e8       0x20 ../NanoTest_bsp/\libucosii_bsp.a(alt_sys_init.o)
 .debug_aranges
                0x00000608       0x20 ../NanoTest_bsp/\libucosii_bsp.a(altera_avalon_jtag_uart_fd.o)
 .debug_aranges
                0x00000628       0x20 ../NanoTest_bsp/\libucosii_bsp.a(altera_avalon_jtag_uart_init.o)
 .debug_aranges
                0x00000648       0x20 ../NanoTest_bsp/\libucosii_bsp.a(altera_avalon_jtag_uart_ioctl.o)
 .debug_aranges
                0x00000668       0x20 ../NanoTest_bsp/\libucosii_bsp.a(altera_avalon_jtag_uart_read.o)
 .debug_aranges
                0x00000688       0x20 ../NanoTest_bsp/\libucosii_bsp.a(altera_avalon_jtag_uart_write.o)
 .debug_aranges
                0x000006a8       0x20 ../NanoTest_bsp/\libucosii_bsp.a(altera_avalon_timer_sc.o)
 .debug_aranges
                0x000006c8       0x20 ../NanoTest_bsp/\libucosii_bsp.a(altera_avalon_uart_fd.o)
 .debug_aranges
                0x000006e8       0x20 ../NanoTest_bsp/\libucosii_bsp.a(altera_avalon_uart_init.o)
 .debug_aranges
                0x00000708       0x20 ../NanoTest_bsp/\libucosii_bsp.a(altera_avalon_uart_read.o)
 .debug_aranges
                0x00000728       0x20 ../NanoTest_bsp/\libucosii_bsp.a(altera_avalon_uart_write.o)
 .debug_aranges
                0x00000748       0x20 ../NanoTest_bsp/\libucosii_bsp.a(alt_alarm_start.o)
 .debug_aranges
                0x00000768       0x20 ../NanoTest_bsp/\libucosii_bsp.a(alt_dcache_flush_all.o)
 .debug_aranges
                0x00000788       0x20 ../NanoTest_bsp/\libucosii_bsp.a(alt_dev_llist_insert.o)
 .debug_aranges
                0x000007a8       0x20 ../NanoTest_bsp/\libucosii_bsp.a(alt_do_ctors.o)
 .debug_aranges
                0x000007c8       0x20 ../NanoTest_bsp/\libucosii_bsp.a(alt_do_dtors.o)
 .debug_aranges
                0x000007e8       0x20 ../NanoTest_bsp/\libucosii_bsp.a(alt_icache_flush_all.o)
 .debug_aranges
                0x00000808       0x20 ../NanoTest_bsp/\libucosii_bsp.a(alt_iic.o)
 .debug_aranges
                0x00000828       0x20 ../NanoTest_bsp/\libucosii_bsp.a(alt_iic_isr_register.o)
 .debug_aranges
                0x00000848       0x20 ../NanoTest_bsp/\libucosii_bsp.a(alt_io_redirect.o)
 .debug_aranges
                0x00000868       0x30 ../NanoTest_bsp/\libucosii_bsp.a(alt_irq_entry.o)
 .debug_aranges
                0x00000898       0x28 ../NanoTest_bsp/\libucosii_bsp.a(alt_irq_handler.o)
 .debug_aranges
                0x000008c0       0x20 ../NanoTest_bsp/\libucosii_bsp.a(alt_open.o)
 .debug_aranges
                0x000008e0       0x20 ../NanoTest_bsp/\libucosii_bsp.a(alt_tick.o)
 .debug_aranges
                0x00000900       0x20 ../NanoTest_bsp/\libucosii_bsp.a(altera_nios2_qsys_irq.o)
 .debug_aranges
                0x00000920       0x20 ../NanoTest_bsp/\libucosii_bsp.a(os_cpu_a.o)
 .debug_aranges
                0x00000940       0x20 ../NanoTest_bsp/\libucosii_bsp.a(os_cpu_c.o)
 .debug_aranges
                0x00000960       0x38 ../NanoTest_bsp/\libucosii_bsp.a(alt_exception_entry.o)
 .debug_aranges
                0x00000998       0x20 ../NanoTest_bsp/\libucosii_bsp.a(alt_find_dev.o)
 .debug_aranges
                0x000009b8       0x20 ../NanoTest_bsp/\libucosii_bsp.a(alt_find_file.o)
 .debug_aranges
                0x000009d8       0x20 ../NanoTest_bsp/\libucosii_bsp.a(alt_get_fd.o)
 .debug_aranges
                0x000009f8       0x20 ../NanoTest_bsp/\libucosii_bsp.a(alt_icache_flush.o)
 .debug_aranges
                0x00000a18       0x20 c:/altera/12.1sp1/nios2eds/bin/gnu/h-i686-mingw32/bin/../lib/gcc/nios2-elf/4.1.2/../../../../nios2-elf/lib\libc.a(lib_a-atexit.o)
 .debug_aranges
                0x00000a38       0x20 c:/altera/12.1sp1/nios2eds/bin/gnu/h-i686-mingw32/bin/../lib/gcc/nios2-elf/4.1.2/../../../../nios2-elf/lib\libc.a(lib_a-exit.o)
 .debug_aranges
                0x00000a58       0x20 c:/altera/12.1sp1/nios2eds/bin/gnu/h-i686-mingw32/bin/../lib/gcc/nios2-elf/4.1.2/../../../../nios2-elf/lib\libc.a(lib_a-memcmp.o)
 .debug_aranges
                0x00000a78       0x20 c:/altera/12.1sp1/nios2eds/bin/gnu/h-i686-mingw32/bin/../lib/gcc/nios2-elf/4.1.2/../../../../nios2-elf/lib\libc.a(lib_a-__atexit.o)
 .debug_aranges
                0x00000a98       0x20 c:/altera/12.1sp1/nios2eds/bin/gnu/h-i686-mingw32/bin/../lib/gcc/nios2-elf/4.1.2/../../../../nios2-elf/lib\libc.a(lib_a-__call_atexit.o)
 .debug_aranges
                0x00000ab8       0x20 c:/altera/12.1sp1/nios2eds/bin/gnu/h-i686-mingw32/bin/../lib/gcc/nios2-elf/4.1.2\libgcc.a(lib2-divmod.o)
 .debug_aranges
                0x00000ad8       0x20 ../NanoTest_bsp/\libucosii_bsp.a(alt_exit.o)

.debug_pubnames
                0x00000000     0x1b98
 *(.debug_pubnames)
 .debug_pubnames
                0x00000000       0x4b obj/default/hello_ucosii.o
 .debug_pubnames
                0x0000004b       0x27 c:/altera/12.1sp1/nios2eds/bin/gnu/h-i686-mingw32/bin/../lib/gcc/nios2-elf/4.1.2/../../../../nios2-elf/lib\libc.a(lib_a-puts.o)
 .debug_pubnames
                0x00000072       0x1d c:/altera/12.1sp1/nios2eds/bin/gnu/h-i686-mingw32/bin/../lib/gcc/nios2-elf/4.1.2/../../../../nios2-elf/lib\libc.a(lib_a-strlen.o)
 .debug_pubnames
                0x0000008f       0x23 c:/altera/12.1sp1/nios2eds/bin/gnu/h-i686-mingw32/bin/../lib/gcc/nios2-elf/4.1.2/../../../../nios2-elf/lib\libc.a(lib_a-fvwrite.o)
 .debug_pubnames
                0x000000b2       0x39 c:/altera/12.1sp1/nios2eds/bin/gnu/h-i686-mingw32/bin/../lib/gcc/nios2-elf/4.1.2/../../../../nios2-elf/lib\libc.a(lib_a-impure.o)
 .debug_pubnames
                0x000000eb       0xce c:/altera/12.1sp1/nios2eds/bin/gnu/h-i686-mingw32/bin/../lib/gcc/nios2-elf/4.1.2/../../../../nios2-elf/lib\libc.a(lib_a-mallocr.o)
 .debug_pubnames
                0x000001b9       0x1d c:/altera/12.1sp1/nios2eds/bin/gnu/h-i686-mingw32/bin/../lib/gcc/nios2-elf/4.1.2/../../../../nios2-elf/lib\libc.a(lib_a-memchr.o)
 .debug_pubnames
                0x000001d6       0x1d c:/altera/12.1sp1/nios2eds/bin/gnu/h-i686-mingw32/bin/../lib/gcc/nios2-elf/4.1.2/../../../../nios2-elf/lib\libc.a(lib_a-memcpy.o)
 .debug_pubnames
                0x000001f3       0x1e c:/altera/12.1sp1/nios2eds/bin/gnu/h-i686-mingw32/bin/../lib/gcc/nios2-elf/4.1.2/../../../../nios2-elf/lib\libc.a(lib_a-memmove.o)
 .debug_pubnames
                0x00000211       0x21 c:/altera/12.1sp1/nios2eds/bin/gnu/h-i686-mingw32/bin/../lib/gcc/nios2-elf/4.1.2/../../../../nios2-elf/lib\libc.a(lib_a-reallocr.o)
 .debug_pubnames
                0x00000232       0x1e c:/altera/12.1sp1/nios2eds/bin/gnu/h-i686-mingw32/bin/../lib/gcc/nios2-elf/4.1.2/../../../../nios2-elf/lib\libc.a(lib_a-sbrkr.o)
 .debug_pubnames
                0x00000250       0x22 c:/altera/12.1sp1/nios2eds/bin/gnu/h-i686-mingw32/bin/../lib/gcc/nios2-elf/4.1.2/../../../../nios2-elf/lib\libc.a(lib_a-wsetup.o)
 .debug_pubnames
                0x00000272       0x2b c:/altera/12.1sp1/nios2eds/bin/gnu/h-i686-mingw32/bin/../lib/gcc/nios2-elf/4.1.2/../../../../nios2-elf/lib\libc.a(lib_a-fflush.o)
 .debug_pubnames
                0x0000029d       0xdb c:/altera/12.1sp1/nios2eds/bin/gnu/h-i686-mingw32/bin/../lib/gcc/nios2-elf/4.1.2/../../../../nios2-elf/lib\libc.a(lib_a-findfp.o)
 .debug_pubnames
                0x00000378       0x31 c:/altera/12.1sp1/nios2eds/bin/gnu/h-i686-mingw32/bin/../lib/gcc/nios2-elf/4.1.2/../../../../nios2-elf/lib\libc.a(lib_a-freer.o)
 .debug_pubnames
                0x000003a9       0x2e c:/altera/12.1sp1/nios2eds/bin/gnu/h-i686-mingw32/bin/../lib/gcc/nios2-elf/4.1.2/../../../../nios2-elf/lib\libc.a(lib_a-fwalk.o)
 .debug_pubnames
                0x000003d7       0x1c c:/altera/12.1sp1/nios2eds/bin/gnu/h-i686-mingw32/bin/../lib/gcc/nios2-elf/4.1.2/../../../../nios2-elf/lib\libc.a(lib_a-int_errno.o)
 .debug_pubnames
                0x000003f3       0x23 c:/altera/12.1sp1/nios2eds/bin/gnu/h-i686-mingw32/bin/../lib/gcc/nios2-elf/4.1.2/../../../../nios2-elf/lib\libc.a(lib_a-makebuf.o)
 .debug_pubnames
                0x00000416       0x1d c:/altera/12.1sp1/nios2eds/bin/gnu/h-i686-mingw32/bin/../lib/gcc/nios2-elf/4.1.2/../../../../nios2-elf/lib\libc.a(lib_a-memset.o)
 .debug_pubnames
                0x00000433       0x44 c:/altera/12.1sp1/nios2eds/bin/gnu/h-i686-mingw32/bin/../lib/gcc/nios2-elf/4.1.2/../../../../nios2-elf/lib\libc.a(lib_a-stdio.o)
 .debug_pubnames
                0x00000477       0x1f c:/altera/12.1sp1/nios2eds/bin/gnu/h-i686-mingw32/bin/../lib/gcc/nios2-elf/4.1.2/../../../../nios2-elf/lib\libc.a(lib_a-writer.o)
 .debug_pubnames
                0x00000496       0x1f c:/altera/12.1sp1/nios2eds/bin/gnu/h-i686-mingw32/bin/../lib/gcc/nios2-elf/4.1.2/../../../../nios2-elf/lib\libc.a(lib_a-closer.o)
 .debug_pubnames
                0x000004b5       0x2b c:/altera/12.1sp1/nios2eds/bin/gnu/h-i686-mingw32/bin/../lib/gcc/nios2-elf/4.1.2/../../../../nios2-elf/lib\libc.a(lib_a-fclose.o)
 .debug_pubnames
                0x000004e0       0x1f c:/altera/12.1sp1/nios2eds/bin/gnu/h-i686-mingw32/bin/../lib/gcc/nios2-elf/4.1.2/../../../../nios2-elf/lib\libc.a(lib_a-fstatr.o)
 .debug_pubnames
                0x000004ff       0x20 c:/altera/12.1sp1/nios2eds/bin/gnu/h-i686-mingw32/bin/../lib/gcc/nios2-elf/4.1.2/../../../../nios2-elf/lib\libc.a(lib_a-isattyr.o)
 .debug_pubnames
                0x0000051f       0x1f c:/altera/12.1sp1/nios2eds/bin/gnu/h-i686-mingw32/bin/../lib/gcc/nios2-elf/4.1.2/../../../../nios2-elf/lib\libc.a(lib_a-lseekr.o)
 .debug_pubnames
                0x0000053e       0x1e c:/altera/12.1sp1/nios2eds/bin/gnu/h-i686-mingw32/bin/../lib/gcc/nios2-elf/4.1.2/../../../../nios2-elf/lib\libc.a(lib_a-readr.o)
 .debug_pubnames
                0x0000055c       0x1c ../NanoTest_bsp/\libucosii_bsp.a(alt_close.o)
 .debug_pubnames
                0x00000578       0x78 ../NanoTest_bsp/\libucosii_bsp.a(alt_dev.o)
 .debug_pubnames
                0x000005f0       0x20 ../NanoTest_bsp/\libucosii_bsp.a(alt_errno.o)
 .debug_pubnames
                0x00000610       0x1c ../NanoTest_bsp/\libucosii_bsp.a(alt_fstat.o)
 .debug_pubnames
                0x0000062c       0x1d ../NanoTest_bsp/\libucosii_bsp.a(alt_isatty.o)
 .debug_pubnames
                0x00000649       0x1f ../NanoTest_bsp/\libucosii_bsp.a(alt_load.o)
 .debug_pubnames
                0x00000668       0x1c ../NanoTest_bsp/\libucosii_bsp.a(alt_lseek.o)
 .debug_pubnames
                0x00000684       0x46 ../NanoTest_bsp/\libucosii_bsp.a(alt_main.o)
 .debug_pubnames
                0x000006ca       0x1b ../NanoTest_bsp/\libucosii_bsp.a(alt_read.o)
 .debug_pubnames
                0x000006e5       0x25 ../NanoTest_bsp/\libucosii_bsp.a(alt_release_fd.o)
 .debug_pubnames
                0x0000070a       0x1b ../NanoTest_bsp/\libucosii_bsp.a(alt_sbrk.o)
 .debug_pubnames
                0x00000725       0x1c ../NanoTest_bsp/\libucosii_bsp.a(alt_write.o)
 .debug_pubnames
                0x00000741       0x41 ../NanoTest_bsp/\libucosii_bsp.a(alt_env_lock.o)
 .debug_pubnames
                0x00000782       0x48 ../NanoTest_bsp/\libucosii_bsp.a(alt_malloc_lock.o)
 .debug_pubnames
                0x000007ca      0x3f8 ../NanoTest_bsp/\libucosii_bsp.a(os_core.o)
 .debug_pubnames
                0x00000bc2      0x3c5 ../NanoTest_bsp/\libucosii_bsp.a(os_dbg.o)
 .debug_pubnames
                0x00000f87       0xd0 ../NanoTest_bsp/\libucosii_bsp.a(os_flag.o)
 .debug_pubnames
                0x00001057       0x7c ../NanoTest_bsp/\libucosii_bsp.a(os_mem.o)
 .debug_pubnames
                0x000010d3       0xa9 ../NanoTest_bsp/\libucosii_bsp.a(os_q.o)
 .debug_pubnames
                0x0000117c       0x8a ../NanoTest_bsp/\libucosii_bsp.a(os_sem.o)
 .debug_pubnames
                0x00001206       0xe5 ../NanoTest_bsp/\libucosii_bsp.a(os_task.o)
 .debug_pubnames
                0x000012eb       0x62 ../NanoTest_bsp/\libucosii_bsp.a(os_time.o)
 .debug_pubnames
                0x0000134d       0x34 ../NanoTest_bsp/\libucosii_bsp.a(alt_sys_init.o)
 .debug_pubnames
                0x00001381       0xa5 ../NanoTest_bsp/\libucosii_bsp.a(altera_avalon_jtag_uart_fd.o)
 .debug_pubnames
                0x00001426       0x55 ../NanoTest_bsp/\libucosii_bsp.a(altera_avalon_jtag_uart_init.o)
 .debug_pubnames
                0x0000147b       0x34 ../NanoTest_bsp/\libucosii_bsp.a(altera_avalon_jtag_uart_ioctl.o)
 .debug_pubnames
                0x000014af       0x33 ../NanoTest_bsp/\libucosii_bsp.a(altera_avalon_jtag_uart_read.o)
 .debug_pubnames
                0x000014e2       0x34 ../NanoTest_bsp/\libucosii_bsp.a(altera_avalon_jtag_uart_write.o)
 .debug_pubnames
                0x00001516       0x2f ../NanoTest_bsp/\libucosii_bsp.a(altera_avalon_timer_sc.o)
 .debug_pubnames
                0x00001545       0x71 ../NanoTest_bsp/\libucosii_bsp.a(altera_avalon_uart_fd.o)
 .debug_pubnames
                0x000015b6       0x4b ../NanoTest_bsp/\libucosii_bsp.a(altera_avalon_uart_init.o)
 .debug_pubnames
                0x00001601       0x2e ../NanoTest_bsp/\libucosii_bsp.a(altera_avalon_uart_read.o)
 .debug_pubnames
                0x0000162f       0x2f ../NanoTest_bsp/\libucosii_bsp.a(altera_avalon_uart_write.o)
 .debug_pubnames
                0x0000165e       0x26 ../NanoTest_bsp/\libucosii_bsp.a(alt_alarm_start.o)
 .debug_pubnames
                0x00001684       0x2b ../NanoTest_bsp/\libucosii_bsp.a(alt_dcache_flush_all.o)
 .debug_pubnames
                0x000016af       0x2b ../NanoTest_bsp/\libucosii_bsp.a(alt_dev_llist_insert.o)
 .debug_pubnames
                0x000016da       0x20 ../NanoTest_bsp/\libucosii_bsp.a(alt_do_ctors.o)
 .debug_pubnames
                0x000016fa       0x20 ../NanoTest_bsp/\libucosii_bsp.a(alt_do_dtors.o)
 .debug_pubnames
                0x0000171a       0x2b ../NanoTest_bsp/\libucosii_bsp.a(alt_icache_flush_all.o)
 .debug_pubnames
                0x00001745       0x6e ../NanoTest_bsp/\libucosii_bsp.a(alt_iic.o)
 .debug_pubnames
                0x000017b3       0x2b ../NanoTest_bsp/\libucosii_bsp.a(alt_iic_isr_register.o)
 .debug_pubnames
                0x000017de       0x26 ../NanoTest_bsp/\libucosii_bsp.a(alt_io_redirect.o)
 .debug_pubnames
                0x00001804       0x32 ../NanoTest_bsp/\libucosii_bsp.a(alt_irq_handler.o)
 .debug_pubnames
                0x00001836       0x3b ../NanoTest_bsp/\libucosii_bsp.a(alt_irq_vars.o)
 .debug_pubnames
                0x00001871       0x1b ../NanoTest_bsp/\libucosii_bsp.a(alt_open.o)
 .debug_pubnames
                0x0000188c       0x68 ../NanoTest_bsp/\libucosii_bsp.a(alt_tick.o)
 .debug_pubnames
                0x000018f4       0x31 ../NanoTest_bsp/\libucosii_bsp.a(altera_nios2_qsys_irq.o)
 .debug_pubnames
                0x00001925       0xcd ../NanoTest_bsp/\libucosii_bsp.a(os_cpu_c.o)
 .debug_pubnames
                0x000019f2       0x23 ../NanoTest_bsp/\libucosii_bsp.a(alt_find_dev.o)
 .debug_pubnames
                0x00001a15       0x24 ../NanoTest_bsp/\libucosii_bsp.a(alt_find_file.o)
 .debug_pubnames
                0x00001a39       0x21 ../NanoTest_bsp/\libucosii_bsp.a(alt_get_fd.o)
 .debug_pubnames
                0x00001a5a       0x27 ../NanoTest_bsp/\libucosii_bsp.a(alt_icache_flush.o)
 .debug_pubnames
                0x00001a81       0x2a c:/altera/12.1sp1/nios2eds/bin/gnu/h-i686-mingw32/bin/../lib/gcc/nios2-elf/4.1.2/../../../../nios2-elf/lib\libc.a(lib_a-atexit.o)
 .debug_pubnames
                0x00001aab       0x1b c:/altera/12.1sp1/nios2eds/bin/gnu/h-i686-mingw32/bin/../lib/gcc/nios2-elf/4.1.2/../../../../nios2-elf/lib\libc.a(lib_a-exit.o)
 .debug_pubnames
                0x00001ac6       0x1d c:/altera/12.1sp1/nios2eds/bin/gnu/h-i686-mingw32/bin/../lib/gcc/nios2-elf/4.1.2/../../../../nios2-elf/lib\libc.a(lib_a-memcmp.o)
 .debug_pubnames
                0x00001ae3       0x2a c:/altera/12.1sp1/nios2eds/bin/gnu/h-i686-mingw32/bin/../lib/gcc/nios2-elf/4.1.2/../../../../nios2-elf/lib\libc.a(lib_a-__atexit.o)
 .debug_pubnames
                0x00001b0d       0x27 c:/altera/12.1sp1/nios2eds/bin/gnu/h-i686-mingw32/bin/../lib/gcc/nios2-elf/4.1.2/../../../../nios2-elf/lib\libc.a(lib_a-__call_atexit.o)
 .debug_pubnames
                0x00001b34       0x48 c:/altera/12.1sp1/nios2eds/bin/gnu/h-i686-mingw32/bin/../lib/gcc/nios2-elf/4.1.2\libgcc.a(lib2-divmod.o)
 .debug_pubnames
                0x00001b7c       0x1c ../NanoTest_bsp/\libucosii_bsp.a(alt_exit.o)

.debug_info     0x00000000    0x28019
 *(.debug_info .gnu.linkonce.wi.*)
 .debug_info    0x00000000       0x6b ../NanoTest_bsp//obj/HAL/src/crt0.o
 .debug_info    0x0000006b      0x229 obj/default/hello_ucosii.o
 .debug_info    0x00000294      0xa25 c:/altera/12.1sp1/nios2eds/bin/gnu/h-i686-mingw32/bin/../lib/gcc/nios2-elf/4.1.2/../../../../nios2-elf/lib\libc.a(lib_a-puts.o)
 .debug_info    0x00000cb9       0xdb c:/altera/12.1sp1/nios2eds/bin/gnu/h-i686-mingw32/bin/../lib/gcc/nios2-elf/4.1.2/../../../../nios2-elf/lib\libc.a(lib_a-strlen.o)
 .debug_info    0x00000d94      0xa88 c:/altera/12.1sp1/nios2eds/bin/gnu/h-i686-mingw32/bin/../lib/gcc/nios2-elf/4.1.2/../../../../nios2-elf/lib\libc.a(lib_a-fvwrite.o)
 .debug_info    0x0000181c      0x93d c:/altera/12.1sp1/nios2eds/bin/gnu/h-i686-mingw32/bin/../lib/gcc/nios2-elf/4.1.2/../../../../nios2-elf/lib\libc.a(lib_a-impure.o)
 .debug_info    0x00002159      0xcd0 c:/altera/12.1sp1/nios2eds/bin/gnu/h-i686-mingw32/bin/../lib/gcc/nios2-elf/4.1.2/../../../../nios2-elf/lib\libc.a(lib_a-mallocr.o)
 .debug_info    0x00002e29      0x138 c:/altera/12.1sp1/nios2eds/bin/gnu/h-i686-mingw32/bin/../lib/gcc/nios2-elf/4.1.2/../../../../nios2-elf/lib\libc.a(lib_a-memchr.o)
 .debug_info    0x00002f61      0x106 c:/altera/12.1sp1/nios2eds/bin/gnu/h-i686-mingw32/bin/../lib/gcc/nios2-elf/4.1.2/../../../../nios2-elf/lib\libc.a(lib_a-memcpy.o)
 .debug_info    0x00003067      0x13e c:/altera/12.1sp1/nios2eds/bin/gnu/h-i686-mingw32/bin/../lib/gcc/nios2-elf/4.1.2/../../../../nios2-elf/lib\libc.a(lib_a-memmove.o)
 .debug_info    0x000031a5      0xbd7 c:/altera/12.1sp1/nios2eds/bin/gnu/h-i686-mingw32/bin/../lib/gcc/nios2-elf/4.1.2/../../../../nios2-elf/lib\libc.a(lib_a-reallocr.o)
 .debug_info    0x00003d7c      0x962 c:/altera/12.1sp1/nios2eds/bin/gnu/h-i686-mingw32/bin/../lib/gcc/nios2-elf/4.1.2/../../../../nios2-elf/lib\libc.a(lib_a-sbrkr.o)
 .debug_info    0x000046de      0x95d c:/altera/12.1sp1/nios2eds/bin/gnu/h-i686-mingw32/bin/../lib/gcc/nios2-elf/4.1.2/../../../../nios2-elf/lib\libc.a(lib_a-wsetup.o)
 .debug_info    0x0000503b      0x9fe c:/altera/12.1sp1/nios2eds/bin/gnu/h-i686-mingw32/bin/../lib/gcc/nios2-elf/4.1.2/../../../../nios2-elf/lib\libc.a(lib_a-fflush.o)
 .debug_info    0x00005a39      0xb72 c:/altera/12.1sp1/nios2eds/bin/gnu/h-i686-mingw32/bin/../lib/gcc/nios2-elf/4.1.2/../../../../nios2-elf/lib\libc.a(lib_a-findfp.o)
 .debug_info    0x000065ab      0xbc9 c:/altera/12.1sp1/nios2eds/bin/gnu/h-i686-mingw32/bin/../lib/gcc/nios2-elf/4.1.2/../../../../nios2-elf/lib\libc.a(lib_a-freer.o)
 .debug_info    0x00007174      0xaed c:/altera/12.1sp1/nios2eds/bin/gnu/h-i686-mingw32/bin/../lib/gcc/nios2-elf/4.1.2/../../../../nios2-elf/lib\libc.a(lib_a-fwalk.o)
 .debug_info    0x00007c61       0x8c c:/altera/12.1sp1/nios2eds/bin/gnu/h-i686-mingw32/bin/../lib/gcc/nios2-elf/4.1.2/../../../../nios2-elf/lib\libc.a(lib_a-int_errno.o)
 .debug_info    0x00007ced      0xb1a c:/altera/12.1sp1/nios2eds/bin/gnu/h-i686-mingw32/bin/../lib/gcc/nios2-elf/4.1.2/../../../../nios2-elf/lib\libc.a(lib_a-makebuf.o)
 .debug_info    0x00008807      0x113 c:/altera/12.1sp1/nios2eds/bin/gnu/h-i686-mingw32/bin/../lib/gcc/nios2-elf/4.1.2/../../../../nios2-elf/lib\libc.a(lib_a-memset.o)
 .debug_info    0x0000891a      0xaac c:/altera/12.1sp1/nios2eds/bin/gnu/h-i686-mingw32/bin/../lib/gcc/nios2-elf/4.1.2/../../../../nios2-elf/lib\libc.a(lib_a-stdio.o)
 .debug_info    0x000093c6      0x993 c:/altera/12.1sp1/nios2eds/bin/gnu/h-i686-mingw32/bin/../lib/gcc/nios2-elf/4.1.2/../../../../nios2-elf/lib\libc.a(lib_a-writer.o)
 .debug_info    0x00009d59      0x958 c:/altera/12.1sp1/nios2eds/bin/gnu/h-i686-mingw32/bin/../lib/gcc/nios2-elf/4.1.2/../../../../nios2-elf/lib\libc.a(lib_a-closer.o)
 .debug_info    0x0000a6b1      0x994 c:/altera/12.1sp1/nios2eds/bin/gnu/h-i686-mingw32/bin/../lib/gcc/nios2-elf/4.1.2/../../../../nios2-elf/lib\libc.a(lib_a-fclose.o)
 .debug_info    0x0000b045      0xafc c:/altera/12.1sp1/nios2eds/bin/gnu/h-i686-mingw32/bin/../lib/gcc/nios2-elf/4.1.2/../../../../nios2-elf/lib\libc.a(lib_a-fstatr.o)
 .debug_info    0x0000bb41      0x958 c:/altera/12.1sp1/nios2eds/bin/gnu/h-i686-mingw32/bin/../lib/gcc/nios2-elf/4.1.2/../../../../nios2-elf/lib\libc.a(lib_a-isattyr.o)
 .debug_info    0x0000c499      0x981 c:/altera/12.1sp1/nios2eds/bin/gnu/h-i686-mingw32/bin/../lib/gcc/nios2-elf/4.1.2/../../../../nios2-elf/lib\libc.a(lib_a-lseekr.o)
 .debug_info    0x0000ce1a      0x98c c:/altera/12.1sp1/nios2eds/bin/gnu/h-i686-mingw32/bin/../lib/gcc/nios2-elf/4.1.2/../../../../nios2-elf/lib\libc.a(lib_a-readr.o)
 .debug_info    0x0000d7a6      0x4ab ../NanoTest_bsp/\libucosii_bsp.a(alt_close.o)
 .debug_info    0x0000dc51      0x7cd ../NanoTest_bsp/\libucosii_bsp.a(alt_dev.o)
 .debug_info    0x0000e41e      0x154 ../NanoTest_bsp/\libucosii_bsp.a(alt_errno.o)
 .debug_info    0x0000e572      0x6a4 ../NanoTest_bsp/\libucosii_bsp.a(alt_fstat.o)
 .debug_info    0x0000ec16      0x6aa ../NanoTest_bsp/\libucosii_bsp.a(alt_isatty.o)
 .debug_info    0x0000f2c0      0x27d ../NanoTest_bsp/\libucosii_bsp.a(alt_load.o)
 .debug_info    0x0000f53d      0x4de ../NanoTest_bsp/\libucosii_bsp.a(alt_lseek.o)
 .debug_info    0x0000fa1b      0x3cd ../NanoTest_bsp/\libucosii_bsp.a(alt_main.o)
 .debug_info    0x0000fde8      0x6ce ../NanoTest_bsp/\libucosii_bsp.a(alt_read.o)
 .debug_info    0x000104b6      0x43f ../NanoTest_bsp/\libucosii_bsp.a(alt_release_fd.o)
 .debug_info    0x000108f5      0x2a7 ../NanoTest_bsp/\libucosii_bsp.a(alt_sbrk.o)
 .debug_info    0x00010b9c      0x6d7 ../NanoTest_bsp/\libucosii_bsp.a(alt_write.o)
 .debug_info    0x00011273     0x11c3 ../NanoTest_bsp/\libucosii_bsp.a(alt_env_lock.o)
 .debug_info    0x00012436     0x131f ../NanoTest_bsp/\libucosii_bsp.a(alt_malloc_lock.o)
 .debug_info    0x00013755     0x1bd9 ../NanoTest_bsp/\libucosii_bsp.a(os_core.o)
 .debug_info    0x0001532e     0x111e ../NanoTest_bsp/\libucosii_bsp.a(os_dbg.o)
 .debug_info    0x0001644c     0x1234 ../NanoTest_bsp/\libucosii_bsp.a(os_flag.o)
 .debug_info    0x00017680      0x7fe ../NanoTest_bsp/\libucosii_bsp.a(os_mem.o)
 .debug_info    0x00017e7e     0x106e ../NanoTest_bsp/\libucosii_bsp.a(os_q.o)
 .debug_info    0x00018eec      0xcd6 ../NanoTest_bsp/\libucosii_bsp.a(os_sem.o)
 .debug_info    0x00019bc2     0x134c ../NanoTest_bsp/\libucosii_bsp.a(os_task.o)
 .debug_info    0x0001af0e      0x9d0 ../NanoTest_bsp/\libucosii_bsp.a(os_time.o)
 .debug_info    0x0001b8de      0xa89 ../NanoTest_bsp/\libucosii_bsp.a(alt_sys_init.o)
 .debug_info    0x0001c367      0x9c2 ../NanoTest_bsp/\libucosii_bsp.a(altera_avalon_jtag_uart_fd.o)
 .debug_info    0x0001cd29      0x940 ../NanoTest_bsp/\libucosii_bsp.a(altera_avalon_jtag_uart_init.o)
 .debug_info    0x0001d669      0x62c ../NanoTest_bsp/\libucosii_bsp.a(altera_avalon_jtag_uart_ioctl.o)
 .debug_info    0x0001dc95      0x7e8 ../NanoTest_bsp/\libucosii_bsp.a(altera_avalon_jtag_uart_read.o)
 .debug_info    0x0001e47d      0x7df ../NanoTest_bsp/\libucosii_bsp.a(altera_avalon_jtag_uart_write.o)
 .debug_info    0x0001ec5c      0x37b ../NanoTest_bsp/\libucosii_bsp.a(altera_avalon_timer_sc.o)
 .debug_info    0x0001efd7      0x862 ../NanoTest_bsp/\libucosii_bsp.a(altera_avalon_uart_fd.o)
 .debug_info    0x0001f839      0x82e ../NanoTest_bsp/\libucosii_bsp.a(altera_avalon_uart_init.o)
 .debug_info    0x00020067      0x7b0 ../NanoTest_bsp/\libucosii_bsp.a(altera_avalon_uart_read.o)
 .debug_info    0x00020817      0x79f ../NanoTest_bsp/\libucosii_bsp.a(altera_avalon_uart_write.o)
 .debug_info    0x00020fb6      0x432 ../NanoTest_bsp/\libucosii_bsp.a(alt_alarm_start.o)
 .debug_info    0x000213e8      0x15f ../NanoTest_bsp/\libucosii_bsp.a(alt_dcache_flush_all.o)
 .debug_info    0x00021547      0x2a7 ../NanoTest_bsp/\libucosii_bsp.a(alt_dev_llist_insert.o)
 .debug_info    0x000217ee       0xff ../NanoTest_bsp/\libucosii_bsp.a(alt_do_ctors.o)
 .debug_info    0x000218ed       0xfe ../NanoTest_bsp/\libucosii_bsp.a(alt_do_dtors.o)
 .debug_info    0x000219eb      0x14c ../NanoTest_bsp/\libucosii_bsp.a(alt_icache_flush_all.o)
 .debug_info    0x00021b37      0x483 ../NanoTest_bsp/\libucosii_bsp.a(alt_iic.o)
 .debug_info    0x00021fba      0x304 ../NanoTest_bsp/\libucosii_bsp.a(alt_iic_isr_register.o)
 .debug_info    0x000222be      0x6d9 ../NanoTest_bsp/\libucosii_bsp.a(alt_io_redirect.o)
 .debug_info    0x00022997       0x74 ../NanoTest_bsp/\libucosii_bsp.a(alt_irq_entry.o)
 .debug_info    0x00022a0b      0x2aa ../NanoTest_bsp/\libucosii_bsp.a(alt_irq_handler.o)
 .debug_info    0x00022cb5      0x157 ../NanoTest_bsp/\libucosii_bsp.a(alt_irq_vars.o)
 .debug_info    0x00022e0c      0x55a ../NanoTest_bsp/\libucosii_bsp.a(alt_open.o)
 .debug_info    0x00023366      0x401 ../NanoTest_bsp/\libucosii_bsp.a(alt_tick.o)
 .debug_info    0x00023767      0x153 ../NanoTest_bsp/\libucosii_bsp.a(altera_nios2_qsys_irq.o)
 .debug_info    0x000238ba       0x73 ../NanoTest_bsp/\libucosii_bsp.a(os_cpu_a.o)
 .debug_info    0x0002392d     0x12c3 ../NanoTest_bsp/\libucosii_bsp.a(os_cpu_c.o)
 .debug_info    0x00024bf0       0x7a ../NanoTest_bsp/\libucosii_bsp.a(alt_exception_entry.o)
 .debug_info    0x00024c6a      0x45c ../NanoTest_bsp/\libucosii_bsp.a(alt_find_dev.o)
 .debug_info    0x000250c6      0x463 ../NanoTest_bsp/\libucosii_bsp.a(alt_find_file.o)
 .debug_info    0x00025529      0x5f5 ../NanoTest_bsp/\libucosii_bsp.a(alt_get_fd.o)
 .debug_info    0x00025b1e      0x194 ../NanoTest_bsp/\libucosii_bsp.a(alt_icache_flush.o)
 .debug_info    0x00025cb2      0x181 c:/altera/12.1sp1/nios2eds/bin/gnu/h-i686-mingw32/bin/../lib/gcc/nios2-elf/4.1.2/../../../../nios2-elf/lib\libc.a(lib_a-atexit.o)
 .debug_info    0x00025e33      0x93f c:/altera/12.1sp1/nios2eds/bin/gnu/h-i686-mingw32/bin/../lib/gcc/nios2-elf/4.1.2/../../../../nios2-elf/lib\libc.a(lib_a-exit.o)
 .debug_info    0x00026772      0x115 c:/altera/12.1sp1/nios2eds/bin/gnu/h-i686-mingw32/bin/../lib/gcc/nios2-elf/4.1.2/../../../../nios2-elf/lib\libc.a(lib_a-memcmp.o)
 .debug_info    0x00026887      0x99c c:/altera/12.1sp1/nios2eds/bin/gnu/h-i686-mingw32/bin/../lib/gcc/nios2-elf/4.1.2/../../../../nios2-elf/lib\libc.a(lib_a-__atexit.o)
 .debug_info    0x00027223      0x9e2 c:/altera/12.1sp1/nios2eds/bin/gnu/h-i686-mingw32/bin/../lib/gcc/nios2-elf/4.1.2/../../../../nios2-elf/lib\libc.a(lib_a-__call_atexit.o)
 .debug_info    0x00027c05      0x21c c:/altera/12.1sp1/nios2eds/bin/gnu/h-i686-mingw32/bin/../lib/gcc/nios2-elf/4.1.2\libgcc.a(lib2-divmod.o)
 .debug_info    0x00027e21      0x1f8 ../NanoTest_bsp/\libucosii_bsp.a(alt_exit.o)

.debug_abbrev   0x00000000     0x6f76
 *(.debug_abbrev)
 .debug_abbrev  0x00000000       0x12 ../NanoTest_bsp//obj/HAL/src/crt0.o
 .debug_abbrev  0x00000012       0xb6 obj/default/hello_ucosii.o
 .debug_abbrev  0x000000c8      0x1ac c:/altera/12.1sp1/nios2eds/bin/gnu/h-i686-mingw32/bin/../lib/gcc/nios2-elf/4.1.2/../../../../nios2-elf/lib\libc.a(lib_a-puts.o)
 .debug_abbrev  0x00000274       0x8b c:/altera/12.1sp1/nios2eds/bin/gnu/h-i686-mingw32/bin/../lib/gcc/nios2-elf/4.1.2/../../../../nios2-elf/lib\libc.a(lib_a-strlen.o)
 .debug_abbrev  0x000002ff      0x1a3 c:/altera/12.1sp1/nios2eds/bin/gnu/h-i686-mingw32/bin/../lib/gcc/nios2-elf/4.1.2/../../../../nios2-elf/lib\libc.a(lib_a-fvwrite.o)
 .debug_abbrev  0x000004a2      0x157 c:/altera/12.1sp1/nios2eds/bin/gnu/h-i686-mingw32/bin/../lib/gcc/nios2-elf/4.1.2/../../../../nios2-elf/lib\libc.a(lib_a-impure.o)
 .debug_abbrev  0x000005f9      0x216 c:/altera/12.1sp1/nios2eds/bin/gnu/h-i686-mingw32/bin/../lib/gcc/nios2-elf/4.1.2/../../../../nios2-elf/lib\libc.a(lib_a-mallocr.o)
 .debug_abbrev  0x0000080f       0xb5 c:/altera/12.1sp1/nios2eds/bin/gnu/h-i686-mingw32/bin/../lib/gcc/nios2-elf/4.1.2/../../../../nios2-elf/lib\libc.a(lib_a-memchr.o)
 .debug_abbrev  0x000008c4       0xb5 c:/altera/12.1sp1/nios2eds/bin/gnu/h-i686-mingw32/bin/../lib/gcc/nios2-elf/4.1.2/../../../../nios2-elf/lib\libc.a(lib_a-memcpy.o)
 .debug_abbrev  0x00000979       0xb5 c:/altera/12.1sp1/nios2eds/bin/gnu/h-i686-mingw32/bin/../lib/gcc/nios2-elf/4.1.2/../../../../nios2-elf/lib\libc.a(lib_a-memmove.o)
 .debug_abbrev  0x00000a2e      0x1c3 c:/altera/12.1sp1/nios2eds/bin/gnu/h-i686-mingw32/bin/../lib/gcc/nios2-elf/4.1.2/../../../../nios2-elf/lib\libc.a(lib_a-reallocr.o)
 .debug_abbrev  0x00000bf1      0x18c c:/altera/12.1sp1/nios2eds/bin/gnu/h-i686-mingw32/bin/../lib/gcc/nios2-elf/4.1.2/../../../../nios2-elf/lib\libc.a(lib_a-sbrkr.o)
 .debug_abbrev  0x00000d7d      0x170 c:/altera/12.1sp1/nios2eds/bin/gnu/h-i686-mingw32/bin/../lib/gcc/nios2-elf/4.1.2/../../../../nios2-elf/lib\libc.a(lib_a-wsetup.o)
 .debug_abbrev  0x00000eed      0x1c6 c:/altera/12.1sp1/nios2eds/bin/gnu/h-i686-mingw32/bin/../lib/gcc/nios2-elf/4.1.2/../../../../nios2-elf/lib\libc.a(lib_a-fflush.o)
 .debug_abbrev  0x000010b3      0x24c c:/altera/12.1sp1/nios2eds/bin/gnu/h-i686-mingw32/bin/../lib/gcc/nios2-elf/4.1.2/../../../../nios2-elf/lib\libc.a(lib_a-findfp.o)
 .debug_abbrev  0x000012ff      0x1d9 c:/altera/12.1sp1/nios2eds/bin/gnu/h-i686-mingw32/bin/../lib/gcc/nios2-elf/4.1.2/../../../../nios2-elf/lib\libc.a(lib_a-freer.o)
 .debug_abbrev  0x000014d8      0x1e3 c:/altera/12.1sp1/nios2eds/bin/gnu/h-i686-mingw32/bin/../lib/gcc/nios2-elf/4.1.2/../../../../nios2-elf/lib\libc.a(lib_a-fwalk.o)
 .debug_abbrev  0x000016bb       0x3b c:/altera/12.1sp1/nios2eds/bin/gnu/h-i686-mingw32/bin/../lib/gcc/nios2-elf/4.1.2/../../../../nios2-elf/lib\libc.a(lib_a-int_errno.o)
 .debug_abbrev  0x000016f6      0x197 c:/altera/12.1sp1/nios2eds/bin/gnu/h-i686-mingw32/bin/../lib/gcc/nios2-elf/4.1.2/../../../../nios2-elf/lib\libc.a(lib_a-makebuf.o)
 .debug_abbrev  0x0000188d       0xb8 c:/altera/12.1sp1/nios2eds/bin/gnu/h-i686-mingw32/bin/../lib/gcc/nios2-elf/4.1.2/../../../../nios2-elf/lib\libc.a(lib_a-memset.o)
 .debug_abbrev  0x00001945      0x1c9 c:/altera/12.1sp1/nios2eds/bin/gnu/h-i686-mingw32/bin/../lib/gcc/nios2-elf/4.1.2/../../../../nios2-elf/lib\libc.a(lib_a-stdio.o)
 .debug_abbrev  0x00001b0e      0x184 c:/altera/12.1sp1/nios2eds/bin/gnu/h-i686-mingw32/bin/../lib/gcc/nios2-elf/4.1.2/../../../../nios2-elf/lib\libc.a(lib_a-writer.o)
 .debug_abbrev  0x00001c92      0x17f c:/altera/12.1sp1/nios2eds/bin/gnu/h-i686-mingw32/bin/../lib/gcc/nios2-elf/4.1.2/../../../../nios2-elf/lib\libc.a(lib_a-closer.o)
 .debug_abbrev  0x00001e11      0x1a7 c:/altera/12.1sp1/nios2eds/bin/gnu/h-i686-mingw32/bin/../lib/gcc/nios2-elf/4.1.2/../../../../nios2-elf/lib\libc.a(lib_a-fclose.o)
 .debug_abbrev  0x00001fb8      0x18e c:/altera/12.1sp1/nios2eds/bin/gnu/h-i686-mingw32/bin/../lib/gcc/nios2-elf/4.1.2/../../../../nios2-elf/lib\libc.a(lib_a-fstatr.o)
 .debug_abbrev  0x00002146      0x17f c:/altera/12.1sp1/nios2eds/bin/gnu/h-i686-mingw32/bin/../lib/gcc/nios2-elf/4.1.2/../../../../nios2-elf/lib\libc.a(lib_a-isattyr.o)
 .debug_abbrev  0x000022c5      0x18e c:/altera/12.1sp1/nios2eds/bin/gnu/h-i686-mingw32/bin/../lib/gcc/nios2-elf/4.1.2/../../../../nios2-elf/lib\libc.a(lib_a-lseekr.o)
 .debug_abbrev  0x00002453      0x17f c:/altera/12.1sp1/nios2eds/bin/gnu/h-i686-mingw32/bin/../lib/gcc/nios2-elf/4.1.2/../../../../nios2-elf/lib\libc.a(lib_a-readr.o)
 .debug_abbrev  0x000025d2      0x102 ../NanoTest_bsp/\libucosii_bsp.a(alt_close.o)
 .debug_abbrev  0x000026d4      0x10a ../NanoTest_bsp/\libucosii_bsp.a(alt_dev.o)
 .debug_abbrev  0x000027de       0x5e ../NanoTest_bsp/\libucosii_bsp.a(alt_errno.o)
 .debug_abbrev  0x0000283c      0x102 ../NanoTest_bsp/\libucosii_bsp.a(alt_fstat.o)
 .debug_abbrev  0x0000293e      0x102 ../NanoTest_bsp/\libucosii_bsp.a(alt_isatty.o)
 .debug_abbrev  0x00002a40       0x88 ../NanoTest_bsp/\libucosii_bsp.a(alt_load.o)
 .debug_abbrev  0x00002ac8      0x102 ../NanoTest_bsp/\libucosii_bsp.a(alt_lseek.o)
 .debug_abbrev  0x00002bca      0x120 ../NanoTest_bsp/\libucosii_bsp.a(alt_main.o)
 .debug_abbrev  0x00002cea      0x102 ../NanoTest_bsp/\libucosii_bsp.a(alt_read.o)
 .debug_abbrev  0x00002dec       0xd3 ../NanoTest_bsp/\libucosii_bsp.a(alt_release_fd.o)
 .debug_abbrev  0x00002ebf      0x115 ../NanoTest_bsp/\libucosii_bsp.a(alt_sbrk.o)
 .debug_abbrev  0x00002fd4      0x107 ../NanoTest_bsp/\libucosii_bsp.a(alt_write.o)
 .debug_abbrev  0x000030db      0x1b3 ../NanoTest_bsp/\libucosii_bsp.a(alt_env_lock.o)
 .debug_abbrev  0x0000328e      0x234 ../NanoTest_bsp/\libucosii_bsp.a(alt_malloc_lock.o)
 .debug_abbrev  0x000034c2      0x2aa ../NanoTest_bsp/\libucosii_bsp.a(os_core.o)
 .debug_abbrev  0x0000376c      0x114 ../NanoTest_bsp/\libucosii_bsp.a(os_dbg.o)
 .debug_abbrev  0x00003880      0x21b ../NanoTest_bsp/\libucosii_bsp.a(os_flag.o)
 .debug_abbrev  0x00003a9b      0x235 ../NanoTest_bsp/\libucosii_bsp.a(os_mem.o)
 .debug_abbrev  0x00003cd0      0x20d ../NanoTest_bsp/\libucosii_bsp.a(os_q.o)
 .debug_abbrev  0x00003edd      0x20d ../NanoTest_bsp/\libucosii_bsp.a(os_sem.o)
 .debug_abbrev  0x000040ea      0x20e ../NanoTest_bsp/\libucosii_bsp.a(os_task.o)
 .debug_abbrev  0x000042f8      0x1de ../NanoTest_bsp/\libucosii_bsp.a(os_time.o)
 .debug_abbrev  0x000044d6      0x196 ../NanoTest_bsp/\libucosii_bsp.a(alt_sys_init.o)
 .debug_abbrev  0x0000466c      0x13c ../NanoTest_bsp/\libucosii_bsp.a(altera_avalon_jtag_uart_fd.o)
 .debug_abbrev  0x000047a8      0x21e ../NanoTest_bsp/\libucosii_bsp.a(altera_avalon_jtag_uart_init.o)
 .debug_abbrev  0x000049c6      0x135 ../NanoTest_bsp/\libucosii_bsp.a(altera_avalon_jtag_uart_ioctl.o)
 .debug_abbrev  0x00004afb      0x1ee ../NanoTest_bsp/\libucosii_bsp.a(altera_avalon_jtag_uart_read.o)
 .debug_abbrev  0x00004ce9      0x1ea ../NanoTest_bsp/\libucosii_bsp.a(altera_avalon_jtag_uart_write.o)
 .debug_abbrev  0x00004ed3      0x137 ../NanoTest_bsp/\libucosii_bsp.a(altera_avalon_timer_sc.o)
 .debug_abbrev  0x0000500a      0x124 ../NanoTest_bsp/\libucosii_bsp.a(altera_avalon_uart_fd.o)
 .debug_abbrev  0x0000512e      0x204 ../NanoTest_bsp/\libucosii_bsp.a(altera_avalon_uart_init.o)
 .debug_abbrev  0x00005332      0x1b9 ../NanoTest_bsp/\libucosii_bsp.a(altera_avalon_uart_read.o)
 .debug_abbrev  0x000054eb      0x1c0 ../NanoTest_bsp/\libucosii_bsp.a(altera_avalon_uart_write.o)
 .debug_abbrev  0x000056ab      0x172 ../NanoTest_bsp/\libucosii_bsp.a(alt_alarm_start.o)
 .debug_abbrev  0x0000581d       0x57 ../NanoTest_bsp/\libucosii_bsp.a(alt_dcache_flush_all.o)
 .debug_abbrev  0x00005874       0xf6 ../NanoTest_bsp/\libucosii_bsp.a(alt_dev_llist_insert.o)
 .debug_abbrev  0x0000596a       0x76 ../NanoTest_bsp/\libucosii_bsp.a(alt_do_ctors.o)
 .debug_abbrev  0x000059e0       0x76 ../NanoTest_bsp/\libucosii_bsp.a(alt_do_dtors.o)
 .debug_abbrev  0x00005a56       0x3f ../NanoTest_bsp/\libucosii_bsp.a(alt_icache_flush_all.o)
 .debug_abbrev  0x00005a95      0x134 ../NanoTest_bsp/\libucosii_bsp.a(alt_iic.o)
 .debug_abbrev  0x00005bc9      0x14e ../NanoTest_bsp/\libucosii_bsp.a(alt_iic_isr_register.o)
 .debug_abbrev  0x00005d17       0xf7 ../NanoTest_bsp/\libucosii_bsp.a(alt_io_redirect.o)
 .debug_abbrev  0x00005e0e       0x12 ../NanoTest_bsp/\libucosii_bsp.a(alt_irq_entry.o)
 .debug_abbrev  0x00005e20      0x124 ../NanoTest_bsp/\libucosii_bsp.a(alt_irq_handler.o)
 .debug_abbrev  0x00005f44       0x44 ../NanoTest_bsp/\libucosii_bsp.a(alt_irq_vars.o)
 .debug_abbrev  0x00005f88      0x119 ../NanoTest_bsp/\libucosii_bsp.a(alt_open.o)
 .debug_abbrev  0x000060a1      0x150 ../NanoTest_bsp/\libucosii_bsp.a(alt_tick.o)
 .debug_abbrev  0x000061f1       0x3f ../NanoTest_bsp/\libucosii_bsp.a(altera_nios2_qsys_irq.o)
 .debug_abbrev  0x00006230       0x14 ../NanoTest_bsp/\libucosii_bsp.a(os_cpu_a.o)
 .debug_abbrev  0x00006244      0x1d0 ../NanoTest_bsp/\libucosii_bsp.a(os_cpu_c.o)
 .debug_abbrev  0x00006414       0x12 ../NanoTest_bsp/\libucosii_bsp.a(alt_exception_entry.o)
 .debug_abbrev  0x00006426       0xd6 ../NanoTest_bsp/\libucosii_bsp.a(alt_find_dev.o)
 .debug_abbrev  0x000064fc       0xd6 ../NanoTest_bsp/\libucosii_bsp.a(alt_find_file.o)
 .debug_abbrev  0x000065d2      0x173 ../NanoTest_bsp/\libucosii_bsp.a(alt_get_fd.o)
 .debug_abbrev  0x00006745       0x7a ../NanoTest_bsp/\libucosii_bsp.a(alt_icache_flush.o)
 .debug_abbrev  0x000067bf       0xb7 c:/altera/12.1sp1/nios2eds/bin/gnu/h-i686-mingw32/bin/../lib/gcc/nios2-elf/4.1.2/../../../../nios2-elf/lib\libc.a(lib_a-atexit.o)
 .debug_abbrev  0x00006876      0x16e c:/altera/12.1sp1/nios2eds/bin/gnu/h-i686-mingw32/bin/../lib/gcc/nios2-elf/4.1.2/../../../../nios2-elf/lib\libc.a(lib_a-exit.o)
 .debug_abbrev  0x000069e4       0x7c c:/altera/12.1sp1/nios2eds/bin/gnu/h-i686-mingw32/bin/../lib/gcc/nios2-elf/4.1.2/../../../../nios2-elf/lib\libc.a(lib_a-memcmp.o)
 .debug_abbrev  0x00006a60      0x1ae c:/altera/12.1sp1/nios2eds/bin/gnu/h-i686-mingw32/bin/../lib/gcc/nios2-elf/4.1.2/../../../../nios2-elf/lib\libc.a(lib_a-__atexit.o)
 .debug_abbrev  0x00006c0e      0x1de c:/altera/12.1sp1/nios2eds/bin/gnu/h-i686-mingw32/bin/../lib/gcc/nios2-elf/4.1.2/../../../../nios2-elf/lib\libc.a(lib_a-__call_atexit.o)
 .debug_abbrev  0x00006dec       0xe0 c:/altera/12.1sp1/nios2eds/bin/gnu/h-i686-mingw32/bin/../lib/gcc/nios2-elf/4.1.2\libgcc.a(lib2-divmod.o)
 .debug_abbrev  0x00006ecc       0xaa ../NanoTest_bsp/\libucosii_bsp.a(alt_exit.o)

.debug_line     0x00000000    0x1531e
 *(.debug_line)
 .debug_line    0x00000000       0x72 ../NanoTest_bsp//obj/HAL/src/crt0.o
 .debug_line    0x00000072      0x2dc obj/default/hello_ucosii.o
 .debug_line    0x0000034e      0x2f7 c:/altera/12.1sp1/nios2eds/bin/gnu/h-i686-mingw32/bin/../lib/gcc/nios2-elf/4.1.2/../../../../nios2-elf/lib\libc.a(lib_a-puts.o)
 .debug_line    0x00000645      0x26d c:/altera/12.1sp1/nios2eds/bin/gnu/h-i686-mingw32/bin/../lib/gcc/nios2-elf/4.1.2/../../../../nios2-elf/lib\libc.a(lib_a-strlen.o)
 .debug_line    0x000008b2      0x641 c:/altera/12.1sp1/nios2eds/bin/gnu/h-i686-mingw32/bin/../lib/gcc/nios2-elf/4.1.2/../../../../nios2-elf/lib\libc.a(lib_a-fvwrite.o)
 .debug_line    0x00000ef3      0x22d c:/altera/12.1sp1/nios2eds/bin/gnu/h-i686-mingw32/bin/../lib/gcc/nios2-elf/4.1.2/../../../../nios2-elf/lib\libc.a(lib_a-impure.o)
 .debug_line    0x00001120      0x80a c:/altera/12.1sp1/nios2eds/bin/gnu/h-i686-mingw32/bin/../lib/gcc/nios2-elf/4.1.2/../../../../nios2-elf/lib\libc.a(lib_a-mallocr.o)
 .debug_line    0x0000192a      0x303 c:/altera/12.1sp1/nios2eds/bin/gnu/h-i686-mingw32/bin/../lib/gcc/nios2-elf/4.1.2/../../../../nios2-elf/lib\libc.a(lib_a-memchr.o)
 .debug_line    0x00001c2d      0x1ac c:/altera/12.1sp1/nios2eds/bin/gnu/h-i686-mingw32/bin/../lib/gcc/nios2-elf/4.1.2/../../../../nios2-elf/lib\libc.a(lib_a-memcpy.o)
 .debug_line    0x00001dd9      0x30a c:/altera/12.1sp1/nios2eds/bin/gnu/h-i686-mingw32/bin/../lib/gcc/nios2-elf/4.1.2/../../../../nios2-elf/lib\libc.a(lib_a-memmove.o)
 .debug_line    0x000020e3      0x58a c:/altera/12.1sp1/nios2eds/bin/gnu/h-i686-mingw32/bin/../lib/gcc/nios2-elf/4.1.2/../../../../nios2-elf/lib\libc.a(lib_a-reallocr.o)
 .debug_line    0x0000266d      0x299 c:/altera/12.1sp1/nios2eds/bin/gnu/h-i686-mingw32/bin/../lib/gcc/nios2-elf/4.1.2/../../../../nios2-elf/lib\libc.a(lib_a-sbrkr.o)
 .debug_line    0x00002906      0x2f0 c:/altera/12.1sp1/nios2eds/bin/gnu/h-i686-mingw32/bin/../lib/gcc/nios2-elf/4.1.2/../../../../nios2-elf/lib\libc.a(lib_a-wsetup.o)
 .debug_line    0x00002bf6      0x40d c:/altera/12.1sp1/nios2eds/bin/gnu/h-i686-mingw32/bin/../lib/gcc/nios2-elf/4.1.2/../../../../nios2-elf/lib\libc.a(lib_a-fflush.o)
 .debug_line    0x00003003      0x601 c:/altera/12.1sp1/nios2eds/bin/gnu/h-i686-mingw32/bin/../lib/gcc/nios2-elf/4.1.2/../../../../nios2-elf/lib\libc.a(lib_a-findfp.o)
 .debug_line    0x00003604      0x5eb c:/altera/12.1sp1/nios2eds/bin/gnu/h-i686-mingw32/bin/../lib/gcc/nios2-elf/4.1.2/../../../../nios2-elf/lib\libc.a(lib_a-freer.o)
 .debug_line    0x00003bef      0x34a c:/altera/12.1sp1/nios2eds/bin/gnu/h-i686-mingw32/bin/../lib/gcc/nios2-elf/4.1.2/../../../../nios2-elf/lib\libc.a(lib_a-fwalk.o)
 .debug_line    0x00003f39      0x1df c:/altera/12.1sp1/nios2eds/bin/gnu/h-i686-mingw32/bin/../lib/gcc/nios2-elf/4.1.2/../../../../nios2-elf/lib\libc.a(lib_a-int_errno.o)
 .debug_line    0x00004118      0x3c3 c:/altera/12.1sp1/nios2eds/bin/gnu/h-i686-mingw32/bin/../lib/gcc/nios2-elf/4.1.2/../../../../nios2-elf/lib\libc.a(lib_a-makebuf.o)
 .debug_line    0x000044db      0x301 c:/altera/12.1sp1/nios2eds/bin/gnu/h-i686-mingw32/bin/../lib/gcc/nios2-elf/4.1.2/../../../../nios2-elf/lib\libc.a(lib_a-memset.o)
 .debug_line    0x000047dc      0x38c c:/altera/12.1sp1/nios2eds/bin/gnu/h-i686-mingw32/bin/../lib/gcc/nios2-elf/4.1.2/../../../../nios2-elf/lib\libc.a(lib_a-stdio.o)
 .debug_line    0x00004b68      0x29a c:/altera/12.1sp1/nios2eds/bin/gnu/h-i686-mingw32/bin/../lib/gcc/nios2-elf/4.1.2/../../../../nios2-elf/lib\libc.a(lib_a-writer.o)
 .debug_line    0x00004e02      0x29a c:/altera/12.1sp1/nios2eds/bin/gnu/h-i686-mingw32/bin/../lib/gcc/nios2-elf/4.1.2/../../../../nios2-elf/lib\libc.a(lib_a-closer.o)
 .debug_line    0x0000509c      0x2e8 c:/altera/12.1sp1/nios2eds/bin/gnu/h-i686-mingw32/bin/../lib/gcc/nios2-elf/4.1.2/../../../../nios2-elf/lib\libc.a(lib_a-fclose.o)
 .debug_line    0x00005384      0x264 c:/altera/12.1sp1/nios2eds/bin/gnu/h-i686-mingw32/bin/../lib/gcc/nios2-elf/4.1.2/../../../../nios2-elf/lib\libc.a(lib_a-fstatr.o)
 .debug_line    0x000055e8      0x29b c:/altera/12.1sp1/nios2eds/bin/gnu/h-i686-mingw32/bin/../lib/gcc/nios2-elf/4.1.2/../../../../nios2-elf/lib\libc.a(lib_a-isattyr.o)
 .debug_line    0x00005883      0x29a c:/altera/12.1sp1/nios2eds/bin/gnu/h-i686-mingw32/bin/../lib/gcc/nios2-elf/4.1.2/../../../../nios2-elf/lib\libc.a(lib_a-lseekr.o)
 .debug_line    0x00005b1d      0x299 c:/altera/12.1sp1/nios2eds/bin/gnu/h-i686-mingw32/bin/../lib/gcc/nios2-elf/4.1.2/../../../../nios2-elf/lib\libc.a(lib_a-readr.o)
 .debug_line    0x00005db6      0x2f9 ../NanoTest_bsp/\libucosii_bsp.a(alt_close.o)
 .debug_line    0x000060af      0x2ba ../NanoTest_bsp/\libucosii_bsp.a(alt_dev.o)
 .debug_line    0x00006369      0x1aa ../NanoTest_bsp/\libucosii_bsp.a(alt_errno.o)
 .debug_line    0x00006513      0x301 ../NanoTest_bsp/\libucosii_bsp.a(alt_fstat.o)
 .debug_line    0x00006814      0x302 ../NanoTest_bsp/\libucosii_bsp.a(alt_isatty.o)
 .debug_line    0x00006b16      0x217 ../NanoTest_bsp/\libucosii_bsp.a(alt_load.o)
 .debug_line    0x00006d2d      0x301 ../NanoTest_bsp/\libucosii_bsp.a(alt_lseek.o)
 .debug_line    0x0000702e      0x349 ../NanoTest_bsp/\libucosii_bsp.a(alt_main.o)
 .debug_line    0x00007377      0x328 ../NanoTest_bsp/\libucosii_bsp.a(alt_read.o)
 .debug_line    0x0000769f      0x279 ../NanoTest_bsp/\libucosii_bsp.a(alt_release_fd.o)
 .debug_line    0x00007918      0x261 ../NanoTest_bsp/\libucosii_bsp.a(alt_sbrk.o)
 .debug_line    0x00007b79      0x329 ../NanoTest_bsp/\libucosii_bsp.a(alt_write.o)
 .debug_line    0x00007ea2      0x2bf ../NanoTest_bsp/\libucosii_bsp.a(alt_env_lock.o)
 .debug_line    0x00008161      0x37b ../NanoTest_bsp/\libucosii_bsp.a(alt_malloc_lock.o)
 .debug_line    0x000084dc     0x1663 ../NanoTest_bsp/\libucosii_bsp.a(os_core.o)
 .debug_line    0x00009b3f      0x388 ../NanoTest_bsp/\libucosii_bsp.a(os_dbg.o)
 .debug_line    0x00009ec7     0x11e7 ../NanoTest_bsp/\libucosii_bsp.a(os_flag.o)
 .debug_line    0x0000b0ae      0x78a ../NanoTest_bsp/\libucosii_bsp.a(os_mem.o)
 .debug_line    0x0000b838      0xe6b ../NanoTest_bsp/\libucosii_bsp.a(os_q.o)
 .debug_line    0x0000c6a3      0xa23 ../NanoTest_bsp/\libucosii_bsp.a(os_sem.o)
 .debug_line    0x0000d0c6     0x112c ../NanoTest_bsp/\libucosii_bsp.a(os_task.o)
 .debug_line    0x0000e1f2      0x52f ../NanoTest_bsp/\libucosii_bsp.a(os_time.o)
 .debug_line    0x0000e721      0x341 ../NanoTest_bsp/\libucosii_bsp.a(alt_sys_init.o)
 .debug_line    0x0000ea62      0x319 ../NanoTest_bsp/\libucosii_bsp.a(altera_avalon_jtag_uart_fd.o)
 .debug_line    0x0000ed7b      0x598 ../NanoTest_bsp/\libucosii_bsp.a(altera_avalon_jtag_uart_init.o)
 .debug_line    0x0000f313      0x356 ../NanoTest_bsp/\libucosii_bsp.a(altera_avalon_jtag_uart_ioctl.o)
 .debug_line    0x0000f669      0x494 ../NanoTest_bsp/\libucosii_bsp.a(altera_avalon_jtag_uart_read.o)
 .debug_line    0x0000fafd      0x4a2 ../NanoTest_bsp/\libucosii_bsp.a(altera_avalon_jtag_uart_write.o)
 .debug_line    0x0000ff9f      0x2b3 ../NanoTest_bsp/\libucosii_bsp.a(altera_avalon_timer_sc.o)
 .debug_line    0x00010252      0x2f7 ../NanoTest_bsp/\libucosii_bsp.a(altera_avalon_uart_fd.o)
 .debug_line    0x00010549      0x567 ../NanoTest_bsp/\libucosii_bsp.a(altera_avalon_uart_init.o)
 .debug_line    0x00010ab0      0x4b3 ../NanoTest_bsp/\libucosii_bsp.a(altera_avalon_uart_read.o)
 .debug_line    0x00010f63      0x495 ../NanoTest_bsp/\libucosii_bsp.a(altera_avalon_uart_write.o)
 .debug_line    0x000113f8      0x2dc ../NanoTest_bsp/\libucosii_bsp.a(alt_alarm_start.o)
 .debug_line    0x000116d4      0x1cd ../NanoTest_bsp/\libucosii_bsp.a(alt_dcache_flush_all.o)
 .debug_line    0x000118a1      0x25a ../NanoTest_bsp/\libucosii_bsp.a(alt_dev_llist_insert.o)
 .debug_line    0x00011afb       0x83 ../NanoTest_bsp/\libucosii_bsp.a(alt_do_ctors.o)
 .debug_line    0x00011b7e       0x83 ../NanoTest_bsp/\libucosii_bsp.a(alt_do_dtors.o)
 .debug_line    0x00011c01      0x1bd ../NanoTest_bsp/\libucosii_bsp.a(alt_icache_flush_all.o)
 .debug_line    0x00011dbe      0x2c8 ../NanoTest_bsp/\libucosii_bsp.a(alt_iic.o)
 .debug_line    0x00012086      0x249 ../NanoTest_bsp/\libucosii_bsp.a(alt_iic_isr_register.o)
 .debug_line    0x000122cf      0x323 ../NanoTest_bsp/\libucosii_bsp.a(alt_io_redirect.o)
 .debug_line    0x000125f2       0x6b ../NanoTest_bsp/\libucosii_bsp.a(alt_irq_entry.o)
 .debug_line    0x0001265d      0x2c4 ../NanoTest_bsp/\libucosii_bsp.a(alt_irq_handler.o)
 .debug_line    0x00012921       0x72 ../NanoTest_bsp/\libucosii_bsp.a(alt_irq_vars.o)
 .debug_line    0x00012993      0x35f ../NanoTest_bsp/\libucosii_bsp.a(alt_open.o)
 .debug_line    0x00012cf2      0x316 ../NanoTest_bsp/\libucosii_bsp.a(alt_tick.o)
 .debug_line    0x00013008      0x1ce ../NanoTest_bsp/\libucosii_bsp.a(altera_nios2_qsys_irq.o)
 .debug_line    0x000131d6       0x86 ../NanoTest_bsp/\libucosii_bsp.a(os_cpu_a.o)
 .debug_line    0x0001325c      0x328 ../NanoTest_bsp/\libucosii_bsp.a(os_cpu_c.o)
 .debug_line    0x00013584       0xab ../NanoTest_bsp/\libucosii_bsp.a(alt_exception_entry.o)
 .debug_line    0x0001362f      0x2da ../NanoTest_bsp/\libucosii_bsp.a(alt_find_dev.o)
 .debug_line    0x00013909      0x2eb ../NanoTest_bsp/\libucosii_bsp.a(alt_find_file.o)
 .debug_line    0x00013bf4      0x31b ../NanoTest_bsp/\libucosii_bsp.a(alt_get_fd.o)
 .debug_line    0x00013f0f      0x1f9 ../NanoTest_bsp/\libucosii_bsp.a(alt_icache_flush.o)
 .debug_line    0x00014108      0x200 c:/altera/12.1sp1/nios2eds/bin/gnu/h-i686-mingw32/bin/../lib/gcc/nios2-elf/4.1.2/../../../../nios2-elf/lib\libc.a(lib_a-atexit.o)
 .debug_line    0x00014308      0x238 c:/altera/12.1sp1/nios2eds/bin/gnu/h-i686-mingw32/bin/../lib/gcc/nios2-elf/4.1.2/../../../../nios2-elf/lib\libc.a(lib_a-exit.o)
 .debug_line    0x00014540      0x29f c:/altera/12.1sp1/nios2eds/bin/gnu/h-i686-mingw32/bin/../lib/gcc/nios2-elf/4.1.2/../../../../nios2-elf/lib\libc.a(lib_a-memcmp.o)
 .debug_line    0x000147df      0x313 c:/altera/12.1sp1/nios2eds/bin/gnu/h-i686-mingw32/bin/../lib/gcc/nios2-elf/4.1.2/../../../../nios2-elf/lib\libc.a(lib_a-__atexit.o)
 .debug_line    0x00014af2      0x367 c:/altera/12.1sp1/nios2eds/bin/gnu/h-i686-mingw32/bin/../lib/gcc/nios2-elf/4.1.2/../../../../nios2-elf/lib\libc.a(lib_a-__call_atexit.o)
 .debug_line    0x00014e59      0x24f c:/altera/12.1sp1/nios2eds/bin/gnu/h-i686-mingw32/bin/../lib/gcc/nios2-elf/4.1.2\libgcc.a(lib2-divmod.o)
 .debug_line    0x000150a8      0x276 ../NanoTest_bsp/\libucosii_bsp.a(alt_exit.o)

.debug_frame    0x00000000     0x1e58
 *(.debug_frame)
 .debug_frame   0x00000000       0x64 obj/default/hello_ucosii.o
 .debug_frame   0x00000064       0x3c c:/altera/12.1sp1/nios2eds/bin/gnu/h-i686-mingw32/bin/../lib/gcc/nios2-elf/4.1.2/../../../../nios2-elf/lib\libc.a(lib_a-puts.o)
 .debug_frame   0x000000a0       0x20 c:/altera/12.1sp1/nios2eds/bin/gnu/h-i686-mingw32/bin/../lib/gcc/nios2-elf/4.1.2/../../../../nios2-elf/lib\libc.a(lib_a-strlen.o)
 .debug_frame   0x000000c0       0x38 c:/altera/12.1sp1/nios2eds/bin/gnu/h-i686-mingw32/bin/../lib/gcc/nios2-elf/4.1.2/../../../../nios2-elf/lib\libc.a(lib_a-fvwrite.o)
 .debug_frame   0x000000f8       0x38 c:/altera/12.1sp1/nios2eds/bin/gnu/h-i686-mingw32/bin/../lib/gcc/nios2-elf/4.1.2/../../../../nios2-elf/lib\libc.a(lib_a-mallocr.o)
 .debug_frame   0x00000130       0x20 c:/altera/12.1sp1/nios2eds/bin/gnu/h-i686-mingw32/bin/../lib/gcc/nios2-elf/4.1.2/../../../../nios2-elf/lib\libc.a(lib_a-memchr.o)
 .debug_frame   0x00000150       0x20 c:/altera/12.1sp1/nios2eds/bin/gnu/h-i686-mingw32/bin/../lib/gcc/nios2-elf/4.1.2/../../../../nios2-elf/lib\libc.a(lib_a-memcpy.o)
 .debug_frame   0x00000170       0x20 c:/altera/12.1sp1/nios2eds/bin/gnu/h-i686-mingw32/bin/../lib/gcc/nios2-elf/4.1.2/../../../../nios2-elf/lib\libc.a(lib_a-memmove.o)
 .debug_frame   0x00000190       0x38 c:/altera/12.1sp1/nios2eds/bin/gnu/h-i686-mingw32/bin/../lib/gcc/nios2-elf/4.1.2/../../../../nios2-elf/lib\libc.a(lib_a-reallocr.o)
 .debug_frame   0x000001c8       0x2c c:/altera/12.1sp1/nios2eds/bin/gnu/h-i686-mingw32/bin/../lib/gcc/nios2-elf/4.1.2/../../../../nios2-elf/lib\libc.a(lib_a-sbrkr.o)
 .debug_frame   0x000001f4       0x2c c:/altera/12.1sp1/nios2eds/bin/gnu/h-i686-mingw32/bin/../lib/gcc/nios2-elf/4.1.2/../../../../nios2-elf/lib\libc.a(lib_a-wsetup.o)
 .debug_frame   0x00000220       0x40 c:/altera/12.1sp1/nios2eds/bin/gnu/h-i686-mingw32/bin/../lib/gcc/nios2-elf/4.1.2/../../../../nios2-elf/lib\libc.a(lib_a-fflush.o)
 .debug_frame   0x00000260      0x118 c:/altera/12.1sp1/nios2eds/bin/gnu/h-i686-mingw32/bin/../lib/gcc/nios2-elf/4.1.2/../../../../nios2-elf/lib\libc.a(lib_a-findfp.o)
 .debug_frame   0x00000378       0x4c c:/altera/12.1sp1/nios2eds/bin/gnu/h-i686-mingw32/bin/../lib/gcc/nios2-elf/4.1.2/../../../../nios2-elf/lib\libc.a(lib_a-freer.o)
 .debug_frame   0x000003c4       0x60 c:/altera/12.1sp1/nios2eds/bin/gnu/h-i686-mingw32/bin/../lib/gcc/nios2-elf/4.1.2/../../../../nios2-elf/lib\libc.a(lib_a-fwalk.o)
 .debug_frame   0x00000424       0x2c c:/altera/12.1sp1/nios2eds/bin/gnu/h-i686-mingw32/bin/../lib/gcc/nios2-elf/4.1.2/../../../../nios2-elf/lib\libc.a(lib_a-makebuf.o)
 .debug_frame   0x00000450       0x20 c:/altera/12.1sp1/nios2eds/bin/gnu/h-i686-mingw32/bin/../lib/gcc/nios2-elf/4.1.2/../../../../nios2-elf/lib\libc.a(lib_a-memset.o)
 .debug_frame   0x00000470       0x78 c:/altera/12.1sp1/nios2eds/bin/gnu/h-i686-mingw32/bin/../lib/gcc/nios2-elf/4.1.2/../../../../nios2-elf/lib\libc.a(lib_a-stdio.o)
 .debug_frame   0x000004e8       0x2c c:/altera/12.1sp1/nios2eds/bin/gnu/h-i686-mingw32/bin/../lib/gcc/nios2-elf/4.1.2/../../../../nios2-elf/lib\libc.a(lib_a-writer.o)
 .debug_frame   0x00000514       0x2c c:/altera/12.1sp1/nios2eds/bin/gnu/h-i686-mingw32/bin/../lib/gcc/nios2-elf/4.1.2/../../../../nios2-elf/lib\libc.a(lib_a-closer.o)
 .debug_frame   0x00000540       0x3c c:/altera/12.1sp1/nios2eds/bin/gnu/h-i686-mingw32/bin/../lib/gcc/nios2-elf/4.1.2/../../../../nios2-elf/lib\libc.a(lib_a-fclose.o)
 .debug_frame   0x0000057c       0x2c c:/altera/12.1sp1/nios2eds/bin/gnu/h-i686-mingw32/bin/../lib/gcc/nios2-elf/4.1.2/../../../../nios2-elf/lib\libc.a(lib_a-fstatr.o)
 .debug_frame   0x000005a8       0x2c c:/altera/12.1sp1/nios2eds/bin/gnu/h-i686-mingw32/bin/../lib/gcc/nios2-elf/4.1.2/../../../../nios2-elf/lib\libc.a(lib_a-isattyr.o)
 .debug_frame   0x000005d4       0x2c c:/altera/12.1sp1/nios2eds/bin/gnu/h-i686-mingw32/bin/../lib/gcc/nios2-elf/4.1.2/../../../../nios2-elf/lib\libc.a(lib_a-lseekr.o)
 .debug_frame   0x00000600       0x2c c:/altera/12.1sp1/nios2eds/bin/gnu/h-i686-mingw32/bin/../lib/gcc/nios2-elf/4.1.2/../../../../nios2-elf/lib\libc.a(lib_a-readr.o)
 .debug_frame   0x0000062c       0x48 ../NanoTest_bsp/\libucosii_bsp.a(alt_close.o)
 .debug_frame   0x00000674       0x2c ../NanoTest_bsp/\libucosii_bsp.a(alt_dev.o)
 .debug_frame   0x000006a0       0x48 ../NanoTest_bsp/\libucosii_bsp.a(alt_fstat.o)
 .debug_frame   0x000006e8       0x48 ../NanoTest_bsp/\libucosii_bsp.a(alt_isatty.o)
 .debug_frame   0x00000730       0x48 ../NanoTest_bsp/\libucosii_bsp.a(alt_load.o)
 .debug_frame   0x00000778       0x48 ../NanoTest_bsp/\libucosii_bsp.a(alt_lseek.o)
 .debug_frame   0x000007c0       0x2c ../NanoTest_bsp/\libucosii_bsp.a(alt_main.o)
 .debug_frame   0x000007ec       0x48 ../NanoTest_bsp/\libucosii_bsp.a(alt_read.o)
 .debug_frame   0x00000834       0x2c ../NanoTest_bsp/\libucosii_bsp.a(alt_release_fd.o)
 .debug_frame   0x00000860       0x2c ../NanoTest_bsp/\libucosii_bsp.a(alt_sbrk.o)
 .debug_frame   0x0000088c       0x48 ../NanoTest_bsp/\libucosii_bsp.a(alt_write.o)
 .debug_frame   0x000008d4       0x4c ../NanoTest_bsp/\libucosii_bsp.a(alt_env_lock.o)
 .debug_frame   0x00000920       0x4c ../NanoTest_bsp/\libucosii_bsp.a(alt_malloc_lock.o)
 .debug_frame   0x0000096c      0x3e4 ../NanoTest_bsp/\libucosii_bsp.a(os_core.o)
 .debug_frame   0x00000d50       0x2c ../NanoTest_bsp/\libucosii_bsp.a(os_dbg.o)
 .debug_frame   0x00000d7c      0x180 ../NanoTest_bsp/\libucosii_bsp.a(os_flag.o)
 .debug_frame   0x00000efc       0xd4 ../NanoTest_bsp/\libucosii_bsp.a(os_mem.o)
 .debug_frame   0x00000fd0      0x144 ../NanoTest_bsp/\libucosii_bsp.a(os_q.o)
 .debug_frame   0x00001114       0xf0 ../NanoTest_bsp/\libucosii_bsp.a(os_sem.o)
 .debug_frame   0x00001204      0x160 ../NanoTest_bsp/\libucosii_bsp.a(os_task.o)
 .debug_frame   0x00001364       0xa0 ../NanoTest_bsp/\libucosii_bsp.a(os_time.o)
 .debug_frame   0x00001404       0x64 ../NanoTest_bsp/\libucosii_bsp.a(alt_sys_init.o)
 .debug_frame   0x00001468       0x80 ../NanoTest_bsp/\libucosii_bsp.a(altera_avalon_jtag_uart_fd.o)
 .debug_frame   0x000014e8       0x80 ../NanoTest_bsp/\libucosii_bsp.a(altera_avalon_jtag_uart_init.o)
 .debug_frame   0x00001568       0x2c ../NanoTest_bsp/\libucosii_bsp.a(altera_avalon_jtag_uart_ioctl.o)
 .debug_frame   0x00001594       0x2c ../NanoTest_bsp/\libucosii_bsp.a(altera_avalon_jtag_uart_read.o)
 .debug_frame   0x000015c0       0x2c ../NanoTest_bsp/\libucosii_bsp.a(altera_avalon_jtag_uart_write.o)
 .debug_frame   0x000015ec       0x48 ../NanoTest_bsp/\libucosii_bsp.a(altera_avalon_timer_sc.o)
 .debug_frame   0x00001634       0x64 ../NanoTest_bsp/\libucosii_bsp.a(altera_avalon_uart_fd.o)
 .debug_frame   0x00001698       0x9c ../NanoTest_bsp/\libucosii_bsp.a(altera_avalon_uart_init.o)
 .debug_frame   0x00001734       0x48 ../NanoTest_bsp/\libucosii_bsp.a(altera_avalon_uart_read.o)
 .debug_frame   0x0000177c       0x48 ../NanoTest_bsp/\libucosii_bsp.a(altera_avalon_uart_write.o)
 .debug_frame   0x000017c4       0x2c ../NanoTest_bsp/\libucosii_bsp.a(alt_alarm_start.o)
 .debug_frame   0x000017f0       0x2c ../NanoTest_bsp/\libucosii_bsp.a(alt_dcache_flush_all.o)
 .debug_frame   0x0000181c       0x48 ../NanoTest_bsp/\libucosii_bsp.a(alt_dev_llist_insert.o)
 .debug_frame   0x00001864       0x2c ../NanoTest_bsp/\libucosii_bsp.a(alt_do_ctors.o)
 .debug_frame   0x00001890       0x2c ../NanoTest_bsp/\libucosii_bsp.a(alt_do_dtors.o)
 .debug_frame   0x000018bc       0x2c ../NanoTest_bsp/\libucosii_bsp.a(alt_icache_flush_all.o)
 .debug_frame   0x000018e8       0x80 ../NanoTest_bsp/\libucosii_bsp.a(alt_iic.o)
 .debug_frame   0x00001968       0x2c ../NanoTest_bsp/\libucosii_bsp.a(alt_iic_isr_register.o)
 .debug_frame   0x00001994       0x48 ../NanoTest_bsp/\libucosii_bsp.a(alt_io_redirect.o)
 .debug_frame   0x000019dc       0x2c ../NanoTest_bsp/\libucosii_bsp.a(alt_irq_handler.o)
 .debug_frame   0x00001a08       0x64 ../NanoTest_bsp/\libucosii_bsp.a(alt_open.o)
 .debug_frame   0x00001a6c       0x48 ../NanoTest_bsp/\libucosii_bsp.a(alt_tick.o)
 .debug_frame   0x00001ab4       0x2c ../NanoTest_bsp/\libucosii_bsp.a(altera_nios2_qsys_irq.o)
 .debug_frame   0x00001ae0      0x128 ../NanoTest_bsp/\libucosii_bsp.a(os_cpu_c.o)
 .debug_frame   0x00001c08       0x2c ../NanoTest_bsp/\libucosii_bsp.a(alt_find_dev.o)
 .debug_frame   0x00001c34       0x2c ../NanoTest_bsp/\libucosii_bsp.a(alt_find_file.o)
 .debug_frame   0x00001c60       0x2c ../NanoTest_bsp/\libucosii_bsp.a(alt_get_fd.o)
 .debug_frame   0x00001c8c       0x2c ../NanoTest_bsp/\libucosii_bsp.a(alt_icache_flush.o)
 .debug_frame   0x00001cb8       0x20 c:/altera/12.1sp1/nios2eds/bin/gnu/h-i686-mingw32/bin/../lib/gcc/nios2-elf/4.1.2/../../../../nios2-elf/lib\libc.a(lib_a-atexit.o)
 .debug_frame   0x00001cd8       0x28 c:/altera/12.1sp1/nios2eds/bin/gnu/h-i686-mingw32/bin/../lib/gcc/nios2-elf/4.1.2/../../../../nios2-elf/lib\libc.a(lib_a-exit.o)
 .debug_frame   0x00001d00       0x20 c:/altera/12.1sp1/nios2eds/bin/gnu/h-i686-mingw32/bin/../lib/gcc/nios2-elf/4.1.2/../../../../nios2-elf/lib\libc.a(lib_a-memcmp.o)
 .debug_frame   0x00001d20       0x34 c:/altera/12.1sp1/nios2eds/bin/gnu/h-i686-mingw32/bin/../lib/gcc/nios2-elf/4.1.2/../../../../nios2-elf/lib\libc.a(lib_a-__atexit.o)
 .debug_frame   0x00001d54       0x4c c:/altera/12.1sp1/nios2eds/bin/gnu/h-i686-mingw32/bin/../lib/gcc/nios2-elf/4.1.2/../../../../nios2-elf/lib\libc.a(lib_a-__call_atexit.o)
 .debug_frame   0x00001da0       0x70 c:/altera/12.1sp1/nios2eds/bin/gnu/h-i686-mingw32/bin/../lib/gcc/nios2-elf/4.1.2\libgcc.a(lib2-divmod.o)
 .debug_frame   0x00001e10       0x48 ../NanoTest_bsp/\libucosii_bsp.a(alt_exit.o)

.debug_str      0x00000000     0x1993
 *(.debug_str)
 .debug_str     0x00000000       0x12 obj/default/hello_ucosii.o
 .debug_str     0x00000012      0x4cf c:/altera/12.1sp1/nios2eds/bin/gnu/h-i686-mingw32/bin/../lib/gcc/nios2-elf/4.1.2/../../../../nios2-elf/lib\libc.a(lib_a-puts.o)
                                0x549 (size before relaxing)
 .debug_str     0x000004e1       0xdb c:/altera/12.1sp1/nios2eds/bin/gnu/h-i686-mingw32/bin/../lib/gcc/nios2-elf/4.1.2/../../../../nios2-elf/lib\libc.a(lib_a-strlen.o)
                                0x17d (size before relaxing)
 .debug_str     0x000005bc       0x66 c:/altera/12.1sp1/nios2eds/bin/gnu/h-i686-mingw32/bin/../lib/gcc/nios2-elf/4.1.2/../../../../nios2-elf/lib\libc.a(lib_a-fvwrite.o)
                                0x563 (size before relaxing)
 .debug_str     0x00000622       0xe4 c:/altera/12.1sp1/nios2eds/bin/gnu/h-i686-mingw32/bin/../lib/gcc/nios2-elf/4.1.2/../../../../nios2-elf/lib\libc.a(lib_a-impure.o)
                                0x51a (size before relaxing)
 .debug_str     0x00000706      0x29a c:/altera/12.1sp1/nios2eds/bin/gnu/h-i686-mingw32/bin/../lib/gcc/nios2-elf/4.1.2/../../../../nios2-elf/lib\libc.a(lib_a-mallocr.o)
                                0x6f1 (size before relaxing)
 .debug_str     0x000009a0       0x63 c:/altera/12.1sp1/nios2eds/bin/gnu/h-i686-mingw32/bin/../lib/gcc/nios2-elf/4.1.2/../../../../nios2-elf/lib\libc.a(lib_a-memchr.o)
                                0x18b (size before relaxing)
 .debug_str     0x00000a03       0x69 c:/altera/12.1sp1/nios2eds/bin/gnu/h-i686-mingw32/bin/../lib/gcc/nios2-elf/4.1.2/../../../../nios2-elf/lib\libc.a(lib_a-memcpy.o)
                                0x128 (size before relaxing)
 .debug_str     0x00000a6c       0x4d c:/altera/12.1sp1/nios2eds/bin/gnu/h-i686-mingw32/bin/../lib/gcc/nios2-elf/4.1.2/../../../../nios2-elf/lib\libc.a(lib_a-memmove.o)
                                0x19d (size before relaxing)
 .debug_str     0x00000ab9       0x59 c:/altera/12.1sp1/nios2eds/bin/gnu/h-i686-mingw32/bin/../lib/gcc/nios2-elf/4.1.2/../../../../nios2-elf/lib\libc.a(lib_a-reallocr.o)
                                0x5c3 (size before relaxing)
 .debug_str     0x00000b12       0x50 c:/altera/12.1sp1/nios2eds/bin/gnu/h-i686-mingw32/bin/../lib/gcc/nios2-elf/4.1.2/../../../../nios2-elf/lib\libc.a(lib_a-sbrkr.o)
                                0x50b (size before relaxing)
 .debug_str     0x00000b62       0x46 c:/altera/12.1sp1/nios2eds/bin/gnu/h-i686-mingw32/bin/../lib/gcc/nios2-elf/4.1.2/../../../../nios2-elf/lib\libc.a(lib_a-wsetup.o)
                                0x50c (size before relaxing)
 .debug_str     0x00000ba8       0x52 c:/altera/12.1sp1/nios2eds/bin/gnu/h-i686-mingw32/bin/../lib/gcc/nios2-elf/4.1.2/../../../../nios2-elf/lib\libc.a(lib_a-fflush.o)
                                0x532 (size before relaxing)
 .debug_str     0x00000bfa      0x102 c:/altera/12.1sp1/nios2eds/bin/gnu/h-i686-mingw32/bin/../lib/gcc/nios2-elf/4.1.2/../../../../nios2-elf/lib\libc.a(lib_a-findfp.o)
                                0x5f4 (size before relaxing)
 .debug_str     0x00000cfc       0x3c c:/altera/12.1sp1/nios2eds/bin/gnu/h-i686-mingw32/bin/../lib/gcc/nios2-elf/4.1.2/../../../../nios2-elf/lib\libc.a(lib_a-freer.o)
                                0x643 (size before relaxing)
 .debug_str     0x00000d38       0x5e c:/altera/12.1sp1/nios2eds/bin/gnu/h-i686-mingw32/bin/../lib/gcc/nios2-elf/4.1.2/../../../../nios2-elf/lib\libc.a(lib_a-fwalk.o)
                                0x535 (size before relaxing)
 .debug_str     0x00000d96       0x3d c:/altera/12.1sp1/nios2eds/bin/gnu/h-i686-mingw32/bin/../lib/gcc/nios2-elf/4.1.2/../../../../nios2-elf/lib\libc.a(lib_a-int_errno.o)
                                0x163 (size before relaxing)
 .debug_str     0x00000dd3      0x123 c:/altera/12.1sp1/nios2eds/bin/gnu/h-i686-mingw32/bin/../lib/gcc/nios2-elf/4.1.2/../../../../nios2-elf/lib\libc.a(lib_a-makebuf.o)
                                0x606 (size before relaxing)
 .debug_str     0x00000ef6       0x42 c:/altera/12.1sp1/nios2eds/bin/gnu/h-i686-mingw32/bin/../lib/gcc/nios2-elf/4.1.2/../../../../nios2-elf/lib\libc.a(lib_a-memset.o)
                                0x17e (size before relaxing)
 .debug_str     0x00000f38       0x62 c:/altera/12.1sp1/nios2eds/bin/gnu/h-i686-mingw32/bin/../lib/gcc/nios2-elf/4.1.2/../../../../nios2-elf/lib\libc.a(lib_a-stdio.o)
                                0x531 (size before relaxing)
 .debug_str     0x00000f9a       0x4c c:/altera/12.1sp1/nios2eds/bin/gnu/h-i686-mingw32/bin/../lib/gcc/nios2-elf/4.1.2/../../../../nios2-elf/lib\libc.a(lib_a-writer.o)
                                0x50e (size before relaxing)
 .debug_str     0x00000fe6       0x43 c:/altera/12.1sp1/nios2eds/bin/gnu/h-i686-mingw32/bin/../lib/gcc/nios2-elf/4.1.2/../../../../nios2-elf/lib\libc.a(lib_a-closer.o)
                                0x4fe (size before relaxing)
 .debug_str     0x00001029       0x50 c:/altera/12.1sp1/nios2eds/bin/gnu/h-i686-mingw32/bin/../lib/gcc/nios2-elf/4.1.2/../../../../nios2-elf/lib\libc.a(lib_a-fclose.o)
                                0x516 (size before relaxing)
 .debug_str     0x00001079       0x49 c:/altera/12.1sp1/nios2eds/bin/gnu/h-i686-mingw32/bin/../lib/gcc/nios2-elf/4.1.2/../../../../nios2-elf/lib\libc.a(lib_a-fstatr.o)
                                0x5f1 (size before relaxing)
 .debug_str     0x000010c2       0x45 c:/altera/12.1sp1/nios2eds/bin/gnu/h-i686-mingw32/bin/../lib/gcc/nios2-elf/4.1.2/../../../../nios2-elf/lib\libc.a(lib_a-isattyr.o)
                                0x500 (size before relaxing)
 .debug_str     0x00001107       0x43 c:/altera/12.1sp1/nios2eds/bin/gnu/h-i686-mingw32/bin/../lib/gcc/nios2-elf/4.1.2/../../../../nios2-elf/lib\libc.a(lib_a-lseekr.o)
                                0x50c (size before relaxing)
 .debug_str     0x0000114a       0x41 c:/altera/12.1sp1/nios2eds/bin/gnu/h-i686-mingw32/bin/../lib/gcc/nios2-elf/4.1.2/../../../../nios2-elf/lib\libc.a(lib_a-readr.o)
                                0x50c (size before relaxing)
 .debug_str     0x0000118b       0x12 ../NanoTest_bsp/\libucosii_bsp.a(alt_close.o)
 .debug_str     0x0000119d       0x12 ../NanoTest_bsp/\libucosii_bsp.a(alt_dev.o)
 .debug_str     0x000011af       0x12 ../NanoTest_bsp/\libucosii_bsp.a(alt_errno.o)
 .debug_str     0x000011c1       0x12 ../NanoTest_bsp/\libucosii_bsp.a(alt_fstat.o)
 .debug_str     0x000011d3       0x12 ../NanoTest_bsp/\libucosii_bsp.a(alt_isatty.o)
 .debug_str     0x000011e5       0x12 ../NanoTest_bsp/\libucosii_bsp.a(alt_load.o)
 .debug_str     0x000011f7       0x12 ../NanoTest_bsp/\libucosii_bsp.a(alt_lseek.o)
 .debug_str     0x00001209       0x12 ../NanoTest_bsp/\libucosii_bsp.a(alt_main.o)
 .debug_str     0x0000121b       0x12 ../NanoTest_bsp/\libucosii_bsp.a(alt_read.o)
 .debug_str     0x0000122d       0x12 ../NanoTest_bsp/\libucosii_bsp.a(alt_release_fd.o)
 .debug_str     0x0000123f       0x1a ../NanoTest_bsp/\libucosii_bsp.a(alt_sbrk.o)
 .debug_str     0x00001259       0x12 ../NanoTest_bsp/\libucosii_bsp.a(alt_write.o)
 .debug_str     0x0000126b       0x36 ../NanoTest_bsp/\libucosii_bsp.a(alt_env_lock.o)
 .debug_str     0x000012a1       0x36 ../NanoTest_bsp/\libucosii_bsp.a(alt_malloc_lock.o)
 .debug_str     0x000012d7       0x46 ../NanoTest_bsp/\libucosii_bsp.a(os_core.o)
 .debug_str     0x0000131d       0x2b ../NanoTest_bsp/\libucosii_bsp.a(os_dbg.o)
 .debug_str     0x00001348       0x4e ../NanoTest_bsp/\libucosii_bsp.a(os_flag.o)
 .debug_str     0x00001396       0x2c ../NanoTest_bsp/\libucosii_bsp.a(os_mem.o)
 .debug_str     0x000013c2       0x36 ../NanoTest_bsp/\libucosii_bsp.a(os_q.o)
 .debug_str     0x000013f8       0x36 ../NanoTest_bsp/\libucosii_bsp.a(os_sem.o)
 .debug_str     0x0000142e       0x23 ../NanoTest_bsp/\libucosii_bsp.a(os_task.o)
 .debug_str     0x00001451       0x1f ../NanoTest_bsp/\libucosii_bsp.a(os_time.o)
 .debug_str     0x00001470       0x27 ../NanoTest_bsp/\libucosii_bsp.a(alt_sys_init.o)
 .debug_str     0x00001497       0x12 ../NanoTest_bsp/\libucosii_bsp.a(altera_avalon_jtag_uart_fd.o)
 .debug_str     0x000014a9       0x1a ../NanoTest_bsp/\libucosii_bsp.a(altera_avalon_jtag_uart_init.o)
 .debug_str     0x000014c3       0x12 ../NanoTest_bsp/\libucosii_bsp.a(altera_avalon_jtag_uart_ioctl.o)
 .debug_str     0x000014d5       0x22 ../NanoTest_bsp/\libucosii_bsp.a(altera_avalon_jtag_uart_read.o)
 .debug_str     0x000014f7       0x22 ../NanoTest_bsp/\libucosii_bsp.a(altera_avalon_jtag_uart_write.o)
 .debug_str     0x00001519       0x12 ../NanoTest_bsp/\libucosii_bsp.a(altera_avalon_timer_sc.o)
 .debug_str     0x0000152b       0x12 ../NanoTest_bsp/\libucosii_bsp.a(altera_avalon_uart_fd.o)
 .debug_str     0x0000153d       0x1f ../NanoTest_bsp/\libucosii_bsp.a(altera_avalon_uart_init.o)
 .debug_str     0x0000155c       0x1a ../NanoTest_bsp/\libucosii_bsp.a(altera_avalon_uart_read.o)
 .debug_str     0x00001576       0x1a ../NanoTest_bsp/\libucosii_bsp.a(altera_avalon_uart_write.o)
 .debug_str     0x00001590       0x23 ../NanoTest_bsp/\libucosii_bsp.a(alt_alarm_start.o)
 .debug_str     0x000015b3       0x12 ../NanoTest_bsp/\libucosii_bsp.a(alt_dcache_flush_all.o)
 .debug_str     0x000015c5       0x12 ../NanoTest_bsp/\libucosii_bsp.a(alt_dev_llist_insert.o)
 .debug_str     0x000015d7       0x12 ../NanoTest_bsp/\libucosii_bsp.a(alt_icache_flush_all.o)
 .debug_str     0x000015e9       0x18 ../NanoTest_bsp/\libucosii_bsp.a(alt_iic.o)
 .debug_str     0x00001601       0x1a ../NanoTest_bsp/\libucosii_bsp.a(alt_iic_isr_register.o)
 .debug_str     0x0000161b       0x12 ../NanoTest_bsp/\libucosii_bsp.a(alt_io_redirect.o)
 .debug_str     0x0000162d       0x12 ../NanoTest_bsp/\libucosii_bsp.a(alt_irq_handler.o)
 .debug_str     0x0000163f       0x12 ../NanoTest_bsp/\libucosii_bsp.a(alt_open.o)
 .debug_str     0x00001651       0x1a ../NanoTest_bsp/\libucosii_bsp.a(alt_tick.o)
 .debug_str     0x0000166b       0x12 ../NanoTest_bsp/\libucosii_bsp.a(altera_nios2_qsys_irq.o)
 .debug_str     0x0000167d       0x20 ../NanoTest_bsp/\libucosii_bsp.a(os_cpu_c.o)
 .debug_str     0x0000169d       0x12 ../NanoTest_bsp/\libucosii_bsp.a(alt_find_dev.o)
 .debug_str     0x000016af       0x12 ../NanoTest_bsp/\libucosii_bsp.a(alt_find_file.o)
 .debug_str     0x000016c1       0x12 ../NanoTest_bsp/\libucosii_bsp.a(alt_get_fd.o)
 .debug_str     0x000016d3       0x12 ../NanoTest_bsp/\libucosii_bsp.a(alt_icache_flush.o)
 .debug_str     0x000016e5       0x3b c:/altera/12.1sp1/nios2eds/bin/gnu/h-i686-mingw32/bin/../lib/gcc/nios2-elf/4.1.2/../../../../nios2-elf/lib\libc.a(lib_a-atexit.o)
                                0x1bf (size before relaxing)
 .debug_str     0x00001720       0x3e c:/altera/12.1sp1/nios2eds/bin/gnu/h-i686-mingw32/bin/../lib/gcc/nios2-elf/4.1.2/../../../../nios2-elf/lib\libc.a(lib_a-exit.o)
                                0x50c (size before relaxing)
 .debug_str     0x0000175e       0x42 c:/altera/12.1sp1/nios2eds/bin/gnu/h-i686-mingw32/bin/../lib/gcc/nios2-elf/4.1.2/../../../../nios2-elf/lib\libc.a(lib_a-memcmp.o)
                                0x16a (size before relaxing)
 .debug_str     0x000017a0       0x51 c:/altera/12.1sp1/nios2eds/bin/gnu/h-i686-mingw32/bin/../lib/gcc/nios2-elf/4.1.2/../../../../nios2-elf/lib\libc.a(lib_a-__atexit.o)
                                0x524 (size before relaxing)
 .debug_str     0x000017f1       0x7b c:/altera/12.1sp1/nios2eds/bin/gnu/h-i686-mingw32/bin/../lib/gcc/nios2-elf/4.1.2/../../../../nios2-elf/lib\libc.a(lib_a-__call_atexit.o)
                                0x54e (size before relaxing)
 .debug_str     0x0000186c      0x10b c:/altera/12.1sp1/nios2eds/bin/gnu/h-i686-mingw32/bin/../lib/gcc/nios2-elf/4.1.2\libgcc.a(lib2-divmod.o)
                                0x1b4 (size before relaxing)
 .debug_str     0x00001977       0x1c ../NanoTest_bsp/\libucosii_bsp.a(alt_exit.o)

.debug_loc      0x00000000     0x53bb
 *(.debug_loc)
 .debug_loc     0x00000000       0x81 obj/default/hello_ucosii.o
 .debug_loc     0x00000081       0xa2 c:/altera/12.1sp1/nios2eds/bin/gnu/h-i686-mingw32/bin/../lib/gcc/nios2-elf/4.1.2/../../../../nios2-elf/lib\libc.a(lib_a-puts.o)
 .debug_loc     0x00000123       0x3c c:/altera/12.1sp1/nios2eds/bin/gnu/h-i686-mingw32/bin/../lib/gcc/nios2-elf/4.1.2/../../../../nios2-elf/lib\libc.a(lib_a-strlen.o)
 .debug_loc     0x0000015f      0x4e4 c:/altera/12.1sp1/nios2eds/bin/gnu/h-i686-mingw32/bin/../lib/gcc/nios2-elf/4.1.2/../../../../nios2-elf/lib\libc.a(lib_a-fvwrite.o)
 .debug_loc     0x00000643      0xaeb c:/altera/12.1sp1/nios2eds/bin/gnu/h-i686-mingw32/bin/../lib/gcc/nios2-elf/4.1.2/../../../../nios2-elf/lib\libc.a(lib_a-mallocr.o)
 .debug_loc     0x0000112e      0x106 c:/altera/12.1sp1/nios2eds/bin/gnu/h-i686-mingw32/bin/../lib/gcc/nios2-elf/4.1.2/../../../../nios2-elf/lib\libc.a(lib_a-memchr.o)
 .debug_loc     0x00001234       0xca c:/altera/12.1sp1/nios2eds/bin/gnu/h-i686-mingw32/bin/../lib/gcc/nios2-elf/4.1.2/../../../../nios2-elf/lib\libc.a(lib_a-memcpy.o)
 .debug_loc     0x000012fe      0x117 c:/altera/12.1sp1/nios2eds/bin/gnu/h-i686-mingw32/bin/../lib/gcc/nios2-elf/4.1.2/../../../../nios2-elf/lib\libc.a(lib_a-memmove.o)
 .debug_loc     0x00001415      0x8c0 c:/altera/12.1sp1/nios2eds/bin/gnu/h-i686-mingw32/bin/../lib/gcc/nios2-elf/4.1.2/../../../../nios2-elf/lib\libc.a(lib_a-reallocr.o)
 .debug_loc     0x00001cd5       0x5b c:/altera/12.1sp1/nios2eds/bin/gnu/h-i686-mingw32/bin/../lib/gcc/nios2-elf/4.1.2/../../../../nios2-elf/lib\libc.a(lib_a-sbrkr.o)
 .debug_loc     0x00001d30       0x7c c:/altera/12.1sp1/nios2eds/bin/gnu/h-i686-mingw32/bin/../lib/gcc/nios2-elf/4.1.2/../../../../nios2-elf/lib\libc.a(lib_a-wsetup.o)
 .debug_loc     0x00001dac      0x1f6 c:/altera/12.1sp1/nios2eds/bin/gnu/h-i686-mingw32/bin/../lib/gcc/nios2-elf/4.1.2/../../../../nios2-elf/lib\libc.a(lib_a-fflush.o)
 .debug_loc     0x00001fa2      0x19f c:/altera/12.1sp1/nios2eds/bin/gnu/h-i686-mingw32/bin/../lib/gcc/nios2-elf/4.1.2/../../../../nios2-elf/lib\libc.a(lib_a-findfp.o)
 .debug_loc     0x00002141      0x4a7 c:/altera/12.1sp1/nios2eds/bin/gnu/h-i686-mingw32/bin/../lib/gcc/nios2-elf/4.1.2/../../../../nios2-elf/lib\libc.a(lib_a-freer.o)
 .debug_loc     0x000025e8      0x1d2 c:/altera/12.1sp1/nios2eds/bin/gnu/h-i686-mingw32/bin/../lib/gcc/nios2-elf/4.1.2/../../../../nios2-elf/lib\libc.a(lib_a-fwalk.o)
 .debug_loc     0x000027ba      0x11c c:/altera/12.1sp1/nios2eds/bin/gnu/h-i686-mingw32/bin/../lib/gcc/nios2-elf/4.1.2/../../../../nios2-elf/lib\libc.a(lib_a-makebuf.o)
 .debug_loc     0x000028d6       0xa1 c:/altera/12.1sp1/nios2eds/bin/gnu/h-i686-mingw32/bin/../lib/gcc/nios2-elf/4.1.2/../../../../nios2-elf/lib\libc.a(lib_a-memset.o)
 .debug_loc     0x00002977      0x21f c:/altera/12.1sp1/nios2eds/bin/gnu/h-i686-mingw32/bin/../lib/gcc/nios2-elf/4.1.2/../../../../nios2-elf/lib\libc.a(lib_a-stdio.o)
 .debug_loc     0x00002b96       0x97 c:/altera/12.1sp1/nios2eds/bin/gnu/h-i686-mingw32/bin/../lib/gcc/nios2-elf/4.1.2/../../../../nios2-elf/lib\libc.a(lib_a-writer.o)
 .debug_loc     0x00002c2d       0x5b c:/altera/12.1sp1/nios2eds/bin/gnu/h-i686-mingw32/bin/../lib/gcc/nios2-elf/4.1.2/../../../../nios2-elf/lib\libc.a(lib_a-closer.o)
 .debug_loc     0x00002c88       0xe4 c:/altera/12.1sp1/nios2eds/bin/gnu/h-i686-mingw32/bin/../lib/gcc/nios2-elf/4.1.2/../../../../nios2-elf/lib\libc.a(lib_a-fclose.o)
 .debug_loc     0x00002d6c       0x79 c:/altera/12.1sp1/nios2eds/bin/gnu/h-i686-mingw32/bin/../lib/gcc/nios2-elf/4.1.2/../../../../nios2-elf/lib\libc.a(lib_a-fstatr.o)
 .debug_loc     0x00002de5       0x5b c:/altera/12.1sp1/nios2eds/bin/gnu/h-i686-mingw32/bin/../lib/gcc/nios2-elf/4.1.2/../../../../nios2-elf/lib\libc.a(lib_a-isattyr.o)
 .debug_loc     0x00002e40       0x97 c:/altera/12.1sp1/nios2eds/bin/gnu/h-i686-mingw32/bin/../lib/gcc/nios2-elf/4.1.2/../../../../nios2-elf/lib\libc.a(lib_a-lseekr.o)
 .debug_loc     0x00002ed7       0x97 c:/altera/12.1sp1/nios2eds/bin/gnu/h-i686-mingw32/bin/../lib/gcc/nios2-elf/4.1.2/../../../../nios2-elf/lib\libc.a(lib_a-readr.o)
 .debug_loc     0x00002f6e       0x56 ../NanoTest_bsp/\libucosii_bsp.a(alt_close.o)
 .debug_loc     0x00002fc4       0x2b ../NanoTest_bsp/\libucosii_bsp.a(alt_dev.o)
 .debug_loc     0x00002fef       0x56 ../NanoTest_bsp/\libucosii_bsp.a(alt_fstat.o)
 .debug_loc     0x00003045       0x57 ../NanoTest_bsp/\libucosii_bsp.a(alt_isatty.o)
 .debug_loc     0x0000309c       0x56 ../NanoTest_bsp/\libucosii_bsp.a(alt_load.o)
 .debug_loc     0x000030f2       0x56 ../NanoTest_bsp/\libucosii_bsp.a(alt_lseek.o)
 .debug_loc     0x00003148       0x2b ../NanoTest_bsp/\libucosii_bsp.a(alt_main.o)
 .debug_loc     0x00003173       0x56 ../NanoTest_bsp/\libucosii_bsp.a(alt_read.o)
 .debug_loc     0x000031c9       0x2b ../NanoTest_bsp/\libucosii_bsp.a(alt_release_fd.o)
 .debug_loc     0x000031f4       0x2b ../NanoTest_bsp/\libucosii_bsp.a(alt_sbrk.o)
 .debug_loc     0x0000321f       0x56 ../NanoTest_bsp/\libucosii_bsp.a(alt_write.o)
 .debug_loc     0x00003275       0x57 ../NanoTest_bsp/\libucosii_bsp.a(alt_env_lock.o)
 .debug_loc     0x000032cc       0x57 ../NanoTest_bsp/\libucosii_bsp.a(alt_malloc_lock.o)
 .debug_loc     0x00003323      0x5e2 ../NanoTest_bsp/\libucosii_bsp.a(os_core.o)
 .debug_loc     0x00003905       0x2b ../NanoTest_bsp/\libucosii_bsp.a(os_dbg.o)
 .debug_loc     0x00003930      0x232 ../NanoTest_bsp/\libucosii_bsp.a(os_flag.o)
 .debug_loc     0x00003b62      0x12d ../NanoTest_bsp/\libucosii_bsp.a(os_mem.o)
 .debug_loc     0x00003c8f      0x1da ../NanoTest_bsp/\libucosii_bsp.a(os_q.o)
 .debug_loc     0x00003e69      0x158 ../NanoTest_bsp/\libucosii_bsp.a(os_sem.o)
 .debug_loc     0x00003fc1      0x207 ../NanoTest_bsp/\libucosii_bsp.a(os_task.o)
 .debug_loc     0x000041c8       0xd7 ../NanoTest_bsp/\libucosii_bsp.a(os_time.o)
 .debug_loc     0x0000429f       0x81 ../NanoTest_bsp/\libucosii_bsp.a(alt_sys_init.o)
 .debug_loc     0x00004320       0xac ../NanoTest_bsp/\libucosii_bsp.a(altera_avalon_jtag_uart_fd.o)
 .debug_loc     0x000043cc       0xac ../NanoTest_bsp/\libucosii_bsp.a(altera_avalon_jtag_uart_init.o)
 .debug_loc     0x00004478       0x2b ../NanoTest_bsp/\libucosii_bsp.a(altera_avalon_jtag_uart_ioctl.o)
 .debug_loc     0x000044a3       0x2c ../NanoTest_bsp/\libucosii_bsp.a(altera_avalon_jtag_uart_read.o)
 .debug_loc     0x000044cf       0x2c ../NanoTest_bsp/\libucosii_bsp.a(altera_avalon_jtag_uart_write.o)
 .debug_loc     0x000044fb       0x56 ../NanoTest_bsp/\libucosii_bsp.a(altera_avalon_timer_sc.o)
 .debug_loc     0x00004551       0x81 ../NanoTest_bsp/\libucosii_bsp.a(altera_avalon_uart_fd.o)
 .debug_loc     0x000045d2       0xd8 ../NanoTest_bsp/\libucosii_bsp.a(altera_avalon_uart_init.o)
 .debug_loc     0x000046aa       0x57 ../NanoTest_bsp/\libucosii_bsp.a(altera_avalon_uart_read.o)
 .debug_loc     0x00004701       0x57 ../NanoTest_bsp/\libucosii_bsp.a(altera_avalon_uart_write.o)
 .debug_loc     0x00004758       0x2b ../NanoTest_bsp/\libucosii_bsp.a(alt_alarm_start.o)
 .debug_loc     0x00004783       0x2b ../NanoTest_bsp/\libucosii_bsp.a(alt_dcache_flush_all.o)
 .debug_loc     0x000047ae       0x56 ../NanoTest_bsp/\libucosii_bsp.a(alt_dev_llist_insert.o)
 .debug_loc     0x00004804       0x2b ../NanoTest_bsp/\libucosii_bsp.a(alt_do_ctors.o)
 .debug_loc     0x0000482f       0x2b ../NanoTest_bsp/\libucosii_bsp.a(alt_do_dtors.o)
 .debug_loc     0x0000485a       0x2b ../NanoTest_bsp/\libucosii_bsp.a(alt_icache_flush_all.o)
 .debug_loc     0x00004885       0xac ../NanoTest_bsp/\libucosii_bsp.a(alt_iic.o)
 .debug_loc     0x00004931       0x2b ../NanoTest_bsp/\libucosii_bsp.a(alt_iic_isr_register.o)
 .debug_loc     0x0000495c       0x56 ../NanoTest_bsp/\libucosii_bsp.a(alt_io_redirect.o)
 .debug_loc     0x000049b2       0x2b ../NanoTest_bsp/\libucosii_bsp.a(alt_irq_handler.o)
 .debug_loc     0x000049dd       0x81 ../NanoTest_bsp/\libucosii_bsp.a(alt_open.o)
 .debug_loc     0x00004a5e       0x56 ../NanoTest_bsp/\libucosii_bsp.a(alt_tick.o)
 .debug_loc     0x00004ab4       0x2b ../NanoTest_bsp/\libucosii_bsp.a(altera_nios2_qsys_irq.o)
 .debug_loc     0x00004adf      0x1ae ../NanoTest_bsp/\libucosii_bsp.a(os_cpu_c.o)
 .debug_loc     0x00004c8d       0x2b ../NanoTest_bsp/\libucosii_bsp.a(alt_find_dev.o)
 .debug_loc     0x00004cb8       0x2b ../NanoTest_bsp/\libucosii_bsp.a(alt_find_file.o)
 .debug_loc     0x00004ce3       0x2b ../NanoTest_bsp/\libucosii_bsp.a(alt_get_fd.o)
 .debug_loc     0x00004d0e       0x2b ../NanoTest_bsp/\libucosii_bsp.a(alt_icache_flush.o)
 .debug_loc     0x00004d39       0x1e c:/altera/12.1sp1/nios2eds/bin/gnu/h-i686-mingw32/bin/../lib/gcc/nios2-elf/4.1.2/../../../../nios2-elf/lib\libc.a(lib_a-atexit.o)
 .debug_loc     0x00004d57       0x3d c:/altera/12.1sp1/nios2eds/bin/gnu/h-i686-mingw32/bin/../lib/gcc/nios2-elf/4.1.2/../../../../nios2-elf/lib\libc.a(lib_a-exit.o)
 .debug_loc     0x00004d94      0x114 c:/altera/12.1sp1/nios2eds/bin/gnu/h-i686-mingw32/bin/../lib/gcc/nios2-elf/4.1.2/../../../../nios2-elf/lib\libc.a(lib_a-memcmp.o)
 .debug_loc     0x00004ea8      0x120 c:/altera/12.1sp1/nios2eds/bin/gnu/h-i686-mingw32/bin/../lib/gcc/nios2-elf/4.1.2/../../../../nios2-elf/lib\libc.a(lib_a-__atexit.o)
 .debug_loc     0x00004fc8      0x1cb c:/altera/12.1sp1/nios2eds/bin/gnu/h-i686-mingw32/bin/../lib/gcc/nios2-elf/4.1.2/../../../../nios2-elf/lib\libc.a(lib_a-__call_atexit.o)
 .debug_loc     0x00005193      0x1d2 c:/altera/12.1sp1/nios2eds/bin/gnu/h-i686-mingw32/bin/../lib/gcc/nios2-elf/4.1.2\libgcc.a(lib2-divmod.o)
 .debug_loc     0x00005365       0x56 ../NanoTest_bsp/\libucosii_bsp.a(alt_exit.o)

.debug_macinfo
 *(.debug_macinfo)

.debug_weaknames
 *(.debug_weaknames)

.debug_funcnames
 *(.debug_funcnames)

.debug_typenames
 *(.debug_typenames)

.debug_varnames
 *(.debug_varnames)

.debug_alt_sim_info
                0x00000000       0x30
 *(.debug_alt_sim_info)
 .debug_alt_sim_info
                0x00000000       0x30 ../NanoTest_bsp//obj/HAL/src/crt0.o
                0x02000000                __alt_data_end = 0x2000000
                0x02000000                PROVIDE (__alt_stack_pointer, __alt_data_end)
                0x0101a044                PROVIDE (__alt_stack_limit, __alt_stack_base)
                0x0101a044                PROVIDE (__alt_heap_start, end)
                0x02000000                PROVIDE (__alt_heap_limit, 0x2000000)
OUTPUT(NanoTest.elf elf32-littlenios2)

.debug_ranges   0x00000000      0x328
 .debug_ranges  0x00000000       0x20 ../NanoTest_bsp//obj/HAL/src/crt0.o
 .debug_ranges  0x00000020       0x28 c:/altera/12.1sp1/nios2eds/bin/gnu/h-i686-mingw32/bin/../lib/gcc/nios2-elf/4.1.2/../../../../nios2-elf/lib\libc.a(lib_a-fvwrite.o)
 .debug_ranges  0x00000048       0x70 c:/altera/12.1sp1/nios2eds/bin/gnu/h-i686-mingw32/bin/../lib/gcc/nios2-elf/4.1.2/../../../../nios2-elf/lib\libc.a(lib_a-mallocr.o)
 .debug_ranges  0x000000b8      0x110 c:/altera/12.1sp1/nios2eds/bin/gnu/h-i686-mingw32/bin/../lib/gcc/nios2-elf/4.1.2/../../../../nios2-elf/lib\libc.a(lib_a-reallocr.o)
 .debug_ranges  0x000001c8       0x20 c:/altera/12.1sp1/nios2eds/bin/gnu/h-i686-mingw32/bin/../lib/gcc/nios2-elf/4.1.2/../../../../nios2-elf/lib\libc.a(lib_a-fflush.o)
 .debug_ranges  0x000001e8       0xa0 c:/altera/12.1sp1/nios2eds/bin/gnu/h-i686-mingw32/bin/../lib/gcc/nios2-elf/4.1.2/../../../../nios2-elf/lib\libc.a(lib_a-fwalk.o)
 .debug_ranges  0x00000288       0x18 ../NanoTest_bsp/\libucosii_bsp.a(altera_avalon_jtag_uart_init.o)
 .debug_ranges  0x000002a0       0x18 ../NanoTest_bsp/\libucosii_bsp.a(altera_avalon_uart_init.o)
 .debug_ranges  0x000002b8       0x28 ../NanoTest_bsp/\libucosii_bsp.a(alt_irq_entry.o)
 .debug_ranges  0x000002e0       0x30 ../NanoTest_bsp/\libucosii_bsp.a(alt_exception_entry.o)
 .debug_ranges  0x00000310       0x18 c:/altera/12.1sp1/nios2eds/bin/gnu/h-i686-mingw32/bin/../lib/gcc/nios2-elf/4.1.2/../../../../nios2-elf/lib\libc.a(lib_a-__call_atexit.o)
