
ARCap.elf:     file format elf32-littlenios2
ARCap.elf
architecture: nios2, flags 0x00000112:
EXEC_P, HAS_SYMS, D_PAGED
start address 0x01000000

Program Header:
    LOAD off    0x00001000 vaddr 0x01000000 paddr 0x01000000 align 2**12
         filesz 0x00029000 memsz 0x0003adb4 flags rwx
    LOAD off    0x0002a020 vaddr 0x02004020 paddr 0x02004020 align 2**12
         filesz 0x000001a0 memsz 0x000001a0 flags r-x
    LOAD off    0x0002b000 vaddr 0x02009000 paddr 0x02009000 align 2**12
         filesz 0x00000000 memsz 0x00000000 flags r-x

Sections:
Idx Name          Size      VMA       LMA       File off  Algn
  0 .entry        00000000  02009000  02009000  0002b000  2**5
                  CONTENTS, ALLOC, LOAD, READONLY, CODE
  1 .exceptions   000001a0  02004020  02004020  0002a020  2**2
                  CONTENTS, ALLOC, LOAD, READONLY, CODE
  2 .text         00025b0c  01000000  01000000  00001000  2**2
                  CONTENTS, ALLOC, LOAD, READONLY, CODE
  3 .rodata       0000172c  01025b0c  01025b0c  00026b0c  2**2
                  CONTENTS, ALLOC, LOAD, READONLY, DATA
  4 .rwdata       00001dc8  01027238  01027238  00028238  2**2
                  CONTENTS, ALLOC, LOAD, DATA, SMALL_DATA
  5 .bss          00011db4  01029000  01029000  0002a000  2**2
                  ALLOC, SMALL_DATA
  6 .comment      00000026  00000000  00000000  0002b000  2**0
                  CONTENTS, READONLY
  7 .debug_aranges 00001f88  00000000  00000000  0002b028  2**3
                  CONTENTS, READONLY, DEBUGGING
  8 .debug_pubnames 0000b1ee  00000000  00000000  0002cfb0  2**0
                  CONTENTS, READONLY, DEBUGGING
  9 .debug_info   00079c5e  00000000  00000000  0003819e  2**0
                  CONTENTS, READONLY, DEBUGGING
 10 .debug_abbrev 000127cc  00000000  00000000  000b1dfc  2**0
                  CONTENTS, READONLY, DEBUGGING
 11 .debug_line   00030bbf  00000000  00000000  000c45c8  2**0
                  CONTENTS, READONLY, DEBUGGING
 12 .debug_frame  000068a8  00000000  00000000  000f5188  2**2
                  CONTENTS, READONLY, DEBUGGING
 13 .debug_str    0000a086  00000000  00000000  000fba30  2**0
                  CONTENTS, READONLY, DEBUGGING
 14 .debug_loc    00019763  00000000  00000000  00105ab6  2**0
                  CONTENTS, READONLY, DEBUGGING
 15 .debug_alt_sim_info 00000010  00000000  00000000  0011f21c  2**2
                  CONTENTS, READONLY, DEBUGGING
 16 .debug_ranges 00003510  00000000  00000000  0011f230  2**3
                  CONTENTS, READONLY, DEBUGGING
 17 .thread_model 00000006  00000000  00000000  00130871  2**0
                  CONTENTS, READONLY
 18 .cpu          00000003  00000000  00000000  00130877  2**0
                  CONTENTS, READONLY
 19 .qsys         00000001  00000000  00000000  0013087a  2**0
                  CONTENTS, READONLY
 20 .simulation_enabled 00000001  00000000  00000000  0013087b  2**0
                  CONTENTS, READONLY
 21 .sysid_hash   00000004  00000000  00000000  0013087c  2**0
                  CONTENTS, READONLY
 22 .sysid_base   00000004  00000000  00000000  00130880  2**0
                  CONTENTS, READONLY
 23 .sysid_time   00000004  00000000  00000000  00130884  2**0
                  CONTENTS, READONLY
 24 .stderr_dev   0000000b  00000000  00000000  00130888  2**0
                  CONTENTS, READONLY
 25 .stdin_dev    0000000b  00000000  00000000  00130893  2**0
                  CONTENTS, READONLY
 26 .stdout_dev   0000000b  00000000  00000000  0013089e  2**0
                  CONTENTS, READONLY
 27 .sopc_system_name 00000006  00000000  00000000  001308a9  2**0
                  CONTENTS, READONLY
 28 .quartus_project_dir 00000025  00000000  00000000  001308af  2**0
                  CONTENTS, READONLY
 29 .jdi          000046ad  00000000  00000000  001308d4  2**0
                  CONTENTS, READONLY
 30 .sopcinfo     00070139  00000000  00000000  00134f81  2**0
                  CONTENTS, READONLY
SYMBOL TABLE:
02009000 l    d  .entry	00000000 .entry
02004020 l    d  .exceptions	00000000 .exceptions
01000000 l    d  .text	00000000 .text
01025b0c l    d  .rodata	00000000 .rodata
01027238 l    d  .rwdata	00000000 .rwdata
01029000 l    d  .bss	00000000 .bss
00000000 l    d  .comment	00000000 .comment
00000000 l    d  .debug_aranges	00000000 .debug_aranges
00000000 l    d  .debug_pubnames	00000000 .debug_pubnames
00000000 l    d  .debug_info	00000000 .debug_info
00000000 l    d  .debug_abbrev	00000000 .debug_abbrev
00000000 l    d  .debug_line	00000000 .debug_line
00000000 l    d  .debug_frame	00000000 .debug_frame
00000000 l    d  .debug_str	00000000 .debug_str
00000000 l    d  .debug_loc	00000000 .debug_loc
00000000 l    d  .debug_alt_sim_info	00000000 .debug_alt_sim_info
00000000 l    d  .debug_ranges	00000000 .debug_ranges
01000034 l       .text	00000000 alt_after_alt_main
00000000 l    df *ABS*	00000000 alt_irq_handler.c
00000000 l    df *ABS*	00000000 InfraredReceiver.cpp
00000000 l    df *ABS*	00000000 InfraredSender.cpp
00000000 l    df *ABS*	00000000 Listener.cpp
00000000 l    df *ABS*	00000000 MotorHandler.cpp
00000000 l    df *ABS*	00000000 NetworkReceiver.cpp
00000000 l    df *ABS*	00000000 NetworkSender.cpp
00000000 l    df *ABS*	00000000 WifiHandler.cpp
010041d8 l     F .text	00000030 _Z7inRangei
01004208 l     F .text	00000038 _Z12inRetryRangei
010042b4 l     F .text	00000078 _Z14stringEndsWithPciS_i
01028db8 l     O .rwdata	00000004 _ZZN11WifiHandler11tcpSendTestEvE5count
00000000 l    df *ABS*	00000000 main.cpp
00000000 l    df *ABS*	00000000 functexcept.cc
00000000 l    df *ABS*	00000000 ios_failure.cc
00000000 l    df *ABS*	00000000 stdexcept.cc
00000000 l    df *ABS*	00000000 allocator-inst.cc
00000000 l    df *ABS*	00000000 string-inst.cc
00000000 l    df *ABS*	00000000 atomicity.cc
00000000 l    df *ABS*	00000000 eh_exception.cc
00000000 l    df *ABS*	00000000 new_handler.cc
00000000 l    df *ABS*	00000000 pure.cc
00000000 l    df *ABS*	00000000 pointer_type_info.cc
00000000 l    df *ABS*	00000000 vmi_class_type_info.cc
00000000 l    df *ABS*	00000000 class_type_info.cc
00000000 l    df *ABS*	00000000 pbase_type_info.cc
00000000 l    df *ABS*	00000000 fundamental_type_info.cc
00000000 l    df *ABS*	00000000 eh_personality.cc
0100c934 l     F .text	00000030 _Z12read_uleb128PKhPj
0100c964 l     F .text	00000054 _Z12read_sleb128PKhPi
0100c9b8 l     F .text	0000009c _Z16get_adjusted_ptrPKSt9type_infoS1_PPv
0100ca54 l     F .text	000001d4 _Z28read_encoded_value_with_basehjPKhPj
0100cc28 l     F .text	00000090 _Z21base_of_encoded_valuehP15_Unwind_Context
0100ccb8 l     F .text	00000100 _Z17parse_lsda_headerP15_Unwind_ContextPKhP16lsda_header_info
0100cdb8 l     F .text	00000084 _Z15get_ttype_entryP16lsda_header_infoj
0100ce3c l     F .text	00000084 _Z20check_exception_specP16lsda_header_infoPKSt9type_infoPvi
00000000 l    df *ABS*	00000000 eh_terminate.cc
00000000 l    df *ABS*	00000000 eh_term_handler.cc
00000000 l    df *ABS*	00000000 eh_catch.cc
00000000 l    df *ABS*	00000000 del_op.cc
00000000 l    df *ABS*	00000000 eh_throw.cc
0100d904 l     F .text	00000060 _Z23__gxx_exception_cleanup19_Unwind_Reason_CodeP17_Unwind_Exception
00000000 l    df *ABS*	00000000 bad_typeid.cc
00000000 l    df *ABS*	00000000 si_class_type_info.cc
00000000 l    df *ABS*	00000000 tinfo.cc
00000000 l    df *ABS*	00000000 eh_alloc.cc
010370d8 l     O .bss	00000800 emergency_buffer
01029020 l     O .bss	00000004 emergency_used
00000000 l    df *ABS*	00000000 bad_cast.cc
00000000 l    df *ABS*	00000000 new_op.cc
00000000 l    df *ABS*	00000000 eh_call.cc
00000000 l    df *ABS*	00000000 eh_globals.cc
01029024 l     O .bss	00000008 eh_globals
00000000 l    df *ABS*	00000000 eh_unex_handler.cc
00000000 l    df *ABS*	00000000 lib2-mul.c
00000000 l    df *ABS*	00000000 unwind-sjlj.c
0102902c l     O .bss	00000004 fc_static
0100dfec l     F .text	00000100 _Unwind_ForcedUnwind_Phase2
0100e104 l     F .text	000000cc _Unwind_RaiseException_Phase2
0100e1d0 l     F .text	00000028 uw_install_context
00000000 l    df *ABS*	00000000 abort.c
00000000 l    df *ABS*	00000000 malloc.c
00000000 l    df *ABS*	00000000 mallocr.c
00000000 l    df *ABS*	00000000 memchr.c
00000000 l    df *ABS*	00000000 memcmp.c
00000000 l    df *ABS*	00000000 memcpy.c
00000000 l    df *ABS*	00000000 memmove.c
00000000 l    df *ABS*	00000000 memset.c
00000000 l    df *ABS*	00000000 printf.c
00000000 l    df *ABS*	00000000 puts.c
00000000 l    df *ABS*	00000000 sbrkr.c
00000000 l    df *ABS*	00000000 signal.c
00000000 l    df *ABS*	00000000 signalr.c
00000000 l    df *ABS*	00000000 snprintf.c
00000000 l    df *ABS*	00000000 strlen.c
00000000 l    df *ABS*	00000000 strncmp.c
00000000 l    df *ABS*	00000000 strnlen.c
00000000 l    df *ABS*	00000000 strtol.c
00000000 l    df *ABS*	00000000 vfprintf.c
0100f9d0 l     F .text	00000058 __sprint_r
01026b76 l     O .rodata	00000010 blanks.3452
01026b66 l     O .rodata	00000010 zeroes.3453
00000000 l    df *ABS*	00000000 wsetup.c
00000000 l    df *ABS*	00000000 ctype_.c
01026c87 l     O .rodata	00000180 _ctype_b
00000000 l    df *ABS*	00000000 dtoa.c
01011a4c l     F .text	00000244 quorem
00000000 l    df *ABS*	00000000 fflush.c
00000000 l    df *ABS*	00000000 findfp.c
01013474 l     F .text	00000058 std
01013580 l     F .text	00000008 __fp_lock
01013588 l     F .text	00000008 __fp_unlock
00000000 l    df *ABS*	00000000 mallocr.c
00000000 l    df *ABS*	00000000 fvwrite.c
00000000 l    df *ABS*	00000000 fwalk.c
00000000 l    df *ABS*	00000000 impure.c
01027640 l     O .rwdata	00000400 impure_data
00000000 l    df *ABS*	00000000 int_errno.c
00000000 l    df *ABS*	00000000 locale.c
01028f50 l     O .rwdata	00000004 charset
01026e2c l     O .rodata	00000030 lconv
00000000 l    df *ABS*	00000000 makebuf.c
00000000 l    df *ABS*	00000000 mprec.c
01026f74 l     O .rodata	0000000c p05.2458
00000000 l    df *ABS*	00000000 mallocr.c
00000000 l    df *ABS*	00000000 s_isinfd.c
00000000 l    df *ABS*	00000000 s_isnand.c
00000000 l    df *ABS*	00000000 stdio.c
00000000 l    df *ABS*	00000000 strcmp.c
00000000 l    df *ABS*	00000000 writer.c
00000000 l    df *ABS*	00000000 mallocr.c
00000000 l    df *ABS*	00000000 closer.c
00000000 l    df *ABS*	00000000 fclose.c
00000000 l    df *ABS*	00000000 fstatr.c
00000000 l    df *ABS*	00000000 isattyr.c
00000000 l    df *ABS*	00000000 lseekr.c
00000000 l    df *ABS*	00000000 readr.c
00000000 l    df *ABS*	00000000 libgcc2.c
00000000 l    df *ABS*	00000000 libgcc2.c
00000000 l    df *ABS*	00000000 dp-bit.c
01016e88 l     F .text	00000410 _fpadd_parts
00000000 l    df *ABS*	00000000 dp-bit.c
00000000 l    df *ABS*	00000000 dp-bit.c
00000000 l    df *ABS*	00000000 dp-bit.c
00000000 l    df *ABS*	00000000 dp-bit.c
00000000 l    df *ABS*	00000000 dp-bit.c
00000000 l    df *ABS*	00000000 dp-bit.c
00000000 l    df *ABS*	00000000 dp-bit.c
00000000 l    df *ABS*	00000000 dp-bit.c
00000000 l    df *ABS*	00000000 dp-bit.c
00000000 l    df *ABS*	00000000 dp-bit.c
00000000 l    df *ABS*	00000000 dp-bit.c
00000000 l    df *ABS*	00000000 lib2-divmod.c
01017fb4 l     F .text	0000007c udivmodsi4
00000000 l    df *ABS*	00000000 libgcc2.c
00000000 l    df *ABS*	00000000 libgcc2.c
00000000 l    df *ABS*	00000000 libgcc2.c
00000000 l    df *ABS*	00000000 dp-bit.c
00000000 l    df *ABS*	00000000 dp-bit.c
00000000 l    df *ABS*	00000000 dp-bit.c
00000000 l    df *ABS*	00000000 alt_close.c
010188b8 l     F .text	00000060 alt_get_errno
00000000 l    df *ABS*	00000000 alt_dev.c
01018918 l     F .text	0000002c alt_dev_null_write
00000000 l    df *ABS*	00000000 alt_errno.c
00000000 l    df *ABS*	00000000 alt_exit.c
01018944 l     F .text	00000040 alt_sim_halt
00000000 l    df *ABS*	00000000 alt_fstat.c
01018a88 l     F .text	00000060 alt_get_errno
00000000 l    df *ABS*	00000000 alt_getpid.c
00000000 l    df *ABS*	00000000 alt_isatty.c
01018bcc l     F .text	00000060 alt_get_errno
00000000 l    df *ABS*	00000000 alt_kill.c
01018d6c l     F .text	00000060 alt_get_errno
00000000 l    df *ABS*	00000000 alt_lseek.c
01018ec0 l     F .text	00000060 alt_get_errno
00000000 l    df *ABS*	00000000 alt_main.c
00000000 l    df *ABS*	00000000 alt_read.c
0101910c l     F .text	00000060 alt_get_errno
00000000 l    df *ABS*	00000000 alt_release_fd.c
00000000 l    df *ABS*	00000000 alt_sbrk.c
01028f6c l     O .rwdata	00000004 heap_end
00000000 l    df *ABS*	00000000 alt_write.c
010193c4 l     F .text	00000060 alt_get_errno
00000000 l    df *ABS*	00000000 alt_env_lock.c
01028f70 l     O .rwdata	00000004 lockid
0102905c l     O .bss	00000004 locks
00000000 l    df *ABS*	00000000 alt_malloc_lock.c
01028f74 l     O .rwdata	00000004 lockid
01029064 l     O .bss	00000004 locks
00000000 l    df *ABS*	00000000 os_core.c
0101adfc l     F .text	00000044 OS_InitMisc
0101ae40 l     F .text	0000006c OS_InitRdyList
0101afa4 l     F .text	000000e0 OS_InitTCBList
0101ad20 l     F .text	000000dc OS_InitEventList
0101aeac l     F .text	0000007c OS_InitTaskIdle
0101af28 l     F .text	0000007c OS_InitTaskStat
0101b218 l     F .text	00000070 OS_SchedNew
00000000 l    df *ABS*	00000000 os_dbg.c
00000000 l    df *ABS*	00000000 os_flag.c
0101d138 l     F .text	00000110 OS_FlagTaskRdy
0101ce90 l     F .text	000001c4 OS_FlagBlock
00000000 l    df *ABS*	00000000 os_mem.c
00000000 l    df *ABS*	00000000 os_q.c
00000000 l    df *ABS*	00000000 os_sem.c
00000000 l    df *ABS*	00000000 os_task.c
00000000 l    df *ABS*	00000000 os_time.c
00000000 l    df *ABS*	00000000 alt_sys_init.c
01027bf4 l     O .rwdata	000000c8 epcs_flash_controller_0
01027cbc l     O .rwdata	0000106c jtag_uart_0
01028d28 l     O .rwdata	0000002c adc
01028d54 l     O .rwdata	0000002c uart_motor
01028d80 l     O .rwdata	0000002c uart_wifi
01021ab0 l     F .text	00000038 alt_dev_reg
00000000 l    df *ABS*	00000000 altera_avalon_epcs_flash_controller.c
01021b74 l     F .text	00000288 alt_epcs_flash_query
01021b3c l     F .text	00000038 alt_flash_device_register
01021dfc l     F .text	00000108 alt_epcs_flash_memcmp
01022284 l     F .text	00000094 alt_epcs_test_address
00000000 l    df *ABS*	00000000 altera_avalon_jtag_uart_fd.c
00000000 l    df *ABS*	00000000 altera_avalon_jtag_uart_init.c
01022744 l     F .text	000002c8 altera_avalon_jtag_uart_irq
01022a0c l     F .text	00000114 altera_avalon_jtag_uart_timeout
00000000 l    df *ABS*	00000000 altera_avalon_jtag_uart_ioctl.c
00000000 l    df *ABS*	00000000 altera_avalon_jtag_uart_read.c
00000000 l    df *ABS*	00000000 altera_avalon_jtag_uart_write.c
00000000 l    df *ABS*	00000000 altera_avalon_timer_sc.c
01023224 l     F .text	00000074 alt_avalon_timer_sc_irq
00000000 l    df *ABS*	00000000 altera_up_avalon_de0_nano_adc.c
00000000 l    df *ABS*	00000000 altera_up_avalon_rs232.c
00000000 l    df *ABS*	00000000 epcs_commands.c
01023990 l     F .text	00000038 epcs_await_wip_released
010239c8 l     F .text	00000038 epcs_test_wip
00000000 l    df *ABS*	00000000 alt_alarm_start.c
00000000 l    df *ABS*	00000000 alt_dev_llist_insert.c
01024114 l     F .text	00000060 alt_get_errno
00000000 l    df *ABS*	00000000 alt_do_ctors.c
00000000 l    df *ABS*	00000000 alt_do_dtors.c
00000000 l    df *ABS*	00000000 alt_find_dev.c
00000000 l    df *ABS*	00000000 alt_flash_dev.c
00000000 l    df *ABS*	00000000 alt_io_redirect.c
010243a0 l     F .text	000000d8 alt_open_fd
00000000 l    df *ABS*	00000000 alt_irq_register.c
00000000 l    df *ABS*	00000000 alt_irq_vars.c
00000000 l    df *ABS*	00000000 alt_open.c
010246b0 l     F .text	000000f8 alt_file_locked
01024934 l     F .text	00000060 alt_get_errno
00000000 l    df *ABS*	00000000 alt_tick.c
00000000 l    df *ABS*	00000000 altera_nios2_qsys_irq.c
00000040 l       *ABS*	00000000 OSCtxSw_SWITCH_PC
00000000 l    df *ABS*	00000000 os_cpu_c.c
00000014 l       *ABS*	00000000 OSTCBNext_OFFSET
00000032 l       *ABS*	00000000 OSTCBPrio_OFFSET
00000000 l       *ABS*	00000000 OSTCBStkPtr_OFFSET
00000000 l    df *ABS*	00000000 altera_avalon_spi.c
00000000 l    df *ABS*	00000000 alt_find_file.c
00000000 l    df *ABS*	00000000 alt_get_fd.c
00000000 l    df *ABS*	00000000 atexit.c
00000000 l    df *ABS*	00000000 exit.c
00000000 l    df *ABS*	00000000 __atexit.c
00000000 l    df *ABS*	00000000 __call_atexit.c
01025620 l     F .text	00000004 register_fini
0100b0b0  w    F .text	0000005c _ZNSs2atEm
0100dbd8 g     F .text	00000040 __cxa_free_exception
01002118  w    F .text	00000030 _ZNSt12_Vector_baseIcSaIcEE12_Vector_implD1Ev
01009a4c  w    F .text	00000034 _ZNSsC1IN9__gnu_cxx17__normal_iteratorIPcSsEEEET_S4_RKSaIcE
0100db88 g     F .text	00000008 _ZNKSt9type_info15__is_function_pEv
01014828 g     F .text	00000094 _mprec_log10
01001b58  w    F .text	00000058 _ZN12MotorHandlerD0Ev
0100d614 g     F .text	00000018 _ZSt10unexpectedv
01028fc2 g     O .rwdata	00000002 OSTaskNameSize
01022184 g     F .text	00000090 alt_epcs_flash_get_info
01028e44  w    O .rwdata	00000008 _ZTIw
01005a8c g     F .text	00000034 _ZSt18__throw_bad_typeidv
010261e8  w    O .rodata	00000018 _ZTI18SemCreateException
01014914 g     F .text	00000088 __any_on
0101605c g     F .text	00000070 _isatty_r
01007cc4  w    F .text	00000004 _ZNSaIwEC1Ev
01026f4c g     O .rodata	00000028 __mprec_tinytens
01007328 g     F .text	00000030 _ZNSt14overflow_errorC1ERKSs
01028e3c  w    O .rwdata	00000008 _ZTIc
01018f20 g     F .text	000000c8 alt_main
010013b4 g     F .text	0000006c _ZN12MotorHandler5resetEv
01009570  w    F .text	00000040 _ZNKSs6substrEmm
0100efdc g     F .text	000000a0 _puts_r
0103ab24 g     O .bss	00000100 alt_irq
01028e34  w    O .rwdata	00000008 _ZTIa
01028dbc  w    O .rwdata	00000004 _ZNSs4nposE
01000628  w    F .text	00000058 _ZN16ADCOpenExceptionD0Ev
010160cc g     F .text	00000078 _lseek_r
01000788 g     F .text	0000005c _ZN14InfraredSender4testEv
0101da2c g     F .text	000000d4 OS_MemInit
01000bf8 g     F .text	000000ac _ZN8Listener6updateEv
0100df9c g     F .text	00000014 _Unwind_GetIPInfo
01002608  w    F .text	00000038 _ZNSt6vectorIP8os_eventSaIS1_EEC1ERKS2_
0102198c g     F .text	00000064 OSTimeSet
010179a8 g     F .text	00000088 __eqdf2
01026834  w    O .rodata	00000010 _ZTIPy
01028ef4  w    O .rwdata	00000002 _ZTSa
0100d81c g     F .text	00000074 __cxa_rethrow
01000410  w    F .text	00000028 _ZNK18QueuePostException4whatEv
01025ba4  w    O .rodata	00000018 _ZTI18QueuePostException
0100df3c g     F .text	0000000c _Unwind_SjLj_Unregister
01008bf4  w    F .text	00000018 _ZNKSs6rbeginEv
0100d534 g     F .text	00000014 _ZSt14set_unexpectedPFvvE
010034d8  w    F .text	00000064 _ZNSt6__copyILb1ESt26random_access_iterator_tagE4copyIP8os_eventEEPT_PKS5_S8_S6_
01019978 g     F .text	000006b4 OSEventPendMulti
01009964  w    F .text	000000b4 _ZNSs12_S_constructIN9__gnu_cxx17__normal_iteratorIPcSsEEEES2_T_S4_RKSaIcESt20forward_iterator_tag
010268c4  w    O .rodata	00000010 _ZTIPKi
010096d0  w    F .text	00000020 _ZNSs13_S_copy_charsEPcN9__gnu_cxx17__normal_iteratorIS_SsEES2_
0100bae0  w    F .text	00000024 _ZNSs7replaceEmmRKSs
0100df8c g     F .text	00000010 _Unwind_GetIP
0103adb4 g       *ABS*	00000000 __alt_heap_start
01024f3c g     F .text	00000020 OSTaskCreateHook
01028eb4  w    O .rwdata	00000003 _ZTSPj
01025d84  w    O .rodata	00000014 _ZTV18QueuePendException
01002cd4  w    F .text	00000028 _ZSt13__destroy_auxIN9__gnu_cxx17__normal_iteratorIPP8os_eventSt6vectorIS3_SaIS3_EEEEEvT_S9_11__true_type
010290c8 g     O .bss	00002000 task1_stk
010075a8 g     F .text	00000030 _ZNSt12length_errorC1ERKSs
0100f3dc g     F .text	00000074 _kill_r
0100b18c  w    F .text	00000038 _ZNSs5beginEv
0100bc94 g     F .text	00000010 _ZNSt9bad_allocD2Ev
0100ef64 g     F .text	00000044 printf
01028f9a g     O .rwdata	00000002 OSMboxEn
01003264  w    F .text	00000044 _ZSt24__uninitialized_copy_auxIN9__gnu_cxx17__normal_iteratorIPcSt6vectorIcSaIcEEEES6_ET0_T_S8_S7_11__true_type
0101a080 g     F .text	0000007c OSIntEnter
0100da84 g     F .text	00000034 _ZNK10__cxxabiv120__si_class_type_info20__do_find_public_srcElPKvPKNS_17__class_type_infoES2_
0100f31c g     F .text	000000a0 _signal_r
01028e90  w    O .rwdata	00000003 _ZTSPx
01026270  w    O .rodata	00000013 _ZTSSt14overflow_error
01015b14 g     F .text	00000068 __sseek
010134dc g     F .text	000000a4 __sinit
01028e9c  w    O .rwdata	00000003 _ZTSPm
01028faa g     O .rwdata	00000002 OSQEn
01002320  w    F .text	0000005c _ZN9__gnu_cxx13new_allocatorIP8os_eventE9constructEPS2_RKS2_
0100a88c  w    F .text	000000f8 _ZNSs6assignEPKcm
01004a34 g     F .text	000000cc _ZN11WifiHandler10tcpConnectEv
01002424  w    F .text	00000024 _ZNK9__gnu_cxx17__normal_iteratorIPcSt6vectorIcSaIcEEE4baseEv
0100da74 g     F .text	00000010 _ZN10__cxxabiv120__si_class_type_infoD2Ev
010141e8 g     F .text	00000084 _setlocale_r
01026a74  w    O .rodata	00000025 _ZTSN10__cxxabiv120__si_class_type_infoE
010135dc g     F .text	0000009c __sfmoreglue
01003784  w    F .text	00000040 _ZNSt12_Vector_baseIcSaIcEE11_M_allocateEm
01003488  w    F .text	00000050 _ZSt13copy_backwardIN9__gnu_cxx17__normal_iteratorIPP8os_eventSt6vectorIS3_SaIS3_EEEES8_ET0_T_SA_S9_
01019634 g     F .text	000000d0 __malloc_unlock
01000680  w    F .text	00000058 _ZN16ADCOpenExceptionD1Ev
01024f98 g     F .text	0000001c OSTaskStatHook
010080c4  w    F .text	00000018 _ZNSs7_M_moveEPcPKcm
010236d4 g     F .text	00000090 alt_up_rs232_read_fd
01002784  w    F .text	0000003c _ZNSt6vectorIP8os_eventSaIS1_EE3endEv
01004bbc g     F .text	000000bc _ZN11WifiHandler17tcpSendAndConfirmEPct
01025f20  w    O .rodata	0000000c _ZTI12MotorHandler
0100bef4 g     F .text	00000240 _ZNK10__cxxabiv121__vmi_class_type_info11__do_upcastEPKNS_17__class_type_infoEPKvRNS1_15__upcast_resultE
010028a8  w    F .text	0000003c _ZSt8_DestroyIPccEvT_S1_SaIT0_E
0102906c g     O .bss	00000001 OSLockNesting
0100bb34  w    F .text	00000064 _ZNSs7replaceEN9__gnu_cxx17__normal_iteratorIPcSsEES2_PKc
0100d634 g     F .text	00000020 _ZSt18uncaught_exceptionv
01026230  w    O .rodata	0000000c _ZTISt15underflow_error
01028fe8 g     O .rwdata	00000002 OSDataSize
0102906d g     O .bss	00000001 OSRunning
0100a4fc  w    F .text	000000bc _ZNSsD2Ev
01003fb4 g     F .text	00000050 _ZN13NetworkSenderC1EP11WifiHandler
0100a3b4  w    F .text	0000008c _ZNSspLEc
01009fa0  w    F .text	000000e0 _ZNSs6appendEmc
0100edec g     F .text	000000e0 memmove
01024fd0 g     F .text	0000001c OSInitHookBegin
01028eb8  w    O .rwdata	00000002 _ZTSj
01028fe0 g     O .rwdata	00000002 OSTmrSize
010001d8 g     F .text	00000090 _ZN16InfraredReceiverC1Ev
01003190  w    F .text	00000084 _ZNSt13__copy_normalILb1ELb1EE6copy_nIN9__gnu_cxx17__normal_iteratorIPcSt6vectorIcSaIcEEEES8_EET0_T_SA_S9_
0100bbe0 g     F .text	00000010 _ZNSt9exceptionD2Ev
010135cc g     F .text	00000010 _cleanup
01002e90  w    F .text	00000050 _ZNSt12_Vector_baseIP8os_eventSaIS1_EE13_M_deallocateEPS1_m
0100f450 g     F .text	000000bc snprintf
0101499c g     F .text	000000bc _Balloc
01026664  w    O .rodata	00000024 _ZTSN10__cxxabiv119__pointer_type_infoE
01000a80  w    F .text	00000058 _ZN14InfraredSenderD0Ev
01002664  w    F .text	00000034 _ZN9__gnu_cxx17__normal_iteratorIPP8os_eventSt6vectorIS2_SaIS2_EEEC1ERKS3_
01009944  w    F .text	00000020 _ZNSs13_S_copy_charsEPcN9__gnu_cxx17__normal_iteratorIPKcSsEES4_
0100bd80 g     F .text	00000010 _ZN10__cxxabiv119__pointer_type_infoD1Ev
010262d4  w    O .rodata	00000011 _ZTSSt12out_of_range
01026af8  w    O .rodata	0000000c _ZTISt8bad_cast
010080dc  w    F .text	00000018 _ZNSs7_M_copyEPcPKcm
01029070 g     O .bss	00000004 OSIdleCtr
0100aa14  w    F .text	00000040 _ZNSsaSEPKc
0100bb98 g     F .text	00000014 _ZN9__gnu_cxx18__exchange_and_addEPVii
01000a30  w    F .text	00000050 _ZN8ListenerD2Ev
01005b5c g     F .text	00000108 _ZSt19__throw_ios_failurePKc
01017ab8 g     F .text	00000088 __gtdf2
0102659c  w    O .rodata	00000014 _ZTVSt13bad_exception
01024c08 g       .text	00000000 OSStartTsk
00000000  w      *UND*	00000000 __errno
0101b54c g     F .text	000002e0 OS_TCBInit
01003214  w    F .text	00000050 _ZSt4copyIN9__gnu_cxx17__normal_iteratorIPcSt6vectorIcSaIcEEEES6_ET0_T_S8_S7_
01023898 g     F .text	000000f8 epcs_sector_erase
0100427c g     F .text	00000038 _ZN11WifiHandler7hasDataEv
01028f18  w    O .rwdata	00000002 _ZTSb
01006ab8  w    F .text	00000034 _ZNSt14overflow_errorD0Ev
01004d94 g     F .text	00000038 _ZN11WifiHandler4lockEv
02009000 g     F .entry	00000000 __reset
01002268  w    F .text	00000038 _ZNSaIP8os_eventEC2ERKS1_
01028dc4  w    O .rwdata	00000001 _ZNSs4_Rep11_S_terminalE
01023360 g     F .text	00000140 alt_up_de0_nano_adc_read
010008c4 g     F .text	0000004c _ZN14InfraredSenderC1Ev
0100888c  w    F .text	000000e0 _ZNKSs16find_last_not_ofEPKcmm
010007e4 g     F .text	00000028 _Z25infrared_sender_test_taskPv
01002fc8  w    F .text	00000048 _ZSt19__copy_backward_auxIPcS0_ET0_T_S2_S1_
0100dfcc g     F .text	00000008 _Unwind_GetRegionStart
01028ef8  w    O .rwdata	00000004 _ZTSPKc
01028f10  w    O .rwdata	00000004 _ZTSPKb
01028e80  w    O .rwdata	00000004 _ZTSPKy
01001c60  w    F .text	00000058 _ZN17UARTOpenExceptionD1Ev
01028fe6 g     O .rwdata	00000002 OSTmrWheelTblSize
01028f86 g     O .rwdata	00000002 OSEventSize
01029074 g     O .bss	00000001 OSPrioHighRdy
01015fe8 g     F .text	00000074 _fstat_r
01002640  w    F .text	00000024 _ZNKSt6vectorIcSaIcEE8max_sizeEv
010268e4  w    O .rodata	00000010 _ZTIPKt
01024f5c g     F .text	00000020 OSTaskDelHook
01028ef0  w    O .rwdata	00000003 _ZTSPa
01004f3c g     F .text	0000006c _ZN11WifiHandler10tcpReceiveEv
0100dda0 g     F .text	00000100 _Znwm
0100862c  w    F .text	00000064 _ZNSs4_Rep10_M_disposeERKSaIcE
0100237c  w    F .text	00000034 _ZN9__gnu_cxx17__normal_iteratorIPcSt6vectorIcSaIcEEEC1ERKS1_
0102903c g     O .bss	00000004 errno
01008d08  w    F .text	0000003c _ZNSsC2EmcRKSaIcE
01024be8 g       .text	00000000 OSStartHighRdy
01008a28  w    F .text	0000007c _ZNKSs7compareEPKc
01009a80  w    F .text	000000fc _ZNSsC1ERKSs
01028f1c  w    O .rwdata	00000004 _ZTSPKv
01020144 g     F .text	00000200 OSTaskCreateExt
0101c9ac g     F .text	00000068 OSFlagPendGetFlagsRdy
01028fc6 g     O .rwdata	00000002 OSTaskStatStkSize
0100e39c g     F .text	00000080 _Unwind_Backtrace
01005128 g     F .text	000000fc _ZN11WifiHandlerC1Ev
010269a4  w    O .rodata	00000010 _ZTIPKb
01009204  w    F .text	00000088 _ZNKSs4copyEPcmm
0101b9b8 g     F .text	00000334 OSFlagAccept
0101e168 g     F .text	000000c8 OSQFlush
0101db00 g     F .text	00000154 OSQAccept
01029054 g     O .bss	00000004 alt_argv
01003ab8  w    F .text	00000088 _ZNSt6vectorIcSaIcEE9push_backERKc
01030dac g       *ABS*	00000000 _gp
01025bec  w    O .rodata	00000011 _ZTS14ARCapException
01001cb8 g     F .text	00000128 _ZN15NetworkReceiver4postEPKc
0100d964 g     F .text	00000034 _ZNSt10bad_typeidD0Ev
01006aec  w    F .text	00000010 _ZNSt14overflow_errorD1Ev
0100c914 g     F .text	00000010 _ZN10__cxxabiv123__fundamental_type_infoD1Ev
0101ff70 g     F .text	000001d4 OSTaskCreate
01001b18  w    F .text	00000040 _ZN17UARTOpenExceptionC1Ev
0101f9fc g     F .text	00000574 OSTaskChangePrio
0100dd4c g     F .text	00000034 _ZNSt8bad_castD0Ev
01007cb4  w    F .text	00000004 _ZNSaIwED1Ev
01029068 g     O .bss	00000004 alt_heapsem
01018ae8 g     F .text	00000020 getpid
0100ac48  w    F .text	00000038 _ZNSs6assignEmc
01007dcc  w    F .text	0000000c _ZNKSs4_Rep12_M_is_leakedEv
0101b82c g     F .text	0000018c OSDebugInit
0100cec0 g     F .text	00000180 __cxa_call_unexpected
01020344 g     F .text	0000040c OSTaskDel
0100d62c g     F .text	00000008 __cxa_get_exception_ptr
01025d54  w    O .rodata	00000018 _ZTI18QueuePendException
01028ea4  w    O .rwdata	00000004 _ZTSPKl
010080fc  w    F .text	0000000c _ZNKSsixEm
010046d0 g     F .text	00000068 _ZN11WifiHandler5readyEv
01027a74 g     O .rwdata	00000180 alt_fd_list
0100c85c g     F .text	00000034 _ZN10__cxxabiv117__pbase_type_infoD0Ev
01037900 g     O .bss	00000370 OSFlagTbl
01026894  w    O .rodata	00000010 _ZTIPl
010262e8  w    O .rodata	00000014 _ZTVSt12out_of_range
0100e34c g     F .text	00000050 _Unwind_SjLj_ForcedUnwind
0101aafc g     F .text	000000b8 OS_EventTaskRemove
01023b9c g     F .text	00000064 epcs_write_status_register
01002b28  w    F .text	00000034 _ZN9__gnu_cxx17__normal_iteratorIPKP8os_eventSt6vectorIS2_SaIS2_EEEC1ERKS4_
0100df60 g     F .text	00000014 _Unwind_GetCFA
0100d520 g     F .text	00000014 _ZSt13set_terminatePFvvE
01028e1c  w    O .rwdata	00000008 _ZTIt
0102423c g     F .text	00000094 alt_find_dev
0100ed4c g     F .text	000000a0 memcpy
010083a8  w    F .text	00000010 _ZNSsC2Ev
01028f20  w    O .rwdata	00000003 _ZTSPv
01008298  w    F .text	0000000c _ZNKSs17find_first_not_ofERKSsm
01028fb0 g     O .rwdata	00000002 OSRdyTblSize
01008108  w    F .text	000000a4 _ZNKSs17find_first_not_ofEPKcmm
01025ff4  w    O .rodata	0000000c _ZTI13NetworkSender
0100353c  w    F .text	00000048 _ZSt10__copy_auxIPP8os_eventS2_ET0_T_S4_S3_
01009850  w    F .text	00000034 _ZNSsC1IPKcEET_S2_RKSaIcE
01000f1c  w    F .text	00000058 _ZN18QueuePendExceptionD1Ev
010135c0 g     F .text	0000000c _cleanup_r
01017c50 g     F .text	000000f8 __floatsidf
01024478 g     F .text	00000078 alt_io_redirect
01017bc8 g     F .text	00000088 __ltdf2
01004dcc g     F .text	000000ac _ZN11WifiHandler7httpGetEPc
010262b4  w    O .rodata	00000014 _ZTVSt11range_error
01007884 g     F .text	00000104 _ZNSt13runtime_errorD2Ev
010065c4 g     F .text	00000190 _ZSt21__throw_runtime_errorPKc
01025b0c g       *ABS*	00000000 __DTOR_END__
0100834c  w    F .text	00000050 _ZNKSs5rfindEPKcm
010029a0  w    F .text	00000024 _ZNK9__gnu_cxx17__normal_iteratorIPKcSt6vectorIcSaIcEEE4baseEv
010269d4  w    O .rodata	00000010 _ZTIPv
0100c6b0 g     F .text	00000010 _ZN10__cxxabiv117__class_type_infoD1Ev
01007498 g     F .text	000000b0 _ZNSt11logic_errorC2ERKSs
01026354  w    O .rodata	00000014 _ZTVSt16invalid_argument
010083b8  w    F .text	00000010 _ZN9__gnu_cxxeqIPKcSsEEbRKNS_17__normal_iteratorIT_T0_EES8_
01023660 g     F .text	00000074 alt_up_rs232_read_data
0100f07c g     F .text	00000014 puts
01028e4c  w    O .rwdata	00000008 _ZTIb
010266e8  w    O .rodata	0000000c _ZTIN10__cxxabiv121__vmi_class_type_infoE
01026798  w    O .rodata	0000000c _ZTIN10__cxxabiv117__pbase_type_infoE
0100286c  w    F .text	0000003c _ZSt8_DestroyIPcEvT_S1_
0100b2dc  w    F .text	00000150 _ZStplIcSt11char_traitsIcESaIcEESbIT_T0_T1_EPKS3_RKS6_
01007ca8  w    F .text	00000004 _ZNSaIcED2Ev
01019704 g     F .text	00000130 OSEventNameGet
01028f94 g     O .rwdata	00000002 OSFlagMax
010004a0  w    F .text	00000040 _ZN16ADCOpenExceptionC1Ev
01026218  w    O .rodata	00000014 _ZTV18SemCreateException
01004240 g     F .text	0000003c _ZN11WifiHandler14tcpReceiveTestEv
010073b8 g     F .text	00000030 _ZNSt11range_errorC2ERKSs
01026884  w    O .rodata	00000010 _ZTIPKl
01022318 g     F .text	0000011c alt_epcs_flash_write_block
01014778 g     F .text	000000b0 __ratio
0101a0fc g     F .text	00000100 OSIntExit
01009dec  w    F .text	00000004 _ZNSsaSERKSs
010262c8  w    O .rodata	0000000c _ZTISt12out_of_range
01008034  w    F .text	00000038 _ZNKSs15_M_check_lengthEmmPKc
01028fce g     O .rwdata	00000002 OSTCBSize
01008c0c  w    F .text	000000c0 _ZNSs12_S_constructEmcRKSaIcE
01007ca4  w    F .text	00000004 _ZNSaIcEC1Ev
0100bd4c g     F .text	00000034 _ZN10__cxxabiv119__pointer_type_infoD0Ev
01029075 g     O .bss	00000001 OSPrioCur
01022c88 g     F .text	000002c0 altera_avalon_jtag_uart_read
0100e4a0 g     F .text	00000014 malloc
0100efa8 g     F .text	00000034 _printf_r
010027c0  w    F .text	00000028 _ZNKSt6vectorIP8os_eventSaIS1_EE8max_sizeEv
02004000 g       *ABS*	00000000 __alt_mem_onchip_memory2_0
010180f0 g     F .text	00000008 __udivsi3
01018b08 g     F .text	000000c4 isatty
0100f100 g     F .text	000000cc _raise_r
01028fb4 g     O .rwdata	00000002 OSStkWidth
01028ecc  w    O .rwdata	00000003 _ZTSPt
01026e5c g     O .rodata	000000c8 __mprec_tens
0100a7f0  w    F .text	0000009c _ZNSs15_M_replace_safeEmmPKcm
01028fa8 g     O .rwdata	00000002 OSPtrSize
01005f84 g     F .text	00000190 _ZSt22__throw_overflow_errorPKc
01007578 g     F .text	00000030 _ZNSt12out_of_rangeC2ERKSs
0100c8e0 g     F .text	00000034 _ZN10__cxxabiv123__fundamental_type_infoD0Ev
010141c4 g     F .text	00000008 __locale_charset
01028f88 g     O .rwdata	00000002 OSEventTblSize
01009df0  w    F .text	00000128 _ZNSs7reserveEm
01008e3c  w    F .text	000000c8 _ZNKSs7compareEmmPKc
01024b5c g       .text	00000000 OSCtxSw
01007d84  w    F .text	0000000c _ZNKSs4sizeEv
01029030 g     O .bss	00000004 __malloc_top_pad
0100a5b8  w    F .text	00000238 _ZNSs9_M_mutateEmmm
01005348  w    F .text	00000040 _ZN18SemCreateExceptionC1Ev
01025d98  w    O .rodata	00000010 _ZTIP20QueueCreateException
0100b6c0  w    F .text	000002e0 _ZNSs7replaceEmmPKcm
0100843c  w    F .text	00000058 _ZNKSs16find_last_not_ofEcm
01029078 g     O .bss	00000004 OSTCBList
0100f3d8 g     F .text	00000004 _getpid_r
010053e0  w    F .text	00000058 _ZN18SemCreateExceptionD1Ev
01001024 g     F .text	0000025c _ZN12MotorHandler4testEv
0102904c g     O .bss	00000004 alt_fd_list_lock
0100ba10  w    F .text	00000010 _ZNSs7replaceEN9__gnu_cxx17__normal_iteratorIPcSsEES2_PKcm
01003584  w    F .text	00000084 _ZNSt13__copy_normalILb1ELb1EE6copy_nIN9__gnu_cxx17__normal_iteratorIPP8os_eventSt6vectorIS5_SaIS5_EEEESA_EET0_T_SC_SB_
01028f4c g     O .rwdata	00000004 __mb_cur_max
0100a18c  w    F .text	00000040 _ZNSs6appendEPKc
010141cc g     F .text	0000000c _localeconv_r
0100bdd4 g     F .text	00000010 _ZN10__cxxabiv121__vmi_class_type_infoD1Ev
01008494  w    F .text	00000064 _ZNKSs17find_first_not_ofEcm
0100280c  w    F .text	00000038 _ZN9__gnu_cxx17__normal_iteratorIPP8os_eventSt6vectorIS2_SaIS2_EEEppEv
01015100 g     F .text	0000003c __i2b
01013ba8 g     F .text	0000049c __sfvwrite_r
0100c6d0 g     F .text	00000060 _ZNK10__cxxabiv117__class_type_info10__do_catchEPKSt9type_infoPPvj
01028e68  w    O .rwdata	00000004 _ZTSPKd
0100f254 g     F .text	000000b4 __sigtramp_r
01007d04  w    F .text	00000008 _ZNKSs9_M_ibeginEv
01007218 g     F .text	000000b0 _ZNSt13runtime_errorC2ERKSs
01037c70 g     O .bss	00000c30 OSMemTbl
0102907c g     O .bss	00000001 OSTickStepState
01002d74  w    F .text	00000038 _ZN9__gnu_cxx13new_allocatorIcE10deallocateEPcm
01025c38  w    O .rodata	00000014 _ZTSP16ADCOpenException
0100494c g     F .text	000000e8 _ZN11WifiHandler6statusEv
0100f090 g     F .text	00000070 _sbrk_r
010032ec  w    F .text	00000044 _ZSt22__uninitialized_copy_aIN9__gnu_cxx17__normal_iteratorIPcSt6vectorIcSaIcEEEES6_cET0_T_S8_S7_SaIT1_E
01026aa8  w    O .rodata	00000020 _ZTVSt9type_info
0102633c  w    O .rodata	00000015 _ZTSSt16invalid_argument
01005af4 g     F .text	00000034 _ZSt17__throw_bad_allocv
01028fac g     O .rwdata	00000002 OSQMax
01003094  w    F .text	00000050 _ZSt13copy_backwardIN9__gnu_cxx17__normal_iteratorIPcSt6vectorIcSaIcEEEES6_ET0_T_S8_S7_
010388a0 g     O .bss	00000800 OSTaskStatStk
0101d614 g     F .text	0000010c OSMemNameGet
01025fe4  w    O .rodata	00000010 _ZTS13NetworkSender
0100c890 g     F .text	00000010 _ZN10__cxxabiv117__pbase_type_infoD1Ev
0102f0c8 g     O .bss	00002000 task4_stk
01007cd4  w    F .text	00000010 _ZNSt11char_traitsIcE2eqERKcS2_
01028f8c g     O .rwdata	00000002 OSFlagEn
01016144 g     F .text	00000078 _read_r
0100bbb0 g     F .text	00000010 _ZNKSt9exception4whatEv
01008814  w    F .text	00000068 _ZNKSs4findEcm
01007cb0  w    F .text	00000004 _ZNSaIwEC2Ev
01028fd2 g     O .rwdata	00000002 OSTimeTickHookEn
01028e98  w    O .rwdata	00000004 _ZTSPKm
0101d248 g     F .text	000000ac OS_FlagUnlink
0101e6cc g     F .text	00000180 OSQPost
01027a40 g     O .rwdata	0000000c __lc_ctype
01028f64 g     O .rwdata	00000004 alt_max_fd
010235c8 g     F .text	00000050 alt_up_rs232_check_parity
01008aa4  w    F .text	00000050 _ZNKSs16find_last_not_ofEPKcm
0101b0d8 g     F .text	0000006c OS_MemCopy
01025b7c  w    O .rodata	00000010 _ZTIP18QueuePostException
01000520  w    F .text	00000058 _ZN14ARCapExceptionD2Ev
01025c64  w    O .rodata	00000013 _ZTS16ADCOpenException
0101b144 g     F .text	000000d4 OS_Sched
010185b8 g     F .text	00000138 __unpack_d
010089d8  w    F .text	00000050 _ZNKSs4findEPKcm
01015ec4 g     F .text	00000110 _fclose_r
01008b44  w    F .text	00000050 _ZNKSs12find_last_ofEPKcm
0101d510 g     F .text	00000104 OSMemGet
010082a4  w    F .text	000000a8 _ZNKSs5rfindEPKcmm
01020a78 g     F .text	000001c4 OSTaskNameSet
01026618  w    O .rodata	0000000c _ZTISt9bad_alloc
01007cf8  w    F .text	0000000c _ZNKSs6_M_repEv
01013440 g     F .text	00000034 fflush
01026814  w    O .rodata	00000010 _ZTIPf
01029034 g     O .bss	00000004 __malloc_max_sbrked_mem
01029080 g     O .bss	00000004 OSCtxSwCtr
01024fb4 g     F .text	0000001c OSTimeTickHook
010244f0 g     F .text	000001c0 alt_irq_register
0100ad50  w    F .text	00000050 _ZNSs5eraseEN9__gnu_cxx17__normal_iteratorIPcSsEE
01028f96 g     O .rwdata	00000002 OSFlagNameSize
0100b10c  w    F .text	00000044 _ZNSsixEm
01009c78  w    F .text	00000174 _ZNSs6assignERKSs
01026640  w    O .rodata	00000024 _ZTVN10__cxxabiv119__pointer_type_infoE
0101abb4 g     F .text	00000104 OS_EventTaskRemoveMulti
01017318 g     F .text	00000074 __adddf3
01000e84  w    F .text	00000040 _ZN18QueuePendExceptionC1Ev
01026a48  w    O .rodata	0000002c _ZTVN10__cxxabiv120__si_class_type_infoE
0101a9a8 g     F .text	00000154 OS_EventTaskWaitMulti
01022214 g     F .text	00000070 alt_epcs_flash_erase_block
0100a440  w    F .text	000000bc _ZNSsD1Ev
01014658 g     F .text	00000120 __b2d
01028fae g     O .rwdata	00000002 OSQSize
0100dd80 g     F .text	00000010 _ZNSt8bad_castD1Ev
01016828 g     F .text	00000660 __umoddi3
01018dcc g     F .text	000000f4 lseek
0100b150  w    F .text	0000003c _ZNSs3endEv
0101f2a8 g     F .text	0000027c OSSemPend
0100c730 g     F .text	00000030 _ZNK10__cxxabiv117__class_type_info11__do_upcastEPKS0_PKvRNS0_15__upcast_resultE
010263e8  w    O .rodata	00000014 _ZTVSt11logic_error
0100d810 g     F .text	0000000c _ZdlPv
01006b84  w    F .text	00000034 _ZNSt12length_errorD0Ev
01028f48 g     O .rwdata	00000004 _global_impure_ptr
010050ec g     F .text	0000003c _Z27wifi_handler_tcp_start_taskPv
010000c8 g     F .text	0000008c _ZN16InfraredReceiver4postEPKc
0100bda0 g     F .text	00000034 _ZN10__cxxabiv121__vmi_class_type_infoD0Ev
01023eb4 g     F .text	00000058 epcs_exit_4_bytes_mode
010154a8 g     F .text	000005f4 _realloc_r
01028f98 g     O .rwdata	00000002 OSLowestPrio
0103adb4 g       *ABS*	00000000 __bss_end
01028e84  w    O .rwdata	00000003 _ZTSPy
01028ebc  w    O .rwdata	00000004 _ZTSPKi
01025024 g     F .text	00000020 OSTCBInitHook
01028fde g     O .rwdata	00000002 OSTmrCfgTicksPerSec
010269b4  w    O .rodata	00000010 _ZTIPb
01024a2c g     F .text	00000110 alt_tick
0100df2c g     F .text	00000010 _Unwind_SjLj_Register
010161bc g     F .text	0000066c __udivdi3
01002dfc  w    F .text	0000005c _ZNSt12_Vector_baseIcSaIcEED2Ev
01026284  w    O .rodata	00000014 _ZTVSt14overflow_error
010068e4 g     F .text	00000190 _ZSt20__throw_length_errorPKc
01028f80 g     O .rwdata	00000002 OSEventEn
01026f24 g     O .rodata	00000028 __mprec_bigtens
01015388 g     F .text	00000120 __s2b
01028fda g     O .rwdata	00000002 OSTmrCfgNameSize
0100e474 g     F .text	00000018 abort
01017e20 g     F .text	00000194 __floatunsidf
01007f78  w    F .text	000000bc _ZNSs4_Rep10_M_refcopyEv
01014578 g     F .text	00000060 __mcmp
01002cac  w    F .text	00000028 _ZNK9__gnu_cxx13new_allocatorIP8os_eventE8max_sizeEv
01000268 g     F .text	00000090 _ZN16InfraredReceiverC2Ev
01028dec  w    O .rwdata	00000008 _ZTIy
01028f40 g     O .rwdata	00000004 __ctype_ptr
01003f74 g     F .text	00000040 _ZN13NetworkSender5parseEPc
0100d654 g     F .text	000000a4 __cxa_end_catch
010135a8 g     F .text	00000018 __fp_lock_all
0100bc34 g     F .text	00000010 _ZNSt13bad_exceptionD2Ev
0100220c  w    F .text	00000024 _ZN9__gnu_cxx13new_allocatorIP8os_eventEC2ERKS3_
01026804  w    O .rodata	00000010 _ZTIPKf
0101d054 g     F .text	000000e4 OS_FlagInit
01024994 g     F .text	00000098 alt_alarm_stop
01007dd8  w    F .text	0000000c _ZNKSs4_Rep12_M_is_sharedEv
0100f9ac g     F .text	00000024 strtol
01028fbc g     O .rwdata	00000002 OSTaskIdleStkSize
010267f4  w    O .rodata	00000010 _ZTIPd
01007ce4  w    F .text	00000008 _ZNKSs7_M_dataEv
01009424  w    F .text	00000060 _ZNSsC2ERKSsmmRKSaIcE
01025c00  w    O .rodata	00000014 _ZTV18QueuePostException
01025df0  w    O .rodata	00000014 _ZTV20QueueCreateException
010290bc g     O .bss	00000004 alt_irq_active
0101ee34 g     F .text	000000c0 OSSemAccept
0100f724 g     F .text	00000038 strnlen
0100d5ec g     F .text	00000018 _ZSt9terminatev
0101d840 g     F .text	000000f0 OSMemPut
01028edc  w    O .rwdata	00000002 _ZTSs
0100b2d4  w    F .text	00000008 _ZNSs6resizeEm
01007cac  w    F .text	00000004 _ZNSaIcEC2ERKS_
0101d2f4 g     F .text	0000021c OSMemCreate
01006aa8  w    F .text	00000010 _ZNSt15underflow_errorD1Ev
01029084 g     O .bss	00000004 OSIdleCtrMax
01000bd0 g     F .text	00000028 _ZN8Listener8listenerEv
01006114 g     F .text	00000190 _ZSt24__throw_invalid_argumentPKc
01026750  w    O .rodata	00000024 _ZTVN10__cxxabiv117__pbase_type_infoE
020040ec g     F .exceptions	000000d4 alt_irq_handler
0100a984  w    F .text	00000040 _ZNSs6assignEPKc
010050a4 g     F .text	00000048 _Z26wifi_handler_tcp_test_taskPv
01027a4c g     O .rwdata	00000028 alt_dev_null
01003724  w    F .text	00000060 _ZN9__gnu_cxx13new_allocatorIcE8allocateEmPKv
01009100  w    F .text	00000104 _ZNSs4_Rep7_M_grabERKSaIcES2_
0100afd0  w    F .text	00000050 _ZNSs6insertEmRKSsmm
01028fd0 g     O .rwdata	00000002 OSTicksPerSec
01005388  w    F .text	00000058 _ZN18SemCreateExceptionD0Ev
01006c50 g     F .text	00000008 _ZNKSt8ios_base7failure4whatEv
010036e0  w    F .text	00000044 _ZSt22__uninitialized_copy_aIN9__gnu_cxx17__normal_iteratorIPP8os_eventSt6vectorIS3_SaIS3_EEEES8_S3_ET0_T_SA_S9_SaIT1_E
01007b98 g     F .text	0000010c _ZNSt11logic_errorD0Ev
01028ec0  w    O .rwdata	00000003 _ZTSPi
01028e78  w    O .rwdata	00000003 _ZTSPf
01026984  w    O .rodata	00000010 _ZTIPKw
01004128  w    F .text	00000058 _ZN13NetworkSenderD0Ev
01028e6c  w    O .rwdata	00000003 _ZTSPd
01002cfc  w    F .text	0000003c _ZSt8_DestroyIN9__gnu_cxx17__normal_iteratorIPP8os_eventSt6vectorIS3_SaIS3_EEEEEvT_S9_
01008b94  w    F .text	00000050 _ZNKSs13find_first_ofEPKcm
01002dac  w    F .text	00000050 _ZNSt12_Vector_baseIcSaIcEE13_M_deallocateEPcm
01025c14  w    O .rodata	00000014 _ZTV14ARCapException
01024b5c g       .text	00000000 OSIntCtxSw
01026720  w    O .rodata	00000022 _ZTSN10__cxxabiv117__class_type_infoE
0100a20c  w    F .text	000000e8 _ZNSs6appendERKSsmm
01014444 g     F .text	00000070 __hi0bits
01028df4  w    O .rwdata	00000008 _ZTIx
01028f08  w    O .rwdata	00000003 _ZTSPw
01028dc8  w    O .rwdata	00000008 _ZTISt9exception
010023b0  w    F .text	00000038 _ZNSt6vectorIcSaIcEE5beginEv
01017d48 g     F .text	000000d8 __fixdfsi
01008be4  w    F .text	00000010 _ZNKSs4rendEv
0100828c  w    F .text	0000000c _ZNKSs4findERKSsm
01007000 g     F .text	0000010c _ZNSt8ios_base7failureD0Ev
01025ca4  w    O .rodata	00000011 _ZTS14InfraredSender
01003010  w    F .text	00000084 _ZNSt22__copy_backward_normalILb1ELb1EE8copy_b_nIN9__gnu_cxx17__normal_iteratorIPcSt6vectorIcSaIcEEEES8_EET0_T_SA_S9_
01004790 g     F .text	00000040 _ZN11WifiHandler10configSendEPc
01028ea0  w    O .rwdata	00000002 _ZTSm
01004004 g     F .text	00000050 _ZN13NetworkSenderC2EP11WifiHandler
01007e14  w    F .text	0000014c _ZSt6searchIPKcS1_PFbRS0_S2_EET_S5_S5_T0_S6_T1_
0100b020  w    F .text	0000000c _ZNSs6insertEmRKSs
01029088 g     O .bss	00000004 OSTCBFreeList
0101f524 g     F .text	0000017c OSSemPendAbort
01000e1c  w    F .text	00000028 _ZNK18QueuePendException4whatEv
010268d4  w    O .rodata	00000010 _ZTIPi
01004738 g     F .text	00000058 _ZN11WifiHandler12waitForReadyEv
0100dbb8 g     F .text	00000010 _ZNSt9type_infoD1Ev
01028f5c g     O .rwdata	00000008 alt_dev_list
0102901c g     O .bss	00000004 __new_handler
01026374  w    O .rodata	00000011 _ZTSSt12domain_error
010192a0 g     F .text	00000124 write
0100acc8  w    F .text	00000038 _ZNSs6insertEN9__gnu_cxx17__normal_iteratorIPcSsEEmc
010097e8  w    F .text	00000034 _ZNSsC1EPKcmRKSaIcE
01028fd4 g     O .rwdata	00000002 OSVersionNbr
0100b1c4  w    F .text	0000004c _ZNSs4rendEv
0100dba8 g     F .text	00000010 _ZNSt9type_infoD0Ev
01007780 g     F .text	00000104 _ZNSt13runtime_errorD1Ev
010023e8  w    F .text	0000003c _ZNSt6vectorIcSaIcEE3endEv
01000b28  w    F .text	00000050 _ZN8ListenerD1Ev
010189b0 g     F .text	000000d8 fstat
01023764 g     F .text	00000094 alt_up_rs232_write_fd
01028de4  w    O .rwdata	00000008 _ZTIf
01007f70  w    F .text	00000008 _ZNSs12_Alloc_hiderC2EPcRKSaIcE
010261c0  w    O .rodata	00000010 _ZTIP18SemCreateException
01001e48 g     F .text	00000088 _ZN15NetworkReceiverC1EP11WifiHandler
01018c2c g     F .text	00000140 kill
010093c4  w    F .text	00000060 _ZNSsC1ERKSsmmRKSaIcE
01007698 g     F .text	00000030 _ZNSt12domain_errorC2ERKSs
01028ea8  w    O .rwdata	00000003 _ZTSPl
01007668 g     F .text	00000030 _ZNSt12domain_errorC1ERKSs
01025f80  w    O .rodata	00000014 _ZTV17UARTOpenException
01006c40  w    F .text	00000010 _ZNSt12domain_errorD1Ev
01009390  w    F .text	00000034 _ZNSsC2IPcEET_S1_RKSaIcE
01028f7c g     O .rwdata	00000004 OSEndiannessTest
010006d8  w    F .text	00000058 _ZN14ARCapExceptionD0Ev
01026914  w    O .rodata	00000010 _ZTIPs
01015268 g     F .text	00000120 __pow5mult
0100b574  w    F .text	0000014c _ZStplIcSt11char_traitsIcESaIcEESbIT_T0_T1_ES3_RKS6_
01025fd0  w    O .rodata	00000014 _ZTV13NetworkSender
01029040 g     O .bss	00000004 __nlocale_changed
01006a74  w    F .text	00000034 _ZNSt15underflow_errorD0Ev
010180f8 g     F .text	00000008 __umodsi3
0100dba0 g     F .text	00000008 _ZNKSt9type_info11__do_upcastEPKN10__cxxabiv117__class_type_infoEPPv
01025efc  w    O .rodata	00000014 _ZTV12MotorHandler
0100ba20  w    F .text	00000064 _ZNSs7replaceEmmPKc
01007cd0  w    F .text	00000004 _ZNSaIcED1Ev
01023d70 g     F .text	0000006c epcs_read_electronic_signature
01028e8c  w    O .rwdata	00000004 _ZTSPKx
01028f8e g     O .rwdata	00000002 OSFlagGrpSize
01001f58 g     F .text	00000050 _ZN15NetworkReceiver11addListenerEcP8os_event
0103adb4 g       *ABS*	00000000 end
0100bbac g     F .text	00000004 _ZN9__gnu_cxx12__atomic_addEPVii
01025dd8  w    O .rodata	00000017 _ZTS20QueueCreateException
010072f8 g     F .text	00000030 _ZNSt15underflow_errorC2ERKSs
0100ba84  w    F .text	0000005c _ZNSs7replaceEmmRKSsmm
01002c60  w    F .text	0000004c _ZNKSt6vectorIP8os_eventSaIS1_EE4sizeEv
01008240  w    F .text	00000030 _ZNKSs2atEm
01028f00  w    O .rwdata	00000002 _ZTSc
0100a9c4  w    F .text	00000050 _ZNSs6assignERKSsmm
0100218c  w    F .text	00000030 _ZNSaIP8os_eventEC1Ev
0100969c  w    F .text	00000034 _ZNSsC1IPcEET_S1_RKSaIcE
01007d0c  w    F .text	00000010 _ZNKSs7_M_iendEv
010261d0  w    O .rodata	00000016 _ZTSP18SemCreateException
0100e0ec g     F .text	00000018 _Unwind_DeleteException
01028eb0  w    O .rwdata	00000004 _ZTSPKj
01022614 g     F .text	00000130 altera_avalon_jtag_uart_init
0101b3bc g     F .text	000000c8 OS_TaskStat
01007d6c  w    F .text	00000008 _ZNKSs5beginEv
0100bde4 g     F .text	00000010 _ZN10__cxxabiv121__vmi_class_type_infoD2Ev
01025b08 g       *ABS*	00000000 __CTOR_LIST__
02000000 g       *ABS*	00000000 __alt_stack_pointer
0100ab20  w    F .text	00000018 _ZNSs7replaceEN9__gnu_cxx17__normal_iteratorIPcSsEES2_mc
010370c8  w    O .bss	00000010 _ZNSs4_Rep20_S_empty_rep_storageE
01026874  w    O .rodata	00000010 _ZTIPm
01023298 g     F .text	00000088 alt_avalon_timer_sc_init
0100710c g     F .text	00000008 _ZNKSt13runtime_error4whatEv
01018224 g     F .text	00000080 __clzsi2
0100f50c g     F .text	000000b4 _snprintf_r
01026410  w    O .rodata	0000000c _ZTISt13runtime_error
0100c5f0 g     F .text	0000006c _ZNK10__cxxabiv117__class_type_info11__do_upcastEPKS0_PPv
01022f48 g     F .text	000002dc altera_avalon_jtag_uart_write
01000d4c g     F .text	000000a8 _ZN8ListenerC2Ev
010134cc g     F .text	00000004 __sfp_lock_acquire
010265c4  w    O .rodata	00000012 _ZTSSt13bad_exception
0100ebf4 g     F .text	000000e4 memchr
0101b084 g     F .text	00000054 OS_MemClr
01029000 g     O .bss	00000004 infraredIn
0100fa28 g     F .text	00001ec4 ___vfprintf_internal_r
0102631c  w    O .rodata	00000014 _ZTVSt12length_error
01024c2c g     F .text	00000310 OSTaskStkInit
01028ee8  w    O .rwdata	00000002 _ZTSh
01004cf8 g     F .text	0000009c _ZN11WifiHandler11tcpSendTestEv
01013894 g     F .text	00000314 _free_r
0100b9bc  w    F .text	0000001c _ZNSs7replaceEN9__gnu_cxx17__normal_iteratorIPcSsEES2_S2_S2_
01008d44  w    F .text	00000034 _ZNSsC1ERKSaIcE
0101a704 g     F .text	00000194 OS_EventTaskRdy
01025624 g     F .text	000001b0 __call_exitprocs
01007df0  w    F .text	00000008 _ZNSs4_Rep15_M_set_sharableEv
0102908c g     O .bss	00000001 OSCPUUsage
01003658  w    F .text	00000044 _ZSt24__uninitialized_copy_auxIN9__gnu_cxx17__normal_iteratorIPP8os_eventSt6vectorIS3_SaIS3_EEEES8_ET0_T_SA_S9_11__true_type
01028dc0  w    O .rwdata	00000004 _ZNSs4_Rep11_S_max_sizeE
0100148c g     F .text	00000040 _ZN12MotorHandler12getSpeedFromEPc
01001de0 g     F .text	00000068 _ZN15NetworkReceiver6updateEv
01029044 g     O .bss	00000004 __mlocale_changed
01006bb8  w    F .text	00000010 _ZNSt12length_errorD1Ev
010025d0  w    F .text	00000038 _ZNSt12_Vector_baseIP8os_eventSaIS1_EEC2ERKS2_
01028f3c g     O .rwdata	00000004 __malloc_sbrk_base
01000000 g     F .text	00000038 _start
0102642c  w    O .rodata	0000000c _ZTISt11logic_error
010002f8 g     F .text	000000e8 _Z29infrared_receiver_update_taskPv
01007da8  w    F .text	00000008 _ZNKSs4dataEv
010290c0 g     O .bss	00000004 _alt_tick_rate
01007cc8  w    F .text	00000004 _ZNSaIwED2Ev
0101e230 g     F .text	00000320 OSQPend
01001fa8 g     F .text	000000e8 _Z28network_receiver_update_taskPv
01026ac8  w    O .rodata	0000000d _ZTSSt9type_info
0100c8a0 g     F .text	00000010 _ZN10__cxxabiv117__pbase_type_infoD2Ev
01000154 g     F .text	00000044 _ZN16InfraredReceiver5checkEj
01007d9c  w    F .text	0000000c _ZNKSs8capacityEv
01007cec  w    F .text	0000000c _ZNSs7_M_dataEPc
0102143c g     F .text	0000014c OSTimeDly
010072c8 g     F .text	00000030 _ZNSt15underflow_errorC1ERKSs
0100bca4 g     F .text	00000020 __cxa_pure_virtual
01014d60 g     F .text	0000014c __lshift
01007d1c  w    F .text	00000018 _ZNKSs8_M_limitEmm
01025044 g     F .text	00000238 alt_avalon_spi_command
010265f4  w    O .rodata	00000014 _ZTVSt9bad_alloc
010290c4 g     O .bss	00000004 _alt_nticks
0100f3bc g     F .text	0000001c signal
01002a64  w    F .text	00000024 _ZNK9__gnu_cxx13new_allocatorIcE8max_sizeEv
01018fe8 g     F .text	00000124 read
0100aa54  w    F .text	000000cc _ZNSs14_M_replace_auxEmmmc
01021a24 g     F .text	0000008c alt_sys_init
01028f14  w    O .rwdata	00000003 _ZTSPb
01009b7c  w    F .text	000000fc _ZNSsC2ERKSs
01026934  w    O .rodata	00000010 _ZTIPh
010005d0  w    F .text	00000058 _ZN18QueuePostExceptionD1Ev
01007db0  w    F .text	00000008 _ZNKSs13get_allocatorEv
01026994  w    O .rodata	00000010 _ZTIPw
01026a3c  w    O .rodata	0000000c _ZTISt10bad_typeid
010254ec g     F .text	00000134 __register_exitproc
01026608  w    O .rodata	0000000d _ZTSSt9bad_alloc
0102908d g     O .bss	00000001 OSTaskCtr
0100f634 g     F .text	000000f0 strncmp
01003bec  w    F .text	00000300 _ZNSt6vectorIP8os_eventSaIS1_EE13_M_insert_auxEN9__gnu_cxx17__normal_iteratorIPS1_S3_EERKS1_
01023588 g     F .text	00000040 alt_up_rs232_get_available_space_in_write_FIFO
010081ac  w    F .text	00000094 _ZNKSs4findEPKcmm
01004c78 g     F .text	00000080 _ZN11WifiHandler7tcpSendEPct
01028e2c  w    O .rwdata	00000008 _ZTIh
0100ad00  w    F .text	00000050 _ZNSs5eraseEN9__gnu_cxx17__normal_iteratorIPcSsEES2_
01004e78 g     F .text	00000064 _ZN11WifiHandler9httpStartEv
01021588 g     F .text	00000190 OSTimeDlyHMSM
01026844  w    O .rodata	00000010 _ZTIPKx
01014eac g     F .text	00000254 __multiply
01022b20 g     F .text	00000074 altera_avalon_jtag_uart_close
0100def4 g     F .text	00000038 __mulsi3
0100e254 g     F .text	000000f8 _Unwind_SjLj_RaiseException
01008978  w    F .text	00000060 _ZNKSs7compareERKSs
010378d8 g     O .bss	00000028 __malloc_current_mallinfo
01002be4  w    F .text	00000024 _ZNK9__gnu_cxx17__normal_iteratorIPKP8os_eventSt6vectorIS2_SaIS2_EEE4baseEv
0100e1f8 g     F .text	0000005c _Unwind_SjLj_Resume
01028f82 g     O .rwdata	00000002 OSEventMax
0100b09c  w    F .text	00000014 _ZNSs7_M_leakEv
01025f54  w    O .rodata	00000018 _ZTI17UARTOpenException
01014a58 g     F .text	0000017c __d2b
01028e0c  w    O .rwdata	00000008 _ZTIj
0101f6a0 g     F .text	00000128 OSSemPost
01025c90  w    O .rodata	00000014 _ZTV14InfraredSender
01028ddc  w    O .rwdata	00000008 _ZTId
0100dbc8 g     F .text	00000010 _ZNSt9type_infoD2Ev
01023838 g     F .text	00000060 epcs_read_status_register
010350c8 g     O .bss	00002000 task7_stk
0101a288 g     F .text	000000e4 OSSchedUnlock
0100d9b8 g     F .text	00000078 _ZNK10__cxxabiv120__si_class_type_info11__do_upcastEPKNS_17__class_type_infoEPKvRNS1_15__upcast_resultE
01006bfc  w    F .text	00000010 _ZNSt16invalid_argumentD1Ev
01000438  w    F .text	00000028 _ZNK16ADCOpenException4whatEv
01007d74  w    F .text	00000010 _ZNKSs3endEv
010268a4  w    O .rodata	00000010 _ZTIPKj
010266c0  w    O .rodata	00000026 _ZTSN10__cxxabiv121__vmi_class_type_infoE
01002ba0  w    F .text	00000044 _ZNKSt6vectorIP8os_eventSaIS1_EE5beginEv
0100bcc4 g     F .text	00000008 _ZNK10__cxxabiv119__pointer_type_info14__is_pointer_pEv
01008098  w    F .text	0000002c _ZNSs9_M_assignEPcmc
01002ee0  w    F .text	0000007c _ZNSt6vectorIcSaIcEED1Ev
01026a0c  w    O .rodata	0000000c _ZTIN10__cxxabiv123__fundamental_type_infoE
010224cc g     F .text	00000058 altera_avalon_jtag_uart_read_fd
0102539c g     F .text	00000104 alt_get_fd
010330c8 g     O .bss	00002000 task6_stk
01002a18  w    F .text	0000004c _ZNKSt6vectorIcSaIcEE4sizeEv
01029090 g     O .bss	00000004 OSMemFreeList
01000ec4  w    F .text	00000058 _ZN18QueuePendExceptionD0Ev
0101a3dc g     F .text	000000ac OSStatInit
010037c4  w    F .text	000002f4 _ZNSt6vectorIcSaIcEE13_M_insert_auxEN9__gnu_cxx17__normal_iteratorIPcS1_EERKc
01002510  w    F .text	00000038 _ZNSt12_Vector_baseIcSaIcEEC2ERKS0_
010083c8  w    F .text	00000064 _ZNKSs5rfindEcm
01007ccc  w    F .text	00000004 _ZNSaIcEC2Ev
0101cdbc g     F .text	000000d4 OSFlagQuery
010186f0 g     F .text	000000c8 __fpcmp_parts_d
01002844  w    F .text	00000028 _ZSt13__destroy_auxIPcEvT_S1_11__true_type
0102623c  w    O .rodata	00000014 _ZTSSt15underflow_error
01001a1c g     F .text	000000d4 _Z25motor_handler_update_taskPv
01028fb8 g     O .rwdata	00000002 OSTaskCreateExtEn
0100887c  w    F .text	00000010 _ZNKSs13find_first_ofEcm
01015e54 g     F .text	00000070 _close_r
01001420 g     F .text	0000006c _ZN12MotorHandler9configureEv
01025d6c  w    O .rodata	00000015 _ZTS18QueuePendException
01028e74  w    O .rwdata	00000004 _ZTSPKf
01023ddc g     F .text	00000080 epcs_read_device_id
01005320  w    F .text	00000028 _ZNK18SemCreateException4whatEv
01028eec  w    O .rwdata	00000004 _ZTSPKa
0100ecd8 g     F .text	00000074 memcmp
0101a6e8 g     F .text	0000001c OS_Dummy
0102257c g     F .text	00000048 altera_avalon_jtag_uart_close_fd
0103adb4 g       *ABS*	00000000 __alt_stack_base
010225c4 g     F .text	00000050 altera_avalon_jtag_uart_ioctl_fd
02009000 g       *ABS*	00000000 __alt_mem_epcs_flash_controller_0
0100bc50 g     F .text	00000034 _ZNSt9bad_allocD0Ev
0102900c g     O .bss	00000004 wifi
0100da64 g     F .text	00000010 _ZN10__cxxabiv120__si_class_type_infoD1Ev
0100c924 g     F .text	00000010 _ZN10__cxxabiv123__fundamental_type_infoD2Ev
01025f10  w    O .rodata	0000000f _ZTS12MotorHandler
01006b30  w    F .text	00000010 _ZNSt11range_errorD1Ev
010027e8  w    F .text	00000024 _ZNK9__gnu_cxx17__normal_iteratorIPP8os_eventSt6vectorIS2_SaIS2_EEE4baseEv
01011910 g     F .text	0000013c __swsetup_r
010262a4  w    O .rodata	00000010 _ZTSSt11range_error
010390a0 g     O .bss	000001e0 OSQTbl
0100e41c g     F .text	00000058 _Unwind_SjLj_Resume_or_Rethrow
01017750 g     F .text	00000258 __divdf3
01013678 g     F .text	000000f0 __sfp
010148bc g     F .text	00000058 __copybits
01026368  w    O .rodata	0000000c _ZTISt12domain_error
01026aec  w    O .rodata	0000000c _ZTSSt8bad_cast
0100db80 g     F .text	00000008 _ZNKSt9type_info14__is_pointer_pEv
0100bd90 g     F .text	00000010 _ZN10__cxxabiv119__pointer_type_infoD2Ev
0100b9a0  w    F .text	0000001c _ZNSs7replaceEN9__gnu_cxx17__normal_iteratorIPcSsEES2_NS0_IPKcSsEES5_
0100080c g     F .text	00000058 _ZN14InfraredSender4sendEv
01026264  w    O .rodata	0000000c _ZTISt14overflow_error
01025b8c  w    O .rodata	00000016 _ZTSP18QueuePostException
01027238 g     O .rwdata	00000408 __malloc_av_
010134d8 g     F .text	00000004 __sinit_lock_release
01029094 g     O .bss	00000004 OSTCBHighRdy
0101738c g     F .text	000003c4 __muldf3
010044dc g     F .text	00000040 _ZN11WifiHandler15configReadStartEv
01015bf8 g     F .text	00000060 __sread
010265b0  w    O .rodata	00000014 _ZTVSt9exception
01029098 g     O .bss	00000004 OSQFreeList
010234f4 g     F .text	00000058 alt_up_rs232_disable_read_interrupt
0102527c g     F .text	00000120 alt_find_file
0100bb04  w    F .text	00000030 _ZNSs7replaceEN9__gnu_cxx17__normal_iteratorIPcSsEES2_RKSs
0100c65c g     F .text	00000020 _ZNK10__cxxabiv117__class_type_info20__do_find_public_srcElPKvPKS0_S2_
01029010 g     O .bss	00000004 networkOut
01000730  w    F .text	00000058 _ZN14ARCapExceptionD1Ev
0100b02c  w    F .text	00000014 _ZNSs5clearEv
01024060 g     F .text	000000b4 alt_dev_llist_insert
0101952c g     F .text	00000108 __malloc_lock
010191e4 g     F .text	000000bc sbrk
01029014 g     O .bss	00000004 networkIn
010062a4 g     F .text	00000190 _ZSt20__throw_domain_errorPKc
01025cb8  w    O .rodata	0000000c _ZTI14InfraredSender
01005c64 g     F .text	00000190 _ZSt19__throw_logic_errorPKc
010266f4  w    O .rodata	0000002c _ZTVN10__cxxabiv117__class_type_infoE
0100d890 g     F .text	00000074 __cxa_throw
01019834 g     F .text	00000144 OSEventNameSet
01013244 g     F .text	000001fc _fflush_r
0100dfb0 g     F .text	00000010 _Unwind_SetIP
01008780  w    F .text	00000088 _ZNKSs13find_first_ofEPKcmm
01015d8c g     F .text	000000c8 _calloc_r
0102909c g     O .bss	00000001 OSRdyGrp
01028e14  w    O .rwdata	00000008 _ZTIi
01028fec g     O .rwdata	00000008 alt_flash_dev_list
0100842c  w    F .text	00000010 _ZNKSs12find_last_ofEcm
010262fc  w    O .rodata	0000000c _ZTISt12length_error
01007de4  w    F .text	0000000c _ZNSs4_Rep13_M_set_leakedEv
01001280 g     F .text	00000028 _Z23motor_handler_test_taskPv
01026824  w    O .rodata	00000010 _ZTIPKy
0100981c  w    F .text	00000034 _ZNSsC2EPKcmRKSaIcE
01006434 g     F .text	00000190 _ZSt19__throw_range_errorPKc
01007608 g     F .text	00000030 _ZNSt16invalid_argumentC1ERKSs
0100272c  w    F .text	00000058 _ZNSt6vectorIP8os_eventSaIS1_EEixEm
010020b8  w    F .text	00000038 _ZN9__gnu_cxx17__normal_iteratorIPcSt6vectorIcSaIcEEEppEv
01029000 g       *ABS*	00000000 __bss_start
01008808  w    F .text	0000000c _ZNKSs13find_first_ofERKSsm
01008fc4  w    F .text	000000a0 _ZNKSs7compareEmmRKSs
0100eecc g     F .text	00000098 memset
01000198 g     F .text	00000040 _ZN16InfraredReceiver6updateEv
01007df8  w    F .text	00000014 _ZNSs4_Rep26_M_set_length_and_sharableEm
01007d50  w    F .text	0000000c _ZNSs12_S_empty_repEv
01005438 g     F .text	00000654 main
01001c08  w    F .text	00000058 _ZN17UARTOpenExceptionD0Ev
01028e64  w    O .rwdata	00000002 _ZTSe
010263fc  w    O .rodata	00000012 _ZTSSt13runtime_error
01029058 g     O .bss	00000004 alt_envp
01029038 g     O .bss	00000004 __malloc_max_total_mem
010026d0  w    F .text	0000005c _ZNK9__gnu_cxx17__normal_iteratorIPP8os_eventSt6vectorIS2_SaIS2_EEEplERKl
01026a18  w    O .rodata	00000014 _ZTVSt10bad_typeid
01022524 g     F .text	00000058 altera_avalon_jtag_uart_write_fd
01025f6c  w    O .rodata	00000014 _ZTS17UARTOpenException
01028dd4  w    O .rwdata	00000008 _ZTIe
01005b28 g     F .text	00000034 _ZSt21__throw_bad_exceptionv
0100dee4 g     F .text	00000008 __cxa_get_globals_fast
010270b4 g     O .rodata	00000100 OSUnMapTbl
01025bd4  w    O .rodata	00000018 _ZTI14ARCapException
01002698  w    F .text	00000038 _ZNSt6vectorIP8os_eventSaIS1_EE5beginEv
01028fb2 g     O .rwdata	00000002 OSSemEn
010030e4  w    F .text	00000064 _ZNSt6__copyILb1ESt26random_access_iterator_tagE4copyIcEEPT_PKS3_S6_S4_
010263b0  w    O .rodata	00000016 _ZTSNSt8ios_base7failureE
0101ca14 g     F .text	000003a8 OSFlagPost
01002148  w    F .text	00000024 _ZNSt12_Vector_baseIcSaIcEE19_M_get_Tp_allocatorEv
01026ad8  w    O .rodata	00000014 _ZTVSt8bad_cast
01015b0c g     F .text	00000008 __sclose
02000000 g       *ABS*	00000000 __alt_heap_limit
01002090  w    F .text	00000028 _ZnwmPv
01028e7c  w    O .rwdata	00000002 _ZTSf
010021bc  w    F .text	00000020 _ZN9__gnu_cxx13new_allocatorIP8os_eventED2Ev
01015fd4 g     F .text	00000014 fclose
0101a898 g     F .text	00000110 OS_EventTaskWait
0102b0c8 g     O .bss	00002000 task2_stk
0100f75c g     F .text	00000250 _strtol_r
0101b484 g     F .text	000000c8 OS_TaskStatStkChk
0103ac24 g     O .bss	00000190 _atexit0
01026964  w    O .rodata	00000010 _ZTIPKc
01020750 g     F .text	00000170 OSTaskDelReq
01006b74  w    F .text	00000010 _ZNSt12out_of_rangeD1Ev
0100216c  w    F .text	00000020 _ZN9__gnu_cxx13new_allocatorIP8os_eventEC2Ev
01011c90 g     F .text	000015b4 _dtoa_r
0100e4b4 g     F .text	00000740 _malloc_r
010097b4  w    F .text	00000034 _ZNSsC2IPKcEET_S2_RKSaIcE
01026864  w    O .rodata	00000010 _ZTIPKm
01000038 g     F .text	00000030 _ZN16InfraredReceiver11setListenerEP8os_event
01008d78  w    F .text	00000034 _ZNSsC2ERKSaIcE
01028f68 g     O .rwdata	00000004 alt_errno
0100b9f4  w    F .text	0000001c _ZNSs7replaceEN9__gnu_cxx17__normal_iteratorIPcSsEES2_S1_S1_
01004180  w    F .text	00000058 _ZN13NetworkSenderD1Ev
0101a36c g     F .text	00000070 OSStart
01007358 g     F .text	00000030 _ZNSt14overflow_errorC2ERKSs
0102d0c8 g     O .bss	00002000 task3_stk
01006afc  w    F .text	00000034 _ZNSt11range_errorD0Ev
0100f244 g     F .text	00000010 _init_signal
010194d0 g     F .text	0000005c __env_unlock
01026744  w    O .rodata	0000000c _ZTIN10__cxxabiv117__class_type_infoE
01029004 g     O .bss	00000004 infraredOut
0101410c g     F .text	000000b8 _fwalk
01020c3c g     F .text	00000218 OSTaskResume
0101d930 g     F .text	000000fc OSMemQuery
01028fc4 g     O .rwdata	00000002 OSTaskStatEn
01000460  w    F .text	00000040 _ZN14ARCapExceptionC2Ev
01028f9e g     O .rwdata	00000002 OSMemMax
01008690  w    F .text	000000e4 _ZNKSs12find_last_ofEPKcmm
0101e84c g     F .text	00000188 OSQPostFront
0100bc24 g     F .text	00000010 _ZNSt13bad_exceptionD1Ev
01018030 g     F .text	00000060 __divsi3
01001bb0  w    F .text	00000058 _ZN12MotorHandlerD1Ev
01025c78  w    O .rodata	00000014 _ZTV16ADCOpenException
0102909d g     O .bss	00000003 OSRdyTbl
01028f78 g     O .rwdata	00000002 OSDebugEn
01026f80 g     O .rodata	00000014 __thenan_df
010267c4  w    O .rodata	00000010 _ZTIPKe
01013768 g     F .text	0000012c _malloc_trim_r
01025b0c g       *ABS*	00000000 __CTOR_END__
01000b78  w    F .text	00000058 _ZN14InfraredSenderD1Ev
01028f90 g     O .rwdata	00000002 OSFlagNodeSize
0100a2f4  w    F .text	000000bc _ZNSs6appendERKSs
01028fd8 g     O .rwdata	00000002 OSTmrCfgMax
01009f18  w    F .text	00000088 _ZNSs9push_backEc
01021f04 g     F .text	00000280 alt_epcs_flash_write
01015c58 g     F .text	000000bc strcmp
01026904  w    O .rodata	00000010 _ZTIPKs
0100928c  w    F .text	00000020 _ZNSs13_S_copy_charsEPcPKcS1_
0101dc54 g     F .text	00000214 OSQCreate
01026974  w    O .rodata	00000010 _ZTIPc
010208c0 g     F .text	000001b8 OSTaskNameGet
0101e9d4 g     F .text	00000234 OSQPostOpt
0101a488 g     F .text	00000240 OSTimeTick
01002b5c  w    F .text	00000044 _ZNKSt6vectorIP8os_eventSaIS1_EE3endEv
01028fc0 g     O .rwdata	00000002 OSTaskMax
01006efc g     F .text	00000104 _ZNSt8ios_base7failureD2Ev
01025b0c g       *ABS*	00000000 __DTOR_LIST__
01006d5c g     F .text	000000d0 _ZNSt8ios_base7failureC1ERKSs
0101eef4 g     F .text	00000114 OSSemCreate
01028fe4 g     O .rwdata	00000002 OSTmrWheelSize
01001af0  w    F .text	00000028 _ZNK17UARTOpenException4whatEv
01025d2c  w    O .rodata	00000010 _ZTIP18QueuePendException
01003bac  w    F .text	00000040 _ZNSt12_Vector_baseIP8os_eventSaIS1_EE11_M_allocateEm
010237f8 g     F .text	00000040 alt_up_rs232_open_dev
01009884  w    F .text	00000060 _ZNSsC1EPKcRKSaIcE
01000fcc  w    F .text	00000058 _ZN20QueueCreateExceptionD1Ev
01004054 g     F .text	000000d4 _Z26network_sender_update_taskPv
01017a30 g     F .text	00000088 __nedf2
0100dd90 g     F .text	00000010 _ZNSt8bad_castD2Ev
01028fba g     O .rwdata	00000002 OSTaskDelEn
01028f0c  w    O .rwdata	00000002 _ZTSw
01028e60  w    O .rwdata	00000003 _ZTSPe
01007548 g     F .text	00000030 _ZNSt12out_of_rangeC1ERKSs
0101f7c8 g     F .text	00000130 OSSemQuery
0101de68 g     F .text	00000300 OSQDel
0101e550 g     F .text	0000017c OSQPendAbort
010219f0 g     F .text	00000034 alt_irq_init
01028efc  w    O .rwdata	00000003 _ZTSPc
01003404  w    F .text	00000084 _ZNSt22__copy_backward_normalILb1ELb1EE8copy_b_nIN9__gnu_cxx17__normal_iteratorIPP8os_eventSt6vectorIS5_SaIS5_EEEESA_EET0_T_SC_SB_
010092cc  w    F .text	000000c4 _ZNSs12_S_constructIPcEES0_T_S1_RKSaIcESt20forward_iterator_tag
0101916c g     F .text	00000078 alt_release_fd
01026200  w    O .rodata	00000015 _ZTS18SemCreateException
010024c0  w    F .text	00000050 _ZNSt12_Vector_baseIcSaIcEE12_Vector_implC1ERKS0_
0100da30 g     F .text	00000034 _ZN10__cxxabiv120__si_class_type_infoD0Ev
0100c7ac g     F .text	000000b0 _ZNK10__cxxabiv117__pbase_type_info10__do_catchEPKSt9type_infoPPvj
0100af80  w    F .text	00000050 _ZNSs6insertEmPKc
01028dac g     O .rwdata	00000004 _ZN16InfraredReceiver3HITE
0100095c g     F .text	000000d4 _Z27infrared_sender_update_taskPv
01026f94 g     O .rodata	00000100 __clz_tab
01007a94 g     F .text	00000104 _ZNSt11logic_errorD2Ev
0100b040  w    F .text	0000005c _ZNSs12_M_leak_hardEv
01029048 g     O .bss	00000004 _PathLocale
0102641c  w    O .rodata	00000010 _ZTSSt11logic_error
01025da8  w    O .rodata	00000018 _ZTSP20QueueCreateException
01007114 g     F .text	00000104 _ZNSt11logic_errorD1Ev
010254a0 g     F .text	00000014 atexit
01026298  w    O .rodata	0000000c _ZTISt11range_error
01007388 g     F .text	00000030 _ZNSt11range_errorC1ERKSs
01015d14 g     F .text	00000078 _write_r
010047d0 g     F .text	00000074 _ZN11WifiHandler18setDestinationPortE13WifiSetupType
01025f3c  w    O .rodata	00000015 _ZTSP17UARTOpenException
010021dc  w    F .text	00000030 _ZNSaIP8os_eventED1Ev
0101a1fc g     F .text	0000008c OSSchedLock
0101426c g     F .text	0000001c setlocale
01006b40  w    F .text	00000034 _ZNSt12out_of_rangeD0Ev
01005044 g     F .text	00000060 _ZN11WifiHandler8tcpStartEv
0100dfe4 g     F .text	00000008 _Unwind_GetTextRelBase
01026694  w    O .rodata	0000002c _ZTVN10__cxxabiv121__vmi_class_type_infoE
0100dea0 g     F .text	00000044 __cxa_call_terminate
0101bcec g     F .text	0000013c OSFlagCreate
010033bc  w    F .text	00000048 _ZSt19__copy_backward_auxIPP8os_eventS2_ET0_T_S4_S3_
01028dfc  w    O .rwdata	00000008 _ZTIm
01004edc g     F .text	00000060 _Z27wifi_handler_http_test_taskPv
01028f44 g     O .rwdata	00000004 _impure_ptr
01029050 g     O .bss	00000004 alt_argc
010267a4  w    O .rodata	00000020 _ZTVN10__cxxabiv123__fundamental_type_infoE
0100295c  w    F .text	00000044 _ZNKSt6vectorIcSaIcEE5beginEv
010241d8 g     F .text	00000064 _do_dtors
01028f8a g     O .rwdata	00000002 OSEventMultiEn
01002230  w    F .text	00000038 _ZNSaIP8os_eventEC1ERKS1_
01028db0  w    O .rwdata	00000008 _ZTI8Listener
01000910 g     F .text	0000004c _ZN14InfraredSenderC2Ev
01025cc4  w    O .rodata	0000000a _ZTS8Listener
01005224 g     F .text	000000fc _ZN11WifiHandlerC2Ev
01002e58  w    F .text	00000038 _ZN9__gnu_cxx13new_allocatorIP8os_eventE10deallocateEPS2_m
0100b42c  w    F .text	00000114 _ZStplIcSt11char_traitsIcESaIcEESbIT_T0_T1_ERKS6_S8_
0101be28 g     F .text	000002a8 OSFlagDel
010290a0 g     O .bss	00000004 OSEventFreeList
02004020 g       .exceptions	00000000 alt_irq_entry
0100806c  w    F .text	0000002c _ZNKSs8_M_checkEmPKc
01008af4  w    F .text	00000050 _ZNKSs17find_first_not_ofEPKcm
01003b40  w    F .text	0000006c _ZN9__gnu_cxx13new_allocatorIP8os_eventE8allocateEmPKv
01001898 g     F .text	00000184 _ZN12MotorHandlerC2Ev
01008270  w    F .text	00000010 _ZNKSs5emptyEv
010145d8 g     F .text	00000080 __ulp
01015a9c g     F .text	00000040 __isinfd
010022a0  w    F .text	00000024 _ZNSt12_Vector_baseIP8os_eventSaIS1_EE19_M_get_Tp_allocatorEv
0100dfd4 g     F .text	00000008 _Unwind_FindEnclosingFunction
0101c368 g     F .text	00000644 OSFlagPend
01028fd6 g     O .rwdata	00000002 OSTmrEn
01007f60  w    F .text	00000010 _ZN9__gnu_cxxeqIPcSsEEbRKNS_17__normal_iteratorIT_T0_EES7_
01013590 g     F .text	00000018 __fp_unlock_all
01026944  w    O .rodata	00000010 _ZTIPKa
01007cb8  w    F .text	00000004 _ZNSaIwEC1ERKS_
01000ca4 g     F .text	000000a8 _ZN8ListenerC1Ev
0100ada0  w    F .text	0000006c _ZNSs5eraseEmm
01028f54 g     O .rwdata	00000008 alt_fs_list
0100839c  w    F .text	0000000c _ZNKSs5rfindERKSsm
01004b3c g     F .text	00000034 _ZN11WifiHandler6unlockEv
010095b0  w    F .text	000000ec _ZNSsC2ERKSsmm
0100896c  w    F .text	0000000c _ZNKSs16find_last_not_ofERKSsm
0101b288 g     F .text	00000080 OS_StrCopy
010268b4  w    O .rodata	00000010 _ZTIPj
010234a0 g     F .text	00000054 alt_up_rs232_enable_read_interrupt
01004844 g     F .text	00000108 _ZN11WifiHandler5setupE13WifiSetupType
0100dfc0 g     F .text	0000000c _Unwind_GetLanguageSpecificData
01025cd0  w    O .rodata	00000014 _ZTV8Listener
01006bc8  w    F .text	00000034 _ZNSt16invalid_argumentD0Ev
01001334 g     F .text	00000080 _ZN12MotorHandler4moveEccPKc
01023618 g     F .text	00000048 alt_up_rs232_write_data
0100d6f8 g     F .text	00000118 __cxa_begin_catch
01028ee0  w    O .rwdata	00000004 _ZTSPKh
01028fa0 g     O .rwdata	00000002 OSMemNameSize
0100c6c0 g     F .text	00000010 _ZN10__cxxabiv117__class_type_infoD2Ev
0100d604 g     F .text	00000010 _ZN10__cxxabiv112__unexpectedEPFvvE
010269c4  w    O .rodata	00000010 _ZTIPKv
01028e5c  w    O .rwdata	00000004 _ZTSPKe
01024fec g     F .text	0000001c OSInitHookEnd
01004558 g     F .text	000000c8 _ZN11WifiHandler5writeEPc
01026308  w    O .rodata	00000011 _ZTSSt12length_error
01025d3c  w    O .rodata	00000016 _ZTSP18QueuePendException
01028fcc g     O .rwdata	00000002 OSTCBPrioTblMax
010141d8 g     F .text	00000010 localeconv
01028f24  w    O .rwdata	00000002 _ZTSv
01029008 g     O .bss	00000004 motor
01023a00 g     F .text	0000014c epcs_read_buffer
01001714 g     F .text	00000184 _ZN12MotorHandlerC1Ev
01005ac0 g     F .text	00000034 _ZSt16__throw_bad_castv
01028fc8 g     O .rwdata	00000002 OSTaskStatStkChkEn
0100bbf0 g     F .text	00000034 _ZNSt13bad_exceptionD0Ev
01002448  w    F .text	00000050 _ZN9__gnu_cxxneIPcSt6vectorIcSaIcEEEEbRKNS_17__normal_iteratorIT_T0_EESA_
01021ae8 g     F .text	00000054 alt_epcs_flash_init
01028f28 g     O .rwdata	00000004 _ZN10__cxxabiv119__terminate_handlerE
010004e0  w    F .text	00000040 _ZN18QueuePostExceptionC1Ev
01028ed0  w    O .rwdata	00000002 _ZTSt
0100bccc g     F .text	00000080 _ZNK10__cxxabiv119__pointer_type_info15__pointer_catchEPKNS_17__pbase_type_infoEPPvj
010268f4  w    O .rodata	00000010 _ZTIPt
01026250  w    O .rodata	00000014 _ZTVSt15underflow_error
01004b00 g     F .text	0000003c _ZN11WifiHandler8testUartEv
0100c134 g     F .text	000004bc _ZNK10__cxxabiv121__vmi_class_type_info12__do_dyncastElNS_17__class_type_info10__sub_kindEPKS1_PKvS4_S6_RNS1_16__dyncast_resultE
01028f9c g     O .rwdata	00000002 OSMemEn
0100dc18 g     F .text	00000134 __cxa_allocate_exception
010267e4  w    O .rodata	00000010 _ZTIPKd
01028fa6 g     O .rwdata	00000002 OSMutexEn
01026a9c  w    O .rodata	0000000c _ZTIN10__cxxabiv120__si_class_type_infoE
01026924  w    O .rodata	00000010 _ZTIPKh
01025bbc  w    O .rodata	00000015 _ZTS18QueuePostException
0100bc44 g     F .text	0000000c _ZSt15set_new_handlerPFvvE
0100ac80  w    F .text	00000048 _ZNSsaSEc
01029000 g       *ABS*	00000000 _edata
01002d38  w    F .text	0000003c _ZSt8_DestroyIN9__gnu_cxx17__normal_iteratorIPP8os_eventSt6vectorIS3_SaIS3_EEEES3_EvT_S9_SaIT0_E
01025f2c  w    O .rodata	00000010 _ZTIP17UARTOpenException
01003330  w    F .text	0000008c _ZNSt15__copy_backwardILb1ESt26random_access_iterator_tagE6copy_bIP8os_eventEEPT_PKS5_S8_S6_
0103adb4 g       *ABS*	00000000 _end
01028dd0 g     O .rwdata	00000001 _ZSt7nothrow
01007988 g     F .text	0000010c _ZNSt13runtime_errorD0Ev
010242d0 g     F .text	0000007c alt_flash_open_dev
010290a4 g     O .bss	00000001 OSIntNesting
0100d040 g     F .text	000004e0 __gxx_personality_sj0
01009064  w    F .text	0000009c _ZNSs4_Rep8_M_cloneERKSaIcEm
010022c4  w    F .text	0000005c _ZN9__gnu_cxx13new_allocatorIcE9constructEPcRKc
01000f74  w    F .text	00000058 _ZN20QueueCreateExceptionD0Ev
010012a8 g     F .text	0000008c _ZN12MotorHandler4sendEcPKc
01028ec4  w    O .rwdata	00000002 _ZTSi
01022b94 g     F .text	000000f4 altera_avalon_jtag_uart_ioctl
01021718 g     F .text	00000210 OSTimeDlyResume
010032a8  w    F .text	00000044 _ZSt18uninitialized_copyIN9__gnu_cxx17__normal_iteratorIPcSt6vectorIcSaIcEEEES6_ET0_T_S8_S7_
01003eec  w    F .text	00000088 _ZNSt6vectorIP8os_eventSaIS1_EE9push_backERKS1_
0101c214 g     F .text	00000154 OSFlagNameSet
01007cc0  w    F .text	00000004 _ZNSaIcEC1ERKS_
01028e88  w    O .rwdata	00000002 _ZTSy
0100c760 g     F .text	0000004c _ZNK10__cxxabiv117__class_type_info12__do_dyncastElNS0_10__sub_kindEPKS0_PKvS3_S5_RNS0_16__dyncast_resultE
0100bbd0 g     F .text	00000010 _ZNSt9exceptionD1Ev
01020e54 g     F .text	000001fc OSTaskStkChk
01026774  w    O .rodata	00000022 _ZTSN10__cxxabiv117__pbase_type_infoE
01029018 g     O .bss	00000004 _ZN14__gnu_internal12atomic_mutexE
01023e5c g     F .text	00000058 epcs_enter_4_bytes_mode
01028fa2 g     O .rwdata	00000002 OSMemSize
010263c8  w    O .rodata	0000000c _ZTINSt8ios_base7failureE
01028eac  w    O .rwdata	00000002 _ZTSl
01015b7c g     F .text	0000007c __swrite
01028e54  w    O .rwdata	00000008 _ZTIv
01028f38 g     O .rwdata	00000004 __malloc_trim_threshold
01028ed8  w    O .rwdata	00000003 _ZTSPs
01024b3c g     F .text	00000020 altera_nios2_qsys_irq_init
010084f8  w    F .text	00000130 _ZNSs4_Rep9_S_createEmmRKSaIcE
010290a8 g     O .bss	00000004 OSTCBCur
010254b4 g     F .text	00000038 exit
0100df74 g     F .text	00000018 _Unwind_SetGR
0100a3b0  w    F .text	00000004 _ZNSspLERKSs
01028fa4 g     O .rwdata	00000002 OSMemTblSize
01014044 g     F .text	000000c8 _fwalk_reent
01026388  w    O .rodata	00000014 _ZTVSt12domain_error
01014bd4 g     F .text	0000018c __mdiff
0102434c g     F .text	00000054 alt_flash_close_dev
0100d548 g     F .text	000000a4 _ZN10__cxxabiv111__terminateEPFvvE
0100ab38  w    F .text	00000068 _ZNSs7replaceEmmmc
01002580  w    F .text	00000050 _ZNSt12_Vector_baseIP8os_eventSaIS1_EE12_Vector_implC1ERKS2_
01018090 g     F .text	00000060 __modsi3
0100bc84 g     F .text	00000010 _ZNSt9bad_allocD1Ev
02000000 g       *ABS*	00000000 __alt_data_end
01002548  w    F .text	00000038 _ZNSt6vectorIcSaIcEEC1ERKS0_
02004020 g     F .exceptions	00000000 alt_exception
01002ab0  w    F .text	0000003c _ZSt8_DestroyIN9__gnu_cxx17__normal_iteratorIPcSt6vectorIcSaIcEEEEEvT_S7_
010134d0 g     F .text	00000004 __sfp_lock_release
01028e70  w    O .rwdata	00000002 _ZTSd
01028e04  w    O .rwdata	00000008 _ZTIl
0100dab8 g     F .text	000000c8 _ZNK10__cxxabiv120__si_class_type_info12__do_dyncastElNS_17__class_type_info10__sub_kindEPKS1_PKvS4_S6_RNS1_16__dyncast_resultE
0101a02c g     F .text	00000054 OSInit
010265d8  w    O .rodata	0000000c _ZTISt13bad_exception
01000000 g       *ABS*	00000000 __alt_mem_sdram
0102127c g     F .text	00000144 OSTaskQuery
01003148  w    F .text	00000048 _ZSt10__copy_auxIPcS0_ET0_T_S2_S1_
0101ed88 g     F .text	000000ac OS_QInit
0101b308 g     F .text	00000058 OS_StrLen
0101d720 g     F .text	00000120 OSMemNameSet
01026b86 g     O .rodata	00000101 _ctype_
01002498  w    F .text	00000028 _ZNK9__gnu_cxx17__normal_iteratorIPP8os_eventSt6vectorIS2_SaIS2_EEEdeEv
01023320 g     F .text	00000040 alt_up_de0_nano_adc_open_dev
01006c0c  w    F .text	00000034 _ZNSt12domain_errorD0Ev
010020f0  w    F .text	00000028 _ZNK9__gnu_cxx17__normal_iteratorIPcSt6vectorIcSaIcEEEdeEv
01028fbe g     O .rwdata	00000002 OSTaskProfileEn
0100c8b0  w    F .text	00000030 _ZNK10__cxxabiv117__pbase_type_info15__pointer_catchEPKS0_PPvj
010290ac g     O .bss	00000004 OSTime
010080f4  w    F .text	00000008 _ZNKSs5c_strEv
01002aec  w    F .text	0000003c _ZSt8_DestroyIN9__gnu_cxx17__normal_iteratorIPcSt6vectorIcSaIcEEEEcEvT_S7_SaIT0_E
01000ad8  w    F .text	00000050 _ZN8ListenerD0Ev
01026854  w    O .rodata	00000010 _ZTIPx
01000578  w    F .text	00000058 _ZN18QueuePostExceptionD0Ev
01000e44  w    F .text	00000040 _ZN20QueueCreateExceptionC1Ev
0100bdf4 g     F .text	00000100 _ZNK10__cxxabiv121__vmi_class_type_info20__do_find_public_srcElPKvPKNS_17__class_type_infoES2_
01039280 g     O .bss	00000800 OSTaskIdleStk
01015adc g     F .text	00000030 __isnand
01018984 g     F .text	0000002c _exit
01006e2c g     F .text	000000d0 _ZNSt8ios_base7failureC2ERKSs
01004490 g     F .text	0000004c _ZN11WifiHandler9readUntilEPc
01023f0c g     F .text	00000154 alt_alarm_start
0101c0d0 g     F .text	00000144 OSFlagNameGet
01006754 g     F .text	00000190 _ZSt20__throw_out_of_rangePKc
01008dac  w    F .text	00000090 _ZNKSs7compareEmmPKcm
0100aba0  w    F .text	00000060 _ZNSs6insertEN9__gnu_cxx17__normal_iteratorIPcSsEEc
01021928 g     F .text	00000064 OSTimeGet
0100432c g     F .text	00000164 _ZN11WifiHandler19readIntoBufferUntilEPcS0_
01018100 g     F .text	00000124 __muldi3
0100df48 g     F .text	00000018 _Unwind_GetGR
0100deec g     F .text	00000008 __cxa_get_globals
01002f5c  w    F .text	0000006c _ZNSt15__copy_backwardILb1ESt26random_access_iterator_tagE6copy_bIcEEPT_PKS3_S6_S4_
01014288 g     F .text	00000194 __smakebuf_r
01028f34 g     O .rwdata	00000004 _ZN10__cxxabiv120__unexpected_handlerE
0100a1cc  w    F .text	00000040 _ZNSspLEPKc
0100f5c0 g     F .text	00000074 strlen
01023b4c g     F .text	00000050 epcs_write_enable
01005df4 g     F .text	00000190 _ZSt23__throw_underflow_errorPKc
0100f1e0 g     F .text	00000064 _init_signal_r
01028f2c  w    O .rwdata	00000008 _ZTISt9type_info
01001ed0 g     F .text	00000088 _ZN15NetworkReceiverC2EP11WifiHandler
01024f7c g     F .text	0000001c OSTaskSwHook
010247a8 g     F .text	0000018c open
01004620 g     F .text	00000068 _ZN11WifiHandler11configEnterEv
010267d4  w    O .rodata	00000010 _ZTIPe
01007dc0  w    F .text	0000000c _ZNSs4_Rep12_S_empty_repEv
01007db8  w    F .text	00000008 _ZNSs12_Alloc_hiderC1EPcRKSaIcE
01039a80 g     O .bss	00000b40 OSEventTbl
01017b40 g     F .text	00000088 __gedf2
010265e4  w    O .rodata	0000000d _ZTSSt9exception
0103a5c0 g     O .bss	00000510 OSTCBTbl
010263d4  w    O .rodata	00000014 _ZTVSt13runtime_error
010014cc g     F .text	00000248 _ZN12MotorHandler5parseEPc
01003608  w    F .text	00000050 _ZSt4copyIN9__gnu_cxx17__normal_iteratorIPP8os_eventSt6vectorIS3_SaIS3_EEEES8_ET0_T_SA_S9_
0101f8f8 g     F .text	00000104 OSSemSet
01026a2c  w    O .rodata	0000000f _ZTSSt10bad_typeid
01008280  w    F .text	0000000c _ZNKSs6lengthEv
010092ac  w    F .text	00000020 _ZNSs13_S_copy_charsEPcS_S_
010076c8 g     F .text	00000008 _ZNKSt11logic_error4whatEv
010096f0  w    F .text	000000c4 _ZNSs12_S_constructIPKcEEPcT_S3_RKSaIcESt20forward_iterator_tag
0100bbc0 g     F .text	00000010 _ZNSt9exceptionD0Ev
0100b264  w    F .text	00000070 _ZNSs6resizeEmc
01000df4  w    F .text	00000028 _ZNK20QueueCreateException4whatEv
0102639c  w    O .rodata	00000014 _ZTVNSt8ios_base7failureE
01028e94  w    O .rwdata	00000002 _ZTSx
01004688 g     F .text	00000048 _ZN11WifiHandler15configSendStartEPc
010028e4  w    F .text	00000034 _ZN9__gnu_cxx17__normal_iteratorIPKcSt6vectorIcSaIcEEEC1ERKS2_
0100d998 g     F .text	00000010 _ZNSt10bad_typeidD1Ev
0100dfdc g     F .text	00000008 _Unwind_GetDataRelBase
0100b9d8  w    F .text	0000001c _ZNSs7replaceEN9__gnu_cxx17__normal_iteratorIPcSsEES2_PKcS4_
01028ff4 g     O .rwdata	00000004 alt_priority_mask
0100ae0c  w    F .text	00000174 _ZNSs6insertEmPKcm
0101f008 g     F .text	000002a0 OSSemDel
01004b70 g     F .text	0000004c _ZN11WifiHandler8lockUpToEt
010290b0 g     O .bss	00000004 OSFlagFreeList
0100369c  w    F .text	00000044 _ZSt18uninitialized_copyIN9__gnu_cxx17__normal_iteratorIPP8os_eventSt6vectorIS3_SaIS3_EEEES8_ET0_T_SA_S9_
01028e24  w    O .rwdata	00000008 _ZTIs
01028f84 g     O .rwdata	00000002 OSEventNameSize
010003e0  w    F .text	00000030 _ZNSt9exceptionC2Ev
01007cbc  w    F .text	00000004 _ZNSaIwEC2ERKS_
010118ec g     F .text	00000024 __vfprintf_internal
01007d90  w    F .text	0000000c _ZNKSs8max_sizeEv
010290b4 g     O .bss	00000001 OSStatRdy
0103aad0 g     O .bss	00000054 OSTCBPrioTbl
01019424 g     F .text	000000ac __env_lock
01002c08  w    F .text	00000058 _ZN9__gnu_cxxmiIPKP8os_eventS4_St6vectorIS2_SaIS2_EEEENS_17__normal_iteratorIT_T1_E15difference_typeERKSB_RKNS8_IT0_SA_EE
01026954  w    O .rodata	00000010 _ZTIPa
01028fca g     O .rwdata	00000002 OSTaskSwHookEn
01006c58 g     F .text	00000104 _ZNSt8ios_base7failureD1Ev
01028f04  w    O .rwdata	00000004 _ZTSPKw
0100d9a8 g     F .text	00000010 _ZNSt10bad_typeidD2Ev
01017298 g     F .text	00000080 __subdf3
01000864 g     F .text	00000060 _ZN14InfraredSender5parseEPc
01008628  w    F .text	00000004 _ZNSs4_Rep10_M_destroyERKSaIcE
01008f04  w    F .text	000000c0 _ZNKSs7compareEmmRKSsmm
01008774  w    F .text	0000000c _ZNKSs12find_last_ofERKSsm
010098e4  w    F .text	00000060 _ZNSsC2EPKcRKSaIcE
01022434 g     F .text	00000098 alt_epcs_flash_read
01002918  w    F .text	00000044 _ZNKSt6vectorIcSaIcEE3endEv
01007e0c  w    F .text	00000008 _ZNSs4_Rep10_M_refdataEv
01025dc0  w    O .rodata	00000018 _ZTI20QueueCreateException
010144b4 g     F .text	000000c4 __lo0bits
0100b210  w    F .text	00000054 _ZNSs6rbeginEv
0100ac00  w    F .text	00000048 _ZNSs6insertEmmc
01028ff8 g     O .rwdata	00000008 alt_alarm_list
010269e4  w    O .rodata	00000028 _ZTSN10__cxxabiv123__fundamental_type_infoE
01028f92 g     O .rwdata	00000002 OSFlagWidth
01024174 g     F .text	00000064 _do_ctors
0100f308 g     F .text	00000014 __sigtramp
01026330  w    O .rodata	0000000c _ZTISt16invalid_argument
01025c4c  w    O .rodata	00000018 _ZTI16ADCOpenException
01009a18  w    F .text	00000034 _ZNSsC2IN9__gnu_cxx17__normal_iteratorIPcSsEEEET_S4_RKSaIcE
0102354c g     F .text	0000003c alt_up_rs232_get_used_space_in_read_FIFO
010029c4  w    F .text	00000054 _ZN9__gnu_cxxmiIPKcS2_St6vectorIcSaIcEEEENS_17__normal_iteratorIT_T1_E15difference_typeERKS9_RKNS6_IT0_S8_EE
01002a88  w    F .text	00000028 _ZSt13__destroy_auxIN9__gnu_cxx17__normal_iteratorIPcSt6vectorIcSaIcEEEEEvT_S7_11__true_type
01007d34  w    F .text	0000001c _ZNKSs11_M_disjunctEPKc
01026688  w    O .rodata	0000000c _ZTIN10__cxxabiv119__pointer_type_infoE
010187b8 g     F .text	00000100 close
0100b540  w    F .text	00000034 _ZNSs4swapERSs
01028ee4  w    O .rwdata	00000003 _ZTSPh
010310c8 g     O .bss	00002000 task5_stk
01008ccc  w    F .text	0000003c _ZNSsC1EmcRKSaIcE
01029060 g     O .bss	00000004 alt_envsem
010290b8 g     O .bss	00000004 OSIdleCtrRun
0101a6c8 g     F .text	00000020 OSVersion
01028fdc g     O .rwdata	00000002 OSTmrCfgWheelSize
010073e8 g     F .text	000000b0 _ZNSt11logic_errorC1ERKSs
010213c0 g     F .text	0000007c OS_TaskStkClr
01025c28  w    O .rodata	00000010 _ZTIP16ADCOpenException
010182a4 g     F .text	00000314 __pack_d
01000068 g     F .text	00000060 _ZN16InfraredReceiver4readEi
01028fb6 g     O .rwdata	00000002 OSTaskCreateEn
01007d5c  w    F .text	00000010 _ZNSsC1Ev
0100db90 g     F .text	00000010 _ZNKSt9type_info10__do_catchEPKS_PPvj
01028ed4  w    O .rwdata	00000004 _ZTSPKs
0101acb8 g     F .text	00000068 OS_EventWaitListInit
0100f1cc g     F .text	00000014 raise
01025008 g     F .text	0000001c OSTaskIdleHook
01028ec8  w    O .rwdata	00000004 _ZTSPKt
01007638 g     F .text	00000030 _ZNSt16invalid_argumentC2ERKSs
0100451c g     F .text	0000003c _ZN11WifiHandler10configReadEv
0100e48c g     F .text	00000014 free
010134d4 g     F .text	00000004 __sinit_lock_acquire
01023c00 g     F .text	00000170 epcs_write_buffer
010075d8 g     F .text	00000030 _ZNSt12length_errorC2ERKSs
0101513c g     F .text	0000012c __multadd
0100c67c g     F .text	00000034 _ZN10__cxxabiv117__class_type_infoD0Ev
01021050 g     F .text	0000022c OSTaskSuspend
0101441c g     F .text	00000028 _Bfree
01004fa8 g     F .text	0000009c _Z28wifi_handler_tcp_update_taskPv
0100a080  w    F .text	0000010c _ZNSs6appendEPKcm
0101b360 g     F .text	0000005c OS_TaskIdle
010076d0 g     F .text	000000b0 _ZNSt13runtime_errorC1ERKSs
01009484  w    F .text	000000ec _ZNSsC1ERKSsmm
01028fe2 g     O .rwdata	00000002 OSTmrTblSize
0101ec08 g     F .text	00000180 OSQQuery



Disassembly of section .exceptions:

02004020 <alt_exception>:
         * Process an exception.  For all exceptions we must preserve all
         * caller saved registers on the stack (See the Nios2 ABI
         * documentation for details).
         */

        addi  sp, sp, -76
 2004020:	deffed04 	addi	sp,sp,-76

#endif

#endif

        stw   ra,  0(sp)
 2004024:	dfc00015 	stw	ra,0(sp)
        /*
         * Leave a gap in the stack frame at 4(sp) for the muldiv handler to
         * store zero into.
         */

        stw   r1,   8(sp)
 2004028:	d8400215 	stw	at,8(sp)
        stw   r2,  12(sp)
 200402c:	d8800315 	stw	r2,12(sp)
        stw   r3,  16(sp)
 2004030:	d8c00415 	stw	r3,16(sp)
        stw   r4,  20(sp)
 2004034:	d9000515 	stw	r4,20(sp)
        stw   r5,  24(sp)
 2004038:	d9400615 	stw	r5,24(sp)
        stw   r6,  28(sp)
 200403c:	d9800715 	stw	r6,28(sp)
        stw   r7,  32(sp)
 2004040:	d9c00815 	stw	r7,32(sp)

        rdctl r5, estatus
 2004044:	000b307a 	rdctl	r5,estatus

        stw   r8,  36(sp)
 2004048:	da000915 	stw	r8,36(sp)
        stw   r9,  40(sp)
 200404c:	da400a15 	stw	r9,40(sp)
        stw   r10, 44(sp)
 2004050:	da800b15 	stw	r10,44(sp)
        stw   r11, 48(sp)
 2004054:	dac00c15 	stw	r11,48(sp)
        stw   r12, 52(sp)
 2004058:	db000d15 	stw	r12,52(sp)
        stw   r13, 56(sp)
 200405c:	db400e15 	stw	r13,56(sp)
        stw   r14, 60(sp)
 2004060:	db800f15 	stw	r14,60(sp)
        stw   r15, 64(sp)
 2004064:	dbc01015 	stw	r15,64(sp)
        /*
         * ea-4 contains the address of the instruction being executed
         * when the exception occured. For interrupt exceptions, we will
         * will be re-issue the isntruction. Store it in 72(sp)
         */
        stw   r5,  68(sp)  /* estatus */
 2004068:	d9401115 	stw	r5,68(sp)
        addi  r15, ea, -4  /* instruction that caused exception */
 200406c:	ebffff04 	addi	r15,ea,-4
        stw   r15,  72(sp)
 2004070:	dbc01215 	stw	r15,72(sp)
#else
        /*
         * Test to see if the exception was a software exception or caused 
         * by an external interrupt, and vector accordingly.
         */
        rdctl r4, ipending
 2004074:	0009313a 	rdctl	r4,ipending
        andi  r2, r5, 1
 2004078:	2880004c 	andi	r2,r5,1
        beq   r2, zero, .Lnot_irq
 200407c:	10000326 	beq	r2,zero,200408c <alt_exception+0x6c>
        beq   r4, zero, .Lnot_irq
 2004080:	20000226 	beq	r4,zero,200408c <alt_exception+0x6c>
        /*
         * Now that all necessary registers have been preserved, call 
         * alt_irq_handler() to process the interrupts.
         */

        call alt_irq_handler
 2004084:	20040ec0 	call	20040ec <alt_irq_handler>

        .section .exceptions.irqreturn, "xa"

        br    .Lexception_exit
 2004088:	00000306 	br	2004098 <alt_exception+0x78>
         * upon completion, so we write ea (address of instruction *after*
         * the one where the exception occured) into 72(sp). The actual
         * instruction that caused the exception is written in r2, which these
         * handlers will utilize.
         */
        stw   ea,  72(sp)  /* Don't re-issue */
 200408c:	df401215 	stw	ea,72(sp)
        ldw   r2, -4(ea)   /* Instruction that caused exception */
 2004090:	e8bfff17 	ldw	r2,-4(ea)
#ifdef NIOS2_HAS_DEBUG_STUB
       /*
        *  Either tell the user now (if there is a debugger attached) or go into
        *  the debug monitor which will loop until a debugger is attached.
        */
        break
 2004094:	003da03a 	break	0
        /* 
         * Restore the saved registers, so that all general purpose registers 
         * have been restored to their state at the time the interrupt occured.
         */

        ldw   r5,  68(sp)
 2004098:	d9401117 	ldw	r5,68(sp)
        ldw   ea,  72(sp)  /* This becomes the PC once eret is executed */
 200409c:	df401217 	ldw	ea,72(sp)
        ldw   ra,   0(sp)
 20040a0:	dfc00017 	ldw	ra,0(sp)

        wrctl estatus, r5
 20040a4:	2801707a 	wrctl	estatus,r5

        ldw   r1,   8(sp)
 20040a8:	d8400217 	ldw	at,8(sp)
        ldw   r2,  12(sp)
 20040ac:	d8800317 	ldw	r2,12(sp)
        ldw   r3,  16(sp)
 20040b0:	d8c00417 	ldw	r3,16(sp)
        ldw   r4,  20(sp)
 20040b4:	d9000517 	ldw	r4,20(sp)
        ldw   r5,  24(sp)
 20040b8:	d9400617 	ldw	r5,24(sp)
        ldw   r6,  28(sp)
 20040bc:	d9800717 	ldw	r6,28(sp)
        ldw   r7,  32(sp)
 20040c0:	d9c00817 	ldw	r7,32(sp)
#ifdef ALT_STACK_CHECK
        ldw   et, %gprel(alt_exception_old_stack_limit)(gp)
#endif
#endif

        ldw   r8,  36(sp)
 20040c4:	da000917 	ldw	r8,36(sp)
        ldw   r9,  40(sp)
 20040c8:	da400a17 	ldw	r9,40(sp)
        ldw   r10, 44(sp)
 20040cc:	da800b17 	ldw	r10,44(sp)
        ldw   r11, 48(sp)
 20040d0:	dac00c17 	ldw	r11,48(sp)
        ldw   r12, 52(sp)
 20040d4:	db000d17 	ldw	r12,52(sp)
        ldw   r13, 56(sp)
 20040d8:	db400e17 	ldw	r13,56(sp)
        ldw   r14, 60(sp)
 20040dc:	db800f17 	ldw	r14,60(sp)
        ldw   r15, 64(sp)
 20040e0:	dbc01017 	ldw	r15,64(sp)
#endif

        ldw   sp,  76(sp)

#else
        addi  sp, sp, 76
 20040e4:	dec01304 	addi	sp,sp,76

        /*
         * Return to the interrupted instruction.
         */

        eret
 20040e8:	ef80083a 	eret

020040ec <alt_irq_handler>:
 * instruction is present if the macro ALT_CI_INTERRUPT_VECTOR defined.
 */

void alt_irq_handler (void) __attribute__ ((section (".exceptions")));
void alt_irq_handler (void)
{
 20040ec:	defff904 	addi	sp,sp,-28
 20040f0:	dfc00615 	stw	ra,24(sp)
 20040f4:	df000515 	stw	fp,20(sp)
 20040f8:	df000504 	addi	fp,sp,20
  
  /*
   * Notify the operating system that we are at interrupt level.
   */ 
  
  ALT_OS_INT_ENTER();
 20040fc:	101a0800 	call	101a080 <OSIntEnter>
#ifndef NIOS2_EIC_PRESENT
static ALT_INLINE alt_u32 ALT_ALWAYS_INLINE alt_irq_pending (void)
{
  alt_u32 active;

  NIOS2_READ_IPENDING (active);
 2004100:	0005313a 	rdctl	r2,ipending
 2004104:	e0bffc15 	stw	r2,-16(fp)

  return active;
 2004108:	e0bffc17 	ldw	r2,-16(fp)
   * Consider the case where the high priority interupt is asserted during
   * the interrupt entry sequence for a lower priority interrupt to see why
   * this is the case.
   */

  active = alt_irq_pending ();
 200410c:	e0bfff15 	stw	r2,-4(fp)

  do
  {
    i = 0;
 2004110:	e03ffd15 	stw	zero,-12(fp)
    mask = 1;
 2004114:	00800044 	movi	r2,1
 2004118:	e0bffe15 	stw	r2,-8(fp)
     * called to clear the interrupt condition.
     */

    do
    {
      if (active & mask)
 200411c:	e0ffff17 	ldw	r3,-4(fp)
 2004120:	e0bffe17 	ldw	r2,-8(fp)
 2004124:	1884703a 	and	r2,r3,r2
 2004128:	1005003a 	cmpeq	r2,r2,zero
 200412c:	1000171e 	bne	r2,zero,200418c <alt_irq_handler+0xa0>
      { 
#ifdef ALT_ENHANCED_INTERRUPT_API_PRESENT
        alt_irq[i].handler(alt_irq[i].context); 
#else
        alt_irq[i].handler(alt_irq[i].context, i); 
 2004130:	e0bffd17 	ldw	r2,-12(fp)
 2004134:	00c04134 	movhi	r3,260
 2004138:	18eac904 	addi	r3,r3,-21724
 200413c:	100490fa 	slli	r2,r2,3
 2004140:	10c5883a 	add	r2,r2,r3
 2004144:	11800017 	ldw	r6,0(r2)
 2004148:	e0bffd17 	ldw	r2,-12(fp)
 200414c:	00c04134 	movhi	r3,260
 2004150:	18eac904 	addi	r3,r3,-21724
 2004154:	100490fa 	slli	r2,r2,3
 2004158:	10c5883a 	add	r2,r2,r3
 200415c:	10800104 	addi	r2,r2,4
 2004160:	11000017 	ldw	r4,0(r2)
 2004164:	e17ffd17 	ldw	r5,-12(fp)
 2004168:	303ee83a 	callr	r6
#ifndef NIOS2_EIC_PRESENT
static ALT_INLINE alt_u32 ALT_ALWAYS_INLINE alt_irq_pending (void)
{
  alt_u32 active;

  NIOS2_READ_IPENDING (active);
 200416c:	0005313a 	rdctl	r2,ipending
 2004170:	e0bffb15 	stw	r2,-20(fp)

  return active;
 2004174:	e0bffb17 	ldw	r2,-20(fp)
      mask <<= 1;
      i++;

    } while (1);

    active = alt_irq_pending ();
 2004178:	e0bfff15 	stw	r2,-4(fp)
    
  } while (active);
 200417c:	e0bfff17 	ldw	r2,-4(fp)
 2004180:	1004c03a 	cmpne	r2,r2,zero
 2004184:	103fe21e 	bne	r2,zero,2004110 <alt_irq_handler+0x24>
 2004188:	00000706 	br	20041a8 <alt_irq_handler+0xbc>
#else
        alt_irq[i].handler(alt_irq[i].context, i); 
#endif
        break;
      }
      mask <<= 1;
 200418c:	e0bffe17 	ldw	r2,-8(fp)
 2004190:	1085883a 	add	r2,r2,r2
 2004194:	e0bffe15 	stw	r2,-8(fp)
      i++;
 2004198:	e0bffd17 	ldw	r2,-12(fp)
 200419c:	10800044 	addi	r2,r2,1
 20041a0:	e0bffd15 	stw	r2,-12(fp)

    } while (1);
 20041a4:	003fdd06 	br	200411c <alt_irq_handler+0x30>

  /*
   * Notify the operating system that interrupt processing is complete.
   */ 

  ALT_OS_INT_EXIT();
 20041a8:	101a0fc0 	call	101a0fc <OSIntExit>
}
 20041ac:	e037883a 	mov	sp,fp
 20041b0:	dfc00117 	ldw	ra,4(sp)
 20041b4:	df000017 	ldw	fp,0(sp)
 20041b8:	dec00204 	addi	sp,sp,8
 20041bc:	f800283a 	ret

Disassembly of section .text:

01000000 <_start>:
#if (NIOS2_NUM_OF_SHADOW_REG_SETS == 0)    
    /*
     * Now that the caches are initialized, set up the stack pointer.
     * The value provided by the linker is assumed to be correctly aligned.
     */
    movhi sp, %hi(__alt_stack_pointer)
 1000000:	06c08034 	movhi	sp,512
    ori sp, sp, %lo(__alt_stack_pointer)
 1000004:	dec00014 	ori	sp,sp,0

    /* Set up the global pointer. */
    movhi gp, %hi(_gp)
 1000008:	068040f4 	movhi	gp,259
    ori gp, gp, %lo(_gp)
 100000c:	d6836b14 	ori	gp,gp,3500
 */
#ifndef ALT_SIM_OPTIMIZE
    /* Log that the BSS is about to be cleared. */
    ALT_LOG_PUTS(alt_log_msg_bss)

    movhi r2, %hi(__bss_start)
 1000010:	008040b4 	movhi	r2,258
    ori r2, r2, %lo(__bss_start)
 1000014:	10a40014 	ori	r2,r2,36864

    movhi r3, %hi(__bss_end)
 1000018:	00c040f4 	movhi	r3,259
    ori r3, r3, %lo(__bss_end)
 100001c:	18eb6d14 	ori	r3,r3,44468

    beq r2, r3, 1f
 1000020:	10c00326 	beq	r2,r3,1000030 <_start+0x30>

0:
    stw zero, (r2)
 1000024:	10000015 	stw	zero,0(r2)
    addi r2, r2, 4
 1000028:	10800104 	addi	r2,r2,4
    bltu r2, r3, 0b
 100002c:	10fffd36 	bltu	r2,r3,1000024 <_start+0x24>

    /* Log that alt_main is about to be called. */
    ALT_LOG_PUTS(alt_log_msg_alt_main)

    /* Call the C entry point. It should never return. */
    call alt_main
 1000030:	1018f200 	call	1018f20 <alt_main>

01000034 <alt_after_alt_main>:

    /* Wait in infinite loop in case alt_main does return. */
alt_after_alt_main:
    br alt_after_alt_main
 1000034:	003fff06 	br	1000034 <alt_after_alt_main>

01000038 <_ZN16InfraredReceiver11setListenerEP8os_event>:

/**
 * Sets the listener to which the infrared readings will be posted.
 * @param queue - the queue to set as the listener
 */
void InfraredReceiver::setListener(OS_EVENT *queue) {
 1000038:	defffd04 	addi	sp,sp,-12
 100003c:	df000215 	stw	fp,8(sp)
 1000040:	df000204 	addi	fp,sp,8
 1000044:	e13ffe15 	stw	r4,-8(fp)
 1000048:	e17fff15 	stw	r5,-4(fp)
	listener = queue;
 100004c:	e0fffe17 	ldw	r3,-8(fp)
 1000050:	e0bfff17 	ldw	r2,-4(fp)
 1000054:	18800115 	stw	r2,4(r3)
}
 1000058:	e037883a 	mov	sp,fp
 100005c:	df000017 	ldw	fp,0(sp)
 1000060:	dec00104 	addi	sp,sp,4
 1000064:	f800283a 	ret

01000068 <_ZN16InfraredReceiver4readEi>:
 * Reads the level of the given receive channel.
 * @param channel - the number of the ADC channel to read
 * @return the 12-bit level read from the channel, indicating the amount of infrared light
 * hitting the receivers
 * */
unsigned int InfraredReceiver::read(int channel) {
 1000068:	defffb04 	addi	sp,sp,-20
 100006c:	dfc00415 	stw	ra,16(sp)
 1000070:	df000315 	stw	fp,12(sp)
 1000074:	df000304 	addi	fp,sp,12
 1000078:	e13ffe15 	stw	r4,-8(fp)
 100007c:	e17fff15 	stw	r5,-4(fp)
	alt_up_de0_nano_adc_update(adc_dev);
 1000080:	e0bffe17 	ldw	r2,-8(fp)
 1000084:	10800017 	ldw	r2,0(r2)
 1000088:	10800a17 	ldw	r2,40(r2)
 100008c:	10000035 	stwio	zero,0(r2)
	unsigned int level = (alt_up_de0_nano_adc_read(adc_dev, channel) >> INFRARED_RECEIVER_ADC_READ_UNUSED) - INFRARED_RECEIVER_ADC_READ_BASE;
 1000090:	e0bffe17 	ldw	r2,-8(fp)
 1000094:	11000017 	ldw	r4,0(r2)
 1000098:	e17fff17 	ldw	r5,-4(fp)
 100009c:	10233600 	call	1023360 <alt_up_de0_nano_adc_read>
 10000a0:	1006d13a 	srli	r3,r2,4
 10000a4:	00bf8034 	movhi	r2,65024
 10000a8:	1885883a 	add	r2,r3,r2
 10000ac:	e0bffd15 	stw	r2,-12(fp)
	INFRAREDRECEIVER_LOG(printf("InfraredReceiver [channel: %d, level: %u]\n", channel, level));
	return level;
 10000b0:	e0bffd17 	ldw	r2,-12(fp)
}
 10000b4:	e037883a 	mov	sp,fp
 10000b8:	dfc00117 	ldw	ra,4(sp)
 10000bc:	df000017 	ldw	fp,0(sp)
 10000c0:	dec00204 	addi	sp,sp,8
 10000c4:	f800283a 	ret

010000c8 <_ZN16InfraredReceiver4postEPKc>:
/**
 * Posts an infrared receive event to the listener.
 * @param event - the name of the event, which must start with 'i' for infrared
 * @throw PostException if the event cannot be posted to the listener
 */
void InfraredReceiver::post(const char *event) {
 10000c8:	defffa04 	addi	sp,sp,-24
 10000cc:	dfc00515 	stw	ra,20(sp)
 10000d0:	df000415 	stw	fp,16(sp)
 10000d4:	dc000315 	stw	r16,12(sp)
 10000d8:	df000304 	addi	fp,sp,12
 10000dc:	e13ffe15 	stw	r4,-8(fp)
 10000e0:	e17fff15 	stw	r5,-4(fp)
	INT8U status;
	status = OSQPost(listener, (void *)event);
 10000e4:	e0bffe17 	ldw	r2,-8(fp)
 10000e8:	11000117 	ldw	r4,4(r2)
 10000ec:	e17fff17 	ldw	r5,-4(fp)
 10000f0:	101e6cc0 	call	101e6cc <OSQPost>
 10000f4:	e0bffd05 	stb	r2,-12(fp)
	if (status != OS_NO_ERR) {
 10000f8:	e0bffd03 	ldbu	r2,-12(fp)
 10000fc:	1005003a 	cmpeq	r2,r2,zero
 1000100:	10000e1e 	bne	r2,zero,100013c <_ZN16InfraredReceiver4postEPKc+0x74>
		throw new QueuePostException();
 1000104:	01000104 	movi	r4,4
 1000108:	100dda00 	call	100dda0 <_Znwm>
 100010c:	1021883a 	mov	r16,r2
 1000110:	8009883a 	mov	r4,r16
 1000114:	10004e00 	call	10004e0 <_ZN18QueuePostExceptionC1Ev>
 1000118:	01000104 	movi	r4,4
 100011c:	100dc180 	call	100dc18 <__cxa_allocate_exception>
 1000120:	1009883a 	mov	r4,r2
 1000124:	2005883a 	mov	r2,r4
 1000128:	14000015 	stw	r16,0(r2)
 100012c:	014040b4 	movhi	r5,258
 1000130:	2956df04 	addi	r5,r5,23420
 1000134:	000d883a 	mov	r6,zero
 1000138:	100d8900 	call	100d890 <__cxa_throw>
	}
}
 100013c:	e037883a 	mov	sp,fp
 1000140:	dfc00217 	ldw	ra,8(sp)
 1000144:	df000117 	ldw	fp,4(sp)
 1000148:	dc000017 	ldw	r16,0(sp)
 100014c:	dec00304 	addi	sp,sp,12
 1000150:	f800283a 	ret

01000154 <_ZN16InfraredReceiver5checkEj>:
 * Checks the given infrared reading level against the infrared hit threshold.
 * If the level exceeds the threshold, a hit event will be posted to the listener.
 * @param level - the level read by the infrared receivers
 * @throw PostException if the hit event cannot be posted to the listener
 */
void InfraredReceiver::check(unsigned int level) {
 1000154:	defffc04 	addi	sp,sp,-16
 1000158:	dfc00315 	stw	ra,12(sp)
 100015c:	df000215 	stw	fp,8(sp)
 1000160:	df000204 	addi	fp,sp,8
 1000164:	e13ffe15 	stw	r4,-8(fp)
 1000168:	e17fff15 	stw	r5,-4(fp)
	if (level > INFRARED_RECEIVER_HIT_THRESHOLD) {
 100016c:	e0bfff17 	ldw	r2,-4(fp)
 1000170:	10800cf0 	cmpltui	r2,r2,51
 1000174:	1000031e 	bne	r2,zero,1000184 <_ZN16InfraredReceiver5checkEj+0x30>
		INFRAREDRECEIVER_LOG(printf("InfraredReceiver [event: HIT]\n"));
		post(HIT);
 1000178:	d1600017 	ldw	r5,-32768(gp)
 100017c:	e13ffe17 	ldw	r4,-8(fp)
 1000180:	10000c80 	call	10000c8 <_ZN16InfraredReceiver4postEPKc>
	}
}
 1000184:	e037883a 	mov	sp,fp
 1000188:	dfc00117 	ldw	ra,4(sp)
 100018c:	df000017 	ldw	fp,0(sp)
 1000190:	dec00204 	addi	sp,sp,8
 1000194:	f800283a 	ret

01000198 <_ZN16InfraredReceiver6updateEv>:

/**
 * Updates this receiver. The receiver will read the ADC and post the readings to the listener.
 * @throw PostException if the reading cannot be posted to the listener
 */
void InfraredReceiver::update() {
 1000198:	defffd04 	addi	sp,sp,-12
 100019c:	dfc00215 	stw	ra,8(sp)
 10001a0:	df000115 	stw	fp,4(sp)
 10001a4:	df000104 	addi	fp,sp,4
 10001a8:	e13fff15 	stw	r4,-4(fp)
	check(read(1));
 10001ac:	e13fff17 	ldw	r4,-4(fp)
 10001b0:	01400044 	movi	r5,1
 10001b4:	10000680 	call	1000068 <_ZN16InfraredReceiver4readEi>
 10001b8:	100b883a 	mov	r5,r2
 10001bc:	e13fff17 	ldw	r4,-4(fp)
 10001c0:	10001540 	call	1000154 <_ZN16InfraredReceiver5checkEj>
}
 10001c4:	e037883a 	mov	sp,fp
 10001c8:	dfc00117 	ldw	ra,4(sp)
 10001cc:	df000017 	ldw	fp,0(sp)
 10001d0:	dec00204 	addi	sp,sp,8
 10001d4:	f800283a 	ret

010001d8 <_ZN16InfraredReceiverC1Ev>:

/**
 * Creates a new infrared receiver.
 * @throw ADCOpenException if the receiver cannot connect to the analog-to-digital converter
 */
InfraredReceiver::InfraredReceiver() {
 10001d8:	defffc04 	addi	sp,sp,-16
 10001dc:	dfc00315 	stw	ra,12(sp)
 10001e0:	df000215 	stw	fp,8(sp)
 10001e4:	dc000115 	stw	r16,4(sp)
 10001e8:	df000104 	addi	fp,sp,4
 10001ec:	e13fff15 	stw	r4,-4(fp)
	adc_dev = alt_up_de0_nano_adc_open_dev(ADC_NAME);
 10001f0:	010040b4 	movhi	r4,258
 10001f4:	2116db04 	addi	r4,r4,23404
 10001f8:	10233200 	call	1023320 <alt_up_de0_nano_adc_open_dev>
 10001fc:	1007883a 	mov	r3,r2
 1000200:	e0bfff17 	ldw	r2,-4(fp)
 1000204:	10c00015 	stw	r3,0(r2)
	if (adc_dev == NULL) {
 1000208:	e0bfff17 	ldw	r2,-4(fp)
 100020c:	10800017 	ldw	r2,0(r2)
 1000210:	1004c03a 	cmpne	r2,r2,zero
 1000214:	10000e1e 	bne	r2,zero,1000250 <_ZN16InfraredReceiverC1Ev+0x78>
		throw new ADCOpenException();
 1000218:	01000104 	movi	r4,4
 100021c:	100dda00 	call	100dda0 <_Znwm>
 1000220:	1021883a 	mov	r16,r2
 1000224:	8009883a 	mov	r4,r16
 1000228:	10004a00 	call	10004a0 <_ZN16ADCOpenExceptionC1Ev>
 100022c:	01000104 	movi	r4,4
 1000230:	100dc180 	call	100dc18 <__cxa_allocate_exception>
 1000234:	1009883a 	mov	r4,r2
 1000238:	2005883a 	mov	r2,r4
 100023c:	14000015 	stw	r16,0(r2)
 1000240:	014040b4 	movhi	r5,258
 1000244:	29570a04 	addi	r5,r5,23592
 1000248:	000d883a 	mov	r6,zero
 100024c:	100d8900 	call	100d890 <__cxa_throw>
	}
}
 1000250:	e037883a 	mov	sp,fp
 1000254:	dfc00217 	ldw	ra,8(sp)
 1000258:	df000117 	ldw	fp,4(sp)
 100025c:	dc000017 	ldw	r16,0(sp)
 1000260:	dec00304 	addi	sp,sp,12
 1000264:	f800283a 	ret

01000268 <_ZN16InfraredReceiverC2Ev>:

/**
 * Creates a new infrared receiver.
 * @throw ADCOpenException if the receiver cannot connect to the analog-to-digital converter
 */
InfraredReceiver::InfraredReceiver() {
 1000268:	defffc04 	addi	sp,sp,-16
 100026c:	dfc00315 	stw	ra,12(sp)
 1000270:	df000215 	stw	fp,8(sp)
 1000274:	dc000115 	stw	r16,4(sp)
 1000278:	df000104 	addi	fp,sp,4
 100027c:	e13fff15 	stw	r4,-4(fp)
	adc_dev = alt_up_de0_nano_adc_open_dev(ADC_NAME);
 1000280:	010040b4 	movhi	r4,258
 1000284:	2116db04 	addi	r4,r4,23404
 1000288:	10233200 	call	1023320 <alt_up_de0_nano_adc_open_dev>
 100028c:	1007883a 	mov	r3,r2
 1000290:	e0bfff17 	ldw	r2,-4(fp)
 1000294:	10c00015 	stw	r3,0(r2)
	if (adc_dev == NULL) {
 1000298:	e0bfff17 	ldw	r2,-4(fp)
 100029c:	10800017 	ldw	r2,0(r2)
 10002a0:	1004c03a 	cmpne	r2,r2,zero
 10002a4:	10000e1e 	bne	r2,zero,10002e0 <_ZN16InfraredReceiverC2Ev+0x78>
		throw new ADCOpenException();
 10002a8:	01000104 	movi	r4,4
 10002ac:	100dda00 	call	100dda0 <_Znwm>
 10002b0:	1021883a 	mov	r16,r2
 10002b4:	8009883a 	mov	r4,r16
 10002b8:	10004a00 	call	10004a0 <_ZN16ADCOpenExceptionC1Ev>
 10002bc:	01000104 	movi	r4,4
 10002c0:	100dc180 	call	100dc18 <__cxa_allocate_exception>
 10002c4:	1009883a 	mov	r4,r2
 10002c8:	2005883a 	mov	r2,r4
 10002cc:	14000015 	stw	r16,0(r2)
 10002d0:	014040b4 	movhi	r5,258
 10002d4:	29570a04 	addi	r5,r5,23592
 10002d8:	000d883a 	mov	r6,zero
 10002dc:	100d8900 	call	100d890 <__cxa_throw>
	}
}
 10002e0:	e037883a 	mov	sp,fp
 10002e4:	dfc00217 	ldw	ra,8(sp)
 10002e8:	df000117 	ldw	fp,4(sp)
 10002ec:	dc000017 	ldw	r16,0(sp)
 10002f0:	dec00304 	addi	sp,sp,12
 10002f4:	f800283a 	ret

010002f8 <_Z29infrared_receiver_update_taskPv>:
// TASKS

extern InfraredReceiver *infraredIn;

/* Polls the infrared receivers. */
void infrared_receiver_update_task(void* pdata) {
 10002f8:	deffe604 	addi	sp,sp,-104
 10002fc:	dfc01915 	stw	ra,100(sp)
 1000300:	df001815 	stw	fp,96(sp)
 1000304:	ddc01715 	stw	r23,92(sp)
 1000308:	dd801615 	stw	r22,88(sp)
 100030c:	dd401515 	stw	r21,84(sp)
 1000310:	dd001415 	stw	r20,80(sp)
 1000314:	dcc01315 	stw	r19,76(sp)
 1000318:	dc801215 	stw	r18,72(sp)
 100031c:	dc401115 	stw	r17,68(sp)
 1000320:	dc001015 	stw	r16,64(sp)
 1000324:	df001004 	addi	fp,sp,64
 1000328:	e13ff115 	stw	r4,-60(fp)
 100032c:	00804074 	movhi	r2,257
 1000330:	10b41004 	addi	r2,r2,-12224
 1000334:	e0bff815 	stw	r2,-32(fp)
 1000338:	008040b4 	movhi	r2,258
 100033c:	1095f504 	addi	r2,r2,22484
 1000340:	e0bff915 	stw	r2,-28(fp)
 1000344:	e0bffa04 	addi	r2,fp,-24
 1000348:	e0fff004 	addi	r3,fp,-64
 100034c:	10c00015 	stw	r3,0(r2)
 1000350:	00c04034 	movhi	r3,256
 1000354:	18c0e104 	addi	r3,r3,900
 1000358:	10c00115 	stw	r3,4(r2)
 100035c:	16c00215 	stw	sp,8(r2)
 1000360:	e13ff204 	addi	r4,fp,-56
 1000364:	100df2c0 	call	100df2c <_Unwind_SjLj_Register>
	TASK_LOG(printf("InfraredReceiver [task: update, status: start]\n"));
	while (true) {
		try {
			// Update the infrared receiver.
			infraredIn->update();
 1000368:	008040f4 	movhi	r2,259
 100036c:	10a40004 	addi	r2,r2,-28672
 1000370:	11000017 	ldw	r4,0(r2)
 1000374:	00800044 	movi	r2,1
 1000378:	e0bff315 	stw	r2,-52(fp)
 100037c:	10001980 	call	1000198 <_ZN16InfraredReceiver6updateEv>
 1000380:	00000f06 	br	10003c0 <_Z29infrared_receiver_update_taskPv+0xc8>
 1000384:	e7001004 	addi	fp,fp,64
 1000388:	e0bff417 	ldw	r2,-48(fp)
 100038c:	e0bfff15 	stw	r2,-4(fp)
 1000390:	e0bff517 	ldw	r2,-44(fp)
 1000394:	10800060 	cmpeqi	r2,r2,1
 1000398:	1000041e 	bne	r2,zero,10003ac <_Z29infrared_receiver_update_taskPv+0xb4>
 100039c:	00bfffc4 	movi	r2,-1
 10003a0:	e0bff315 	stw	r2,-52(fp)
 10003a4:	e13fff17 	ldw	r4,-4(fp)
 10003a8:	100e1f80 	call	100e1f8 <_Unwind_SjLj_Resume>
		} catch (ARCapException &e) {
 10003ac:	e13fff17 	ldw	r4,-4(fp)
 10003b0:	100d6f80 	call	100d6f8 <__cxa_begin_catch>
 10003b4:	e0bff015 	stw	r2,-64(fp)
 10003b8:	e03ff315 	stw	zero,-52(fp)
 10003bc:	100d6540 	call	100d654 <__cxa_end_catch>
			// Log exceptions.
			INFRAREDRECEIVER_LOG(printf("%s\n", e.what()));
		}
		// Wait.
		OSTimeDlyHMSM(0, 0, 0, INFRARED_RECEIVER_UPDATE_TIME_MILLIS);
 10003c0:	00bfffc4 	movi	r2,-1
 10003c4:	e0bff315 	stw	r2,-52(fp)
 10003c8:	0009883a 	mov	r4,zero
 10003cc:	000b883a 	mov	r5,zero
 10003d0:	000d883a 	mov	r6,zero
 10003d4:	01c03204 	movi	r7,200
 10003d8:	10215880 	call	1021588 <OSTimeDlyHMSM>
extern InfraredReceiver *infraredIn;

/* Polls the infrared receivers. */
void infrared_receiver_update_task(void* pdata) {
	TASK_LOG(printf("InfraredReceiver [task: update, status: start]\n"));
	while (true) {
 10003dc:	003fe206 	br	1000368 <_Z29infrared_receiver_update_taskPv+0x70>

010003e0 <_ZNSt9exceptionC2Ev>:
   *  throw non-class data (e.g., fundamental types).
   */
  class exception 
  {
  public:
    exception() throw() { }
 10003e0:	defffe04 	addi	sp,sp,-8
 10003e4:	df000115 	stw	fp,4(sp)
 10003e8:	df000104 	addi	fp,sp,4
 10003ec:	e13fff15 	stw	r4,-4(fp)
 10003f0:	00c040b4 	movhi	r3,258
 10003f4:	18d96e04 	addi	r3,r3,26040
 10003f8:	e0bfff17 	ldw	r2,-4(fp)
 10003fc:	10c00015 	stw	r3,0(r2)
 1000400:	e037883a 	mov	sp,fp
 1000404:	df000017 	ldw	fp,0(sp)
 1000408:	dec00104 	addi	sp,sp,4
 100040c:	f800283a 	ret

01000410 <_ZNK18QueuePostException4whatEv>:
	virtual const char *what() const throw() = 0;
};

class QueuePostException : ARCapException {
public:
	virtual const char *what() const throw() {
 1000410:	defffe04 	addi	sp,sp,-8
 1000414:	df000115 	stw	fp,4(sp)
 1000418:	df000104 	addi	fp,sp,4
 100041c:	e13fff15 	stw	r4,-4(fp)
		return "Failed to post to listener queue.";
 1000420:	008040b4 	movhi	r2,258
 1000424:	1096c304 	addi	r2,r2,23308
	}
 1000428:	e037883a 	mov	sp,fp
 100042c:	df000017 	ldw	fp,0(sp)
 1000430:	dec00104 	addi	sp,sp,4
 1000434:	f800283a 	ret

01000438 <_ZNK16ADCOpenException4whatEv>:

};

class ADCOpenException : ARCapException {
public:
	virtual const char *what() const throw() {
 1000438:	defffe04 	addi	sp,sp,-8
 100043c:	df000115 	stw	fp,4(sp)
 1000440:	df000104 	addi	fp,sp,4
 1000444:	e13fff15 	stw	r4,-4(fp)
		return "Failed to open connection to analog-to-digital converter.";
 1000448:	008040b4 	movhi	r2,258
 100044c:	1096cc04 	addi	r2,r2,23344
	}
 1000450:	e037883a 	mov	sp,fp
 1000454:	df000017 	ldw	fp,0(sp)
 1000458:	dec00104 	addi	sp,sp,4
 100045c:	f800283a 	ret

01000460 <_ZN14ARCapExceptionC2Ev>:
#define MESSAGE_OK			":ok"
#define MESSAGE_ERR			":err"
#define MESSAGE_OK_LENGTH	3
#define MESSAGE_ERR_LENGTH	4

class ARCapException : exception {
 1000460:	defffd04 	addi	sp,sp,-12
 1000464:	dfc00215 	stw	ra,8(sp)
 1000468:	df000115 	stw	fp,4(sp)
 100046c:	df000104 	addi	fp,sp,4
 1000470:	e13fff15 	stw	r4,-4(fp)
 1000474:	e13fff17 	ldw	r4,-4(fp)
 1000478:	10003e00 	call	10003e0 <_ZNSt9exceptionC2Ev>
 100047c:	00c040b4 	movhi	r3,258
 1000480:	18d70704 	addi	r3,r3,23580
 1000484:	e0bfff17 	ldw	r2,-4(fp)
 1000488:	10c00015 	stw	r3,0(r2)
 100048c:	e037883a 	mov	sp,fp
 1000490:	dfc00117 	ldw	ra,4(sp)
 1000494:	df000017 	ldw	fp,0(sp)
 1000498:	dec00204 	addi	sp,sp,8
 100049c:	f800283a 	ret

010004a0 <_ZN16ADCOpenExceptionC1Ev>:
	 */
	void post(const char *event);

};

class ADCOpenException : ARCapException {
 10004a0:	defffd04 	addi	sp,sp,-12
 10004a4:	dfc00215 	stw	ra,8(sp)
 10004a8:	df000115 	stw	fp,4(sp)
 10004ac:	df000104 	addi	fp,sp,4
 10004b0:	e13fff15 	stw	r4,-4(fp)
 10004b4:	e13fff17 	ldw	r4,-4(fp)
 10004b8:	10004600 	call	1000460 <_ZN14ARCapExceptionC2Ev>
 10004bc:	00c040b4 	movhi	r3,258
 10004c0:	18d72004 	addi	r3,r3,23680
 10004c4:	e0bfff17 	ldw	r2,-4(fp)
 10004c8:	10c00015 	stw	r3,0(r2)
 10004cc:	e037883a 	mov	sp,fp
 10004d0:	dfc00117 	ldw	ra,4(sp)
 10004d4:	df000017 	ldw	fp,0(sp)
 10004d8:	dec00204 	addi	sp,sp,8
 10004dc:	f800283a 	ret

010004e0 <_ZN18QueuePostExceptionC1Ev>:
public:
	virtual const char *what() const throw() = 0;
};

class QueuePostException : ARCapException {
 10004e0:	defffd04 	addi	sp,sp,-12
 10004e4:	dfc00215 	stw	ra,8(sp)
 10004e8:	df000115 	stw	fp,4(sp)
 10004ec:	df000104 	addi	fp,sp,4
 10004f0:	e13fff15 	stw	r4,-4(fp)
 10004f4:	e13fff17 	ldw	r4,-4(fp)
 10004f8:	10004600 	call	1000460 <_ZN14ARCapExceptionC2Ev>
 10004fc:	00c040b4 	movhi	r3,258
 1000500:	18d70204 	addi	r3,r3,23560
 1000504:	e0bfff17 	ldw	r2,-4(fp)
 1000508:	10c00015 	stw	r3,0(r2)
 100050c:	e037883a 	mov	sp,fp
 1000510:	dfc00117 	ldw	ra,4(sp)
 1000514:	df000017 	ldw	fp,0(sp)
 1000518:	dec00204 	addi	sp,sp,8
 100051c:	f800283a 	ret

01000520 <_ZN14ARCapExceptionD2Ev>:
#define MESSAGE_OK			":ok"
#define MESSAGE_ERR			":err"
#define MESSAGE_OK_LENGTH	3
#define MESSAGE_ERR_LENGTH	4

class ARCapException : exception {
 1000520:	defffd04 	addi	sp,sp,-12
 1000524:	dfc00215 	stw	ra,8(sp)
 1000528:	df000115 	stw	fp,4(sp)
 100052c:	df000104 	addi	fp,sp,4
 1000530:	e13fff15 	stw	r4,-4(fp)
 1000534:	00c040b4 	movhi	r3,258
 1000538:	18d70704 	addi	r3,r3,23580
 100053c:	e0bfff17 	ldw	r2,-4(fp)
 1000540:	10c00015 	stw	r3,0(r2)
 1000544:	e13fff17 	ldw	r4,-4(fp)
 1000548:	100bbe00 	call	100bbe0 <_ZNSt9exceptionD2Ev>
 100054c:	0005883a 	mov	r2,zero
 1000550:	10803fcc 	andi	r2,r2,255
 1000554:	1005003a 	cmpeq	r2,r2,zero
 1000558:	1000021e 	bne	r2,zero,1000564 <_ZN14ARCapExceptionD2Ev+0x44>
 100055c:	e13fff17 	ldw	r4,-4(fp)
 1000560:	100d8100 	call	100d810 <_ZdlPv>
 1000564:	e037883a 	mov	sp,fp
 1000568:	dfc00117 	ldw	ra,4(sp)
 100056c:	df000017 	ldw	fp,0(sp)
 1000570:	dec00204 	addi	sp,sp,8
 1000574:	f800283a 	ret

01000578 <_ZN18QueuePostExceptionD0Ev>:
public:
	virtual const char *what() const throw() = 0;
};

class QueuePostException : ARCapException {
 1000578:	defffd04 	addi	sp,sp,-12
 100057c:	dfc00215 	stw	ra,8(sp)
 1000580:	df000115 	stw	fp,4(sp)
 1000584:	df000104 	addi	fp,sp,4
 1000588:	e13fff15 	stw	r4,-4(fp)
 100058c:	00c040b4 	movhi	r3,258
 1000590:	18d70204 	addi	r3,r3,23560
 1000594:	e0bfff17 	ldw	r2,-4(fp)
 1000598:	10c00015 	stw	r3,0(r2)
 100059c:	e13fff17 	ldw	r4,-4(fp)
 10005a0:	10005200 	call	1000520 <_ZN14ARCapExceptionD2Ev>
 10005a4:	00800044 	movi	r2,1
 10005a8:	10803fcc 	andi	r2,r2,255
 10005ac:	1005003a 	cmpeq	r2,r2,zero
 10005b0:	1000021e 	bne	r2,zero,10005bc <_ZN18QueuePostExceptionD0Ev+0x44>
 10005b4:	e13fff17 	ldw	r4,-4(fp)
 10005b8:	100d8100 	call	100d810 <_ZdlPv>
 10005bc:	e037883a 	mov	sp,fp
 10005c0:	dfc00117 	ldw	ra,4(sp)
 10005c4:	df000017 	ldw	fp,0(sp)
 10005c8:	dec00204 	addi	sp,sp,8
 10005cc:	f800283a 	ret

010005d0 <_ZN18QueuePostExceptionD1Ev>:
 10005d0:	defffd04 	addi	sp,sp,-12
 10005d4:	dfc00215 	stw	ra,8(sp)
 10005d8:	df000115 	stw	fp,4(sp)
 10005dc:	df000104 	addi	fp,sp,4
 10005e0:	e13fff15 	stw	r4,-4(fp)
 10005e4:	00c040b4 	movhi	r3,258
 10005e8:	18d70204 	addi	r3,r3,23560
 10005ec:	e0bfff17 	ldw	r2,-4(fp)
 10005f0:	10c00015 	stw	r3,0(r2)
 10005f4:	e13fff17 	ldw	r4,-4(fp)
 10005f8:	10005200 	call	1000520 <_ZN14ARCapExceptionD2Ev>
 10005fc:	0005883a 	mov	r2,zero
 1000600:	10803fcc 	andi	r2,r2,255
 1000604:	1005003a 	cmpeq	r2,r2,zero
 1000608:	1000021e 	bne	r2,zero,1000614 <_ZN18QueuePostExceptionD1Ev+0x44>
 100060c:	e13fff17 	ldw	r4,-4(fp)
 1000610:	100d8100 	call	100d810 <_ZdlPv>
 1000614:	e037883a 	mov	sp,fp
 1000618:	dfc00117 	ldw	ra,4(sp)
 100061c:	df000017 	ldw	fp,0(sp)
 1000620:	dec00204 	addi	sp,sp,8
 1000624:	f800283a 	ret

01000628 <_ZN16ADCOpenExceptionD0Ev>:
 1000628:	defffd04 	addi	sp,sp,-12
 100062c:	dfc00215 	stw	ra,8(sp)
 1000630:	df000115 	stw	fp,4(sp)
 1000634:	df000104 	addi	fp,sp,4
 1000638:	e13fff15 	stw	r4,-4(fp)
 100063c:	00c040b4 	movhi	r3,258
 1000640:	18d72004 	addi	r3,r3,23680
 1000644:	e0bfff17 	ldw	r2,-4(fp)
 1000648:	10c00015 	stw	r3,0(r2)
 100064c:	e13fff17 	ldw	r4,-4(fp)
 1000650:	10005200 	call	1000520 <_ZN14ARCapExceptionD2Ev>
 1000654:	00800044 	movi	r2,1
 1000658:	10803fcc 	andi	r2,r2,255
 100065c:	1005003a 	cmpeq	r2,r2,zero
 1000660:	1000021e 	bne	r2,zero,100066c <_ZN16ADCOpenExceptionD0Ev+0x44>
 1000664:	e13fff17 	ldw	r4,-4(fp)
 1000668:	100d8100 	call	100d810 <_ZdlPv>
 100066c:	e037883a 	mov	sp,fp
 1000670:	dfc00117 	ldw	ra,4(sp)
 1000674:	df000017 	ldw	fp,0(sp)
 1000678:	dec00204 	addi	sp,sp,8
 100067c:	f800283a 	ret

01000680 <_ZN16ADCOpenExceptionD1Ev>:
 1000680:	defffd04 	addi	sp,sp,-12
 1000684:	dfc00215 	stw	ra,8(sp)
 1000688:	df000115 	stw	fp,4(sp)
 100068c:	df000104 	addi	fp,sp,4
 1000690:	e13fff15 	stw	r4,-4(fp)
 1000694:	00c040b4 	movhi	r3,258
 1000698:	18d72004 	addi	r3,r3,23680
 100069c:	e0bfff17 	ldw	r2,-4(fp)
 10006a0:	10c00015 	stw	r3,0(r2)
 10006a4:	e13fff17 	ldw	r4,-4(fp)
 10006a8:	10005200 	call	1000520 <_ZN14ARCapExceptionD2Ev>
 10006ac:	0005883a 	mov	r2,zero
 10006b0:	10803fcc 	andi	r2,r2,255
 10006b4:	1005003a 	cmpeq	r2,r2,zero
 10006b8:	1000021e 	bne	r2,zero,10006c4 <_ZN16ADCOpenExceptionD1Ev+0x44>
 10006bc:	e13fff17 	ldw	r4,-4(fp)
 10006c0:	100d8100 	call	100d810 <_ZdlPv>
 10006c4:	e037883a 	mov	sp,fp
 10006c8:	dfc00117 	ldw	ra,4(sp)
 10006cc:	df000017 	ldw	fp,0(sp)
 10006d0:	dec00204 	addi	sp,sp,8
 10006d4:	f800283a 	ret

010006d8 <_ZN14ARCapExceptionD0Ev>:
#define MESSAGE_OK			":ok"
#define MESSAGE_ERR			":err"
#define MESSAGE_OK_LENGTH	3
#define MESSAGE_ERR_LENGTH	4

class ARCapException : exception {
 10006d8:	defffd04 	addi	sp,sp,-12
 10006dc:	dfc00215 	stw	ra,8(sp)
 10006e0:	df000115 	stw	fp,4(sp)
 10006e4:	df000104 	addi	fp,sp,4
 10006e8:	e13fff15 	stw	r4,-4(fp)
 10006ec:	00c040b4 	movhi	r3,258
 10006f0:	18d70704 	addi	r3,r3,23580
 10006f4:	e0bfff17 	ldw	r2,-4(fp)
 10006f8:	10c00015 	stw	r3,0(r2)
 10006fc:	e13fff17 	ldw	r4,-4(fp)
 1000700:	100bbe00 	call	100bbe0 <_ZNSt9exceptionD2Ev>
 1000704:	00800044 	movi	r2,1
 1000708:	10803fcc 	andi	r2,r2,255
 100070c:	1005003a 	cmpeq	r2,r2,zero
 1000710:	1000021e 	bne	r2,zero,100071c <_ZN14ARCapExceptionD0Ev+0x44>
 1000714:	e13fff17 	ldw	r4,-4(fp)
 1000718:	100d8100 	call	100d810 <_ZdlPv>
 100071c:	e037883a 	mov	sp,fp
 1000720:	dfc00117 	ldw	ra,4(sp)
 1000724:	df000017 	ldw	fp,0(sp)
 1000728:	dec00204 	addi	sp,sp,8
 100072c:	f800283a 	ret

01000730 <_ZN14ARCapExceptionD1Ev>:
 1000730:	defffd04 	addi	sp,sp,-12
 1000734:	dfc00215 	stw	ra,8(sp)
 1000738:	df000115 	stw	fp,4(sp)
 100073c:	df000104 	addi	fp,sp,4
 1000740:	e13fff15 	stw	r4,-4(fp)
 1000744:	00c040b4 	movhi	r3,258
 1000748:	18d70704 	addi	r3,r3,23580
 100074c:	e0bfff17 	ldw	r2,-4(fp)
 1000750:	10c00015 	stw	r3,0(r2)
 1000754:	e13fff17 	ldw	r4,-4(fp)
 1000758:	100bbe00 	call	100bbe0 <_ZNSt9exceptionD2Ev>
 100075c:	0005883a 	mov	r2,zero
 1000760:	10803fcc 	andi	r2,r2,255
 1000764:	1005003a 	cmpeq	r2,r2,zero
 1000768:	1000021e 	bne	r2,zero,1000774 <_ZN14ARCapExceptionD1Ev+0x44>
 100076c:	e13fff17 	ldw	r4,-4(fp)
 1000770:	100d8100 	call	100d810 <_ZdlPv>
 1000774:	e037883a 	mov	sp,fp
 1000778:	dfc00117 	ldw	ra,4(sp)
 100077c:	df000017 	ldw	fp,0(sp)
 1000780:	dec00204 	addi	sp,sp,8
 1000784:	f800283a 	ret

01000788 <_ZN14InfraredSender4testEv>:
// TESTING

/**
 * Tests the infrared emitters.
 */
void InfraredSender::test() {
 1000788:	defffd04 	addi	sp,sp,-12
 100078c:	dfc00215 	stw	ra,8(sp)
 1000790:	df000115 	stw	fp,4(sp)
 1000794:	df000104 	addi	fp,sp,4
 1000798:	e13fff15 	stw	r4,-4(fp)
	parse("is");
 100079c:	e0bfff17 	ldw	r2,-4(fp)
 10007a0:	10800017 	ldw	r2,0(r2)
 10007a4:	10800204 	addi	r2,r2,8
 10007a8:	10800017 	ldw	r2,0(r2)
 10007ac:	e13fff17 	ldw	r4,-4(fp)
 10007b0:	014040b4 	movhi	r5,258
 10007b4:	29572304 	addi	r5,r5,23692
 10007b8:	103ee83a 	callr	r2
	OSTimeDlyHMSM(0, 0, INFRARED_SENDER_OFF_TIME_SECONDS, 0);
 10007bc:	0009883a 	mov	r4,zero
 10007c0:	000b883a 	mov	r5,zero
 10007c4:	01800044 	movi	r6,1
 10007c8:	000f883a 	mov	r7,zero
 10007cc:	10215880 	call	1021588 <OSTimeDlyHMSM>
}
 10007d0:	e037883a 	mov	sp,fp
 10007d4:	dfc00117 	ldw	ra,4(sp)
 10007d8:	df000017 	ldw	fp,0(sp)
 10007dc:	dec00204 	addi	sp,sp,8
 10007e0:	f800283a 	ret

010007e4 <_Z25infrared_sender_test_taskPv>:
		}
	}
}

/* @test Periodically sends an infrared signal. */
void infrared_sender_test_task(void *pdata) {
 10007e4:	defffd04 	addi	sp,sp,-12
 10007e8:	dfc00215 	stw	ra,8(sp)
 10007ec:	df000115 	stw	fp,4(sp)
 10007f0:	df000104 	addi	fp,sp,4
 10007f4:	e13fff15 	stw	r4,-4(fp)
	TASK_LOG(printf("InfraredSender [task: test, status: start]\n"));
	while (true) {
		infraredOut->test();
 10007f8:	008040f4 	movhi	r2,259
 10007fc:	10a40104 	addi	r2,r2,-28668
 1000800:	11000017 	ldw	r4,0(r2)
 1000804:	10007880 	call	1000788 <_ZN14InfraredSender4testEv>
}

/* @test Periodically sends an infrared signal. */
void infrared_sender_test_task(void *pdata) {
	TASK_LOG(printf("InfraredSender [task: test, status: start]\n"));
	while (true) {
 1000808:	003ffb06 	br	10007f8 <_Z25infrared_sender_test_taskPv+0x14>

0100080c <_ZN14InfraredSender4sendEv>:

/**
 * Sends a signal from the infrared emitters.
 * @return OK if the signal was sent successfully
 */
void InfraredSender::send() {
 100080c:	defffd04 	addi	sp,sp,-12
 1000810:	dfc00215 	stw	ra,8(sp)
 1000814:	df000115 	stw	fp,4(sp)
 1000818:	df000104 	addi	fp,sp,4
 100081c:	e13fff15 	stw	r4,-4(fp)
	IOWR_ALTERA_AVALON_PIO_DATA(PIO_IR_EMITTER_BASE, INFRARED_SENDER_ON);
 1000820:	00808074 	movhi	r2,513
 1000824:	10a82004 	addi	r2,r2,-24448
 1000828:	00c00044 	movi	r3,1
 100082c:	10c00035 	stwio	r3,0(r2)
	INFRAREDSENDER_LOG(printf("InfraredSender [emitter: on]\n"));
	OSTimeDlyHMSM(0, 0, INFRARED_SENDER_ON_TIME_SECONDS, 0);
 1000830:	0009883a 	mov	r4,zero
 1000834:	000b883a 	mov	r5,zero
 1000838:	01800044 	movi	r6,1
 100083c:	000f883a 	mov	r7,zero
 1000840:	10215880 	call	1021588 <OSTimeDlyHMSM>
	IOWR_ALTERA_AVALON_PIO_DATA(PIO_IR_EMITTER_BASE, INFRARED_SENDER_OFF);
 1000844:	00808074 	movhi	r2,513
 1000848:	10a82004 	addi	r2,r2,-24448
 100084c:	10000035 	stwio	zero,0(r2)
	INFRAREDSENDER_LOG(printf("InfraredSender [emitter: off]\n"));
}
 1000850:	e037883a 	mov	sp,fp
 1000854:	dfc00117 	ldw	ra,4(sp)
 1000858:	df000017 	ldw	fp,0(sp)
 100085c:	dec00204 	addi	sp,sp,8
 1000860:	f800283a 	ret

01000864 <_ZN14InfraredSender5parseEPc>:
 * Parses the given infrared command.
 * @command - the infrared command to parse.
 * If the command is a send command, this sender issues a signal to the emitters.
 * The command must be dynamically allocated, and will be freed at the end of this method.
 */
void InfraredSender::parse(char *command) {
 1000864:	defffc04 	addi	sp,sp,-16
 1000868:	dfc00315 	stw	ra,12(sp)
 100086c:	df000215 	stw	fp,8(sp)
 1000870:	df000204 	addi	fp,sp,8
 1000874:	e13ffe15 	stw	r4,-8(fp)
 1000878:	e17fff15 	stw	r5,-4(fp)
	INFRAREDSENDER_LOG(printf("InfraredSender [command: %s]\n", command));
	// First character is 'i' for infrared; second character gives subtype:
	switch (command[1]) {
 100087c:	e0bfff17 	ldw	r2,-4(fp)
 1000880:	10800044 	addi	r2,r2,1
 1000884:	10800003 	ldbu	r2,0(r2)
 1000888:	10803fcc 	andi	r2,r2,255
 100088c:	1080201c 	xori	r2,r2,128
 1000890:	10bfe004 	addi	r2,r2,-128
 1000894:	10801ce0 	cmpeqi	r2,r2,115
 1000898:	1000011e 	bne	r2,zero,10008a0 <_ZN14InfraredSender5parseEPc+0x3c>
 100089c:	00000206 	br	10008a8 <_ZN14InfraredSender5parseEPc+0x44>
	case 's':
		// Shoot.
		send();
 10008a0:	e13ffe17 	ldw	r4,-8(fp)
 10008a4:	100080c0 	call	100080c <_ZN14InfraredSender4sendEv>
		break;
	}
	free(command);
 10008a8:	e13fff17 	ldw	r4,-4(fp)
 10008ac:	100e48c0 	call	100e48c <free>
}
 10008b0:	e037883a 	mov	sp,fp
 10008b4:	dfc00117 	ldw	ra,4(sp)
 10008b8:	df000017 	ldw	fp,0(sp)
 10008bc:	dec00204 	addi	sp,sp,8
 10008c0:	f800283a 	ret

010008c4 <_ZN14InfraredSenderC1Ev>:

/**
 * Creates a new infrared sender.
 * Turns the emitters on for verification.
 */
InfraredSender::InfraredSender() {
 10008c4:	defffd04 	addi	sp,sp,-12
 10008c8:	dfc00215 	stw	ra,8(sp)
 10008cc:	df000115 	stw	fp,4(sp)
 10008d0:	df000104 	addi	fp,sp,4
 10008d4:	e13fff15 	stw	r4,-4(fp)
 10008d8:	e13fff17 	ldw	r4,-4(fp)
 10008dc:	1000d4c0 	call	1000d4c <_ZN8ListenerC2Ev>
 10008e0:	00c040b4 	movhi	r3,258
 10008e4:	18d72604 	addi	r3,r3,23704
 10008e8:	e0bfff17 	ldw	r2,-4(fp)
 10008ec:	10c00015 	stw	r3,0(r2)
	IOWR_ALTERA_AVALON_PIO_DATA(PIO_IR_EMITTER_BASE, INFRARED_SENDER_OFF);
 10008f0:	00808074 	movhi	r2,513
 10008f4:	10a82004 	addi	r2,r2,-24448
 10008f8:	10000035 	stwio	zero,0(r2)
}
 10008fc:	e037883a 	mov	sp,fp
 1000900:	dfc00117 	ldw	ra,4(sp)
 1000904:	df000017 	ldw	fp,0(sp)
 1000908:	dec00204 	addi	sp,sp,8
 100090c:	f800283a 	ret

01000910 <_ZN14InfraredSenderC2Ev>:

/**
 * Creates a new infrared sender.
 * Turns the emitters on for verification.
 */
InfraredSender::InfraredSender() {
 1000910:	defffd04 	addi	sp,sp,-12
 1000914:	dfc00215 	stw	ra,8(sp)
 1000918:	df000115 	stw	fp,4(sp)
 100091c:	df000104 	addi	fp,sp,4
 1000920:	e13fff15 	stw	r4,-4(fp)
 1000924:	e13fff17 	ldw	r4,-4(fp)
 1000928:	1000d4c0 	call	1000d4c <_ZN8ListenerC2Ev>
 100092c:	00c040b4 	movhi	r3,258
 1000930:	18d72604 	addi	r3,r3,23704
 1000934:	e0bfff17 	ldw	r2,-4(fp)
 1000938:	10c00015 	stw	r3,0(r2)
	IOWR_ALTERA_AVALON_PIO_DATA(PIO_IR_EMITTER_BASE, INFRARED_SENDER_OFF);
 100093c:	00808074 	movhi	r2,513
 1000940:	10a82004 	addi	r2,r2,-24448
 1000944:	10000035 	stwio	zero,0(r2)
}
 1000948:	e037883a 	mov	sp,fp
 100094c:	dfc00117 	ldw	ra,4(sp)
 1000950:	df000017 	ldw	fp,0(sp)
 1000954:	dec00204 	addi	sp,sp,8
 1000958:	f800283a 	ret

0100095c <_Z27infrared_sender_update_taskPv>:
// TASKS

extern InfraredSender *infraredOut;

/* Waits for infrared send commands and executes them as they arrive. */
void infrared_sender_update_task(void *pdata) {
 100095c:	deffe604 	addi	sp,sp,-104
 1000960:	dfc01915 	stw	ra,100(sp)
 1000964:	df001815 	stw	fp,96(sp)
 1000968:	ddc01715 	stw	r23,92(sp)
 100096c:	dd801615 	stw	r22,88(sp)
 1000970:	dd401515 	stw	r21,84(sp)
 1000974:	dd001415 	stw	r20,80(sp)
 1000978:	dcc01315 	stw	r19,76(sp)
 100097c:	dc801215 	stw	r18,72(sp)
 1000980:	dc401115 	stw	r17,68(sp)
 1000984:	dc001015 	stw	r16,64(sp)
 1000988:	df001004 	addi	fp,sp,64
 100098c:	e13ff115 	stw	r4,-60(fp)
 1000990:	00804074 	movhi	r2,257
 1000994:	10b41004 	addi	r2,r2,-12224
 1000998:	e0bff815 	stw	r2,-32(fp)
 100099c:	008040b4 	movhi	r2,258
 10009a0:	1095f904 	addi	r2,r2,22500
 10009a4:	e0bff915 	stw	r2,-28(fp)
 10009a8:	e0bffa04 	addi	r2,fp,-24
 10009ac:	e0fff004 	addi	r3,fp,-64
 10009b0:	10c00015 	stw	r3,0(r2)
 10009b4:	00c04034 	movhi	r3,256
 10009b8:	18c27c04 	addi	r3,r3,2544
 10009bc:	10c00115 	stw	r3,4(r2)
 10009c0:	16c00215 	stw	sp,8(r2)
 10009c4:	e13ff204 	addi	r4,fp,-56
 10009c8:	100df2c0 	call	100df2c <_Unwind_SjLj_Register>
 10009cc:	00000006 	br	10009d0 <_Z27infrared_sender_update_taskPv+0x74>
	TASK_LOG(printf("InfraredSender [task: update, status: start]\n"));
	while (true) {
		try {
			// Update the infrared sender.
			infraredOut->update();
 10009d0:	008040f4 	movhi	r2,259
 10009d4:	10a40104 	addi	r2,r2,-28668
 10009d8:	10800017 	ldw	r2,0(r2)
 10009dc:	1009883a 	mov	r4,r2
 10009e0:	00800044 	movi	r2,1
 10009e4:	e0bff315 	stw	r2,-52(fp)
 10009e8:	1000bf80 	call	1000bf8 <_ZN8Listener6updateEv>
 10009ec:	003ff806 	br	10009d0 <_Z27infrared_sender_update_taskPv+0x74>
 10009f0:	e7001004 	addi	fp,fp,64
 10009f4:	e0bff417 	ldw	r2,-48(fp)
 10009f8:	e0bfff15 	stw	r2,-4(fp)
 10009fc:	e0bff517 	ldw	r2,-44(fp)
 1000a00:	10800060 	cmpeqi	r2,r2,1
 1000a04:	1000041e 	bne	r2,zero,1000a18 <_Z27infrared_sender_update_taskPv+0xbc>
 1000a08:	00bfffc4 	movi	r2,-1
 1000a0c:	e0bff315 	stw	r2,-52(fp)
 1000a10:	e13fff17 	ldw	r4,-4(fp)
 1000a14:	100e1f80 	call	100e1f8 <_Unwind_SjLj_Resume>
		} catch (ARCapException &e) {
 1000a18:	e13fff17 	ldw	r4,-4(fp)
 1000a1c:	100d6f80 	call	100d6f8 <__cxa_begin_catch>
 1000a20:	e0bff015 	stw	r2,-64(fp)
 1000a24:	e03ff315 	stw	zero,-52(fp)
 1000a28:	100d6540 	call	100d654 <__cxa_end_catch>
extern InfraredSender *infraredOut;

/* Waits for infrared send commands and executes them as they arrive. */
void infrared_sender_update_task(void *pdata) {
	TASK_LOG(printf("InfraredSender [task: update, status: start]\n"));
	while (true) {
 1000a2c:	003fe806 	br	10009d0 <_Z27infrared_sender_update_taskPv+0x74>

01000a30 <_ZN8ListenerD2Ev>:
public:
	/**
	 * Creates a new listener.
	 */
	Listener();
	virtual ~Listener() {}
 1000a30:	defffd04 	addi	sp,sp,-12
 1000a34:	dfc00215 	stw	ra,8(sp)
 1000a38:	df000115 	stw	fp,4(sp)
 1000a3c:	df000104 	addi	fp,sp,4
 1000a40:	e13fff15 	stw	r4,-4(fp)
 1000a44:	00c040b4 	movhi	r3,258
 1000a48:	18d73604 	addi	r3,r3,23768
 1000a4c:	e0bfff17 	ldw	r2,-4(fp)
 1000a50:	10c00015 	stw	r3,0(r2)
 1000a54:	0005883a 	mov	r2,zero
 1000a58:	10803fcc 	andi	r2,r2,255
 1000a5c:	1005003a 	cmpeq	r2,r2,zero
 1000a60:	1000021e 	bne	r2,zero,1000a6c <_ZN8ListenerD2Ev+0x3c>
 1000a64:	e13fff17 	ldw	r4,-4(fp)
 1000a68:	100d8100 	call	100d810 <_ZdlPv>
 1000a6c:	e037883a 	mov	sp,fp
 1000a70:	dfc00117 	ldw	ra,4(sp)
 1000a74:	df000017 	ldw	fp,0(sp)
 1000a78:	dec00204 	addi	sp,sp,8
 1000a7c:	f800283a 	ret

01000a80 <_ZN14InfraredSenderD0Ev>:
void infrared_sender_test_task(void *pdata);

/**
 * Listens for send commands on a queue and applies them to the infrared emitters.
 */
class InfraredSender: public Listener {
 1000a80:	defffd04 	addi	sp,sp,-12
 1000a84:	dfc00215 	stw	ra,8(sp)
 1000a88:	df000115 	stw	fp,4(sp)
 1000a8c:	df000104 	addi	fp,sp,4
 1000a90:	e13fff15 	stw	r4,-4(fp)
 1000a94:	00c040b4 	movhi	r3,258
 1000a98:	18d72604 	addi	r3,r3,23704
 1000a9c:	e0bfff17 	ldw	r2,-4(fp)
 1000aa0:	10c00015 	stw	r3,0(r2)
 1000aa4:	e13fff17 	ldw	r4,-4(fp)
 1000aa8:	1000a300 	call	1000a30 <_ZN8ListenerD2Ev>
 1000aac:	00800044 	movi	r2,1
 1000ab0:	10803fcc 	andi	r2,r2,255
 1000ab4:	1005003a 	cmpeq	r2,r2,zero
 1000ab8:	1000021e 	bne	r2,zero,1000ac4 <_ZN14InfraredSenderD0Ev+0x44>
 1000abc:	e13fff17 	ldw	r4,-4(fp)
 1000ac0:	100d8100 	call	100d810 <_ZdlPv>
 1000ac4:	e037883a 	mov	sp,fp
 1000ac8:	dfc00117 	ldw	ra,4(sp)
 1000acc:	df000017 	ldw	fp,0(sp)
 1000ad0:	dec00204 	addi	sp,sp,8
 1000ad4:	f800283a 	ret

01000ad8 <_ZN8ListenerD0Ev>:
 1000ad8:	defffd04 	addi	sp,sp,-12
 1000adc:	dfc00215 	stw	ra,8(sp)
 1000ae0:	df000115 	stw	fp,4(sp)
 1000ae4:	df000104 	addi	fp,sp,4
 1000ae8:	e13fff15 	stw	r4,-4(fp)
 1000aec:	00c040b4 	movhi	r3,258
 1000af0:	18d73604 	addi	r3,r3,23768
 1000af4:	e0bfff17 	ldw	r2,-4(fp)
 1000af8:	10c00015 	stw	r3,0(r2)
 1000afc:	00800044 	movi	r2,1
 1000b00:	10803fcc 	andi	r2,r2,255
 1000b04:	1005003a 	cmpeq	r2,r2,zero
 1000b08:	1000021e 	bne	r2,zero,1000b14 <_ZN8ListenerD0Ev+0x3c>
 1000b0c:	e13fff17 	ldw	r4,-4(fp)
 1000b10:	100d8100 	call	100d810 <_ZdlPv>
 1000b14:	e037883a 	mov	sp,fp
 1000b18:	dfc00117 	ldw	ra,4(sp)
 1000b1c:	df000017 	ldw	fp,0(sp)
 1000b20:	dec00204 	addi	sp,sp,8
 1000b24:	f800283a 	ret

01000b28 <_ZN8ListenerD1Ev>:
 1000b28:	defffd04 	addi	sp,sp,-12
 1000b2c:	dfc00215 	stw	ra,8(sp)
 1000b30:	df000115 	stw	fp,4(sp)
 1000b34:	df000104 	addi	fp,sp,4
 1000b38:	e13fff15 	stw	r4,-4(fp)
 1000b3c:	00c040b4 	movhi	r3,258
 1000b40:	18d73604 	addi	r3,r3,23768
 1000b44:	e0bfff17 	ldw	r2,-4(fp)
 1000b48:	10c00015 	stw	r3,0(r2)
 1000b4c:	0005883a 	mov	r2,zero
 1000b50:	10803fcc 	andi	r2,r2,255
 1000b54:	1005003a 	cmpeq	r2,r2,zero
 1000b58:	1000021e 	bne	r2,zero,1000b64 <_ZN8ListenerD1Ev+0x3c>
 1000b5c:	e13fff17 	ldw	r4,-4(fp)
 1000b60:	100d8100 	call	100d810 <_ZdlPv>
 1000b64:	e037883a 	mov	sp,fp
 1000b68:	dfc00117 	ldw	ra,4(sp)
 1000b6c:	df000017 	ldw	fp,0(sp)
 1000b70:	dec00204 	addi	sp,sp,8
 1000b74:	f800283a 	ret

01000b78 <_ZN14InfraredSenderD1Ev>:
 1000b78:	defffd04 	addi	sp,sp,-12
 1000b7c:	dfc00215 	stw	ra,8(sp)
 1000b80:	df000115 	stw	fp,4(sp)
 1000b84:	df000104 	addi	fp,sp,4
 1000b88:	e13fff15 	stw	r4,-4(fp)
 1000b8c:	00c040b4 	movhi	r3,258
 1000b90:	18d72604 	addi	r3,r3,23704
 1000b94:	e0bfff17 	ldw	r2,-4(fp)
 1000b98:	10c00015 	stw	r3,0(r2)
 1000b9c:	e13fff17 	ldw	r4,-4(fp)
 1000ba0:	1000a300 	call	1000a30 <_ZN8ListenerD2Ev>
 1000ba4:	0005883a 	mov	r2,zero
 1000ba8:	10803fcc 	andi	r2,r2,255
 1000bac:	1005003a 	cmpeq	r2,r2,zero
 1000bb0:	1000021e 	bne	r2,zero,1000bbc <_ZN14InfraredSenderD1Ev+0x44>
 1000bb4:	e13fff17 	ldw	r4,-4(fp)
 1000bb8:	100d8100 	call	100d810 <_ZdlPv>
 1000bbc:	e037883a 	mov	sp,fp
 1000bc0:	dfc00117 	ldw	ra,4(sp)
 1000bc4:	df000017 	ldw	fp,0(sp)
 1000bc8:	dec00204 	addi	sp,sp,8
 1000bcc:	f800283a 	ret

01000bd0 <_ZN8Listener8listenerEv>:

/*
 * Gets the queue used to accept events.
 * @return the receive queue
 */
OS_EVENT *Listener::listener() {
 1000bd0:	defffe04 	addi	sp,sp,-8
 1000bd4:	df000115 	stw	fp,4(sp)
 1000bd8:	df000104 	addi	fp,sp,4
 1000bdc:	e13fff15 	stw	r4,-4(fp)
	return receiveQueue;
 1000be0:	e0bfff17 	ldw	r2,-4(fp)
 1000be4:	10800517 	ldw	r2,20(r2)
}
 1000be8:	e037883a 	mov	sp,fp
 1000bec:	df000017 	ldw	fp,0(sp)
 1000bf0:	dec00104 	addi	sp,sp,4
 1000bf4:	f800283a 	ret

01000bf8 <_ZN8Listener6updateEv>:
/**
 * Waits on the receive queue for event.
 * When events are received, they are forwarded to parse().
 * @throw QueuePendException if this listener cannot read the receive queue
 */
void Listener::update() {
 1000bf8:	defffa04 	addi	sp,sp,-24
 1000bfc:	dfc00515 	stw	ra,20(sp)
 1000c00:	df000415 	stw	fp,16(sp)
 1000c04:	dc000315 	stw	r16,12(sp)
 1000c08:	df000304 	addi	fp,sp,12
 1000c0c:	e13fff15 	stw	r4,-4(fp)
	INT8U status;
	char *event = (char *)OSQPend(receiveQueue, 0, &status);
 1000c10:	e0bfff17 	ldw	r2,-4(fp)
 1000c14:	11000517 	ldw	r4,20(r2)
 1000c18:	e1bffe04 	addi	r6,fp,-8
 1000c1c:	000b883a 	mov	r5,zero
 1000c20:	101e2300 	call	101e230 <OSQPend>
 1000c24:	e0bffd15 	stw	r2,-12(fp)
	if (status != OS_NO_ERR) {
 1000c28:	e0bffe03 	ldbu	r2,-8(fp)
 1000c2c:	10803fcc 	andi	r2,r2,255
 1000c30:	1005003a 	cmpeq	r2,r2,zero
 1000c34:	10000e1e 	bne	r2,zero,1000c70 <_ZN8Listener6updateEv+0x78>
		throw new QueuePendException();
 1000c38:	01000104 	movi	r4,4
 1000c3c:	100dda00 	call	100dda0 <_Znwm>
 1000c40:	1021883a 	mov	r16,r2
 1000c44:	8009883a 	mov	r4,r16
 1000c48:	1000e840 	call	1000e84 <_ZN18QueuePendExceptionC1Ev>
 1000c4c:	01000104 	movi	r4,4
 1000c50:	100dc180 	call	100dc18 <__cxa_allocate_exception>
 1000c54:	1009883a 	mov	r4,r2
 1000c58:	2005883a 	mov	r2,r4
 1000c5c:	14000015 	stw	r16,0(r2)
 1000c60:	014040b4 	movhi	r5,258
 1000c64:	29574b04 	addi	r5,r5,23852
 1000c68:	000d883a 	mov	r6,zero
 1000c6c:	100d8900 	call	100d890 <__cxa_throw>
	} else {
		parse(event);
 1000c70:	e0bfff17 	ldw	r2,-4(fp)
 1000c74:	10800017 	ldw	r2,0(r2)
 1000c78:	10800204 	addi	r2,r2,8
 1000c7c:	10800017 	ldw	r2,0(r2)
 1000c80:	e13fff17 	ldw	r4,-4(fp)
 1000c84:	e17ffd17 	ldw	r5,-12(fp)
 1000c88:	103ee83a 	callr	r2
	}
}
 1000c8c:	e037883a 	mov	sp,fp
 1000c90:	dfc00217 	ldw	ra,8(sp)
 1000c94:	df000117 	ldw	fp,4(sp)
 1000c98:	dc000017 	ldw	r16,0(sp)
 1000c9c:	dec00304 	addi	sp,sp,12
 1000ca0:	f800283a 	ret

01000ca4 <_ZN8ListenerC1Ev>:
// CONSTRUCTION

/**
 * Creates a new listener.
 */
Listener::Listener() {
 1000ca4:	defffc04 	addi	sp,sp,-16
 1000ca8:	dfc00315 	stw	ra,12(sp)
 1000cac:	df000215 	stw	fp,8(sp)
 1000cb0:	dc000115 	stw	r16,4(sp)
 1000cb4:	df000104 	addi	fp,sp,4
 1000cb8:	e13fff15 	stw	r4,-4(fp)
 1000cbc:	00c040b4 	movhi	r3,258
 1000cc0:	18d73604 	addi	r3,r3,23768
 1000cc4:	e0bfff17 	ldw	r2,-4(fp)
 1000cc8:	10c00015 	stw	r3,0(r2)
	/* Create the receive queue. */
	receiveQueue = OSQCreate((void**)&receiveBuffer, LISTENER_RECEIVE_QUEUE_SIZE);
 1000ccc:	e0bfff17 	ldw	r2,-4(fp)
 1000cd0:	10800104 	addi	r2,r2,4
 1000cd4:	1009883a 	mov	r4,r2
 1000cd8:	01400104 	movi	r5,4
 1000cdc:	101dc540 	call	101dc54 <OSQCreate>
 1000ce0:	1007883a 	mov	r3,r2
 1000ce4:	e0bfff17 	ldw	r2,-4(fp)
 1000ce8:	10c00515 	stw	r3,20(r2)
	if (receiveQueue == NULL) {
 1000cec:	e0bfff17 	ldw	r2,-4(fp)
 1000cf0:	10800517 	ldw	r2,20(r2)
 1000cf4:	1004c03a 	cmpne	r2,r2,zero
 1000cf8:	10000e1e 	bne	r2,zero,1000d34 <_ZN8ListenerC1Ev+0x90>
		throw new QueueCreateException();
 1000cfc:	01000104 	movi	r4,4
 1000d00:	100dda00 	call	100dda0 <_Znwm>
 1000d04:	1021883a 	mov	r16,r2
 1000d08:	8009883a 	mov	r4,r16
 1000d0c:	1000e440 	call	1000e44 <_ZN20QueueCreateExceptionC1Ev>
 1000d10:	01000104 	movi	r4,4
 1000d14:	100dc180 	call	100dc18 <__cxa_allocate_exception>
 1000d18:	1009883a 	mov	r4,r2
 1000d1c:	2005883a 	mov	r2,r4
 1000d20:	14000015 	stw	r16,0(r2)
 1000d24:	014040b4 	movhi	r5,258
 1000d28:	29576604 	addi	r5,r5,23960
 1000d2c:	000d883a 	mov	r6,zero
 1000d30:	100d8900 	call	100d890 <__cxa_throw>
	}
}
 1000d34:	e037883a 	mov	sp,fp
 1000d38:	dfc00217 	ldw	ra,8(sp)
 1000d3c:	df000117 	ldw	fp,4(sp)
 1000d40:	dc000017 	ldw	r16,0(sp)
 1000d44:	dec00304 	addi	sp,sp,12
 1000d48:	f800283a 	ret

01000d4c <_ZN8ListenerC2Ev>:
// CONSTRUCTION

/**
 * Creates a new listener.
 */
Listener::Listener() {
 1000d4c:	defffc04 	addi	sp,sp,-16
 1000d50:	dfc00315 	stw	ra,12(sp)
 1000d54:	df000215 	stw	fp,8(sp)
 1000d58:	dc000115 	stw	r16,4(sp)
 1000d5c:	df000104 	addi	fp,sp,4
 1000d60:	e13fff15 	stw	r4,-4(fp)
 1000d64:	00c040b4 	movhi	r3,258
 1000d68:	18d73604 	addi	r3,r3,23768
 1000d6c:	e0bfff17 	ldw	r2,-4(fp)
 1000d70:	10c00015 	stw	r3,0(r2)
	/* Create the receive queue. */
	receiveQueue = OSQCreate((void**)&receiveBuffer, LISTENER_RECEIVE_QUEUE_SIZE);
 1000d74:	e0bfff17 	ldw	r2,-4(fp)
 1000d78:	10800104 	addi	r2,r2,4
 1000d7c:	1009883a 	mov	r4,r2
 1000d80:	01400104 	movi	r5,4
 1000d84:	101dc540 	call	101dc54 <OSQCreate>
 1000d88:	1007883a 	mov	r3,r2
 1000d8c:	e0bfff17 	ldw	r2,-4(fp)
 1000d90:	10c00515 	stw	r3,20(r2)
	if (receiveQueue == NULL) {
 1000d94:	e0bfff17 	ldw	r2,-4(fp)
 1000d98:	10800517 	ldw	r2,20(r2)
 1000d9c:	1004c03a 	cmpne	r2,r2,zero
 1000da0:	10000e1e 	bne	r2,zero,1000ddc <_ZN8ListenerC2Ev+0x90>
		throw new QueueCreateException();
 1000da4:	01000104 	movi	r4,4
 1000da8:	100dda00 	call	100dda0 <_Znwm>
 1000dac:	1021883a 	mov	r16,r2
 1000db0:	8009883a 	mov	r4,r16
 1000db4:	1000e440 	call	1000e44 <_ZN20QueueCreateExceptionC1Ev>
 1000db8:	01000104 	movi	r4,4
 1000dbc:	100dc180 	call	100dc18 <__cxa_allocate_exception>
 1000dc0:	1009883a 	mov	r4,r2
 1000dc4:	2005883a 	mov	r2,r4
 1000dc8:	14000015 	stw	r16,0(r2)
 1000dcc:	014040b4 	movhi	r5,258
 1000dd0:	29576604 	addi	r5,r5,23960
 1000dd4:	000d883a 	mov	r6,zero
 1000dd8:	100d8900 	call	100d890 <__cxa_throw>
	}
}
 1000ddc:	e037883a 	mov	sp,fp
 1000de0:	dfc00217 	ldw	ra,8(sp)
 1000de4:	df000117 	ldw	fp,4(sp)
 1000de8:	dc000017 	ldw	r16,0(sp)
 1000dec:	dec00304 	addi	sp,sp,12
 1000df0:	f800283a 	ret

01000df4 <_ZNK20QueueCreateException4whatEv>:

};

class QueueCreateException : ARCapException {
public:
	virtual const char *what() const throw() {
 1000df4:	defffe04 	addi	sp,sp,-8
 1000df8:	df000115 	stw	fp,4(sp)
 1000dfc:	df000104 	addi	fp,sp,4
 1000e00:	e13fff15 	stw	r4,-4(fp)
		return "Failed to create listener queue.";
 1000e04:	008040b4 	movhi	r2,258
 1000e08:	10973904 	addi	r2,r2,23780
	}
 1000e0c:	e037883a 	mov	sp,fp
 1000e10:	df000017 	ldw	fp,0(sp)
 1000e14:	dec00104 	addi	sp,sp,4
 1000e18:	f800283a 	ret

01000e1c <_ZNK18QueuePendException4whatEv>:
};

class QueuePendException : ARCapException {
public:
	virtual const char *what() const throw() {
 1000e1c:	defffe04 	addi	sp,sp,-8
 1000e20:	df000115 	stw	fp,4(sp)
 1000e24:	df000104 	addi	fp,sp,4
 1000e28:	e13fff15 	stw	r4,-4(fp)
		return "Failed to pend on listener queue.";
 1000e2c:	008040b4 	movhi	r2,258
 1000e30:	10974204 	addi	r2,r2,23816
	}
 1000e34:	e037883a 	mov	sp,fp
 1000e38:	df000017 	ldw	fp,0(sp)
 1000e3c:	dec00104 	addi	sp,sp,4
 1000e40:	f800283a 	ret

01000e44 <_ZN20QueueCreateExceptionC1Ev>:
	 */
	virtual void parse(char *event) = 0;

};

class QueueCreateException : ARCapException {
 1000e44:	defffd04 	addi	sp,sp,-12
 1000e48:	dfc00215 	stw	ra,8(sp)
 1000e4c:	df000115 	stw	fp,4(sp)
 1000e50:	df000104 	addi	fp,sp,4
 1000e54:	e13fff15 	stw	r4,-4(fp)
 1000e58:	e13fff17 	ldw	r4,-4(fp)
 1000e5c:	10004600 	call	1000460 <_ZN14ARCapExceptionC2Ev>
 1000e60:	00c040b4 	movhi	r3,258
 1000e64:	18d77e04 	addi	r3,r3,24056
 1000e68:	e0bfff17 	ldw	r2,-4(fp)
 1000e6c:	10c00015 	stw	r3,0(r2)
 1000e70:	e037883a 	mov	sp,fp
 1000e74:	dfc00117 	ldw	ra,4(sp)
 1000e78:	df000017 	ldw	fp,0(sp)
 1000e7c:	dec00204 	addi	sp,sp,8
 1000e80:	f800283a 	ret

01000e84 <_ZN18QueuePendExceptionC1Ev>:
	virtual const char *what() const throw() {
		return "Failed to create listener queue.";
	}
};

class QueuePendException : ARCapException {
 1000e84:	defffd04 	addi	sp,sp,-12
 1000e88:	dfc00215 	stw	ra,8(sp)
 1000e8c:	df000115 	stw	fp,4(sp)
 1000e90:	df000104 	addi	fp,sp,4
 1000e94:	e13fff15 	stw	r4,-4(fp)
 1000e98:	e13fff17 	ldw	r4,-4(fp)
 1000e9c:	10004600 	call	1000460 <_ZN14ARCapExceptionC2Ev>
 1000ea0:	00c040b4 	movhi	r3,258
 1000ea4:	18d76304 	addi	r3,r3,23948
 1000ea8:	e0bfff17 	ldw	r2,-4(fp)
 1000eac:	10c00015 	stw	r3,0(r2)
 1000eb0:	e037883a 	mov	sp,fp
 1000eb4:	dfc00117 	ldw	ra,4(sp)
 1000eb8:	df000017 	ldw	fp,0(sp)
 1000ebc:	dec00204 	addi	sp,sp,8
 1000ec0:	f800283a 	ret

01000ec4 <_ZN18QueuePendExceptionD0Ev>:
 1000ec4:	defffd04 	addi	sp,sp,-12
 1000ec8:	dfc00215 	stw	ra,8(sp)
 1000ecc:	df000115 	stw	fp,4(sp)
 1000ed0:	df000104 	addi	fp,sp,4
 1000ed4:	e13fff15 	stw	r4,-4(fp)
 1000ed8:	00c040b4 	movhi	r3,258
 1000edc:	18d76304 	addi	r3,r3,23948
 1000ee0:	e0bfff17 	ldw	r2,-4(fp)
 1000ee4:	10c00015 	stw	r3,0(r2)
 1000ee8:	e13fff17 	ldw	r4,-4(fp)
 1000eec:	10005200 	call	1000520 <_ZN14ARCapExceptionD2Ev>
 1000ef0:	00800044 	movi	r2,1
 1000ef4:	10803fcc 	andi	r2,r2,255
 1000ef8:	1005003a 	cmpeq	r2,r2,zero
 1000efc:	1000021e 	bne	r2,zero,1000f08 <_ZN18QueuePendExceptionD0Ev+0x44>
 1000f00:	e13fff17 	ldw	r4,-4(fp)
 1000f04:	100d8100 	call	100d810 <_ZdlPv>
 1000f08:	e037883a 	mov	sp,fp
 1000f0c:	dfc00117 	ldw	ra,4(sp)
 1000f10:	df000017 	ldw	fp,0(sp)
 1000f14:	dec00204 	addi	sp,sp,8
 1000f18:	f800283a 	ret

01000f1c <_ZN18QueuePendExceptionD1Ev>:
 1000f1c:	defffd04 	addi	sp,sp,-12
 1000f20:	dfc00215 	stw	ra,8(sp)
 1000f24:	df000115 	stw	fp,4(sp)
 1000f28:	df000104 	addi	fp,sp,4
 1000f2c:	e13fff15 	stw	r4,-4(fp)
 1000f30:	00c040b4 	movhi	r3,258
 1000f34:	18d76304 	addi	r3,r3,23948
 1000f38:	e0bfff17 	ldw	r2,-4(fp)
 1000f3c:	10c00015 	stw	r3,0(r2)
 1000f40:	e13fff17 	ldw	r4,-4(fp)
 1000f44:	10005200 	call	1000520 <_ZN14ARCapExceptionD2Ev>
 1000f48:	0005883a 	mov	r2,zero
 1000f4c:	10803fcc 	andi	r2,r2,255
 1000f50:	1005003a 	cmpeq	r2,r2,zero
 1000f54:	1000021e 	bne	r2,zero,1000f60 <_ZN18QueuePendExceptionD1Ev+0x44>
 1000f58:	e13fff17 	ldw	r4,-4(fp)
 1000f5c:	100d8100 	call	100d810 <_ZdlPv>
 1000f60:	e037883a 	mov	sp,fp
 1000f64:	dfc00117 	ldw	ra,4(sp)
 1000f68:	df000017 	ldw	fp,0(sp)
 1000f6c:	dec00204 	addi	sp,sp,8
 1000f70:	f800283a 	ret

01000f74 <_ZN20QueueCreateExceptionD0Ev>:
	 */
	virtual void parse(char *event) = 0;

};

class QueueCreateException : ARCapException {
 1000f74:	defffd04 	addi	sp,sp,-12
 1000f78:	dfc00215 	stw	ra,8(sp)
 1000f7c:	df000115 	stw	fp,4(sp)
 1000f80:	df000104 	addi	fp,sp,4
 1000f84:	e13fff15 	stw	r4,-4(fp)
 1000f88:	00c040b4 	movhi	r3,258
 1000f8c:	18d77e04 	addi	r3,r3,24056
 1000f90:	e0bfff17 	ldw	r2,-4(fp)
 1000f94:	10c00015 	stw	r3,0(r2)
 1000f98:	e13fff17 	ldw	r4,-4(fp)
 1000f9c:	10005200 	call	1000520 <_ZN14ARCapExceptionD2Ev>
 1000fa0:	00800044 	movi	r2,1
 1000fa4:	10803fcc 	andi	r2,r2,255
 1000fa8:	1005003a 	cmpeq	r2,r2,zero
 1000fac:	1000021e 	bne	r2,zero,1000fb8 <_ZN20QueueCreateExceptionD0Ev+0x44>
 1000fb0:	e13fff17 	ldw	r4,-4(fp)
 1000fb4:	100d8100 	call	100d810 <_ZdlPv>
 1000fb8:	e037883a 	mov	sp,fp
 1000fbc:	dfc00117 	ldw	ra,4(sp)
 1000fc0:	df000017 	ldw	fp,0(sp)
 1000fc4:	dec00204 	addi	sp,sp,8
 1000fc8:	f800283a 	ret

01000fcc <_ZN20QueueCreateExceptionD1Ev>:
 1000fcc:	defffd04 	addi	sp,sp,-12
 1000fd0:	dfc00215 	stw	ra,8(sp)
 1000fd4:	df000115 	stw	fp,4(sp)
 1000fd8:	df000104 	addi	fp,sp,4
 1000fdc:	e13fff15 	stw	r4,-4(fp)
 1000fe0:	00c040b4 	movhi	r3,258
 1000fe4:	18d77e04 	addi	r3,r3,24056
 1000fe8:	e0bfff17 	ldw	r2,-4(fp)
 1000fec:	10c00015 	stw	r3,0(r2)
 1000ff0:	e13fff17 	ldw	r4,-4(fp)
 1000ff4:	10005200 	call	1000520 <_ZN14ARCapExceptionD2Ev>
 1000ff8:	0005883a 	mov	r2,zero
 1000ffc:	10803fcc 	andi	r2,r2,255
 1001000:	1005003a 	cmpeq	r2,r2,zero
 1001004:	1000021e 	bne	r2,zero,1001010 <_ZN20QueueCreateExceptionD1Ev+0x44>
 1001008:	e13fff17 	ldw	r4,-4(fp)
 100100c:	100d8100 	call	100d810 <_ZdlPv>
 1001010:	e037883a 	mov	sp,fp
 1001014:	dfc00117 	ldw	ra,4(sp)
 1001018:	df000017 	ldw	fp,0(sp)
 100101c:	dec00204 	addi	sp,sp,8
 1001020:	f800283a 	ret

01001024 <_ZN12MotorHandler4testEv>:

/**
 * Tests the motor controller.
 * Runs both motors forward, both backward, left forward and backward, right forward and backward.
 */
void MotorHandler::test() {
 1001024:	defffd04 	addi	sp,sp,-12
 1001028:	dfc00215 	stw	ra,8(sp)
 100102c:	df000115 	stw	fp,4(sp)
 1001030:	df000104 	addi	fp,sp,4
 1001034:	e13fff15 	stw	r4,-4(fp)
	OSTimeDlyHMSM(0, 0, 3, 0);
 1001038:	0009883a 	mov	r4,zero
 100103c:	000b883a 	mov	r5,zero
 1001040:	018000c4 	movi	r6,3
 1001044:	000f883a 	mov	r7,zero
 1001048:	10215880 	call	1021588 <OSTimeDlyHMSM>
	// Go forward.
	parse("mlf120");
 100104c:	e0bfff17 	ldw	r2,-4(fp)
 1001050:	10800017 	ldw	r2,0(r2)
 1001054:	10800204 	addi	r2,r2,8
 1001058:	10800017 	ldw	r2,0(r2)
 100105c:	e13fff17 	ldw	r4,-4(fp)
 1001060:	014040b4 	movhi	r5,258
 1001064:	29578a04 	addi	r5,r5,24104
 1001068:	103ee83a 	callr	r2
	parse("mrf120");
 100106c:	e0bfff17 	ldw	r2,-4(fp)
 1001070:	10800017 	ldw	r2,0(r2)
 1001074:	10800204 	addi	r2,r2,8
 1001078:	10800017 	ldw	r2,0(r2)
 100107c:	e13fff17 	ldw	r4,-4(fp)
 1001080:	014040b4 	movhi	r5,258
 1001084:	29578c04 	addi	r5,r5,24112
 1001088:	103ee83a 	callr	r2
	OSTimeDlyHMSM(0, 0, 2, 0);
 100108c:	0009883a 	mov	r4,zero
 1001090:	000b883a 	mov	r5,zero
 1001094:	01800084 	movi	r6,2
 1001098:	000f883a 	mov	r7,zero
 100109c:	10215880 	call	1021588 <OSTimeDlyHMSM>
	// Stop.
	parse("mlf0");
 10010a0:	e0bfff17 	ldw	r2,-4(fp)
 10010a4:	10800017 	ldw	r2,0(r2)
 10010a8:	10800204 	addi	r2,r2,8
 10010ac:	10800017 	ldw	r2,0(r2)
 10010b0:	e13fff17 	ldw	r4,-4(fp)
 10010b4:	014040b4 	movhi	r5,258
 10010b8:	29578e04 	addi	r5,r5,24120
 10010bc:	103ee83a 	callr	r2
	parse("mrf0");
 10010c0:	e0bfff17 	ldw	r2,-4(fp)
 10010c4:	10800017 	ldw	r2,0(r2)
 10010c8:	10800204 	addi	r2,r2,8
 10010cc:	10800017 	ldw	r2,0(r2)
 10010d0:	e13fff17 	ldw	r4,-4(fp)
 10010d4:	014040b4 	movhi	r5,258
 10010d8:	29579004 	addi	r5,r5,24128
 10010dc:	103ee83a 	callr	r2
	OSTimeDlyHMSM(0, 0, 5, 0);
 10010e0:	0009883a 	mov	r4,zero
 10010e4:	000b883a 	mov	r5,zero
 10010e8:	01800144 	movi	r6,5
 10010ec:	000f883a 	mov	r7,zero
 10010f0:	10215880 	call	1021588 <OSTimeDlyHMSM>
	// Go backward.
	parse("mlb120");
 10010f4:	e0bfff17 	ldw	r2,-4(fp)
 10010f8:	10800017 	ldw	r2,0(r2)
 10010fc:	10800204 	addi	r2,r2,8
 1001100:	10800017 	ldw	r2,0(r2)
 1001104:	e13fff17 	ldw	r4,-4(fp)
 1001108:	014040b4 	movhi	r5,258
 100110c:	29579204 	addi	r5,r5,24136
 1001110:	103ee83a 	callr	r2
	parse("mrb120");
 1001114:	e0bfff17 	ldw	r2,-4(fp)
 1001118:	10800017 	ldw	r2,0(r2)
 100111c:	10800204 	addi	r2,r2,8
 1001120:	10800017 	ldw	r2,0(r2)
 1001124:	e13fff17 	ldw	r4,-4(fp)
 1001128:	014040b4 	movhi	r5,258
 100112c:	29579404 	addi	r5,r5,24144
 1001130:	103ee83a 	callr	r2
	OSTimeDlyHMSM(0, 0, 2, 0);
 1001134:	0009883a 	mov	r4,zero
 1001138:	000b883a 	mov	r5,zero
 100113c:	01800084 	movi	r6,2
 1001140:	000f883a 	mov	r7,zero
 1001144:	10215880 	call	1021588 <OSTimeDlyHMSM>
	// Stop.
	parse("mlf0");
 1001148:	e0bfff17 	ldw	r2,-4(fp)
 100114c:	10800017 	ldw	r2,0(r2)
 1001150:	10800204 	addi	r2,r2,8
 1001154:	10800017 	ldw	r2,0(r2)
 1001158:	e13fff17 	ldw	r4,-4(fp)
 100115c:	014040b4 	movhi	r5,258
 1001160:	29578e04 	addi	r5,r5,24120
 1001164:	103ee83a 	callr	r2
	parse("mrf0");
 1001168:	e0bfff17 	ldw	r2,-4(fp)
 100116c:	10800017 	ldw	r2,0(r2)
 1001170:	10800204 	addi	r2,r2,8
 1001174:	10800017 	ldw	r2,0(r2)
 1001178:	e13fff17 	ldw	r4,-4(fp)
 100117c:	014040b4 	movhi	r5,258
 1001180:	29579004 	addi	r5,r5,24128
 1001184:	103ee83a 	callr	r2
	OSTimeDlyHMSM(0, 0, 5, 0);
 1001188:	0009883a 	mov	r4,zero
 100118c:	000b883a 	mov	r5,zero
 1001190:	01800144 	movi	r6,5
 1001194:	000f883a 	mov	r7,zero
 1001198:	10215880 	call	1021588 <OSTimeDlyHMSM>
	// Turn left.
	parse("mrf120");
 100119c:	e0bfff17 	ldw	r2,-4(fp)
 10011a0:	10800017 	ldw	r2,0(r2)
 10011a4:	10800204 	addi	r2,r2,8
 10011a8:	10800017 	ldw	r2,0(r2)
 10011ac:	e13fff17 	ldw	r4,-4(fp)
 10011b0:	014040b4 	movhi	r5,258
 10011b4:	29578c04 	addi	r5,r5,24112
 10011b8:	103ee83a 	callr	r2
	OSTimeDlyHMSM(0, 0, 2, 0);
 10011bc:	0009883a 	mov	r4,zero
 10011c0:	000b883a 	mov	r5,zero
 10011c4:	01800084 	movi	r6,2
 10011c8:	000f883a 	mov	r7,zero
 10011cc:	10215880 	call	1021588 <OSTimeDlyHMSM>
	// Stop.
	parse("mrf0");
 10011d0:	e0bfff17 	ldw	r2,-4(fp)
 10011d4:	10800017 	ldw	r2,0(r2)
 10011d8:	10800204 	addi	r2,r2,8
 10011dc:	10800017 	ldw	r2,0(r2)
 10011e0:	e13fff17 	ldw	r4,-4(fp)
 10011e4:	014040b4 	movhi	r5,258
 10011e8:	29579004 	addi	r5,r5,24128
 10011ec:	103ee83a 	callr	r2
	OSTimeDlyHMSM(0, 0, 5, 0);
 10011f0:	0009883a 	mov	r4,zero
 10011f4:	000b883a 	mov	r5,zero
 10011f8:	01800144 	movi	r6,5
 10011fc:	000f883a 	mov	r7,zero
 1001200:	10215880 	call	1021588 <OSTimeDlyHMSM>
	// Turn right.
	parse("mlf120");
 1001204:	e0bfff17 	ldw	r2,-4(fp)
 1001208:	10800017 	ldw	r2,0(r2)
 100120c:	10800204 	addi	r2,r2,8
 1001210:	10800017 	ldw	r2,0(r2)
 1001214:	e13fff17 	ldw	r4,-4(fp)
 1001218:	014040b4 	movhi	r5,258
 100121c:	29578a04 	addi	r5,r5,24104
 1001220:	103ee83a 	callr	r2
	OSTimeDlyHMSM(0, 0, 2, 0);
 1001224:	0009883a 	mov	r4,zero
 1001228:	000b883a 	mov	r5,zero
 100122c:	01800084 	movi	r6,2
 1001230:	000f883a 	mov	r7,zero
 1001234:	10215880 	call	1021588 <OSTimeDlyHMSM>
	// Stop.
	parse("mlf0");
 1001238:	e0bfff17 	ldw	r2,-4(fp)
 100123c:	10800017 	ldw	r2,0(r2)
 1001240:	10800204 	addi	r2,r2,8
 1001244:	10800017 	ldw	r2,0(r2)
 1001248:	e13fff17 	ldw	r4,-4(fp)
 100124c:	014040b4 	movhi	r5,258
 1001250:	29578e04 	addi	r5,r5,24120
 1001254:	103ee83a 	callr	r2
	OSTimeDlyHMSM(0, 0, 5, 0);
 1001258:	0009883a 	mov	r4,zero
 100125c:	000b883a 	mov	r5,zero
 1001260:	01800144 	movi	r6,5
 1001264:	000f883a 	mov	r7,zero
 1001268:	10215880 	call	1021588 <OSTimeDlyHMSM>
}
 100126c:	e037883a 	mov	sp,fp
 1001270:	dfc00117 	ldw	ra,4(sp)
 1001274:	df000017 	ldw	fp,0(sp)
 1001278:	dec00204 	addi	sp,sp,8
 100127c:	f800283a 	ret

01001280 <_Z23motor_handler_test_taskPv>:
		}
	}
}

/* @test Executes the motor handler test suite. */
void motor_handler_test_task(void *pdata) {
 1001280:	defffd04 	addi	sp,sp,-12
 1001284:	dfc00215 	stw	ra,8(sp)
 1001288:	df000115 	stw	fp,4(sp)
 100128c:	df000104 	addi	fp,sp,4
 1001290:	e13fff15 	stw	r4,-4(fp)
	TASK_LOG(printf("MotorHandler [task: test, status: start]\n"));
	while (true) {
		motor->test();
 1001294:	008040f4 	movhi	r2,259
 1001298:	10a40204 	addi	r2,r2,-28664
 100129c:	11000017 	ldw	r4,0(r2)
 10012a0:	10010240 	call	1001024 <_ZN12MotorHandler4testEv>
}

/* @test Executes the motor handler test suite. */
void motor_handler_test_task(void *pdata) {
	TASK_LOG(printf("MotorHandler [task: test, status: start]\n"));
	while (true) {
 10012a4:	003ffb06 	br	1001294 <_Z23motor_handler_test_taskPv+0x14>

010012a8 <_ZN12MotorHandler4sendEcPKc>:
/**
 * Sends a byte-length message to the motor controller.
 * @param message - the message to send
 * @param description - the string description of the message, for debugging
 */
void MotorHandler::send(char message, const char *description) {
 10012a8:	defff904 	addi	sp,sp,-28
 10012ac:	dfc00615 	stw	ra,24(sp)
 10012b0:	df000515 	stw	fp,20(sp)
 10012b4:	df000504 	addi	fp,sp,20
 10012b8:	e13ffd15 	stw	r4,-12(fp)
 10012bc:	e1bfff15 	stw	r6,-4(fp)
 10012c0:	e17ffe05 	stb	r5,-8(fp)
	alt_u32 write_space;
	// Check for write space.
	write_space = alt_up_rs232_get_available_space_in_write_FIFO(motor_dev);
 10012c4:	e0bffd17 	ldw	r2,-12(fp)
 10012c8:	11000617 	ldw	r4,24(r2)
 10012cc:	10235880 	call	1023588 <alt_up_rs232_get_available_space_in_write_FIFO>
 10012d0:	e0bffc15 	stw	r2,-16(fp)
	if (write_space >= WRITE_FIFO_EMPTY) {
 10012d4:	e0bffc17 	ldw	r2,-16(fp)
 10012d8:	10802030 	cmpltui	r2,r2,128
 10012dc:	1000071e 	bne	r2,zero,10012fc <_ZN12MotorHandler4sendEcPKc+0x54>
		// If space, write.
		int status = alt_up_rs232_write_data(motor_dev, message);
 10012e0:	e0bffd17 	ldw	r2,-12(fp)
 10012e4:	11000617 	ldw	r4,24(r2)
 10012e8:	e0bffe03 	ldbu	r2,-8(fp)
 10012ec:	11403fcc 	andi	r5,r2,255
 10012f0:	10236180 	call	1023618 <alt_up_rs232_write_data>
 10012f4:	e0bffb15 	stw	r2,-20(fp)
 10012f8:	00000906 	br	1001320 <_ZN12MotorHandler4sendEcPKc+0x78>
		// Log errors.
		if (status != OK) MOTORHANDLER_LOG(printf("MotorHandler [error: cannot write]\n"));
	} else {
		// If no space, wait and retry.
		MOTORHANDLER_LOG(printf("MotorHandler [message: 0x%02x, description: %s, error: no write space; retrying]\n", message, description));
		OSTimeDlyHMSM(0, 0, 0, 10);
 10012fc:	0009883a 	mov	r4,zero
 1001300:	000b883a 	mov	r5,zero
 1001304:	000d883a 	mov	r6,zero
 1001308:	01c00284 	movi	r7,10
 100130c:	10215880 	call	1021588 <OSTimeDlyHMSM>
		send(message, description);
 1001310:	e17ffe07 	ldb	r5,-8(fp)
 1001314:	e13ffd17 	ldw	r4,-12(fp)
 1001318:	e1bfff17 	ldw	r6,-4(fp)
 100131c:	10012a80 	call	10012a8 <_ZN12MotorHandler4sendEcPKc>
	}
}
 1001320:	e037883a 	mov	sp,fp
 1001324:	dfc00117 	ldw	ra,4(sp)
 1001328:	df000017 	ldw	fp,0(sp)
 100132c:	dec00204 	addi	sp,sp,8
 1001330:	f800283a 	ret

01001334 <_ZN12MotorHandler4moveEccPKc>:
 * Moves in the given direction at constant speed.
 * @param direction - the motor and direction to move in, e.g. MOTOR_MOTOR1_FORWARD
 * @param speed speed of the motor
 * @param description - the string description of the movement, for debugging
 */
void MotorHandler::move(char motorDirection, char speed, const char *description){
 1001334:	defffa04 	addi	sp,sp,-24
 1001338:	dfc00515 	stw	ra,20(sp)
 100133c:	df000415 	stw	fp,16(sp)
 1001340:	df000404 	addi	fp,sp,16
 1001344:	e13ffc15 	stw	r4,-16(fp)
 1001348:	e1ffff15 	stw	r7,-4(fp)
 100134c:	e17ffd05 	stb	r5,-12(fp)
 1001350:	e1bffe05 	stb	r6,-8(fp)
	send(MOTOR_START_BYTE, "start");
 1001354:	e13ffc17 	ldw	r4,-16(fp)
 1001358:	017fe004 	movi	r5,-128
 100135c:	018040b4 	movhi	r6,258
 1001360:	31979604 	addi	r6,r6,24152
 1001364:	10012a80 	call	10012a8 <_ZN12MotorHandler4sendEcPKc>
	send(MOTOR_DEVICE_TYPE, "device");
 1001368:	e13ffc17 	ldw	r4,-16(fp)
 100136c:	000b883a 	mov	r5,zero
 1001370:	018040b4 	movhi	r6,258
 1001374:	31979804 	addi	r6,r6,24160
 1001378:	10012a80 	call	10012a8 <_ZN12MotorHandler4sendEcPKc>
	send(motorDirection, description);
 100137c:	e17ffd07 	ldb	r5,-12(fp)
 1001380:	e13ffc17 	ldw	r4,-16(fp)
 1001384:	e1bfff17 	ldw	r6,-4(fp)
 1001388:	10012a80 	call	10012a8 <_ZN12MotorHandler4sendEcPKc>
	send(speed, "speed");
 100138c:	e17ffe07 	ldb	r5,-8(fp)
 1001390:	e13ffc17 	ldw	r4,-16(fp)
 1001394:	018040b4 	movhi	r6,258
 1001398:	31979a04 	addi	r6,r6,24168
 100139c:	10012a80 	call	10012a8 <_ZN12MotorHandler4sendEcPKc>
	MOTORHANDLER_LOG(printf("\n"));
}
 10013a0:	e037883a 	mov	sp,fp
 10013a4:	dfc00117 	ldw	ra,4(sp)
 10013a8:	df000017 	ldw	fp,0(sp)
 10013ac:	dec00204 	addi	sp,sp,8
 10013b0:	f800283a 	ret

010013b4 <_ZN12MotorHandler5resetEv>:
// MOTOR CONTROL

/**
 * Resets the motor controller.
 */
void MotorHandler::reset(){
 10013b4:	defffd04 	addi	sp,sp,-12
 10013b8:	dfc00215 	stw	ra,8(sp)
 10013bc:	df000115 	stw	fp,4(sp)
 10013c0:	df000104 	addi	fp,sp,4
 10013c4:	e13fff15 	stw	r4,-4(fp)
	IOWR_ALTERA_AVALON_PIO_DATA(PIO_MOTOR_RESET_N_BASE, MOTOR_RESET);
 10013c8:	00808074 	movhi	r2,513
 10013cc:	10a81c04 	addi	r2,r2,-24464
 10013d0:	10000035 	stwio	zero,0(r2)
	OSTimeDlyHMSM(0, 0, 0, 200);
 10013d4:	0009883a 	mov	r4,zero
 10013d8:	000b883a 	mov	r5,zero
 10013dc:	000d883a 	mov	r6,zero
 10013e0:	01c03204 	movi	r7,200
 10013e4:	10215880 	call	1021588 <OSTimeDlyHMSM>
	IOWR_ALTERA_AVALON_PIO_DATA(PIO_MOTOR_RESET_N_BASE, MOTOR_ENABLE);
 10013e8:	00c08074 	movhi	r3,513
 10013ec:	18e81c04 	addi	r3,r3,-24464
 10013f0:	00800044 	movi	r2,1
 10013f4:	18800035 	stwio	r2,0(r3)
	OSTimeDlyHMSM(0, 0, 0, 200);
 10013f8:	0009883a 	mov	r4,zero
 10013fc:	000b883a 	mov	r5,zero
 1001400:	000d883a 	mov	r6,zero
 1001404:	01c03204 	movi	r7,200
 1001408:	10215880 	call	1021588 <OSTimeDlyHMSM>
}
 100140c:	e037883a 	mov	sp,fp
 1001410:	dfc00117 	ldw	ra,4(sp)
 1001414:	df000017 	ldw	fp,0(sp)
 1001418:	dec00204 	addi	sp,sp,8
 100141c:	f800283a 	ret

01001420 <_ZN12MotorHandler9configureEv>:

/**
 * Configures the motor controller.
 */
void MotorHandler::configure(){
 1001420:	defffd04 	addi	sp,sp,-12
 1001424:	dfc00215 	stw	ra,8(sp)
 1001428:	df000115 	stw	fp,4(sp)
 100142c:	df000104 	addi	fp,sp,4
 1001430:	e13fff15 	stw	r4,-4(fp)
	reset();
 1001434:	e13fff17 	ldw	r4,-4(fp)
 1001438:	10013b40 	call	10013b4 <_ZN12MotorHandler5resetEv>
	send(MOTOR_START_BYTE, "start");
 100143c:	e13fff17 	ldw	r4,-4(fp)
 1001440:	017fe004 	movi	r5,-128
 1001444:	018040b4 	movhi	r6,258
 1001448:	31979604 	addi	r6,r6,24152
 100144c:	10012a80 	call	10012a8 <_ZN12MotorHandler4sendEcPKc>
	send(MOTOR_CHANGE_CONFIGURATION, "change configuration");
 1001450:	e13fff17 	ldw	r4,-4(fp)
 1001454:	01400084 	movi	r5,2
 1001458:	018040b4 	movhi	r6,258
 100145c:	31979c04 	addi	r6,r6,24176
 1001460:	10012a80 	call	10012a8 <_ZN12MotorHandler4sendEcPKc>
	send(0X01, "2 MOTOR CONFIG");
 1001464:	e13fff17 	ldw	r4,-4(fp)
 1001468:	01400044 	movi	r5,1
 100146c:	018040b4 	movhi	r6,258
 1001470:	3197a204 	addi	r6,r6,24200
 1001474:	10012a80 	call	10012a8 <_ZN12MotorHandler4sendEcPKc>
	MOTORHANDLER_LOG(printf("\n"));
}
 1001478:	e037883a 	mov	sp,fp
 100147c:	dfc00117 	ldw	ra,4(sp)
 1001480:	df000017 	ldw	fp,0(sp)
 1001484:	dec00204 	addi	sp,sp,8
 1001488:	f800283a 	ret

0100148c <_ZN12MotorHandler12getSpeedFromEPc>:
/**
 * Gets the speed from the given motor command.
 * The speed is the number following the motor and direction characters.
 * @return the speed
 */
int MotorHandler::getSpeedFrom(char *command) {
 100148c:	defffc04 	addi	sp,sp,-16
 1001490:	dfc00315 	stw	ra,12(sp)
 1001494:	df000215 	stw	fp,8(sp)
 1001498:	df000204 	addi	fp,sp,8
 100149c:	e13ffe15 	stw	r4,-8(fp)
 10014a0:	e17fff15 	stw	r5,-4(fp)
	return strtol(command + MOTOR_SPEED_INDEX, NULL, MOTOR_SPEED_BASE_AUTO);
 10014a4:	e0bfff17 	ldw	r2,-4(fp)
 10014a8:	110000c4 	addi	r4,r2,3
 10014ac:	000b883a 	mov	r5,zero
 10014b0:	000d883a 	mov	r6,zero
 10014b4:	100f9ac0 	call	100f9ac <strtol>
}
 10014b8:	e037883a 	mov	sp,fp
 10014bc:	dfc00117 	ldw	ra,4(sp)
 10014c0:	df000017 	ldw	fp,0(sp)
 10014c4:	dec00204 	addi	sp,sp,8
 10014c8:	f800283a 	ret

010014cc <_ZN12MotorHandler5parseEPc>:
 * $m - the motor to move, from {l, r} for "left" and "right"
 * $d - the direction to move in, from {f, b} for "forward" and "back"
 * $sss - the speed to move at, between 0 and 127
 * The command must be dynamically allocated, and will be freed at the end of this method.
 */
void MotorHandler::parse(char *command) {
 10014cc:	defffc04 	addi	sp,sp,-16
 10014d0:	dfc00315 	stw	ra,12(sp)
 10014d4:	df000215 	stw	fp,8(sp)
 10014d8:	df000204 	addi	fp,sp,8
 10014dc:	e13ffe15 	stw	r4,-8(fp)
 10014e0:	e17fff15 	stw	r5,-4(fp)
	MOTORHANDLER_LOG(printf("MotorHandler [command: %s]\n", command));
	if (command[MOTOR_MOTOR_INDEX] == MOTOR_BOTH) {
 10014e4:	e0bfff17 	ldw	r2,-4(fp)
 10014e8:	10800044 	addi	r2,r2,1
 10014ec:	10800003 	ldbu	r2,0(r2)
 10014f0:	10803fcc 	andi	r2,r2,255
 10014f4:	1080201c 	xori	r2,r2,128
 10014f8:	10bfe004 	addi	r2,r2,-128
 10014fc:	10801898 	cmpnei	r2,r2,98
 1001500:	1000361e 	bne	r2,zero,10015dc <_ZN12MotorHandler5parseEPc+0x110>
		if (command[MOTOR_DIRECTION_INDEX] == MOTOR_FORWARD) {
 1001504:	e0bfff17 	ldw	r2,-4(fp)
 1001508:	10800084 	addi	r2,r2,2
 100150c:	10800003 	ldbu	r2,0(r2)
 1001510:	10803fcc 	andi	r2,r2,255
 1001514:	1080201c 	xori	r2,r2,128
 1001518:	10bfe004 	addi	r2,r2,-128
 100151c:	10801998 	cmpnei	r2,r2,102
 1001520:	1000171e 	bne	r2,zero,1001580 <_ZN12MotorHandler5parseEPc+0xb4>
			move(MOTOR_RIGHT_FORWARD, getSpeedFrom(command), "motor right forward");
 1001524:	e13ffe17 	ldw	r4,-8(fp)
 1001528:	e17fff17 	ldw	r5,-4(fp)
 100152c:	100148c0 	call	100148c <_ZN12MotorHandler12getSpeedFromEPc>
 1001530:	11803fcc 	andi	r6,r2,255
 1001534:	3180201c 	xori	r6,r6,128
 1001538:	31bfe004 	addi	r6,r6,-128
 100153c:	e13ffe17 	ldw	r4,-8(fp)
 1001540:	014001c4 	movi	r5,7
 1001544:	01c040b4 	movhi	r7,258
 1001548:	39d7a604 	addi	r7,r7,24216
 100154c:	10013340 	call	1001334 <_ZN12MotorHandler4moveEccPKc>
			move(MOTOR_LEFT_FORWARD, getSpeedFrom(command), "motor left forward");
 1001550:	e13ffe17 	ldw	r4,-8(fp)
 1001554:	e17fff17 	ldw	r5,-4(fp)
 1001558:	100148c0 	call	100148c <_ZN12MotorHandler12getSpeedFromEPc>
 100155c:	11803fcc 	andi	r6,r2,255
 1001560:	3180201c 	xori	r6,r6,128
 1001564:	31bfe004 	addi	r6,r6,-128
 1001568:	e13ffe17 	ldw	r4,-8(fp)
 100156c:	01400144 	movi	r5,5
 1001570:	01c040b4 	movhi	r7,258
 1001574:	39d7ab04 	addi	r7,r7,24236
 1001578:	10013340 	call	1001334 <_ZN12MotorHandler4moveEccPKc>
 100157c:	00005e06 	br	10016f8 <_ZN12MotorHandler5parseEPc+0x22c>
		} else {
			move(MOTOR_LEFT_BACKWARD, getSpeedFrom(command), "motor left backward");
 1001580:	e13ffe17 	ldw	r4,-8(fp)
 1001584:	e17fff17 	ldw	r5,-4(fp)
 1001588:	100148c0 	call	100148c <_ZN12MotorHandler12getSpeedFromEPc>
 100158c:	11803fcc 	andi	r6,r2,255
 1001590:	3180201c 	xori	r6,r6,128
 1001594:	31bfe004 	addi	r6,r6,-128
 1001598:	e13ffe17 	ldw	r4,-8(fp)
 100159c:	01400104 	movi	r5,4
 10015a0:	01c040b4 	movhi	r7,258
 10015a4:	39d7b004 	addi	r7,r7,24256
 10015a8:	10013340 	call	1001334 <_ZN12MotorHandler4moveEccPKc>
			move(MOTOR_RIGHT_BACKWARD, getSpeedFrom(command), "motor right backward");
 10015ac:	e13ffe17 	ldw	r4,-8(fp)
 10015b0:	e17fff17 	ldw	r5,-4(fp)
 10015b4:	100148c0 	call	100148c <_ZN12MotorHandler12getSpeedFromEPc>
 10015b8:	11803fcc 	andi	r6,r2,255
 10015bc:	3180201c 	xori	r6,r6,128
 10015c0:	31bfe004 	addi	r6,r6,-128
 10015c4:	e13ffe17 	ldw	r4,-8(fp)
 10015c8:	01400184 	movi	r5,6
 10015cc:	01c040b4 	movhi	r7,258
 10015d0:	39d7b504 	addi	r7,r7,24276
 10015d4:	10013340 	call	1001334 <_ZN12MotorHandler4moveEccPKc>
 10015d8:	00004706 	br	10016f8 <_ZN12MotorHandler5parseEPc+0x22c>
		}
	} else if(command[MOTOR_MOTOR_INDEX] == MOTOR_LEFT) {
 10015dc:	e0bfff17 	ldw	r2,-4(fp)
 10015e0:	10800044 	addi	r2,r2,1
 10015e4:	10800003 	ldbu	r2,0(r2)
 10015e8:	10803fcc 	andi	r2,r2,255
 10015ec:	1080201c 	xori	r2,r2,128
 10015f0:	10bfe004 	addi	r2,r2,-128
 10015f4:	10801b18 	cmpnei	r2,r2,108
 10015f8:	1000201e 	bne	r2,zero,100167c <_ZN12MotorHandler5parseEPc+0x1b0>
		if (command[MOTOR_DIRECTION_INDEX] == MOTOR_FORWARD) {
 10015fc:	e0bfff17 	ldw	r2,-4(fp)
 1001600:	10800084 	addi	r2,r2,2
 1001604:	10800003 	ldbu	r2,0(r2)
 1001608:	10803fcc 	andi	r2,r2,255
 100160c:	1080201c 	xori	r2,r2,128
 1001610:	10bfe004 	addi	r2,r2,-128
 1001614:	10801998 	cmpnei	r2,r2,102
 1001618:	10000c1e 	bne	r2,zero,100164c <_ZN12MotorHandler5parseEPc+0x180>
			move(MOTOR_LEFT_FORWARD, getSpeedFrom(command), "motor left forward");
 100161c:	e13ffe17 	ldw	r4,-8(fp)
 1001620:	e17fff17 	ldw	r5,-4(fp)
 1001624:	100148c0 	call	100148c <_ZN12MotorHandler12getSpeedFromEPc>
 1001628:	11803fcc 	andi	r6,r2,255
 100162c:	3180201c 	xori	r6,r6,128
 1001630:	31bfe004 	addi	r6,r6,-128
 1001634:	e13ffe17 	ldw	r4,-8(fp)
 1001638:	01400144 	movi	r5,5
 100163c:	01c040b4 	movhi	r7,258
 1001640:	39d7ab04 	addi	r7,r7,24236
 1001644:	10013340 	call	1001334 <_ZN12MotorHandler4moveEccPKc>
 1001648:	00002b06 	br	10016f8 <_ZN12MotorHandler5parseEPc+0x22c>
		} else {
			move(MOTOR_LEFT_BACKWARD, getSpeedFrom(command), "motor left backward");
 100164c:	e13ffe17 	ldw	r4,-8(fp)
 1001650:	e17fff17 	ldw	r5,-4(fp)
 1001654:	100148c0 	call	100148c <_ZN12MotorHandler12getSpeedFromEPc>
 1001658:	11803fcc 	andi	r6,r2,255
 100165c:	3180201c 	xori	r6,r6,128
 1001660:	31bfe004 	addi	r6,r6,-128
 1001664:	e13ffe17 	ldw	r4,-8(fp)
 1001668:	01400104 	movi	r5,4
 100166c:	01c040b4 	movhi	r7,258
 1001670:	39d7b004 	addi	r7,r7,24256
 1001674:	10013340 	call	1001334 <_ZN12MotorHandler4moveEccPKc>
 1001678:	00001f06 	br	10016f8 <_ZN12MotorHandler5parseEPc+0x22c>
		}
	} else {
		if (command[MOTOR_DIRECTION_INDEX] == MOTOR_FORWARD) {
 100167c:	e0bfff17 	ldw	r2,-4(fp)
 1001680:	10800084 	addi	r2,r2,2
 1001684:	10800003 	ldbu	r2,0(r2)
 1001688:	10803fcc 	andi	r2,r2,255
 100168c:	1080201c 	xori	r2,r2,128
 1001690:	10bfe004 	addi	r2,r2,-128
 1001694:	10801998 	cmpnei	r2,r2,102
 1001698:	10000c1e 	bne	r2,zero,10016cc <_ZN12MotorHandler5parseEPc+0x200>
			move(MOTOR_RIGHT_FORWARD, getSpeedFrom(command), "motor right forward");
 100169c:	e13ffe17 	ldw	r4,-8(fp)
 10016a0:	e17fff17 	ldw	r5,-4(fp)
 10016a4:	100148c0 	call	100148c <_ZN12MotorHandler12getSpeedFromEPc>
 10016a8:	11803fcc 	andi	r6,r2,255
 10016ac:	3180201c 	xori	r6,r6,128
 10016b0:	31bfe004 	addi	r6,r6,-128
 10016b4:	e13ffe17 	ldw	r4,-8(fp)
 10016b8:	014001c4 	movi	r5,7
 10016bc:	01c040b4 	movhi	r7,258
 10016c0:	39d7a604 	addi	r7,r7,24216
 10016c4:	10013340 	call	1001334 <_ZN12MotorHandler4moveEccPKc>
 10016c8:	00000b06 	br	10016f8 <_ZN12MotorHandler5parseEPc+0x22c>
		} else {
			move(MOTOR_RIGHT_BACKWARD, getSpeedFrom(command), "motor right backward");
 10016cc:	e13ffe17 	ldw	r4,-8(fp)
 10016d0:	e17fff17 	ldw	r5,-4(fp)
 10016d4:	100148c0 	call	100148c <_ZN12MotorHandler12getSpeedFromEPc>
 10016d8:	11803fcc 	andi	r6,r2,255
 10016dc:	3180201c 	xori	r6,r6,128
 10016e0:	31bfe004 	addi	r6,r6,-128
 10016e4:	e13ffe17 	ldw	r4,-8(fp)
 10016e8:	01400184 	movi	r5,6
 10016ec:	01c040b4 	movhi	r7,258
 10016f0:	39d7b504 	addi	r7,r7,24276
 10016f4:	10013340 	call	1001334 <_ZN12MotorHandler4moveEccPKc>
		}
	}
	free(command);
 10016f8:	e13fff17 	ldw	r4,-4(fp)
 10016fc:	100e48c0 	call	100e48c <free>
}
 1001700:	e037883a 	mov	sp,fp
 1001704:	dfc00117 	ldw	ra,4(sp)
 1001708:	df000017 	ldw	fp,0(sp)
 100170c:	dec00204 	addi	sp,sp,8
 1001710:	f800283a 	ret

01001714 <_ZN12MotorHandlerC1Ev>:

/**
 * Creates a new motor handler.
 * @throw UARTOpenException if the handler cannot open the UART device used to talk to the motors
 */
MotorHandler::MotorHandler() {
 1001714:	deffe404 	addi	sp,sp,-112
 1001718:	dfc01b15 	stw	ra,108(sp)
 100171c:	df001a15 	stw	fp,104(sp)
 1001720:	ddc01915 	stw	r23,100(sp)
 1001724:	dd801815 	stw	r22,96(sp)
 1001728:	dd401715 	stw	r21,92(sp)
 100172c:	dd001615 	stw	r20,88(sp)
 1001730:	dcc01515 	stw	r19,84(sp)
 1001734:	dc801415 	stw	r18,80(sp)
 1001738:	dc401315 	stw	r17,76(sp)
 100173c:	dc001215 	stw	r16,72(sp)
 1001740:	df001204 	addi	fp,sp,72
 1001744:	e13fee15 	stw	r4,-72(fp)
 1001748:	00804074 	movhi	r2,257
 100174c:	10b41004 	addi	r2,r2,-12224
 1001750:	e0bff515 	stw	r2,-44(fp)
 1001754:	008040b4 	movhi	r2,258
 1001758:	1095fd04 	addi	r2,r2,22516
 100175c:	e0bff615 	stw	r2,-40(fp)
 1001760:	e0bff704 	addi	r2,fp,-36
 1001764:	e0ffee04 	addi	r3,fp,-72
 1001768:	10c00015 	stw	r3,0(r2)
 100176c:	00c04034 	movhi	r3,256
 1001770:	18c60a04 	addi	r3,r3,6184
 1001774:	10c00115 	stw	r3,4(r2)
 1001778:	16c00215 	stw	sp,8(r2)
 100177c:	e13fef04 	addi	r4,fp,-68
 1001780:	100df2c0 	call	100df2c <_Unwind_SjLj_Register>
 1001784:	e13fee17 	ldw	r4,-72(fp)
 1001788:	00bfffc4 	movi	r2,-1
 100178c:	e0bff015 	stw	r2,-64(fp)
 1001790:	1000d4c0 	call	1000d4c <_ZN8ListenerC2Ev>
 1001794:	00c040b4 	movhi	r3,258
 1001798:	18d7c104 	addi	r3,r3,24324
 100179c:	e0bfee17 	ldw	r2,-72(fp)
 10017a0:	10c00015 	stw	r3,0(r2)
	// Enable the motor controller.
	IOWR_ALTERA_AVALON_PIO_DATA(PIO_MOTOR_RESET_N_BASE, MOTOR_ENABLE);
 10017a4:	00c08074 	movhi	r3,513
 10017a8:	18e81c04 	addi	r3,r3,-24464
 10017ac:	00800044 	movi	r2,1
 10017b0:	18800035 	stwio	r2,0(r3)
	// Open the serial device to send commands to the motor controller.
	motor_dev = alt_up_rs232_open_dev(UART_MOTOR_NAME);
 10017b4:	00800044 	movi	r2,1
 10017b8:	e0bff015 	stw	r2,-64(fp)
 10017bc:	010040b4 	movhi	r4,258
 10017c0:	2117bb04 	addi	r4,r4,24300
 10017c4:	10237f80 	call	10237f8 <alt_up_rs232_open_dev>
 10017c8:	1007883a 	mov	r3,r2
 10017cc:	e0bfee17 	ldw	r2,-72(fp)
 10017d0:	10c00615 	stw	r3,24(r2)
	if (motor_dev == NULL) {
 10017d4:	e0bfee17 	ldw	r2,-72(fp)
 10017d8:	10800617 	ldw	r2,24(r2)
 10017dc:	1004c03a 	cmpne	r2,r2,zero
 10017e0:	10001e1e 	bne	r2,zero,100185c <_ZN12MotorHandlerC1Ev+0x148>
		throw new UARTOpenException();
 10017e4:	01000104 	movi	r4,4
 10017e8:	100dda00 	call	100dda0 <_Znwm>
 10017ec:	e0bffd15 	stw	r2,-12(fp)
 10017f0:	e13ffd17 	ldw	r4,-12(fp)
 10017f4:	1001b180 	call	1001b18 <_ZN17UARTOpenExceptionC1Ev>
 10017f8:	e0bffd17 	ldw	r2,-12(fp)
 10017fc:	e0bffe15 	stw	r2,-8(fp)
 1001800:	01000104 	movi	r4,4
 1001804:	100dc180 	call	100dc18 <__cxa_allocate_exception>
 1001808:	1009883a 	mov	r4,r2
 100180c:	2005883a 	mov	r2,r4
 1001810:	e0fffe17 	ldw	r3,-8(fp)
 1001814:	10c00015 	stw	r3,0(r2)
 1001818:	014040b4 	movhi	r5,258
 100181c:	2957cb04 	addi	r5,r5,24364
 1001820:	000d883a 	mov	r6,zero
 1001824:	100d8900 	call	100d890 <__cxa_throw>
 1001828:	e7001204 	addi	fp,fp,72
 100182c:	e0bff117 	ldw	r2,-60(fp)
 1001830:	e0bfff15 	stw	r2,-4(fp)
	}
}
 1001834:	e0ffff17 	ldw	r3,-4(fp)
 1001838:	e0fffc15 	stw	r3,-16(fp)
 100183c:	e13fee17 	ldw	r4,-72(fp)
 1001840:	1000a300 	call	1000a30 <_ZN8ListenerD2Ev>
 1001844:	e0bffc17 	ldw	r2,-16(fp)
 1001848:	e0bfff15 	stw	r2,-4(fp)
 100184c:	00bfffc4 	movi	r2,-1
 1001850:	e0bff015 	stw	r2,-64(fp)
 1001854:	e13fff17 	ldw	r4,-4(fp)
 1001858:	100e1f80 	call	100e1f8 <_Unwind_SjLj_Resume>
 100185c:	e13fef04 	addi	r4,fp,-68
 1001860:	100df3c0 	call	100df3c <_Unwind_SjLj_Unregister>
 1001864:	e037883a 	mov	sp,fp
 1001868:	dfc00917 	ldw	ra,36(sp)
 100186c:	df000817 	ldw	fp,32(sp)
 1001870:	ddc00717 	ldw	r23,28(sp)
 1001874:	dd800617 	ldw	r22,24(sp)
 1001878:	dd400517 	ldw	r21,20(sp)
 100187c:	dd000417 	ldw	r20,16(sp)
 1001880:	dcc00317 	ldw	r19,12(sp)
 1001884:	dc800217 	ldw	r18,8(sp)
 1001888:	dc400117 	ldw	r17,4(sp)
 100188c:	dc000017 	ldw	r16,0(sp)
 1001890:	dec00a04 	addi	sp,sp,40
 1001894:	f800283a 	ret

01001898 <_ZN12MotorHandlerC2Ev>:

/**
 * Creates a new motor handler.
 * @throw UARTOpenException if the handler cannot open the UART device used to talk to the motors
 */
MotorHandler::MotorHandler() {
 1001898:	deffe404 	addi	sp,sp,-112
 100189c:	dfc01b15 	stw	ra,108(sp)
 10018a0:	df001a15 	stw	fp,104(sp)
 10018a4:	ddc01915 	stw	r23,100(sp)
 10018a8:	dd801815 	stw	r22,96(sp)
 10018ac:	dd401715 	stw	r21,92(sp)
 10018b0:	dd001615 	stw	r20,88(sp)
 10018b4:	dcc01515 	stw	r19,84(sp)
 10018b8:	dc801415 	stw	r18,80(sp)
 10018bc:	dc401315 	stw	r17,76(sp)
 10018c0:	dc001215 	stw	r16,72(sp)
 10018c4:	df001204 	addi	fp,sp,72
 10018c8:	e13fee15 	stw	r4,-72(fp)
 10018cc:	00804074 	movhi	r2,257
 10018d0:	10b41004 	addi	r2,r2,-12224
 10018d4:	e0bff515 	stw	r2,-44(fp)
 10018d8:	008040b4 	movhi	r2,258
 10018dc:	1095fe84 	addi	r2,r2,22522
 10018e0:	e0bff615 	stw	r2,-40(fp)
 10018e4:	e0bff704 	addi	r2,fp,-36
 10018e8:	e0ffee04 	addi	r3,fp,-72
 10018ec:	10c00015 	stw	r3,0(r2)
 10018f0:	00c04034 	movhi	r3,256
 10018f4:	18c66b04 	addi	r3,r3,6572
 10018f8:	10c00115 	stw	r3,4(r2)
 10018fc:	16c00215 	stw	sp,8(r2)
 1001900:	e13fef04 	addi	r4,fp,-68
 1001904:	100df2c0 	call	100df2c <_Unwind_SjLj_Register>
 1001908:	e13fee17 	ldw	r4,-72(fp)
 100190c:	00bfffc4 	movi	r2,-1
 1001910:	e0bff015 	stw	r2,-64(fp)
 1001914:	1000d4c0 	call	1000d4c <_ZN8ListenerC2Ev>
 1001918:	00c040b4 	movhi	r3,258
 100191c:	18d7c104 	addi	r3,r3,24324
 1001920:	e0bfee17 	ldw	r2,-72(fp)
 1001924:	10c00015 	stw	r3,0(r2)
	// Enable the motor controller.
	IOWR_ALTERA_AVALON_PIO_DATA(PIO_MOTOR_RESET_N_BASE, MOTOR_ENABLE);
 1001928:	00c08074 	movhi	r3,513
 100192c:	18e81c04 	addi	r3,r3,-24464
 1001930:	00800044 	movi	r2,1
 1001934:	18800035 	stwio	r2,0(r3)
	// Open the serial device to send commands to the motor controller.
	motor_dev = alt_up_rs232_open_dev(UART_MOTOR_NAME);
 1001938:	00800044 	movi	r2,1
 100193c:	e0bff015 	stw	r2,-64(fp)
 1001940:	010040b4 	movhi	r4,258
 1001944:	2117bb04 	addi	r4,r4,24300
 1001948:	10237f80 	call	10237f8 <alt_up_rs232_open_dev>
 100194c:	1007883a 	mov	r3,r2
 1001950:	e0bfee17 	ldw	r2,-72(fp)
 1001954:	10c00615 	stw	r3,24(r2)
	if (motor_dev == NULL) {
 1001958:	e0bfee17 	ldw	r2,-72(fp)
 100195c:	10800617 	ldw	r2,24(r2)
 1001960:	1004c03a 	cmpne	r2,r2,zero
 1001964:	10001e1e 	bne	r2,zero,10019e0 <_ZN12MotorHandlerC2Ev+0x148>
		throw new UARTOpenException();
 1001968:	01000104 	movi	r4,4
 100196c:	100dda00 	call	100dda0 <_Znwm>
 1001970:	e0bffd15 	stw	r2,-12(fp)
 1001974:	e13ffd17 	ldw	r4,-12(fp)
 1001978:	1001b180 	call	1001b18 <_ZN17UARTOpenExceptionC1Ev>
 100197c:	e0bffd17 	ldw	r2,-12(fp)
 1001980:	e0bffe15 	stw	r2,-8(fp)
 1001984:	01000104 	movi	r4,4
 1001988:	100dc180 	call	100dc18 <__cxa_allocate_exception>
 100198c:	1009883a 	mov	r4,r2
 1001990:	2005883a 	mov	r2,r4
 1001994:	e0fffe17 	ldw	r3,-8(fp)
 1001998:	10c00015 	stw	r3,0(r2)
 100199c:	014040b4 	movhi	r5,258
 10019a0:	2957cb04 	addi	r5,r5,24364
 10019a4:	000d883a 	mov	r6,zero
 10019a8:	100d8900 	call	100d890 <__cxa_throw>
 10019ac:	e7001204 	addi	fp,fp,72
 10019b0:	e0bff117 	ldw	r2,-60(fp)
 10019b4:	e0bfff15 	stw	r2,-4(fp)
	}
}
 10019b8:	e0ffff17 	ldw	r3,-4(fp)
 10019bc:	e0fffc15 	stw	r3,-16(fp)
 10019c0:	e13fee17 	ldw	r4,-72(fp)
 10019c4:	1000a300 	call	1000a30 <_ZN8ListenerD2Ev>
 10019c8:	e0bffc17 	ldw	r2,-16(fp)
 10019cc:	e0bfff15 	stw	r2,-4(fp)
 10019d0:	00bfffc4 	movi	r2,-1
 10019d4:	e0bff015 	stw	r2,-64(fp)
 10019d8:	e13fff17 	ldw	r4,-4(fp)
 10019dc:	100e1f80 	call	100e1f8 <_Unwind_SjLj_Resume>
 10019e0:	e13fef04 	addi	r4,fp,-68
 10019e4:	100df3c0 	call	100df3c <_Unwind_SjLj_Unregister>
 10019e8:	e037883a 	mov	sp,fp
 10019ec:	dfc00917 	ldw	ra,36(sp)
 10019f0:	df000817 	ldw	fp,32(sp)
 10019f4:	ddc00717 	ldw	r23,28(sp)
 10019f8:	dd800617 	ldw	r22,24(sp)
 10019fc:	dd400517 	ldw	r21,20(sp)
 1001a00:	dd000417 	ldw	r20,16(sp)
 1001a04:	dcc00317 	ldw	r19,12(sp)
 1001a08:	dc800217 	ldw	r18,8(sp)
 1001a0c:	dc400117 	ldw	r17,4(sp)
 1001a10:	dc000017 	ldw	r16,0(sp)
 1001a14:	dec00a04 	addi	sp,sp,40
 1001a18:	f800283a 	ret

01001a1c <_Z25motor_handler_update_taskPv>:
// TASKS

extern MotorHandler *motor;

/* Waits for motor commands and executes them as they arrive. */
void motor_handler_update_task(void *pdata) {
 1001a1c:	deffe604 	addi	sp,sp,-104
 1001a20:	dfc01915 	stw	ra,100(sp)
 1001a24:	df001815 	stw	fp,96(sp)
 1001a28:	ddc01715 	stw	r23,92(sp)
 1001a2c:	dd801615 	stw	r22,88(sp)
 1001a30:	dd401515 	stw	r21,84(sp)
 1001a34:	dd001415 	stw	r20,80(sp)
 1001a38:	dcc01315 	stw	r19,76(sp)
 1001a3c:	dc801215 	stw	r18,72(sp)
 1001a40:	dc401115 	stw	r17,68(sp)
 1001a44:	dc001015 	stw	r16,64(sp)
 1001a48:	df001004 	addi	fp,sp,64
 1001a4c:	e13ff115 	stw	r4,-60(fp)
 1001a50:	00804074 	movhi	r2,257
 1001a54:	10b41004 	addi	r2,r2,-12224
 1001a58:	e0bff815 	stw	r2,-32(fp)
 1001a5c:	008040b4 	movhi	r2,258
 1001a60:	10960004 	addi	r2,r2,22528
 1001a64:	e0bff915 	stw	r2,-28(fp)
 1001a68:	e0bffa04 	addi	r2,fp,-24
 1001a6c:	e0fff004 	addi	r3,fp,-64
 1001a70:	10c00015 	stw	r3,0(r2)
 1001a74:	00c04034 	movhi	r3,256
 1001a78:	18c6ac04 	addi	r3,r3,6832
 1001a7c:	10c00115 	stw	r3,4(r2)
 1001a80:	16c00215 	stw	sp,8(r2)
 1001a84:	e13ff204 	addi	r4,fp,-56
 1001a88:	100df2c0 	call	100df2c <_Unwind_SjLj_Register>
 1001a8c:	00000006 	br	1001a90 <_Z25motor_handler_update_taskPv+0x74>
	TASK_LOG(printf("MotorHandler [task: update, status: start]\n"));
	while (true) {
		try {
			// Update the motor handler.
			motor->update();
 1001a90:	008040f4 	movhi	r2,259
 1001a94:	10a40204 	addi	r2,r2,-28664
 1001a98:	10800017 	ldw	r2,0(r2)
 1001a9c:	1009883a 	mov	r4,r2
 1001aa0:	00800044 	movi	r2,1
 1001aa4:	e0bff315 	stw	r2,-52(fp)
 1001aa8:	1000bf80 	call	1000bf8 <_ZN8Listener6updateEv>
 1001aac:	003ff806 	br	1001a90 <_Z25motor_handler_update_taskPv+0x74>
 1001ab0:	e7001004 	addi	fp,fp,64
 1001ab4:	e0bff417 	ldw	r2,-48(fp)
 1001ab8:	e0bfff15 	stw	r2,-4(fp)
 1001abc:	e0bff517 	ldw	r2,-44(fp)
 1001ac0:	10800060 	cmpeqi	r2,r2,1
 1001ac4:	1000041e 	bne	r2,zero,1001ad8 <_Z25motor_handler_update_taskPv+0xbc>
 1001ac8:	00bfffc4 	movi	r2,-1
 1001acc:	e0bff315 	stw	r2,-52(fp)
 1001ad0:	e13fff17 	ldw	r4,-4(fp)
 1001ad4:	100e1f80 	call	100e1f8 <_Unwind_SjLj_Resume>
		} catch (ARCapException &e) {
 1001ad8:	e13fff17 	ldw	r4,-4(fp)
 1001adc:	100d6f80 	call	100d6f8 <__cxa_begin_catch>
 1001ae0:	e0bff015 	stw	r2,-64(fp)
 1001ae4:	e03ff315 	stw	zero,-52(fp)
 1001ae8:	100d6540 	call	100d654 <__cxa_end_catch>
extern MotorHandler *motor;

/* Waits for motor commands and executes them as they arrive. */
void motor_handler_update_task(void *pdata) {
	TASK_LOG(printf("MotorHandler [task: update, status: start]\n"));
	while (true) {
 1001aec:	003fe806 	br	1001a90 <_Z25motor_handler_update_taskPv+0x74>

01001af0 <_ZNK17UARTOpenException4whatEv>:
	}
};

class UARTOpenException : ARCapException {
public:
	virtual const char *what() const throw() {
 1001af0:	defffe04 	addi	sp,sp,-8
 1001af4:	df000115 	stw	fp,4(sp)
 1001af8:	df000104 	addi	fp,sp,4
 1001afc:	e13fff15 	stw	r4,-4(fp)
		return "Failed to open connection to UART.";
 1001b00:	008040b4 	movhi	r2,258
 1001b04:	10978104 	addi	r2,r2,24068
	}
 1001b08:	e037883a 	mov	sp,fp
 1001b0c:	df000017 	ldw	fp,0(sp)
 1001b10:	dec00104 	addi	sp,sp,4
 1001b14:	f800283a 	ret

01001b18 <_ZN17UARTOpenExceptionC1Ev>:
	virtual const char *what() const throw() {
		return "Failed to post to listener queue.";
	}
};

class UARTOpenException : ARCapException {
 1001b18:	defffd04 	addi	sp,sp,-12
 1001b1c:	dfc00215 	stw	ra,8(sp)
 1001b20:	df000115 	stw	fp,4(sp)
 1001b24:	df000104 	addi	fp,sp,4
 1001b28:	e13fff15 	stw	r4,-4(fp)
 1001b2c:	e13fff17 	ldw	r4,-4(fp)
 1001b30:	10004600 	call	1000460 <_ZN14ARCapExceptionC2Ev>
 1001b34:	00c040b4 	movhi	r3,258
 1001b38:	18d7e204 	addi	r3,r3,24456
 1001b3c:	e0bfff17 	ldw	r2,-4(fp)
 1001b40:	10c00015 	stw	r3,0(r2)
 1001b44:	e037883a 	mov	sp,fp
 1001b48:	dfc00117 	ldw	ra,4(sp)
 1001b4c:	df000017 	ldw	fp,0(sp)
 1001b50:	dec00204 	addi	sp,sp,8
 1001b54:	f800283a 	ret

01001b58 <_ZN12MotorHandlerD0Ev>:
 * The command must specify:
 * (a) which motor to run {l(eft), r(ight)},
 * (b) the direction to run the motor in {(f)orward, (b)ackward}
 * (c) the speed to run the motor at [0 to 127].
 */
class MotorHandler: public Listener {
 1001b58:	defffd04 	addi	sp,sp,-12
 1001b5c:	dfc00215 	stw	ra,8(sp)
 1001b60:	df000115 	stw	fp,4(sp)
 1001b64:	df000104 	addi	fp,sp,4
 1001b68:	e13fff15 	stw	r4,-4(fp)
 1001b6c:	00c040b4 	movhi	r3,258
 1001b70:	18d7c104 	addi	r3,r3,24324
 1001b74:	e0bfff17 	ldw	r2,-4(fp)
 1001b78:	10c00015 	stw	r3,0(r2)
 1001b7c:	e13fff17 	ldw	r4,-4(fp)
 1001b80:	1000a300 	call	1000a30 <_ZN8ListenerD2Ev>
 1001b84:	00800044 	movi	r2,1
 1001b88:	10803fcc 	andi	r2,r2,255
 1001b8c:	1005003a 	cmpeq	r2,r2,zero
 1001b90:	1000021e 	bne	r2,zero,1001b9c <_ZN12MotorHandlerD0Ev+0x44>
 1001b94:	e13fff17 	ldw	r4,-4(fp)
 1001b98:	100d8100 	call	100d810 <_ZdlPv>
 1001b9c:	e037883a 	mov	sp,fp
 1001ba0:	dfc00117 	ldw	ra,4(sp)
 1001ba4:	df000017 	ldw	fp,0(sp)
 1001ba8:	dec00204 	addi	sp,sp,8
 1001bac:	f800283a 	ret

01001bb0 <_ZN12MotorHandlerD1Ev>:
 1001bb0:	defffd04 	addi	sp,sp,-12
 1001bb4:	dfc00215 	stw	ra,8(sp)
 1001bb8:	df000115 	stw	fp,4(sp)
 1001bbc:	df000104 	addi	fp,sp,4
 1001bc0:	e13fff15 	stw	r4,-4(fp)
 1001bc4:	00c040b4 	movhi	r3,258
 1001bc8:	18d7c104 	addi	r3,r3,24324
 1001bcc:	e0bfff17 	ldw	r2,-4(fp)
 1001bd0:	10c00015 	stw	r3,0(r2)
 1001bd4:	e13fff17 	ldw	r4,-4(fp)
 1001bd8:	1000a300 	call	1000a30 <_ZN8ListenerD2Ev>
 1001bdc:	0005883a 	mov	r2,zero
 1001be0:	10803fcc 	andi	r2,r2,255
 1001be4:	1005003a 	cmpeq	r2,r2,zero
 1001be8:	1000021e 	bne	r2,zero,1001bf4 <_ZN12MotorHandlerD1Ev+0x44>
 1001bec:	e13fff17 	ldw	r4,-4(fp)
 1001bf0:	100d8100 	call	100d810 <_ZdlPv>
 1001bf4:	e037883a 	mov	sp,fp
 1001bf8:	dfc00117 	ldw	ra,4(sp)
 1001bfc:	df000017 	ldw	fp,0(sp)
 1001c00:	dec00204 	addi	sp,sp,8
 1001c04:	f800283a 	ret

01001c08 <_ZN17UARTOpenExceptionD0Ev>:
 1001c08:	defffd04 	addi	sp,sp,-12
 1001c0c:	dfc00215 	stw	ra,8(sp)
 1001c10:	df000115 	stw	fp,4(sp)
 1001c14:	df000104 	addi	fp,sp,4
 1001c18:	e13fff15 	stw	r4,-4(fp)
 1001c1c:	00c040b4 	movhi	r3,258
 1001c20:	18d7e204 	addi	r3,r3,24456
 1001c24:	e0bfff17 	ldw	r2,-4(fp)
 1001c28:	10c00015 	stw	r3,0(r2)
 1001c2c:	e13fff17 	ldw	r4,-4(fp)
 1001c30:	10005200 	call	1000520 <_ZN14ARCapExceptionD2Ev>
 1001c34:	00800044 	movi	r2,1
 1001c38:	10803fcc 	andi	r2,r2,255
 1001c3c:	1005003a 	cmpeq	r2,r2,zero
 1001c40:	1000021e 	bne	r2,zero,1001c4c <_ZN17UARTOpenExceptionD0Ev+0x44>
 1001c44:	e13fff17 	ldw	r4,-4(fp)
 1001c48:	100d8100 	call	100d810 <_ZdlPv>
 1001c4c:	e037883a 	mov	sp,fp
 1001c50:	dfc00117 	ldw	ra,4(sp)
 1001c54:	df000017 	ldw	fp,0(sp)
 1001c58:	dec00204 	addi	sp,sp,8
 1001c5c:	f800283a 	ret

01001c60 <_ZN17UARTOpenExceptionD1Ev>:
 1001c60:	defffd04 	addi	sp,sp,-12
 1001c64:	dfc00215 	stw	ra,8(sp)
 1001c68:	df000115 	stw	fp,4(sp)
 1001c6c:	df000104 	addi	fp,sp,4
 1001c70:	e13fff15 	stw	r4,-4(fp)
 1001c74:	00c040b4 	movhi	r3,258
 1001c78:	18d7e204 	addi	r3,r3,24456
 1001c7c:	e0bfff17 	ldw	r2,-4(fp)
 1001c80:	10c00015 	stw	r3,0(r2)
 1001c84:	e13fff17 	ldw	r4,-4(fp)
 1001c88:	10005200 	call	1000520 <_ZN14ARCapExceptionD2Ev>
 1001c8c:	0005883a 	mov	r2,zero
 1001c90:	10803fcc 	andi	r2,r2,255
 1001c94:	1005003a 	cmpeq	r2,r2,zero
 1001c98:	1000021e 	bne	r2,zero,1001ca4 <_ZN17UARTOpenExceptionD1Ev+0x44>
 1001c9c:	e13fff17 	ldw	r4,-4(fp)
 1001ca0:	100d8100 	call	100d810 <_ZdlPv>
 1001ca4:	e037883a 	mov	sp,fp
 1001ca8:	dfc00117 	ldw	ra,4(sp)
 1001cac:	df000017 	ldw	fp,0(sp)
 1001cb0:	dec00204 	addi	sp,sp,8
 1001cb4:	f800283a 	ret

01001cb8 <_ZN15NetworkReceiver4postEPKc>:
 * Posts a network event to the matching listener.
 * @param event - the name and parameters of the event.
 * The event will be posted to the listener whose key matches the first character of the event.
 * @throw PostException if the event cannot be posted to the matching listener
 */
void NetworkReceiver::post(const char *event) {
 1001cb8:	defff604 	addi	sp,sp,-40
 1001cbc:	dfc00915 	stw	ra,36(sp)
 1001cc0:	df000815 	stw	fp,32(sp)
 1001cc4:	dc000715 	stw	r16,28(sp)
 1001cc8:	df000704 	addi	fp,sp,28
 1001ccc:	e13ffe15 	stw	r4,-8(fp)
 1001cd0:	e17fff15 	stw	r5,-4(fp)
	char key = event[0];
 1001cd4:	e0bfff17 	ldw	r2,-4(fp)
 1001cd8:	10800003 	ldbu	r2,0(r2)
 1001cdc:	e0bffb05 	stb	r2,-20(fp)
	int index = 0;
 1001ce0:	e03ffa15 	stw	zero,-24(fp)
	int status;
	for (vector<char>::iterator it = keys.begin(); it != keys.end(); ++it) {
 1001ce4:	e0bffe17 	ldw	r2,-8(fp)
 1001ce8:	11000104 	addi	r4,r2,4
 1001cec:	10023b00 	call	10023b0 <_ZNSt6vectorIcSaIcEE5beginEv>
 1001cf0:	e0bffd15 	stw	r2,-12(fp)
 1001cf4:	00002a06 	br	1001da0 <_ZN15NetworkReceiver4postEPKc+0xe8>
		// Look for a matching key.
		if (key == *it) {
 1001cf8:	e13ffd04 	addi	r4,fp,-12
 1001cfc:	10020f00 	call	10020f0 <_ZNK9__gnu_cxx17__normal_iteratorIPcSt6vectorIcSaIcEEEdeEv>
 1001d00:	10800003 	ldbu	r2,0(r2)
 1001d04:	10c03fcc 	andi	r3,r2,255
 1001d08:	18c0201c 	xori	r3,r3,128
 1001d0c:	18ffe004 	addi	r3,r3,-128
 1001d10:	e0bffb07 	ldb	r2,-20(fp)
 1001d14:	1885003a 	cmpeq	r2,r3,r2
 1001d18:	10803fcc 	andi	r2,r2,255
 1001d1c:	1005003a 	cmpeq	r2,r2,zero
 1001d20:	10001a1e 	bne	r2,zero,1001d8c <_ZN15NetworkReceiver4postEPKc+0xd4>
			// Post to the matching listener.
			status = OSQPost(listeners[index], (void *)event);
 1001d24:	e0bffe17 	ldw	r2,-8(fp)
 1001d28:	11000404 	addi	r4,r2,16
 1001d2c:	e17ffa17 	ldw	r5,-24(fp)
 1001d30:	100272c0 	call	100272c <_ZNSt6vectorIP8os_eventSaIS1_EEixEm>
 1001d34:	11000017 	ldw	r4,0(r2)
 1001d38:	e17fff17 	ldw	r5,-4(fp)
 1001d3c:	101e6cc0 	call	101e6cc <OSQPost>
 1001d40:	10803fcc 	andi	r2,r2,255
 1001d44:	e0bff915 	stw	r2,-28(fp)
			if (status != OS_NO_ERR) {
 1001d48:	e0bff917 	ldw	r2,-28(fp)
 1001d4c:	1005003a 	cmpeq	r2,r2,zero
 1001d50:	10000e1e 	bne	r2,zero,1001d8c <_ZN15NetworkReceiver4postEPKc+0xd4>
				throw new QueuePostException();
 1001d54:	01000104 	movi	r4,4
 1001d58:	100dda00 	call	100dda0 <_Znwm>
 1001d5c:	1021883a 	mov	r16,r2
 1001d60:	8009883a 	mov	r4,r16
 1001d64:	10004e00 	call	10004e0 <_ZN18QueuePostExceptionC1Ev>
 1001d68:	01000104 	movi	r4,4
 1001d6c:	100dc180 	call	100dc18 <__cxa_allocate_exception>
 1001d70:	1009883a 	mov	r4,r2
 1001d74:	2005883a 	mov	r2,r4
 1001d78:	14000015 	stw	r16,0(r2)
 1001d7c:	014040b4 	movhi	r5,258
 1001d80:	2956df04 	addi	r5,r5,23420
 1001d84:	000d883a 	mov	r6,zero
 1001d88:	100d8900 	call	100d890 <__cxa_throw>
			}
		}
		// Go the next key.
		index++;
 1001d8c:	e0bffa17 	ldw	r2,-24(fp)
 1001d90:	10800044 	addi	r2,r2,1
 1001d94:	e0bffa15 	stw	r2,-24(fp)
 */
void NetworkReceiver::post(const char *event) {
	char key = event[0];
	int index = 0;
	int status;
	for (vector<char>::iterator it = keys.begin(); it != keys.end(); ++it) {
 1001d98:	e13ffd04 	addi	r4,fp,-12
 1001d9c:	10020b80 	call	10020b8 <_ZN9__gnu_cxx17__normal_iteratorIPcSt6vectorIcSaIcEEEppEv>
 1001da0:	e0bffe17 	ldw	r2,-8(fp)
 1001da4:	11000104 	addi	r4,r2,4
 1001da8:	10023e80 	call	10023e8 <_ZNSt6vectorIcSaIcEE3endEv>
 1001dac:	e0bffc15 	stw	r2,-16(fp)
 1001db0:	e13ffd04 	addi	r4,fp,-12
 1001db4:	e17ffc04 	addi	r5,fp,-16
 1001db8:	10024480 	call	1002448 <_ZN9__gnu_cxxneIPcSt6vectorIcSaIcEEEEbRKNS_17__normal_iteratorIT_T0_EESA_>
 1001dbc:	10803fcc 	andi	r2,r2,255
 1001dc0:	1004c03a 	cmpne	r2,r2,zero
 1001dc4:	103fcc1e 	bne	r2,zero,1001cf8 <_ZN15NetworkReceiver4postEPKc+0x40>
			}
		}
		// Go the next key.
		index++;
	}
}
 1001dc8:	e037883a 	mov	sp,fp
 1001dcc:	dfc00217 	ldw	ra,8(sp)
 1001dd0:	df000117 	ldw	fp,4(sp)
 1001dd4:	dc000017 	ldw	r16,0(sp)
 1001dd8:	dec00304 	addi	sp,sp,12
 1001ddc:	f800283a 	ret

01001de0 <_ZN15NetworkReceiver6updateEv>:
/**
 * Updates this receiver. The receiver will check the wifi handler for new TCP messages
 * and forward them to the corresponding listeners.
 * @throw PostException if a message cannot be posted to a listener
 */
void NetworkReceiver::update() {
 1001de0:	defffc04 	addi	sp,sp,-16
 1001de4:	dfc00315 	stw	ra,12(sp)
 1001de8:	df000215 	stw	fp,8(sp)
 1001dec:	df000204 	addi	fp,sp,8
 1001df0:	e13fff15 	stw	r4,-4(fp)
	if (wifi->hasData()) {
 1001df4:	e0bfff17 	ldw	r2,-4(fp)
 1001df8:	11000017 	ldw	r4,0(r2)
 1001dfc:	100427c0 	call	100427c <_ZN11WifiHandler7hasDataEv>
 1001e00:	10803fcc 	andi	r2,r2,255
 1001e04:	1005003a 	cmpeq	r2,r2,zero
 1001e08:	10000a1e 	bne	r2,zero,1001e34 <_ZN15NetworkReceiver6updateEv+0x54>
		char *message = wifi->tcpReceive();
 1001e0c:	e0bfff17 	ldw	r2,-4(fp)
 1001e10:	11000017 	ldw	r4,0(r2)
 1001e14:	1004f3c0 	call	1004f3c <_ZN11WifiHandler10tcpReceiveEv>
 1001e18:	e0bffe15 	stw	r2,-8(fp)
		if (message == NULL) {
 1001e1c:	e0bffe17 	ldw	r2,-8(fp)
 1001e20:	1005003a 	cmpeq	r2,r2,zero
 1001e24:	1000031e 	bne	r2,zero,1001e34 <_ZN15NetworkReceiver6updateEv+0x54>
			NETWORKRECEIVER_LOG(printf("[NetworkReceiver] error: wifi busy\n"));
		} else {
			NETWORKRECEIVER_LOG(printf("[NetworkReceiver] message: %s", message));
			post(message);
 1001e28:	e13fff17 	ldw	r4,-4(fp)
 1001e2c:	e17ffe17 	ldw	r5,-8(fp)
 1001e30:	1001cb80 	call	1001cb8 <_ZN15NetworkReceiver4postEPKc>
		}
	}
}
 1001e34:	e037883a 	mov	sp,fp
 1001e38:	dfc00117 	ldw	ra,4(sp)
 1001e3c:	df000017 	ldw	fp,0(sp)
 1001e40:	dec00204 	addi	sp,sp,8
 1001e44:	f800283a 	ret

01001e48 <_ZN15NetworkReceiverC1EP11WifiHandler>:

/**
 * Creates a new network receiver.
 * @param wifi - the wifi handler to use to receive messages from the server
 */
NetworkReceiver::NetworkReceiver(WifiHandler *wifiHandler) {
 1001e48:	defffa04 	addi	sp,sp,-24
 1001e4c:	dfc00515 	stw	ra,20(sp)
 1001e50:	df000415 	stw	fp,16(sp)
 1001e54:	dc000315 	stw	r16,12(sp)
 1001e58:	df000304 	addi	fp,sp,12
 1001e5c:	e13ffe15 	stw	r4,-8(fp)
 1001e60:	e17fff15 	stw	r5,-4(fp)
 1001e64:	e0bffe17 	ldw	r2,-8(fp)
 1001e68:	14000104 	addi	r16,r2,4
 1001e6c:	e13ffd44 	addi	r4,fp,-11
 1001e70:	1007ca40 	call	1007ca4 <_ZNSaIcEC1Ev>
 1001e74:	e17ffd44 	addi	r5,fp,-11
 1001e78:	8009883a 	mov	r4,r16
 1001e7c:	10025480 	call	1002548 <_ZNSt6vectorIcSaIcEEC1ERKS0_>
 1001e80:	e13ffd44 	addi	r4,fp,-11
 1001e84:	1007cd00 	call	1007cd0 <_ZNSaIcED1Ev>
 1001e88:	e0bffe17 	ldw	r2,-8(fp)
 1001e8c:	14000404 	addi	r16,r2,16
 1001e90:	e13ffd04 	addi	r4,fp,-12
 1001e94:	100218c0 	call	100218c <_ZNSaIP8os_eventEC1Ev>
 1001e98:	8009883a 	mov	r4,r16
 1001e9c:	e17ffd04 	addi	r5,fp,-12
 1001ea0:	10026080 	call	1002608 <_ZNSt6vectorIP8os_eventSaIS1_EEC1ERKS2_>
 1001ea4:	e13ffd04 	addi	r4,fp,-12
 1001ea8:	10021dc0 	call	10021dc <_ZNSaIP8os_eventED1Ev>
	wifi = wifiHandler;
 1001eac:	e0fffe17 	ldw	r3,-8(fp)
 1001eb0:	e0bfff17 	ldw	r2,-4(fp)
 1001eb4:	18800015 	stw	r2,0(r3)
}
 1001eb8:	e037883a 	mov	sp,fp
 1001ebc:	dfc00217 	ldw	ra,8(sp)
 1001ec0:	df000117 	ldw	fp,4(sp)
 1001ec4:	dc000017 	ldw	r16,0(sp)
 1001ec8:	dec00304 	addi	sp,sp,12
 1001ecc:	f800283a 	ret

01001ed0 <_ZN15NetworkReceiverC2EP11WifiHandler>:

/**
 * Creates a new network receiver.
 * @param wifi - the wifi handler to use to receive messages from the server
 */
NetworkReceiver::NetworkReceiver(WifiHandler *wifiHandler) {
 1001ed0:	defffa04 	addi	sp,sp,-24
 1001ed4:	dfc00515 	stw	ra,20(sp)
 1001ed8:	df000415 	stw	fp,16(sp)
 1001edc:	dc000315 	stw	r16,12(sp)
 1001ee0:	df000304 	addi	fp,sp,12
 1001ee4:	e13ffe15 	stw	r4,-8(fp)
 1001ee8:	e17fff15 	stw	r5,-4(fp)
 1001eec:	e0bffe17 	ldw	r2,-8(fp)
 1001ef0:	14000104 	addi	r16,r2,4
 1001ef4:	e13ffd44 	addi	r4,fp,-11
 1001ef8:	1007ca40 	call	1007ca4 <_ZNSaIcEC1Ev>
 1001efc:	e17ffd44 	addi	r5,fp,-11
 1001f00:	8009883a 	mov	r4,r16
 1001f04:	10025480 	call	1002548 <_ZNSt6vectorIcSaIcEEC1ERKS0_>
 1001f08:	e13ffd44 	addi	r4,fp,-11
 1001f0c:	1007cd00 	call	1007cd0 <_ZNSaIcED1Ev>
 1001f10:	e0bffe17 	ldw	r2,-8(fp)
 1001f14:	14000404 	addi	r16,r2,16
 1001f18:	e13ffd04 	addi	r4,fp,-12
 1001f1c:	100218c0 	call	100218c <_ZNSaIP8os_eventEC1Ev>
 1001f20:	8009883a 	mov	r4,r16
 1001f24:	e17ffd04 	addi	r5,fp,-12
 1001f28:	10026080 	call	1002608 <_ZNSt6vectorIP8os_eventSaIS1_EEC1ERKS2_>
 1001f2c:	e13ffd04 	addi	r4,fp,-12
 1001f30:	10021dc0 	call	10021dc <_ZNSaIP8os_eventED1Ev>
	wifi = wifiHandler;
 1001f34:	e0fffe17 	ldw	r3,-8(fp)
 1001f38:	e0bfff17 	ldw	r2,-4(fp)
 1001f3c:	18800015 	stw	r2,0(r3)
}
 1001f40:	e037883a 	mov	sp,fp
 1001f44:	dfc00217 	ldw	ra,8(sp)
 1001f48:	df000117 	ldw	fp,4(sp)
 1001f4c:	dc000017 	ldw	r16,0(sp)
 1001f50:	dec00304 	addi	sp,sp,12
 1001f54:	f800283a 	ret

01001f58 <_ZN15NetworkReceiver11addListenerEcP8os_event>:
 * Adds a listener queue to this network receiver.
 * The queue will receive network events which start with the listener's key.
 * @param key the first character of network events intended for the listener
 * @param queue - the queue to which matching network events will be forwarded
 */
void NetworkReceiver::addListener(char key, OS_EVENT *queue) {
 1001f58:	defffb04 	addi	sp,sp,-20
 1001f5c:	dfc00415 	stw	ra,16(sp)
 1001f60:	df000315 	stw	fp,12(sp)
 1001f64:	df000304 	addi	fp,sp,12
 1001f68:	e13ffd15 	stw	r4,-12(fp)
 1001f6c:	e1bfff15 	stw	r6,-4(fp)
 1001f70:	e17ffe05 	stb	r5,-8(fp)
	keys.push_back(key);
 1001f74:	e0bffd17 	ldw	r2,-12(fp)
 1001f78:	11000104 	addi	r4,r2,4
 1001f7c:	e17ffe04 	addi	r5,fp,-8
 1001f80:	1003ab80 	call	1003ab8 <_ZNSt6vectorIcSaIcEE9push_backERKc>
	listeners.push_back(queue);
 1001f84:	e0bffd17 	ldw	r2,-12(fp)
 1001f88:	11000404 	addi	r4,r2,16
 1001f8c:	e17fff04 	addi	r5,fp,-4
 1001f90:	1003eec0 	call	1003eec <_ZNSt6vectorIP8os_eventSaIS1_EE9push_backERKS1_>
}
 1001f94:	e037883a 	mov	sp,fp
 1001f98:	dfc00117 	ldw	ra,4(sp)
 1001f9c:	df000017 	ldw	fp,0(sp)
 1001fa0:	dec00204 	addi	sp,sp,8
 1001fa4:	f800283a 	ret

01001fa8 <_Z28network_receiver_update_taskPv>:
// TASKS

extern NetworkReceiver *networkIn;

/* Polls for server updates. */
void network_receiver_update_task(void* pdata) {
 1001fa8:	deffe604 	addi	sp,sp,-104
 1001fac:	dfc01915 	stw	ra,100(sp)
 1001fb0:	df001815 	stw	fp,96(sp)
 1001fb4:	ddc01715 	stw	r23,92(sp)
 1001fb8:	dd801615 	stw	r22,88(sp)
 1001fbc:	dd401515 	stw	r21,84(sp)
 1001fc0:	dd001415 	stw	r20,80(sp)
 1001fc4:	dcc01315 	stw	r19,76(sp)
 1001fc8:	dc801215 	stw	r18,72(sp)
 1001fcc:	dc401115 	stw	r17,68(sp)
 1001fd0:	dc001015 	stw	r16,64(sp)
 1001fd4:	df001004 	addi	fp,sp,64
 1001fd8:	e13ff115 	stw	r4,-60(fp)
 1001fdc:	00804074 	movhi	r2,257
 1001fe0:	10b41004 	addi	r2,r2,-12224
 1001fe4:	e0bff815 	stw	r2,-32(fp)
 1001fe8:	008040b4 	movhi	r2,258
 1001fec:	10960404 	addi	r2,r2,22544
 1001ff0:	e0bff915 	stw	r2,-28(fp)
 1001ff4:	e0bffa04 	addi	r2,fp,-24
 1001ff8:	e0fff004 	addi	r3,fp,-64
 1001ffc:	10c00015 	stw	r3,0(r2)
 1002000:	00c04034 	movhi	r3,256
 1002004:	18c80d04 	addi	r3,r3,8244
 1002008:	10c00115 	stw	r3,4(r2)
 100200c:	16c00215 	stw	sp,8(r2)
 1002010:	e13ff204 	addi	r4,fp,-56
 1002014:	100df2c0 	call	100df2c <_Unwind_SjLj_Register>
	TASK_LOG(printf("NetworkReceiver [task: update, status: start]\n"));
	while (true) {
		try {
			// Update the network receiver.
			networkIn->update();
 1002018:	008040f4 	movhi	r2,259
 100201c:	10a40504 	addi	r2,r2,-28652
 1002020:	11000017 	ldw	r4,0(r2)
 1002024:	00800044 	movi	r2,1
 1002028:	e0bff315 	stw	r2,-52(fp)
 100202c:	1001de00 	call	1001de0 <_ZN15NetworkReceiver6updateEv>
 1002030:	00000f06 	br	1002070 <_Z28network_receiver_update_taskPv+0xc8>
 1002034:	e7001004 	addi	fp,fp,64
 1002038:	e0bff417 	ldw	r2,-48(fp)
 100203c:	e0bfff15 	stw	r2,-4(fp)
 1002040:	e0bff517 	ldw	r2,-44(fp)
 1002044:	10800060 	cmpeqi	r2,r2,1
 1002048:	1000041e 	bne	r2,zero,100205c <_Z28network_receiver_update_taskPv+0xb4>
 100204c:	00bfffc4 	movi	r2,-1
 1002050:	e0bff315 	stw	r2,-52(fp)
 1002054:	e13fff17 	ldw	r4,-4(fp)
 1002058:	100e1f80 	call	100e1f8 <_Unwind_SjLj_Resume>
		} catch (ARCapException &e) {
 100205c:	e13fff17 	ldw	r4,-4(fp)
 1002060:	100d6f80 	call	100d6f8 <__cxa_begin_catch>
 1002064:	e0bff015 	stw	r2,-64(fp)
 1002068:	e03ff315 	stw	zero,-52(fp)
 100206c:	100d6540 	call	100d654 <__cxa_end_catch>
			// Log exceptions.
			NETWORKRECEIVER_LOG(printf("%s\n", e.what()));
		}
		// Wait.
		OSTimeDlyHMSM(0, 0, 0, NETWORK_RECEIVER_UPDATE_TIME_MILLIS);
 1002070:	00bfffc4 	movi	r2,-1
 1002074:	e0bff315 	stw	r2,-52(fp)
 1002078:	0009883a 	mov	r4,zero
 100207c:	000b883a 	mov	r5,zero
 1002080:	000d883a 	mov	r6,zero
 1002084:	01c07d04 	movi	r7,500
 1002088:	10215880 	call	1021588 <OSTimeDlyHMSM>
extern NetworkReceiver *networkIn;

/* Polls for server updates. */
void network_receiver_update_task(void* pdata) {
	TASK_LOG(printf("NetworkReceiver [task: update, status: start]\n"));
	while (true) {
 100208c:	003fe206 	br	1002018 <_Z28network_receiver_update_taskPv+0x70>

01002090 <_ZnwmPv>:
void* operator new[](std::size_t, const std::nothrow_t&) throw();
void operator delete(void*, const std::nothrow_t&) throw();
void operator delete[](void*, const std::nothrow_t&) throw();

// Default placement versions of operator new.
inline void* operator new(std::size_t, void* __p) throw() { return __p; }
 1002090:	defffd04 	addi	sp,sp,-12
 1002094:	df000215 	stw	fp,8(sp)
 1002098:	df000204 	addi	fp,sp,8
 100209c:	e13ffe15 	stw	r4,-8(fp)
 10020a0:	e17fff15 	stw	r5,-4(fp)
 10020a4:	e0bfff17 	ldw	r2,-4(fp)
 10020a8:	e037883a 	mov	sp,fp
 10020ac:	df000017 	ldw	fp,0(sp)
 10020b0:	dec00104 	addi	sp,sp,4
 10020b4:	f800283a 	ret

010020b8 <_ZN9__gnu_cxx17__normal_iteratorIPcSt6vectorIcSaIcEEEppEv>:
      pointer
      operator->() const
      { return _M_current; }

      __normal_iterator&
      operator++()
 10020b8:	defffe04 	addi	sp,sp,-8
 10020bc:	df000115 	stw	fp,4(sp)
 10020c0:	df000104 	addi	fp,sp,4
 10020c4:	e13fff15 	stw	r4,-4(fp)
      {
	++_M_current;
 10020c8:	e0bfff17 	ldw	r2,-4(fp)
 10020cc:	10800017 	ldw	r2,0(r2)
 10020d0:	10c00044 	addi	r3,r2,1
 10020d4:	e0bfff17 	ldw	r2,-4(fp)
 10020d8:	10c00015 	stw	r3,0(r2)
	return *this;
 10020dc:	e0bfff17 	ldw	r2,-4(fp)
 10020e0:	e037883a 	mov	sp,fp
 10020e4:	df000017 	ldw	fp,0(sp)
 10020e8:	dec00104 	addi	sp,sp,4
 10020ec:	f800283a 	ret

010020f0 <_ZNK9__gnu_cxx17__normal_iteratorIPcSt6vectorIcSaIcEEEdeEv>:
			  >::__type>& __i)
        : _M_current(__i.base()) { }

      // Forward iterator requirements
      reference
      operator*() const
 10020f0:	defffe04 	addi	sp,sp,-8
 10020f4:	df000115 	stw	fp,4(sp)
 10020f8:	df000104 	addi	fp,sp,4
 10020fc:	e13fff15 	stw	r4,-4(fp)
      { return *_M_current; }
 1002100:	e0bfff17 	ldw	r2,-4(fp)
 1002104:	10800017 	ldw	r2,0(r2)
 1002108:	e037883a 	mov	sp,fp
 100210c:	df000017 	ldw	fp,0(sp)
 1002110:	dec00104 	addi	sp,sp,4
 1002114:	f800283a 	ret

01002118 <_ZNSt12_Vector_baseIcSaIcEE12_Vector_implD1Ev>:
    {
      typedef typename _Alloc::template rebind<_Tp>::other _Tp_alloc_type;

      struct _Vector_impl 
      : public _Tp_alloc_type
      {
 1002118:	defffd04 	addi	sp,sp,-12
 100211c:	dfc00215 	stw	ra,8(sp)
 1002120:	df000115 	stw	fp,4(sp)
 1002124:	df000104 	addi	fp,sp,4
 1002128:	e13fff15 	stw	r4,-4(fp)
 100212c:	e13fff17 	ldw	r4,-4(fp)
 1002130:	1007ca80 	call	1007ca8 <_ZNSaIcED2Ev>
 1002134:	e037883a 	mov	sp,fp
 1002138:	dfc00117 	ldw	ra,4(sp)
 100213c:	df000017 	ldw	fp,0(sp)
 1002140:	dec00204 	addi	sp,sp,8
 1002144:	f800283a 	ret

01002148 <_ZNSt12_Vector_baseIcSaIcEE19_M_get_Tp_allocatorEv>:
      
    public:
      typedef _Alloc allocator_type;

      _Tp_alloc_type&
      _M_get_Tp_allocator()
 1002148:	defffe04 	addi	sp,sp,-8
 100214c:	df000115 	stw	fp,4(sp)
 1002150:	df000104 	addi	fp,sp,4
 1002154:	e13fff15 	stw	r4,-4(fp)
      { return *static_cast<_Tp_alloc_type*>(&this->_M_impl); }
 1002158:	e0bfff17 	ldw	r2,-4(fp)
 100215c:	e037883a 	mov	sp,fp
 1002160:	df000017 	ldw	fp,0(sp)
 1002164:	dec00104 	addi	sp,sp,4
 1002168:	f800283a 	ret

0100216c <_ZN9__gnu_cxx13new_allocatorIP8os_eventEC2Ev>:

      template<typename _Tp1>
        struct rebind
        { typedef new_allocator<_Tp1> other; };

      new_allocator() throw() { }
 100216c:	defffe04 	addi	sp,sp,-8
 1002170:	df000115 	stw	fp,4(sp)
 1002174:	df000104 	addi	fp,sp,4
 1002178:	e13fff15 	stw	r4,-4(fp)
 100217c:	e037883a 	mov	sp,fp
 1002180:	df000017 	ldw	fp,0(sp)
 1002184:	dec00104 	addi	sp,sp,4
 1002188:	f800283a 	ret

0100218c <_ZNSaIP8os_eventEC1Ev>:

      template<typename _Tp1>
        struct rebind
        { typedef allocator<_Tp1> other; };

      allocator() throw() { }
 100218c:	defffd04 	addi	sp,sp,-12
 1002190:	dfc00215 	stw	ra,8(sp)
 1002194:	df000115 	stw	fp,4(sp)
 1002198:	df000104 	addi	fp,sp,4
 100219c:	e13fff15 	stw	r4,-4(fp)
 10021a0:	e13fff17 	ldw	r4,-4(fp)
 10021a4:	100216c0 	call	100216c <_ZN9__gnu_cxx13new_allocatorIP8os_eventEC2Ev>
 10021a8:	e037883a 	mov	sp,fp
 10021ac:	dfc00117 	ldw	ra,4(sp)
 10021b0:	df000017 	ldw	fp,0(sp)
 10021b4:	dec00204 	addi	sp,sp,8
 10021b8:	f800283a 	ret

010021bc <_ZN9__gnu_cxx13new_allocatorIP8os_eventED2Ev>:
      new_allocator(const new_allocator&) throw() { }

      template<typename _Tp1>
        new_allocator(const new_allocator<_Tp1>&) throw() { }

      ~new_allocator() throw() { }
 10021bc:	defffe04 	addi	sp,sp,-8
 10021c0:	df000115 	stw	fp,4(sp)
 10021c4:	df000104 	addi	fp,sp,4
 10021c8:	e13fff15 	stw	r4,-4(fp)
 10021cc:	e037883a 	mov	sp,fp
 10021d0:	df000017 	ldw	fp,0(sp)
 10021d4:	dec00104 	addi	sp,sp,4
 10021d8:	f800283a 	ret

010021dc <_ZNSaIP8os_eventED1Ev>:
      : __glibcxx_base_allocator<_Tp>(__a) { }

      template<typename _Tp1>
        allocator(const allocator<_Tp1>&) throw() { }

      ~allocator() throw() { }
 10021dc:	defffd04 	addi	sp,sp,-12
 10021e0:	dfc00215 	stw	ra,8(sp)
 10021e4:	df000115 	stw	fp,4(sp)
 10021e8:	df000104 	addi	fp,sp,4
 10021ec:	e13fff15 	stw	r4,-4(fp)
 10021f0:	e13fff17 	ldw	r4,-4(fp)
 10021f4:	10021bc0 	call	10021bc <_ZN9__gnu_cxx13new_allocatorIP8os_eventED2Ev>
 10021f8:	e037883a 	mov	sp,fp
 10021fc:	dfc00117 	ldw	ra,4(sp)
 1002200:	df000017 	ldw	fp,0(sp)
 1002204:	dec00204 	addi	sp,sp,8
 1002208:	f800283a 	ret

0100220c <_ZN9__gnu_cxx13new_allocatorIP8os_eventEC2ERKS3_>:
        struct rebind
        { typedef new_allocator<_Tp1> other; };

      new_allocator() throw() { }

      new_allocator(const new_allocator&) throw() { }
 100220c:	defffd04 	addi	sp,sp,-12
 1002210:	df000215 	stw	fp,8(sp)
 1002214:	df000204 	addi	fp,sp,8
 1002218:	e13ffe15 	stw	r4,-8(fp)
 100221c:	e17fff15 	stw	r5,-4(fp)
 1002220:	e037883a 	mov	sp,fp
 1002224:	df000017 	ldw	fp,0(sp)
 1002228:	dec00104 	addi	sp,sp,4
 100222c:	f800283a 	ret

01002230 <_ZNSaIP8os_eventEC1ERKS1_>:
        struct rebind
        { typedef allocator<_Tp1> other; };

      allocator() throw() { }

      allocator(const allocator& __a) throw()
 1002230:	defffc04 	addi	sp,sp,-16
 1002234:	dfc00315 	stw	ra,12(sp)
 1002238:	df000215 	stw	fp,8(sp)
 100223c:	df000204 	addi	fp,sp,8
 1002240:	e13ffe15 	stw	r4,-8(fp)
 1002244:	e17fff15 	stw	r5,-4(fp)
      : __glibcxx_base_allocator<_Tp>(__a) { }
 1002248:	e13ffe17 	ldw	r4,-8(fp)
 100224c:	e17fff17 	ldw	r5,-4(fp)
 1002250:	100220c0 	call	100220c <_ZN9__gnu_cxx13new_allocatorIP8os_eventEC2ERKS3_>
 1002254:	e037883a 	mov	sp,fp
 1002258:	dfc00117 	ldw	ra,4(sp)
 100225c:	df000017 	ldw	fp,0(sp)
 1002260:	dec00204 	addi	sp,sp,8
 1002264:	f800283a 	ret

01002268 <_ZNSaIP8os_eventEC2ERKS1_>:
        struct rebind
        { typedef allocator<_Tp1> other; };

      allocator() throw() { }

      allocator(const allocator& __a) throw()
 1002268:	defffc04 	addi	sp,sp,-16
 100226c:	dfc00315 	stw	ra,12(sp)
 1002270:	df000215 	stw	fp,8(sp)
 1002274:	df000204 	addi	fp,sp,8
 1002278:	e13ffe15 	stw	r4,-8(fp)
 100227c:	e17fff15 	stw	r5,-4(fp)
      : __glibcxx_base_allocator<_Tp>(__a) { }
 1002280:	e13ffe17 	ldw	r4,-8(fp)
 1002284:	e17fff17 	ldw	r5,-4(fp)
 1002288:	100220c0 	call	100220c <_ZN9__gnu_cxx13new_allocatorIP8os_eventEC2ERKS3_>
 100228c:	e037883a 	mov	sp,fp
 1002290:	dfc00117 	ldw	ra,4(sp)
 1002294:	df000017 	ldw	fp,0(sp)
 1002298:	dec00204 	addi	sp,sp,8
 100229c:	f800283a 	ret

010022a0 <_ZNSt12_Vector_baseIP8os_eventSaIS1_EE19_M_get_Tp_allocatorEv>:
      
    public:
      typedef _Alloc allocator_type;

      _Tp_alloc_type&
      _M_get_Tp_allocator()
 10022a0:	defffe04 	addi	sp,sp,-8
 10022a4:	df000115 	stw	fp,4(sp)
 10022a8:	df000104 	addi	fp,sp,4
 10022ac:	e13fff15 	stw	r4,-4(fp)
      { return *static_cast<_Tp_alloc_type*>(&this->_M_impl); }
 10022b0:	e0bfff17 	ldw	r2,-4(fp)
 10022b4:	e037883a 	mov	sp,fp
 10022b8:	df000017 	ldw	fp,0(sp)
 10022bc:	dec00104 	addi	sp,sp,4
 10022c0:	f800283a 	ret

010022c4 <_ZN9__gnu_cxx13new_allocatorIcE9constructEPcRKc>:
      { return size_t(-1) / sizeof(_Tp); }

      // _GLIBCXX_RESOLVE_LIB_DEFECTS
      // 402. wrong new expression in [some_] allocator::construct
      void 
      construct(pointer __p, const _Tp& __val) 
 10022c4:	defffa04 	addi	sp,sp,-24
 10022c8:	dfc00515 	stw	ra,20(sp)
 10022cc:	df000415 	stw	fp,16(sp)
 10022d0:	df000404 	addi	fp,sp,16
 10022d4:	e13ffc15 	stw	r4,-16(fp)
 10022d8:	e17ffd15 	stw	r5,-12(fp)
 10022dc:	e1bffe15 	stw	r6,-8(fp)
      { ::new(__p) _Tp(__val); }
 10022e0:	01000044 	movi	r4,1
 10022e4:	e17ffd17 	ldw	r5,-12(fp)
 10022e8:	10020900 	call	1002090 <_ZnwmPv>
 10022ec:	e0bfff15 	stw	r2,-4(fp)
 10022f0:	e0ffff17 	ldw	r3,-4(fp)
 10022f4:	1805003a 	cmpeq	r2,r3,zero
 10022f8:	1000041e 	bne	r2,zero,100230c <_ZN9__gnu_cxx13new_allocatorIcE9constructEPcRKc+0x48>
 10022fc:	e0bffe17 	ldw	r2,-8(fp)
 1002300:	10800003 	ldbu	r2,0(r2)
 1002304:	e0ffff17 	ldw	r3,-4(fp)
 1002308:	18800005 	stb	r2,0(r3)
 100230c:	e037883a 	mov	sp,fp
 1002310:	dfc00117 	ldw	ra,4(sp)
 1002314:	df000017 	ldw	fp,0(sp)
 1002318:	dec00204 	addi	sp,sp,8
 100231c:	f800283a 	ret

01002320 <_ZN9__gnu_cxx13new_allocatorIP8os_eventE9constructEPS2_RKS2_>:
      { return size_t(-1) / sizeof(_Tp); }

      // _GLIBCXX_RESOLVE_LIB_DEFECTS
      // 402. wrong new expression in [some_] allocator::construct
      void 
      construct(pointer __p, const _Tp& __val) 
 1002320:	defffa04 	addi	sp,sp,-24
 1002324:	dfc00515 	stw	ra,20(sp)
 1002328:	df000415 	stw	fp,16(sp)
 100232c:	df000404 	addi	fp,sp,16
 1002330:	e13ffc15 	stw	r4,-16(fp)
 1002334:	e17ffd15 	stw	r5,-12(fp)
 1002338:	e1bffe15 	stw	r6,-8(fp)
      { ::new(__p) _Tp(__val); }
 100233c:	01000104 	movi	r4,4
 1002340:	e17ffd17 	ldw	r5,-12(fp)
 1002344:	10020900 	call	1002090 <_ZnwmPv>
 1002348:	e0bfff15 	stw	r2,-4(fp)
 100234c:	e0ffff17 	ldw	r3,-4(fp)
 1002350:	1805003a 	cmpeq	r2,r3,zero
 1002354:	1000041e 	bne	r2,zero,1002368 <_ZN9__gnu_cxx13new_allocatorIP8os_eventE9constructEPS2_RKS2_+0x48>
 1002358:	e0bffe17 	ldw	r2,-8(fp)
 100235c:	10800017 	ldw	r2,0(r2)
 1002360:	e0ffff17 	ldw	r3,-4(fp)
 1002364:	18800015 	stw	r2,0(r3)
 1002368:	e037883a 	mov	sp,fp
 100236c:	dfc00117 	ldw	ra,4(sp)
 1002370:	df000017 	ldw	fp,0(sp)
 1002374:	dec00204 	addi	sp,sp,8
 1002378:	f800283a 	ret

0100237c <_ZN9__gnu_cxx17__normal_iteratorIPcSt6vectorIcSaIcEEEC1ERKS1_>:
      typedef typename iterator_traits<_Iterator>::pointer   pointer;

      __normal_iterator() : _M_current(_Iterator()) { }

      explicit
      __normal_iterator(const _Iterator& __i) : _M_current(__i) { }
 100237c:	defffd04 	addi	sp,sp,-12
 1002380:	df000215 	stw	fp,8(sp)
 1002384:	df000204 	addi	fp,sp,8
 1002388:	e13ffe15 	stw	r4,-8(fp)
 100238c:	e17fff15 	stw	r5,-4(fp)
 1002390:	e0bfff17 	ldw	r2,-4(fp)
 1002394:	10c00017 	ldw	r3,0(r2)
 1002398:	e0bffe17 	ldw	r2,-8(fp)
 100239c:	10c00015 	stw	r3,0(r2)
 10023a0:	e037883a 	mov	sp,fp
 10023a4:	df000017 	ldw	fp,0(sp)
 10023a8:	dec00104 	addi	sp,sp,4
 10023ac:	f800283a 	ret

010023b0 <_ZNSt6vectorIcSaIcEE5beginEv>:
       *  Returns a read/write iterator that points to the first
       *  element in the %vector.  Iteration is done in ordinary
       *  element order.
       */
      iterator
      begin()
 10023b0:	defffc04 	addi	sp,sp,-16
 10023b4:	dfc00315 	stw	ra,12(sp)
 10023b8:	df000215 	stw	fp,8(sp)
 10023bc:	df000204 	addi	fp,sp,8
 10023c0:	e13fff15 	stw	r4,-4(fp)
      { return iterator (this->_M_impl._M_start); }
 10023c4:	e17fff17 	ldw	r5,-4(fp)
 10023c8:	e13ffe04 	addi	r4,fp,-8
 10023cc:	100237c0 	call	100237c <_ZN9__gnu_cxx17__normal_iteratorIPcSt6vectorIcSaIcEEEC1ERKS1_>
 10023d0:	e0bffe17 	ldw	r2,-8(fp)
 10023d4:	e037883a 	mov	sp,fp
 10023d8:	dfc00117 	ldw	ra,4(sp)
 10023dc:	df000017 	ldw	fp,0(sp)
 10023e0:	dec00204 	addi	sp,sp,8
 10023e4:	f800283a 	ret

010023e8 <_ZNSt6vectorIcSaIcEE3endEv>:
       *  Returns a read/write iterator that points one past the last
       *  element in the %vector.  Iteration is done in ordinary
       *  element order.
       */
      iterator
      end()
 10023e8:	defffc04 	addi	sp,sp,-16
 10023ec:	dfc00315 	stw	ra,12(sp)
 10023f0:	df000215 	stw	fp,8(sp)
 10023f4:	df000204 	addi	fp,sp,8
 10023f8:	e13fff15 	stw	r4,-4(fp)
      { return iterator (this->_M_impl._M_finish); }
 10023fc:	e0bfff17 	ldw	r2,-4(fp)
 1002400:	11400104 	addi	r5,r2,4
 1002404:	e13ffe04 	addi	r4,fp,-8
 1002408:	100237c0 	call	100237c <_ZN9__gnu_cxx17__normal_iteratorIPcSt6vectorIcSaIcEEEC1ERKS1_>
 100240c:	e0bffe17 	ldw	r2,-8(fp)
 1002410:	e037883a 	mov	sp,fp
 1002414:	dfc00117 	ldw	ra,4(sp)
 1002418:	df000017 	ldw	fp,0(sp)
 100241c:	dec00204 	addi	sp,sp,8
 1002420:	f800283a 	ret

01002424 <_ZNK9__gnu_cxx17__normal_iteratorIPcSt6vectorIcSaIcEEE4baseEv>:
      __normal_iterator
      operator-(const difference_type& __n) const
      { return __normal_iterator(_M_current - __n); }

      const _Iterator&
      base() const
 1002424:	defffe04 	addi	sp,sp,-8
 1002428:	df000115 	stw	fp,4(sp)
 100242c:	df000104 	addi	fp,sp,4
 1002430:	e13fff15 	stw	r4,-4(fp)
      { return _M_current; }
 1002434:	e0bfff17 	ldw	r2,-4(fp)
 1002438:	e037883a 	mov	sp,fp
 100243c:	df000017 	ldw	fp,0(sp)
 1002440:	dec00104 	addi	sp,sp,4
 1002444:	f800283a 	ret

01002448 <_ZN9__gnu_cxxneIPcSt6vectorIcSaIcEEEEbRKNS_17__normal_iteratorIT_T0_EESA_>:
    { return __lhs.base() != __rhs.base(); }

  template<typename _Iterator, typename _Container>
    inline bool
    operator!=(const __normal_iterator<_Iterator, _Container>& __lhs,
	       const __normal_iterator<_Iterator, _Container>& __rhs)
 1002448:	defffb04 	addi	sp,sp,-20
 100244c:	dfc00415 	stw	ra,16(sp)
 1002450:	df000315 	stw	fp,12(sp)
 1002454:	dc000215 	stw	r16,8(sp)
 1002458:	df000204 	addi	fp,sp,8
 100245c:	e13ffe15 	stw	r4,-8(fp)
 1002460:	e17fff15 	stw	r5,-4(fp)
    { return __lhs.base() != __rhs.base(); }
 1002464:	e13ffe17 	ldw	r4,-8(fp)
 1002468:	10024240 	call	1002424 <_ZNK9__gnu_cxx17__normal_iteratorIPcSt6vectorIcSaIcEEE4baseEv>
 100246c:	14000017 	ldw	r16,0(r2)
 1002470:	e13fff17 	ldw	r4,-4(fp)
 1002474:	10024240 	call	1002424 <_ZNK9__gnu_cxx17__normal_iteratorIPcSt6vectorIcSaIcEEE4baseEv>
 1002478:	10800017 	ldw	r2,0(r2)
 100247c:	8084c03a 	cmpne	r2,r16,r2
 1002480:	e037883a 	mov	sp,fp
 1002484:	dfc00217 	ldw	ra,8(sp)
 1002488:	df000117 	ldw	fp,4(sp)
 100248c:	dc000017 	ldw	r16,0(sp)
 1002490:	dec00304 	addi	sp,sp,12
 1002494:	f800283a 	ret

01002498 <_ZNK9__gnu_cxx17__normal_iteratorIPP8os_eventSt6vectorIS2_SaIS2_EEEdeEv>:
			  >::__type>& __i)
        : _M_current(__i.base()) { }

      // Forward iterator requirements
      reference
      operator*() const
 1002498:	defffe04 	addi	sp,sp,-8
 100249c:	df000115 	stw	fp,4(sp)
 10024a0:	df000104 	addi	fp,sp,4
 10024a4:	e13fff15 	stw	r4,-4(fp)
      { return *_M_current; }
 10024a8:	e0bfff17 	ldw	r2,-4(fp)
 10024ac:	10800017 	ldw	r2,0(r2)
 10024b0:	e037883a 	mov	sp,fp
 10024b4:	df000017 	ldw	fp,0(sp)
 10024b8:	dec00104 	addi	sp,sp,4
 10024bc:	f800283a 	ret

010024c0 <_ZNSt12_Vector_baseIcSaIcEE12_Vector_implC1ERKS0_>:
      : public _Tp_alloc_type
      {
	_Tp*           _M_start;
	_Tp*           _M_finish;
	_Tp*           _M_end_of_storage;
	_Vector_impl(_Tp_alloc_type const& __a)
 10024c0:	defffc04 	addi	sp,sp,-16
 10024c4:	dfc00315 	stw	ra,12(sp)
 10024c8:	df000215 	stw	fp,8(sp)
 10024cc:	df000204 	addi	fp,sp,8
 10024d0:	e13ffe15 	stw	r4,-8(fp)
 10024d4:	e17fff15 	stw	r5,-4(fp)
	: _Tp_alloc_type(__a), _M_start(0), _M_finish(0), _M_end_of_storage(0)
 10024d8:	e13ffe17 	ldw	r4,-8(fp)
 10024dc:	e17fff17 	ldw	r5,-4(fp)
 10024e0:	1007cac0 	call	1007cac <_ZNSaIcEC2ERKS_>
 10024e4:	e0bffe17 	ldw	r2,-8(fp)
 10024e8:	10000015 	stw	zero,0(r2)
 10024ec:	e0bffe17 	ldw	r2,-8(fp)
 10024f0:	10000115 	stw	zero,4(r2)
 10024f4:	e0bffe17 	ldw	r2,-8(fp)
 10024f8:	10000215 	stw	zero,8(r2)
	{ }
 10024fc:	e037883a 	mov	sp,fp
 1002500:	dfc00117 	ldw	ra,4(sp)
 1002504:	df000017 	ldw	fp,0(sp)
 1002508:	dec00204 	addi	sp,sp,8
 100250c:	f800283a 	ret

01002510 <_ZNSt12_Vector_baseIcSaIcEEC2ERKS0_>:

      allocator_type
      get_allocator() const
      { return _M_get_Tp_allocator(); }

      _Vector_base(const allocator_type& __a)
 1002510:	defffc04 	addi	sp,sp,-16
 1002514:	dfc00315 	stw	ra,12(sp)
 1002518:	df000215 	stw	fp,8(sp)
 100251c:	df000204 	addi	fp,sp,8
 1002520:	e13ffe15 	stw	r4,-8(fp)
 1002524:	e17fff15 	stw	r5,-4(fp)
      : _M_impl(__a)
 1002528:	e13ffe17 	ldw	r4,-8(fp)
 100252c:	e17fff17 	ldw	r5,-4(fp)
 1002530:	10024c00 	call	10024c0 <_ZNSt12_Vector_baseIcSaIcEE12_Vector_implC1ERKS0_>
      { }
 1002534:	e037883a 	mov	sp,fp
 1002538:	dfc00117 	ldw	ra,4(sp)
 100253c:	df000017 	ldw	fp,0(sp)
 1002540:	dec00204 	addi	sp,sp,8
 1002544:	f800283a 	ret

01002548 <_ZNSt6vectorIcSaIcEEC1ERKS0_>:
      // (assign() and get_allocator() are also listed in this section)
      /**
       *  @brief  Default constructor creates no elements.
       */
      explicit
      vector(const allocator_type& __a = allocator_type())
 1002548:	defffc04 	addi	sp,sp,-16
 100254c:	dfc00315 	stw	ra,12(sp)
 1002550:	df000215 	stw	fp,8(sp)
 1002554:	df000204 	addi	fp,sp,8
 1002558:	e13ffe15 	stw	r4,-8(fp)
 100255c:	e17fff15 	stw	r5,-4(fp)
      : _Base(__a)
 1002560:	e13ffe17 	ldw	r4,-8(fp)
 1002564:	e17fff17 	ldw	r5,-4(fp)
 1002568:	10025100 	call	1002510 <_ZNSt12_Vector_baseIcSaIcEEC2ERKS0_>
      { }
 100256c:	e037883a 	mov	sp,fp
 1002570:	dfc00117 	ldw	ra,4(sp)
 1002574:	df000017 	ldw	fp,0(sp)
 1002578:	dec00204 	addi	sp,sp,8
 100257c:	f800283a 	ret

01002580 <_ZNSt12_Vector_baseIP8os_eventSaIS1_EE12_Vector_implC1ERKS2_>:
      : public _Tp_alloc_type
      {
	_Tp*           _M_start;
	_Tp*           _M_finish;
	_Tp*           _M_end_of_storage;
	_Vector_impl(_Tp_alloc_type const& __a)
 1002580:	defffc04 	addi	sp,sp,-16
 1002584:	dfc00315 	stw	ra,12(sp)
 1002588:	df000215 	stw	fp,8(sp)
 100258c:	df000204 	addi	fp,sp,8
 1002590:	e13ffe15 	stw	r4,-8(fp)
 1002594:	e17fff15 	stw	r5,-4(fp)
	: _Tp_alloc_type(__a), _M_start(0), _M_finish(0), _M_end_of_storage(0)
 1002598:	e13ffe17 	ldw	r4,-8(fp)
 100259c:	e17fff17 	ldw	r5,-4(fp)
 10025a0:	10022680 	call	1002268 <_ZNSaIP8os_eventEC2ERKS1_>
 10025a4:	e0bffe17 	ldw	r2,-8(fp)
 10025a8:	10000015 	stw	zero,0(r2)
 10025ac:	e0bffe17 	ldw	r2,-8(fp)
 10025b0:	10000115 	stw	zero,4(r2)
 10025b4:	e0bffe17 	ldw	r2,-8(fp)
 10025b8:	10000215 	stw	zero,8(r2)
	{ }
 10025bc:	e037883a 	mov	sp,fp
 10025c0:	dfc00117 	ldw	ra,4(sp)
 10025c4:	df000017 	ldw	fp,0(sp)
 10025c8:	dec00204 	addi	sp,sp,8
 10025cc:	f800283a 	ret

010025d0 <_ZNSt12_Vector_baseIP8os_eventSaIS1_EEC2ERKS2_>:

      allocator_type
      get_allocator() const
      { return _M_get_Tp_allocator(); }

      _Vector_base(const allocator_type& __a)
 10025d0:	defffc04 	addi	sp,sp,-16
 10025d4:	dfc00315 	stw	ra,12(sp)
 10025d8:	df000215 	stw	fp,8(sp)
 10025dc:	df000204 	addi	fp,sp,8
 10025e0:	e13ffe15 	stw	r4,-8(fp)
 10025e4:	e17fff15 	stw	r5,-4(fp)
      : _M_impl(__a)
 10025e8:	e13ffe17 	ldw	r4,-8(fp)
 10025ec:	e17fff17 	ldw	r5,-4(fp)
 10025f0:	10025800 	call	1002580 <_ZNSt12_Vector_baseIP8os_eventSaIS1_EE12_Vector_implC1ERKS2_>
      { }
 10025f4:	e037883a 	mov	sp,fp
 10025f8:	dfc00117 	ldw	ra,4(sp)
 10025fc:	df000017 	ldw	fp,0(sp)
 1002600:	dec00204 	addi	sp,sp,8
 1002604:	f800283a 	ret

01002608 <_ZNSt6vectorIP8os_eventSaIS1_EEC1ERKS2_>:
      // (assign() and get_allocator() are also listed in this section)
      /**
       *  @brief  Default constructor creates no elements.
       */
      explicit
      vector(const allocator_type& __a = allocator_type())
 1002608:	defffc04 	addi	sp,sp,-16
 100260c:	dfc00315 	stw	ra,12(sp)
 1002610:	df000215 	stw	fp,8(sp)
 1002614:	df000204 	addi	fp,sp,8
 1002618:	e13ffe15 	stw	r4,-8(fp)
 100261c:	e17fff15 	stw	r5,-4(fp)
      : _Base(__a)
 1002620:	e13ffe17 	ldw	r4,-8(fp)
 1002624:	e17fff17 	ldw	r5,-4(fp)
 1002628:	10025d00 	call	10025d0 <_ZNSt12_Vector_baseIP8os_eventSaIS1_EEC2ERKS2_>
      { }
 100262c:	e037883a 	mov	sp,fp
 1002630:	dfc00117 	ldw	ra,4(sp)
 1002634:	df000017 	ldw	fp,0(sp)
 1002638:	dec00204 	addi	sp,sp,8
 100263c:	f800283a 	ret

01002640 <_ZNKSt6vectorIcSaIcEE8max_sizeEv>:
      size() const
      { return size_type(end() - begin()); }

      /**  Returns the size() of the largest possible %vector.  */
      size_type
      max_size() const
 1002640:	defffe04 	addi	sp,sp,-8
 1002644:	df000115 	stw	fp,4(sp)
 1002648:	df000104 	addi	fp,sp,4
 100264c:	e13fff15 	stw	r4,-4(fp)
      { return size_type(-1) / sizeof(value_type); }
 1002650:	00bfffc4 	movi	r2,-1
 1002654:	e037883a 	mov	sp,fp
 1002658:	df000017 	ldw	fp,0(sp)
 100265c:	dec00104 	addi	sp,sp,4
 1002660:	f800283a 	ret

01002664 <_ZN9__gnu_cxx17__normal_iteratorIPP8os_eventSt6vectorIS2_SaIS2_EEEC1ERKS3_>:
      typedef typename iterator_traits<_Iterator>::pointer   pointer;

      __normal_iterator() : _M_current(_Iterator()) { }

      explicit
      __normal_iterator(const _Iterator& __i) : _M_current(__i) { }
 1002664:	defffd04 	addi	sp,sp,-12
 1002668:	df000215 	stw	fp,8(sp)
 100266c:	df000204 	addi	fp,sp,8
 1002670:	e13ffe15 	stw	r4,-8(fp)
 1002674:	e17fff15 	stw	r5,-4(fp)
 1002678:	e0bfff17 	ldw	r2,-4(fp)
 100267c:	10c00017 	ldw	r3,0(r2)
 1002680:	e0bffe17 	ldw	r2,-8(fp)
 1002684:	10c00015 	stw	r3,0(r2)
 1002688:	e037883a 	mov	sp,fp
 100268c:	df000017 	ldw	fp,0(sp)
 1002690:	dec00104 	addi	sp,sp,4
 1002694:	f800283a 	ret

01002698 <_ZNSt6vectorIP8os_eventSaIS1_EE5beginEv>:
       *  Returns a read/write iterator that points to the first
       *  element in the %vector.  Iteration is done in ordinary
       *  element order.
       */
      iterator
      begin()
 1002698:	defffc04 	addi	sp,sp,-16
 100269c:	dfc00315 	stw	ra,12(sp)
 10026a0:	df000215 	stw	fp,8(sp)
 10026a4:	df000204 	addi	fp,sp,8
 10026a8:	e13fff15 	stw	r4,-4(fp)
      { return iterator (this->_M_impl._M_start); }
 10026ac:	e17fff17 	ldw	r5,-4(fp)
 10026b0:	e13ffe04 	addi	r4,fp,-8
 10026b4:	10026640 	call	1002664 <_ZN9__gnu_cxx17__normal_iteratorIPP8os_eventSt6vectorIS2_SaIS2_EEEC1ERKS3_>
 10026b8:	e0bffe17 	ldw	r2,-8(fp)
 10026bc:	e037883a 	mov	sp,fp
 10026c0:	dfc00117 	ldw	ra,4(sp)
 10026c4:	df000017 	ldw	fp,0(sp)
 10026c8:	dec00204 	addi	sp,sp,8
 10026cc:	f800283a 	ret

010026d0 <_ZNK9__gnu_cxx17__normal_iteratorIPP8os_eventSt6vectorIS2_SaIS2_EEEplERKl>:
      __normal_iterator&
      operator+=(const difference_type& __n)
      { _M_current += __n; return *this; }

      __normal_iterator
      operator+(const difference_type& __n) const
 10026d0:	defffa04 	addi	sp,sp,-24
 10026d4:	dfc00515 	stw	ra,20(sp)
 10026d8:	df000415 	stw	fp,16(sp)
 10026dc:	df000404 	addi	fp,sp,16
 10026e0:	e13ffe15 	stw	r4,-8(fp)
 10026e4:	e17fff15 	stw	r5,-4(fp)
      { return __normal_iterator(_M_current + __n); }
 10026e8:	e0bffe17 	ldw	r2,-8(fp)
 10026ec:	10c00017 	ldw	r3,0(r2)
 10026f0:	e0bfff17 	ldw	r2,-4(fp)
 10026f4:	10800017 	ldw	r2,0(r2)
 10026f8:	1085883a 	add	r2,r2,r2
 10026fc:	1085883a 	add	r2,r2,r2
 1002700:	1885883a 	add	r2,r3,r2
 1002704:	e0bffc15 	stw	r2,-16(fp)
 1002708:	e13ffd04 	addi	r4,fp,-12
 100270c:	e17ffc04 	addi	r5,fp,-16
 1002710:	10026640 	call	1002664 <_ZN9__gnu_cxx17__normal_iteratorIPP8os_eventSt6vectorIS2_SaIS2_EEEC1ERKS3_>
 1002714:	e0bffd17 	ldw	r2,-12(fp)
 1002718:	e037883a 	mov	sp,fp
 100271c:	dfc00117 	ldw	ra,4(sp)
 1002720:	df000017 	ldw	fp,0(sp)
 1002724:	dec00204 	addi	sp,sp,8
 1002728:	f800283a 	ret

0100272c <_ZNSt6vectorIP8os_eventSaIS1_EEixEm>:
       *  Note that data access with this operator is unchecked and
       *  out_of_range lookups are not defined. (For checked lookups
       *  see at().)
       */
      reference
      operator[](size_type __n)
 100272c:	defff904 	addi	sp,sp,-28
 1002730:	dfc00615 	stw	ra,24(sp)
 1002734:	df000515 	stw	fp,20(sp)
 1002738:	df000504 	addi	fp,sp,20
 100273c:	e13ffe15 	stw	r4,-8(fp)
 1002740:	e17fff15 	stw	r5,-4(fp)
      { return *(begin() + __n); }
 1002744:	e13ffe17 	ldw	r4,-8(fp)
 1002748:	10026980 	call	1002698 <_ZNSt6vectorIP8os_eventSaIS1_EE5beginEv>
 100274c:	e0bffc15 	stw	r2,-16(fp)
 1002750:	e0bfff17 	ldw	r2,-4(fp)
 1002754:	e0bffb15 	stw	r2,-20(fp)
 1002758:	e13ffc04 	addi	r4,fp,-16
 100275c:	e17ffb04 	addi	r5,fp,-20
 1002760:	10026d00 	call	10026d0 <_ZNK9__gnu_cxx17__normal_iteratorIPP8os_eventSt6vectorIS2_SaIS2_EEEplERKl>
 1002764:	e0bffd15 	stw	r2,-12(fp)
 1002768:	e13ffd04 	addi	r4,fp,-12
 100276c:	10024980 	call	1002498 <_ZNK9__gnu_cxx17__normal_iteratorIPP8os_eventSt6vectorIS2_SaIS2_EEEdeEv>
 1002770:	e037883a 	mov	sp,fp
 1002774:	dfc00117 	ldw	ra,4(sp)
 1002778:	df000017 	ldw	fp,0(sp)
 100277c:	dec00204 	addi	sp,sp,8
 1002780:	f800283a 	ret

01002784 <_ZNSt6vectorIP8os_eventSaIS1_EE3endEv>:
       *  Returns a read/write iterator that points one past the last
       *  element in the %vector.  Iteration is done in ordinary
       *  element order.
       */
      iterator
      end()
 1002784:	defffc04 	addi	sp,sp,-16
 1002788:	dfc00315 	stw	ra,12(sp)
 100278c:	df000215 	stw	fp,8(sp)
 1002790:	df000204 	addi	fp,sp,8
 1002794:	e13fff15 	stw	r4,-4(fp)
      { return iterator (this->_M_impl._M_finish); }
 1002798:	e0bfff17 	ldw	r2,-4(fp)
 100279c:	11400104 	addi	r5,r2,4
 10027a0:	e13ffe04 	addi	r4,fp,-8
 10027a4:	10026640 	call	1002664 <_ZN9__gnu_cxx17__normal_iteratorIPP8os_eventSt6vectorIS2_SaIS2_EEEC1ERKS3_>
 10027a8:	e0bffe17 	ldw	r2,-8(fp)
 10027ac:	e037883a 	mov	sp,fp
 10027b0:	dfc00117 	ldw	ra,4(sp)
 10027b4:	df000017 	ldw	fp,0(sp)
 10027b8:	dec00204 	addi	sp,sp,8
 10027bc:	f800283a 	ret

010027c0 <_ZNKSt6vectorIP8os_eventSaIS1_EE8max_sizeEv>:
      size() const
      { return size_type(end() - begin()); }

      /**  Returns the size() of the largest possible %vector.  */
      size_type
      max_size() const
 10027c0:	defffe04 	addi	sp,sp,-8
 10027c4:	df000115 	stw	fp,4(sp)
 10027c8:	df000104 	addi	fp,sp,4
 10027cc:	e13fff15 	stw	r4,-4(fp)
      { return size_type(-1) / sizeof(value_type); }
 10027d0:	00900034 	movhi	r2,16384
 10027d4:	10bfffc4 	addi	r2,r2,-1
 10027d8:	e037883a 	mov	sp,fp
 10027dc:	df000017 	ldw	fp,0(sp)
 10027e0:	dec00104 	addi	sp,sp,4
 10027e4:	f800283a 	ret

010027e8 <_ZNK9__gnu_cxx17__normal_iteratorIPP8os_eventSt6vectorIS2_SaIS2_EEE4baseEv>:
      __normal_iterator
      operator-(const difference_type& __n) const
      { return __normal_iterator(_M_current - __n); }

      const _Iterator&
      base() const
 10027e8:	defffe04 	addi	sp,sp,-8
 10027ec:	df000115 	stw	fp,4(sp)
 10027f0:	df000104 	addi	fp,sp,4
 10027f4:	e13fff15 	stw	r4,-4(fp)
      { return _M_current; }
 10027f8:	e0bfff17 	ldw	r2,-4(fp)
 10027fc:	e037883a 	mov	sp,fp
 1002800:	df000017 	ldw	fp,0(sp)
 1002804:	dec00104 	addi	sp,sp,4
 1002808:	f800283a 	ret

0100280c <_ZN9__gnu_cxx17__normal_iteratorIPP8os_eventSt6vectorIS2_SaIS2_EEEppEv>:
      pointer
      operator->() const
      { return _M_current; }

      __normal_iterator&
      operator++()
 100280c:	defffe04 	addi	sp,sp,-8
 1002810:	df000115 	stw	fp,4(sp)
 1002814:	df000104 	addi	fp,sp,4
 1002818:	e13fff15 	stw	r4,-4(fp)
      {
	++_M_current;
 100281c:	e0bfff17 	ldw	r2,-4(fp)
 1002820:	10800017 	ldw	r2,0(r2)
 1002824:	10c00104 	addi	r3,r2,4
 1002828:	e0bfff17 	ldw	r2,-4(fp)
 100282c:	10c00015 	stw	r3,0(r2)
	return *this;
 1002830:	e0bfff17 	ldw	r2,-4(fp)
 1002834:	e037883a 	mov	sp,fp
 1002838:	df000017 	ldw	fp,0(sp)
 100283c:	dec00104 	addi	sp,sp,4
 1002840:	f800283a 	ret

01002844 <_ZSt13__destroy_auxIPcEvT_S1_11__true_type>:
   * This is a helper function used only by _Destroy().
   * @endif
   */
  template<typename _ForwardIterator>
    inline void
    __destroy_aux(_ForwardIterator, _ForwardIterator, __true_type)
 1002844:	defffc04 	addi	sp,sp,-16
 1002848:	df000315 	stw	fp,12(sp)
 100284c:	df000304 	addi	fp,sp,12
 1002850:	e13ffd15 	stw	r4,-12(fp)
 1002854:	e17ffe15 	stw	r5,-8(fp)
 1002858:	e1bfff05 	stb	r6,-4(fp)
    { }
 100285c:	e037883a 	mov	sp,fp
 1002860:	df000017 	ldw	fp,0(sp)
 1002864:	dec00104 	addi	sp,sp,4
 1002868:	f800283a 	ret

0100286c <_ZSt8_DestroyIPcEvT_S1_>:
   * away, otherwise the objects' destructors must be invoked.
   * @endif
   */
  template<typename _ForwardIterator>
    inline void
    _Destroy(_ForwardIterator __first, _ForwardIterator __last)
 100286c:	defffb04 	addi	sp,sp,-20
 1002870:	dfc00415 	stw	ra,16(sp)
 1002874:	df000315 	stw	fp,12(sp)
 1002878:	df000304 	addi	fp,sp,12
 100287c:	e13ffd15 	stw	r4,-12(fp)
 1002880:	e17ffe15 	stw	r5,-8(fp)
      typedef typename iterator_traits<_ForwardIterator>::value_type
                       _Value_type;
      typedef typename std::__is_scalar<_Value_type>::__type
	               _Has_trivial_destructor;

      std::__destroy_aux(__first, __last, _Has_trivial_destructor());
 1002884:	e13ffd17 	ldw	r4,-12(fp)
 1002888:	e17ffe17 	ldw	r5,-8(fp)
 100288c:	e1bfff03 	ldbu	r6,-4(fp)
 1002890:	10028440 	call	1002844 <_ZSt13__destroy_auxIPcEvT_S1_11__true_type>
 1002894:	e037883a 	mov	sp,fp
 1002898:	dfc00117 	ldw	ra,4(sp)
 100289c:	df000017 	ldw	fp,0(sp)
 10028a0:	dec00204 	addi	sp,sp,8
 10028a4:	f800283a 	ret

010028a8 <_ZSt8_DestroyIPccEvT_S1_SaIT0_E>:
    }

  template<typename _ForwardIterator, typename _Tp>
    inline void
    _Destroy(_ForwardIterator __first, _ForwardIterator __last,
	     allocator<_Tp>)
 10028a8:	defffb04 	addi	sp,sp,-20
 10028ac:	dfc00415 	stw	ra,16(sp)
 10028b0:	df000315 	stw	fp,12(sp)
 10028b4:	df000304 	addi	fp,sp,12
 10028b8:	e13ffd15 	stw	r4,-12(fp)
 10028bc:	e17ffe15 	stw	r5,-8(fp)
 10028c0:	e1bfff15 	stw	r6,-4(fp)
    {
      _Destroy(__first, __last);
 10028c4:	e13ffd17 	ldw	r4,-12(fp)
 10028c8:	e17ffe17 	ldw	r5,-8(fp)
 10028cc:	100286c0 	call	100286c <_ZSt8_DestroyIPcEvT_S1_>
 10028d0:	e037883a 	mov	sp,fp
 10028d4:	dfc00117 	ldw	ra,4(sp)
 10028d8:	df000017 	ldw	fp,0(sp)
 10028dc:	dec00204 	addi	sp,sp,8
 10028e0:	f800283a 	ret

010028e4 <_ZN9__gnu_cxx17__normal_iteratorIPKcSt6vectorIcSaIcEEEC1ERKS2_>:
      typedef typename iterator_traits<_Iterator>::pointer   pointer;

      __normal_iterator() : _M_current(_Iterator()) { }

      explicit
      __normal_iterator(const _Iterator& __i) : _M_current(__i) { }
 10028e4:	defffd04 	addi	sp,sp,-12
 10028e8:	df000215 	stw	fp,8(sp)
 10028ec:	df000204 	addi	fp,sp,8
 10028f0:	e13ffe15 	stw	r4,-8(fp)
 10028f4:	e17fff15 	stw	r5,-4(fp)
 10028f8:	e0bfff17 	ldw	r2,-4(fp)
 10028fc:	10c00017 	ldw	r3,0(r2)
 1002900:	e0bffe17 	ldw	r2,-8(fp)
 1002904:	10c00015 	stw	r3,0(r2)
 1002908:	e037883a 	mov	sp,fp
 100290c:	df000017 	ldw	fp,0(sp)
 1002910:	dec00104 	addi	sp,sp,4
 1002914:	f800283a 	ret

01002918 <_ZNKSt6vectorIcSaIcEE3endEv>:
       *  Returns a read-only (constant) iterator that points one past
       *  the last element in the %vector.  Iteration is done in
       *  ordinary element order.
       */
      const_iterator
      end() const
 1002918:	defffb04 	addi	sp,sp,-20
 100291c:	dfc00415 	stw	ra,16(sp)
 1002920:	df000315 	stw	fp,12(sp)
 1002924:	df000304 	addi	fp,sp,12
 1002928:	e13fff15 	stw	r4,-4(fp)
      { return const_iterator (this->_M_impl._M_finish); }
 100292c:	e0bfff17 	ldw	r2,-4(fp)
 1002930:	10800117 	ldw	r2,4(r2)
 1002934:	e0bffd15 	stw	r2,-12(fp)
 1002938:	e13ffe04 	addi	r4,fp,-8
 100293c:	e17ffd04 	addi	r5,fp,-12
 1002940:	10028e40 	call	10028e4 <_ZN9__gnu_cxx17__normal_iteratorIPKcSt6vectorIcSaIcEEEC1ERKS2_>
 1002944:	e0bffe17 	ldw	r2,-8(fp)
 1002948:	e037883a 	mov	sp,fp
 100294c:	dfc00117 	ldw	ra,4(sp)
 1002950:	df000017 	ldw	fp,0(sp)
 1002954:	dec00204 	addi	sp,sp,8
 1002958:	f800283a 	ret

0100295c <_ZNKSt6vectorIcSaIcEE5beginEv>:
       *  Returns a read-only (constant) iterator that points to the
       *  first element in the %vector.  Iteration is done in ordinary
       *  element order.
       */
      const_iterator
      begin() const
 100295c:	defffb04 	addi	sp,sp,-20
 1002960:	dfc00415 	stw	ra,16(sp)
 1002964:	df000315 	stw	fp,12(sp)
 1002968:	df000304 	addi	fp,sp,12
 100296c:	e13fff15 	stw	r4,-4(fp)
      { return const_iterator (this->_M_impl._M_start); }
 1002970:	e0bfff17 	ldw	r2,-4(fp)
 1002974:	10800017 	ldw	r2,0(r2)
 1002978:	e0bffd15 	stw	r2,-12(fp)
 100297c:	e13ffe04 	addi	r4,fp,-8
 1002980:	e17ffd04 	addi	r5,fp,-12
 1002984:	10028e40 	call	10028e4 <_ZN9__gnu_cxx17__normal_iteratorIPKcSt6vectorIcSaIcEEEC1ERKS2_>
 1002988:	e0bffe17 	ldw	r2,-8(fp)
 100298c:	e037883a 	mov	sp,fp
 1002990:	dfc00117 	ldw	ra,4(sp)
 1002994:	df000017 	ldw	fp,0(sp)
 1002998:	dec00204 	addi	sp,sp,8
 100299c:	f800283a 	ret

010029a0 <_ZNK9__gnu_cxx17__normal_iteratorIPKcSt6vectorIcSaIcEEE4baseEv>:
      __normal_iterator
      operator-(const difference_type& __n) const
      { return __normal_iterator(_M_current - __n); }

      const _Iterator&
      base() const
 10029a0:	defffe04 	addi	sp,sp,-8
 10029a4:	df000115 	stw	fp,4(sp)
 10029a8:	df000104 	addi	fp,sp,4
 10029ac:	e13fff15 	stw	r4,-4(fp)
      { return _M_current; }
 10029b0:	e0bfff17 	ldw	r2,-4(fp)
 10029b4:	e037883a 	mov	sp,fp
 10029b8:	df000017 	ldw	fp,0(sp)
 10029bc:	dec00104 	addi	sp,sp,4
 10029c0:	f800283a 	ret

010029c4 <_ZN9__gnu_cxxmiIPKcS2_St6vectorIcSaIcEEEENS_17__normal_iteratorIT_T1_E15difference_typeERKS9_RKNS6_IT0_S8_EE>:
  // operators but also operator- must accept mixed iterator/const_iterator
  // parameters.
  template<typename _IteratorL, typename _IteratorR, typename _Container>
    inline typename __normal_iterator<_IteratorL, _Container>::difference_type
    operator-(const __normal_iterator<_IteratorL, _Container>& __lhs,
	      const __normal_iterator<_IteratorR, _Container>& __rhs)
 10029c4:	defffb04 	addi	sp,sp,-20
 10029c8:	dfc00415 	stw	ra,16(sp)
 10029cc:	df000315 	stw	fp,12(sp)
 10029d0:	dc000215 	stw	r16,8(sp)
 10029d4:	df000204 	addi	fp,sp,8
 10029d8:	e13ffe15 	stw	r4,-8(fp)
 10029dc:	e17fff15 	stw	r5,-4(fp)
    { return __lhs.base() - __rhs.base(); }
 10029e0:	e13ffe17 	ldw	r4,-8(fp)
 10029e4:	10029a00 	call	10029a0 <_ZNK9__gnu_cxx17__normal_iteratorIPKcSt6vectorIcSaIcEEE4baseEv>
 10029e8:	10800017 	ldw	r2,0(r2)
 10029ec:	1021883a 	mov	r16,r2
 10029f0:	e13fff17 	ldw	r4,-4(fp)
 10029f4:	10029a00 	call	10029a0 <_ZNK9__gnu_cxx17__normal_iteratorIPKcSt6vectorIcSaIcEEE4baseEv>
 10029f8:	10800017 	ldw	r2,0(r2)
 10029fc:	8085c83a 	sub	r2,r16,r2
 1002a00:	e037883a 	mov	sp,fp
 1002a04:	dfc00217 	ldw	ra,8(sp)
 1002a08:	df000117 	ldw	fp,4(sp)
 1002a0c:	dc000017 	ldw	r16,0(sp)
 1002a10:	dec00304 	addi	sp,sp,12
 1002a14:	f800283a 	ret

01002a18 <_ZNKSt6vectorIcSaIcEE4sizeEv>:
      { return const_reverse_iterator(begin()); }

      // [23.2.4.2] capacity
      /**  Returns the number of elements in the %vector.  */
      size_type
      size() const
 1002a18:	defffb04 	addi	sp,sp,-20
 1002a1c:	dfc00415 	stw	ra,16(sp)
 1002a20:	df000315 	stw	fp,12(sp)
 1002a24:	df000304 	addi	fp,sp,12
 1002a28:	e13fff15 	stw	r4,-4(fp)
      { return size_type(end() - begin()); }
 1002a2c:	e13fff17 	ldw	r4,-4(fp)
 1002a30:	10029180 	call	1002918 <_ZNKSt6vectorIcSaIcEE3endEv>
 1002a34:	e0bffe15 	stw	r2,-8(fp)
 1002a38:	e13fff17 	ldw	r4,-4(fp)
 1002a3c:	100295c0 	call	100295c <_ZNKSt6vectorIcSaIcEE5beginEv>
 1002a40:	e0bffd15 	stw	r2,-12(fp)
 1002a44:	e13ffe04 	addi	r4,fp,-8
 1002a48:	e17ffd04 	addi	r5,fp,-12
 1002a4c:	10029c40 	call	10029c4 <_ZN9__gnu_cxxmiIPKcS2_St6vectorIcSaIcEEEENS_17__normal_iteratorIT_T1_E15difference_typeERKS9_RKNS6_IT0_S8_EE>
 1002a50:	e037883a 	mov	sp,fp
 1002a54:	dfc00117 	ldw	ra,4(sp)
 1002a58:	df000017 	ldw	fp,0(sp)
 1002a5c:	dec00204 	addi	sp,sp,8
 1002a60:	f800283a 	ret

01002a64 <_ZNK9__gnu_cxx13new_allocatorIcE8max_sizeEv>:
      void
      deallocate(pointer __p, size_type)
      { ::operator delete(__p); }

      size_type
      max_size() const throw() 
 1002a64:	defffe04 	addi	sp,sp,-8
 1002a68:	df000115 	stw	fp,4(sp)
 1002a6c:	df000104 	addi	fp,sp,4
 1002a70:	e13fff15 	stw	r4,-4(fp)
      { return size_t(-1) / sizeof(_Tp); }
 1002a74:	00bfffc4 	movi	r2,-1
 1002a78:	e037883a 	mov	sp,fp
 1002a7c:	df000017 	ldw	fp,0(sp)
 1002a80:	dec00104 	addi	sp,sp,4
 1002a84:	f800283a 	ret

01002a88 <_ZSt13__destroy_auxIN9__gnu_cxx17__normal_iteratorIPcSt6vectorIcSaIcEEEEEvT_S7_11__true_type>:
   * This is a helper function used only by _Destroy().
   * @endif
   */
  template<typename _ForwardIterator>
    inline void
    __destroy_aux(_ForwardIterator, _ForwardIterator, __true_type)
 1002a88:	defffc04 	addi	sp,sp,-16
 1002a8c:	df000315 	stw	fp,12(sp)
 1002a90:	df000304 	addi	fp,sp,12
 1002a94:	e13ffd15 	stw	r4,-12(fp)
 1002a98:	e17ffe15 	stw	r5,-8(fp)
 1002a9c:	e1bfff05 	stb	r6,-4(fp)
    { }
 1002aa0:	e037883a 	mov	sp,fp
 1002aa4:	df000017 	ldw	fp,0(sp)
 1002aa8:	dec00104 	addi	sp,sp,4
 1002aac:	f800283a 	ret

01002ab0 <_ZSt8_DestroyIN9__gnu_cxx17__normal_iteratorIPcSt6vectorIcSaIcEEEEEvT_S7_>:
   * away, otherwise the objects' destructors must be invoked.
   * @endif
   */
  template<typename _ForwardIterator>
    inline void
    _Destroy(_ForwardIterator __first, _ForwardIterator __last)
 1002ab0:	defffb04 	addi	sp,sp,-20
 1002ab4:	dfc00415 	stw	ra,16(sp)
 1002ab8:	df000315 	stw	fp,12(sp)
 1002abc:	df000304 	addi	fp,sp,12
 1002ac0:	e13ffd15 	stw	r4,-12(fp)
 1002ac4:	e17ffe15 	stw	r5,-8(fp)
      typedef typename iterator_traits<_ForwardIterator>::value_type
                       _Value_type;
      typedef typename std::__is_scalar<_Value_type>::__type
	               _Has_trivial_destructor;

      std::__destroy_aux(__first, __last, _Has_trivial_destructor());
 1002ac8:	e13ffd17 	ldw	r4,-12(fp)
 1002acc:	e17ffe17 	ldw	r5,-8(fp)
 1002ad0:	e1bfff03 	ldbu	r6,-4(fp)
 1002ad4:	1002a880 	call	1002a88 <_ZSt13__destroy_auxIN9__gnu_cxx17__normal_iteratorIPcSt6vectorIcSaIcEEEEEvT_S7_11__true_type>
 1002ad8:	e037883a 	mov	sp,fp
 1002adc:	dfc00117 	ldw	ra,4(sp)
 1002ae0:	df000017 	ldw	fp,0(sp)
 1002ae4:	dec00204 	addi	sp,sp,8
 1002ae8:	f800283a 	ret

01002aec <_ZSt8_DestroyIN9__gnu_cxx17__normal_iteratorIPcSt6vectorIcSaIcEEEEcEvT_S7_SaIT0_E>:
    }

  template<typename _ForwardIterator, typename _Tp>
    inline void
    _Destroy(_ForwardIterator __first, _ForwardIterator __last,
	     allocator<_Tp>)
 1002aec:	defffb04 	addi	sp,sp,-20
 1002af0:	dfc00415 	stw	ra,16(sp)
 1002af4:	df000315 	stw	fp,12(sp)
 1002af8:	df000304 	addi	fp,sp,12
 1002afc:	e13ffd15 	stw	r4,-12(fp)
 1002b00:	e17ffe15 	stw	r5,-8(fp)
 1002b04:	e1bfff15 	stw	r6,-4(fp)
    {
      _Destroy(__first, __last);
 1002b08:	e13ffd17 	ldw	r4,-12(fp)
 1002b0c:	e17ffe17 	ldw	r5,-8(fp)
 1002b10:	1002ab00 	call	1002ab0 <_ZSt8_DestroyIN9__gnu_cxx17__normal_iteratorIPcSt6vectorIcSaIcEEEEEvT_S7_>
 1002b14:	e037883a 	mov	sp,fp
 1002b18:	dfc00117 	ldw	ra,4(sp)
 1002b1c:	df000017 	ldw	fp,0(sp)
 1002b20:	dec00204 	addi	sp,sp,8
 1002b24:	f800283a 	ret

01002b28 <_ZN9__gnu_cxx17__normal_iteratorIPKP8os_eventSt6vectorIS2_SaIS2_EEEC1ERKS4_>:
      typedef typename iterator_traits<_Iterator>::pointer   pointer;

      __normal_iterator() : _M_current(_Iterator()) { }

      explicit
      __normal_iterator(const _Iterator& __i) : _M_current(__i) { }
 1002b28:	defffd04 	addi	sp,sp,-12
 1002b2c:	df000215 	stw	fp,8(sp)
 1002b30:	df000204 	addi	fp,sp,8
 1002b34:	e13ffe15 	stw	r4,-8(fp)
 1002b38:	e17fff15 	stw	r5,-4(fp)
 1002b3c:	e0bfff17 	ldw	r2,-4(fp)
 1002b40:	10c00017 	ldw	r3,0(r2)
 1002b44:	e0bffe17 	ldw	r2,-8(fp)
 1002b48:	10c00015 	stw	r3,0(r2)
 1002b4c:	e037883a 	mov	sp,fp
 1002b50:	df000017 	ldw	fp,0(sp)
 1002b54:	dec00104 	addi	sp,sp,4
 1002b58:	f800283a 	ret

01002b5c <_ZNKSt6vectorIP8os_eventSaIS1_EE3endEv>:
       *  Returns a read-only (constant) iterator that points one past
       *  the last element in the %vector.  Iteration is done in
       *  ordinary element order.
       */
      const_iterator
      end() const
 1002b5c:	defffb04 	addi	sp,sp,-20
 1002b60:	dfc00415 	stw	ra,16(sp)
 1002b64:	df000315 	stw	fp,12(sp)
 1002b68:	df000304 	addi	fp,sp,12
 1002b6c:	e13fff15 	stw	r4,-4(fp)
      { return const_iterator (this->_M_impl._M_finish); }
 1002b70:	e0bfff17 	ldw	r2,-4(fp)
 1002b74:	10800117 	ldw	r2,4(r2)
 1002b78:	e0bffd15 	stw	r2,-12(fp)
 1002b7c:	e13ffe04 	addi	r4,fp,-8
 1002b80:	e17ffd04 	addi	r5,fp,-12
 1002b84:	1002b280 	call	1002b28 <_ZN9__gnu_cxx17__normal_iteratorIPKP8os_eventSt6vectorIS2_SaIS2_EEEC1ERKS4_>
 1002b88:	e0bffe17 	ldw	r2,-8(fp)
 1002b8c:	e037883a 	mov	sp,fp
 1002b90:	dfc00117 	ldw	ra,4(sp)
 1002b94:	df000017 	ldw	fp,0(sp)
 1002b98:	dec00204 	addi	sp,sp,8
 1002b9c:	f800283a 	ret

01002ba0 <_ZNKSt6vectorIP8os_eventSaIS1_EE5beginEv>:
       *  Returns a read-only (constant) iterator that points to the
       *  first element in the %vector.  Iteration is done in ordinary
       *  element order.
       */
      const_iterator
      begin() const
 1002ba0:	defffb04 	addi	sp,sp,-20
 1002ba4:	dfc00415 	stw	ra,16(sp)
 1002ba8:	df000315 	stw	fp,12(sp)
 1002bac:	df000304 	addi	fp,sp,12
 1002bb0:	e13fff15 	stw	r4,-4(fp)
      { return const_iterator (this->_M_impl._M_start); }
 1002bb4:	e0bfff17 	ldw	r2,-4(fp)
 1002bb8:	10800017 	ldw	r2,0(r2)
 1002bbc:	e0bffd15 	stw	r2,-12(fp)
 1002bc0:	e13ffe04 	addi	r4,fp,-8
 1002bc4:	e17ffd04 	addi	r5,fp,-12
 1002bc8:	1002b280 	call	1002b28 <_ZN9__gnu_cxx17__normal_iteratorIPKP8os_eventSt6vectorIS2_SaIS2_EEEC1ERKS4_>
 1002bcc:	e0bffe17 	ldw	r2,-8(fp)
 1002bd0:	e037883a 	mov	sp,fp
 1002bd4:	dfc00117 	ldw	ra,4(sp)
 1002bd8:	df000017 	ldw	fp,0(sp)
 1002bdc:	dec00204 	addi	sp,sp,8
 1002be0:	f800283a 	ret

01002be4 <_ZNK9__gnu_cxx17__normal_iteratorIPKP8os_eventSt6vectorIS2_SaIS2_EEE4baseEv>:
      __normal_iterator
      operator-(const difference_type& __n) const
      { return __normal_iterator(_M_current - __n); }

      const _Iterator&
      base() const
 1002be4:	defffe04 	addi	sp,sp,-8
 1002be8:	df000115 	stw	fp,4(sp)
 1002bec:	df000104 	addi	fp,sp,4
 1002bf0:	e13fff15 	stw	r4,-4(fp)
      { return _M_current; }
 1002bf4:	e0bfff17 	ldw	r2,-4(fp)
 1002bf8:	e037883a 	mov	sp,fp
 1002bfc:	df000017 	ldw	fp,0(sp)
 1002c00:	dec00104 	addi	sp,sp,4
 1002c04:	f800283a 	ret

01002c08 <_ZN9__gnu_cxxmiIPKP8os_eventS4_St6vectorIS2_SaIS2_EEEENS_17__normal_iteratorIT_T1_E15difference_typeERKSB_RKNS8_IT0_SA_EE>:
  // operators but also operator- must accept mixed iterator/const_iterator
  // parameters.
  template<typename _IteratorL, typename _IteratorR, typename _Container>
    inline typename __normal_iterator<_IteratorL, _Container>::difference_type
    operator-(const __normal_iterator<_IteratorL, _Container>& __lhs,
	      const __normal_iterator<_IteratorR, _Container>& __rhs)
 1002c08:	defffb04 	addi	sp,sp,-20
 1002c0c:	dfc00415 	stw	ra,16(sp)
 1002c10:	df000315 	stw	fp,12(sp)
 1002c14:	dc000215 	stw	r16,8(sp)
 1002c18:	df000204 	addi	fp,sp,8
 1002c1c:	e13ffe15 	stw	r4,-8(fp)
 1002c20:	e17fff15 	stw	r5,-4(fp)
    { return __lhs.base() - __rhs.base(); }
 1002c24:	e13ffe17 	ldw	r4,-8(fp)
 1002c28:	1002be40 	call	1002be4 <_ZNK9__gnu_cxx17__normal_iteratorIPKP8os_eventSt6vectorIS2_SaIS2_EEE4baseEv>
 1002c2c:	10800017 	ldw	r2,0(r2)
 1002c30:	1021883a 	mov	r16,r2
 1002c34:	e13fff17 	ldw	r4,-4(fp)
 1002c38:	1002be40 	call	1002be4 <_ZNK9__gnu_cxx17__normal_iteratorIPKP8os_eventSt6vectorIS2_SaIS2_EEE4baseEv>
 1002c3c:	10800017 	ldw	r2,0(r2)
 1002c40:	8085c83a 	sub	r2,r16,r2
 1002c44:	1005d0ba 	srai	r2,r2,2
 1002c48:	e037883a 	mov	sp,fp
 1002c4c:	dfc00217 	ldw	ra,8(sp)
 1002c50:	df000117 	ldw	fp,4(sp)
 1002c54:	dc000017 	ldw	r16,0(sp)
 1002c58:	dec00304 	addi	sp,sp,12
 1002c5c:	f800283a 	ret

01002c60 <_ZNKSt6vectorIP8os_eventSaIS1_EE4sizeEv>:
      { return const_reverse_iterator(begin()); }

      // [23.2.4.2] capacity
      /**  Returns the number of elements in the %vector.  */
      size_type
      size() const
 1002c60:	defffb04 	addi	sp,sp,-20
 1002c64:	dfc00415 	stw	ra,16(sp)
 1002c68:	df000315 	stw	fp,12(sp)
 1002c6c:	df000304 	addi	fp,sp,12
 1002c70:	e13fff15 	stw	r4,-4(fp)
      { return size_type(end() - begin()); }
 1002c74:	e13fff17 	ldw	r4,-4(fp)
 1002c78:	1002b5c0 	call	1002b5c <_ZNKSt6vectorIP8os_eventSaIS1_EE3endEv>
 1002c7c:	e0bffe15 	stw	r2,-8(fp)
 1002c80:	e13fff17 	ldw	r4,-4(fp)
 1002c84:	1002ba00 	call	1002ba0 <_ZNKSt6vectorIP8os_eventSaIS1_EE5beginEv>
 1002c88:	e0bffd15 	stw	r2,-12(fp)
 1002c8c:	e13ffe04 	addi	r4,fp,-8
 1002c90:	e17ffd04 	addi	r5,fp,-12
 1002c94:	1002c080 	call	1002c08 <_ZN9__gnu_cxxmiIPKP8os_eventS4_St6vectorIS2_SaIS2_EEEENS_17__normal_iteratorIT_T1_E15difference_typeERKSB_RKNS8_IT0_SA_EE>
 1002c98:	e037883a 	mov	sp,fp
 1002c9c:	dfc00117 	ldw	ra,4(sp)
 1002ca0:	df000017 	ldw	fp,0(sp)
 1002ca4:	dec00204 	addi	sp,sp,8
 1002ca8:	f800283a 	ret

01002cac <_ZNK9__gnu_cxx13new_allocatorIP8os_eventE8max_sizeEv>:
      void
      deallocate(pointer __p, size_type)
      { ::operator delete(__p); }

      size_type
      max_size() const throw() 
 1002cac:	defffe04 	addi	sp,sp,-8
 1002cb0:	df000115 	stw	fp,4(sp)
 1002cb4:	df000104 	addi	fp,sp,4
 1002cb8:	e13fff15 	stw	r4,-4(fp)
      { return size_t(-1) / sizeof(_Tp); }
 1002cbc:	00900034 	movhi	r2,16384
 1002cc0:	10bfffc4 	addi	r2,r2,-1
 1002cc4:	e037883a 	mov	sp,fp
 1002cc8:	df000017 	ldw	fp,0(sp)
 1002ccc:	dec00104 	addi	sp,sp,4
 1002cd0:	f800283a 	ret

01002cd4 <_ZSt13__destroy_auxIN9__gnu_cxx17__normal_iteratorIPP8os_eventSt6vectorIS3_SaIS3_EEEEEvT_S9_11__true_type>:
   * This is a helper function used only by _Destroy().
   * @endif
   */
  template<typename _ForwardIterator>
    inline void
    __destroy_aux(_ForwardIterator, _ForwardIterator, __true_type)
 1002cd4:	defffc04 	addi	sp,sp,-16
 1002cd8:	df000315 	stw	fp,12(sp)
 1002cdc:	df000304 	addi	fp,sp,12
 1002ce0:	e13ffd15 	stw	r4,-12(fp)
 1002ce4:	e17ffe15 	stw	r5,-8(fp)
 1002ce8:	e1bfff05 	stb	r6,-4(fp)
    { }
 1002cec:	e037883a 	mov	sp,fp
 1002cf0:	df000017 	ldw	fp,0(sp)
 1002cf4:	dec00104 	addi	sp,sp,4
 1002cf8:	f800283a 	ret

01002cfc <_ZSt8_DestroyIN9__gnu_cxx17__normal_iteratorIPP8os_eventSt6vectorIS3_SaIS3_EEEEEvT_S9_>:
   * away, otherwise the objects' destructors must be invoked.
   * @endif
   */
  template<typename _ForwardIterator>
    inline void
    _Destroy(_ForwardIterator __first, _ForwardIterator __last)
 1002cfc:	defffb04 	addi	sp,sp,-20
 1002d00:	dfc00415 	stw	ra,16(sp)
 1002d04:	df000315 	stw	fp,12(sp)
 1002d08:	df000304 	addi	fp,sp,12
 1002d0c:	e13ffd15 	stw	r4,-12(fp)
 1002d10:	e17ffe15 	stw	r5,-8(fp)
      typedef typename iterator_traits<_ForwardIterator>::value_type
                       _Value_type;
      typedef typename std::__is_scalar<_Value_type>::__type
	               _Has_trivial_destructor;

      std::__destroy_aux(__first, __last, _Has_trivial_destructor());
 1002d14:	e13ffd17 	ldw	r4,-12(fp)
 1002d18:	e17ffe17 	ldw	r5,-8(fp)
 1002d1c:	e1bfff03 	ldbu	r6,-4(fp)
 1002d20:	1002cd40 	call	1002cd4 <_ZSt13__destroy_auxIN9__gnu_cxx17__normal_iteratorIPP8os_eventSt6vectorIS3_SaIS3_EEEEEvT_S9_11__true_type>
 1002d24:	e037883a 	mov	sp,fp
 1002d28:	dfc00117 	ldw	ra,4(sp)
 1002d2c:	df000017 	ldw	fp,0(sp)
 1002d30:	dec00204 	addi	sp,sp,8
 1002d34:	f800283a 	ret

01002d38 <_ZSt8_DestroyIN9__gnu_cxx17__normal_iteratorIPP8os_eventSt6vectorIS3_SaIS3_EEEES3_EvT_S9_SaIT0_E>:
    }

  template<typename _ForwardIterator, typename _Tp>
    inline void
    _Destroy(_ForwardIterator __first, _ForwardIterator __last,
	     allocator<_Tp>)
 1002d38:	defffb04 	addi	sp,sp,-20
 1002d3c:	dfc00415 	stw	ra,16(sp)
 1002d40:	df000315 	stw	fp,12(sp)
 1002d44:	df000304 	addi	fp,sp,12
 1002d48:	e13ffd15 	stw	r4,-12(fp)
 1002d4c:	e17ffe15 	stw	r5,-8(fp)
 1002d50:	e1bfff15 	stw	r6,-4(fp)
    {
      _Destroy(__first, __last);
 1002d54:	e13ffd17 	ldw	r4,-12(fp)
 1002d58:	e17ffe17 	ldw	r5,-8(fp)
 1002d5c:	1002cfc0 	call	1002cfc <_ZSt8_DestroyIN9__gnu_cxx17__normal_iteratorIPP8os_eventSt6vectorIS3_SaIS3_EEEEEvT_S9_>
 1002d60:	e037883a 	mov	sp,fp
 1002d64:	dfc00117 	ldw	ra,4(sp)
 1002d68:	df000017 	ldw	fp,0(sp)
 1002d6c:	dec00204 	addi	sp,sp,8
 1002d70:	f800283a 	ret

01002d74 <_ZN9__gnu_cxx13new_allocatorIcE10deallocateEPcm>:
	return static_cast<_Tp*>(::operator new(__n * sizeof(_Tp)));
      }

      // __p is not permitted to be a null pointer.
      void
      deallocate(pointer __p, size_type)
 1002d74:	defffb04 	addi	sp,sp,-20
 1002d78:	dfc00415 	stw	ra,16(sp)
 1002d7c:	df000315 	stw	fp,12(sp)
 1002d80:	df000304 	addi	fp,sp,12
 1002d84:	e13ffd15 	stw	r4,-12(fp)
 1002d88:	e17ffe15 	stw	r5,-8(fp)
 1002d8c:	e1bfff15 	stw	r6,-4(fp)
      { ::operator delete(__p); }
 1002d90:	e13ffe17 	ldw	r4,-8(fp)
 1002d94:	100d8100 	call	100d810 <_ZdlPv>
 1002d98:	e037883a 	mov	sp,fp
 1002d9c:	dfc00117 	ldw	ra,4(sp)
 1002da0:	df000017 	ldw	fp,0(sp)
 1002da4:	dec00204 	addi	sp,sp,8
 1002da8:	f800283a 	ret

01002dac <_ZNSt12_Vector_baseIcSaIcEE13_M_deallocateEPcm>:
      _Tp*
      _M_allocate(size_t __n)
      { return _M_impl.allocate(__n); }

      void
      _M_deallocate(_Tp* __p, size_t __n)
 1002dac:	defffb04 	addi	sp,sp,-20
 1002db0:	dfc00415 	stw	ra,16(sp)
 1002db4:	df000315 	stw	fp,12(sp)
 1002db8:	df000304 	addi	fp,sp,12
 1002dbc:	e13ffd15 	stw	r4,-12(fp)
 1002dc0:	e17ffe15 	stw	r5,-8(fp)
 1002dc4:	e1bfff15 	stw	r6,-4(fp)
      {
	if (__p)
 1002dc8:	e0bffe17 	ldw	r2,-8(fp)
 1002dcc:	1005003a 	cmpeq	r2,r2,zero
 1002dd0:	1000051e 	bne	r2,zero,1002de8 <_ZNSt12_Vector_baseIcSaIcEE13_M_deallocateEPcm+0x3c>
	  _M_impl.deallocate(__p, __n);
 1002dd4:	e0bffd17 	ldw	r2,-12(fp)
 1002dd8:	1009883a 	mov	r4,r2
 1002ddc:	e17ffe17 	ldw	r5,-8(fp)
 1002de0:	e1bfff17 	ldw	r6,-4(fp)
 1002de4:	1002d740 	call	1002d74 <_ZN9__gnu_cxx13new_allocatorIcE10deallocateEPcm>
 1002de8:	e037883a 	mov	sp,fp
 1002dec:	dfc00117 	ldw	ra,4(sp)
 1002df0:	df000017 	ldw	fp,0(sp)
 1002df4:	dec00204 	addi	sp,sp,8
 1002df8:	f800283a 	ret

01002dfc <_ZNSt12_Vector_baseIcSaIcEED2Ev>:
	this->_M_impl._M_start = this->_M_allocate(__n);
	this->_M_impl._M_finish = this->_M_impl._M_start;
	this->_M_impl._M_end_of_storage = this->_M_impl._M_start + __n;
      }

      ~_Vector_base()
 1002dfc:	defffd04 	addi	sp,sp,-12
 1002e00:	dfc00215 	stw	ra,8(sp)
 1002e04:	df000115 	stw	fp,4(sp)
 1002e08:	df000104 	addi	fp,sp,4
 1002e0c:	e13fff15 	stw	r4,-4(fp)
      { _M_deallocate(this->_M_impl._M_start, this->_M_impl._M_end_of_storage
 1002e10:	e0bfff17 	ldw	r2,-4(fp)
 1002e14:	11400017 	ldw	r5,0(r2)
 1002e18:	e0bfff17 	ldw	r2,-4(fp)
 1002e1c:	10800217 	ldw	r2,8(r2)
 1002e20:	1007883a 	mov	r3,r2
 1002e24:	e0bfff17 	ldw	r2,-4(fp)
 1002e28:	10800017 	ldw	r2,0(r2)
 1002e2c:	1885c83a 	sub	r2,r3,r2
 1002e30:	100d883a 	mov	r6,r2
 1002e34:	e13fff17 	ldw	r4,-4(fp)
 1002e38:	1002dac0 	call	1002dac <_ZNSt12_Vector_baseIcSaIcEE13_M_deallocateEPcm>
 1002e3c:	e13fff17 	ldw	r4,-4(fp)
 1002e40:	10021180 	call	1002118 <_ZNSt12_Vector_baseIcSaIcEE12_Vector_implD1Ev>
 1002e44:	e037883a 	mov	sp,fp
 1002e48:	dfc00117 	ldw	ra,4(sp)
 1002e4c:	df000017 	ldw	fp,0(sp)
 1002e50:	dec00204 	addi	sp,sp,8
 1002e54:	f800283a 	ret

01002e58 <_ZN9__gnu_cxx13new_allocatorIP8os_eventE10deallocateEPS2_m>:
	return static_cast<_Tp*>(::operator new(__n * sizeof(_Tp)));
      }

      // __p is not permitted to be a null pointer.
      void
      deallocate(pointer __p, size_type)
 1002e58:	defffb04 	addi	sp,sp,-20
 1002e5c:	dfc00415 	stw	ra,16(sp)
 1002e60:	df000315 	stw	fp,12(sp)
 1002e64:	df000304 	addi	fp,sp,12
 1002e68:	e13ffd15 	stw	r4,-12(fp)
 1002e6c:	e17ffe15 	stw	r5,-8(fp)
 1002e70:	e1bfff15 	stw	r6,-4(fp)
      { ::operator delete(__p); }
 1002e74:	e13ffe17 	ldw	r4,-8(fp)
 1002e78:	100d8100 	call	100d810 <_ZdlPv>
 1002e7c:	e037883a 	mov	sp,fp
 1002e80:	dfc00117 	ldw	ra,4(sp)
 1002e84:	df000017 	ldw	fp,0(sp)
 1002e88:	dec00204 	addi	sp,sp,8
 1002e8c:	f800283a 	ret

01002e90 <_ZNSt12_Vector_baseIP8os_eventSaIS1_EE13_M_deallocateEPS1_m>:
      _Tp*
      _M_allocate(size_t __n)
      { return _M_impl.allocate(__n); }

      void
      _M_deallocate(_Tp* __p, size_t __n)
 1002e90:	defffb04 	addi	sp,sp,-20
 1002e94:	dfc00415 	stw	ra,16(sp)
 1002e98:	df000315 	stw	fp,12(sp)
 1002e9c:	df000304 	addi	fp,sp,12
 1002ea0:	e13ffd15 	stw	r4,-12(fp)
 1002ea4:	e17ffe15 	stw	r5,-8(fp)
 1002ea8:	e1bfff15 	stw	r6,-4(fp)
      {
	if (__p)
 1002eac:	e0bffe17 	ldw	r2,-8(fp)
 1002eb0:	1005003a 	cmpeq	r2,r2,zero
 1002eb4:	1000051e 	bne	r2,zero,1002ecc <_ZNSt12_Vector_baseIP8os_eventSaIS1_EE13_M_deallocateEPS1_m+0x3c>
	  _M_impl.deallocate(__p, __n);
 1002eb8:	e0bffd17 	ldw	r2,-12(fp)
 1002ebc:	1009883a 	mov	r4,r2
 1002ec0:	e17ffe17 	ldw	r5,-8(fp)
 1002ec4:	e1bfff17 	ldw	r6,-4(fp)
 1002ec8:	1002e580 	call	1002e58 <_ZN9__gnu_cxx13new_allocatorIP8os_eventE10deallocateEPS2_m>
 1002ecc:	e037883a 	mov	sp,fp
 1002ed0:	dfc00117 	ldw	ra,4(sp)
 1002ed4:	df000017 	ldw	fp,0(sp)
 1002ed8:	dec00204 	addi	sp,sp,8
 1002edc:	f800283a 	ret

01002ee0 <_ZNSt6vectorIcSaIcEED1Ev>:
       *  The dtor only erases the elements, and note that if the
       *  elements themselves are pointers, the pointed-to memory is
       *  not touched in any way.  Managing the pointer is the user's
       *  responsibilty.
       */
      ~vector()
 1002ee0:	defffa04 	addi	sp,sp,-24
 1002ee4:	dfc00515 	stw	ra,20(sp)
 1002ee8:	df000415 	stw	fp,16(sp)
 1002eec:	dc400315 	stw	r17,12(sp)
 1002ef0:	dc000215 	stw	r16,8(sp)
 1002ef4:	df000204 	addi	fp,sp,8
 1002ef8:	e13fff15 	stw	r4,-4(fp)
      { std::_Destroy(this->_M_impl._M_start, this->_M_impl._M_finish,
 1002efc:	e0bfff17 	ldw	r2,-4(fp)
 1002f00:	14000017 	ldw	r16,0(r2)
 1002f04:	e0bfff17 	ldw	r2,-4(fp)
 1002f08:	14400117 	ldw	r17,4(r2)
 1002f0c:	e13fff17 	ldw	r4,-4(fp)
 1002f10:	10021480 	call	1002148 <_ZNSt12_Vector_baseIcSaIcEE19_M_get_Tp_allocatorEv>
 1002f14:	100b883a 	mov	r5,r2
 1002f18:	e13ffe04 	addi	r4,fp,-8
 1002f1c:	1007cc00 	call	1007cc0 <_ZNSaIcEC1ERKS_>
 1002f20:	8009883a 	mov	r4,r16
 1002f24:	880b883a 	mov	r5,r17
 1002f28:	e1bffe04 	addi	r6,fp,-8
 1002f2c:	10028a80 	call	10028a8 <_ZSt8_DestroyIPccEvT_S1_SaIT0_E>
 1002f30:	e13ffe04 	addi	r4,fp,-8
 1002f34:	1007cd00 	call	1007cd0 <_ZNSaIcED1Ev>
 1002f38:	e13fff17 	ldw	r4,-4(fp)
 1002f3c:	1002dfc0 	call	1002dfc <_ZNSt12_Vector_baseIcSaIcEED2Ev>
 1002f40:	e037883a 	mov	sp,fp
 1002f44:	dfc00317 	ldw	ra,12(sp)
 1002f48:	df000217 	ldw	fp,8(sp)
 1002f4c:	dc400117 	ldw	r17,4(sp)
 1002f50:	dc000017 	ldw	r16,0(sp)
 1002f54:	dec00404 	addi	sp,sp,16
 1002f58:	f800283a 	ret

01002f5c <_ZNSt15__copy_backwardILb1ESt26random_access_iterator_tagE6copy_bIcEEPT_PKS3_S6_S4_>:
  template<>
    struct __copy_backward<true, random_access_iterator_tag>
    {
      template<typename _Tp>
        static _Tp*
        copy_b(const _Tp* __first, const _Tp* __last, _Tp* __result)
 1002f5c:	defffa04 	addi	sp,sp,-24
 1002f60:	dfc00515 	stw	ra,20(sp)
 1002f64:	df000415 	stw	fp,16(sp)
 1002f68:	df000404 	addi	fp,sp,16
 1002f6c:	e13ffd15 	stw	r4,-12(fp)
 1002f70:	e17ffe15 	stw	r5,-8(fp)
 1002f74:	e1bfff15 	stw	r6,-4(fp)
        { 
	  const ptrdiff_t _Num = __last - __first;
 1002f78:	e0fffe17 	ldw	r3,-8(fp)
 1002f7c:	e0bffd17 	ldw	r2,-12(fp)
 1002f80:	1885c83a 	sub	r2,r3,r2
 1002f84:	e0bffc15 	stw	r2,-16(fp)
	  std::memmove(__result - _Num, __first, sizeof(_Tp) * _Num);
 1002f88:	e0bffc17 	ldw	r2,-16(fp)
 1002f8c:	1007883a 	mov	r3,r2
 1002f90:	e0bfff17 	ldw	r2,-4(fp)
 1002f94:	10c9c83a 	sub	r4,r2,r3
 1002f98:	e1bffc17 	ldw	r6,-16(fp)
 1002f9c:	e17ffd17 	ldw	r5,-12(fp)
 1002fa0:	100edec0 	call	100edec <memmove>
	  return __result - _Num;
 1002fa4:	e0bffc17 	ldw	r2,-16(fp)
 1002fa8:	1007883a 	mov	r3,r2
 1002fac:	e0bfff17 	ldw	r2,-4(fp)
 1002fb0:	10c5c83a 	sub	r2,r2,r3
 1002fb4:	e037883a 	mov	sp,fp
 1002fb8:	dfc00117 	ldw	ra,4(sp)
 1002fbc:	df000017 	ldw	fp,0(sp)
 1002fc0:	dec00204 	addi	sp,sp,8
 1002fc4:	f800283a 	ret

01002fc8 <_ZSt19__copy_backward_auxIPcS0_ET0_T_S2_S1_>:
	}
    };

  template<typename _BI1, typename _BI2>
    inline _BI2
    __copy_backward_aux(_BI1 __first, _BI1 __last, _BI2 __result)
 1002fc8:	defffa04 	addi	sp,sp,-24
 1002fcc:	dfc00515 	stw	ra,20(sp)
 1002fd0:	df000415 	stw	fp,16(sp)
 1002fd4:	df000404 	addi	fp,sp,16
 1002fd8:	e13ffd15 	stw	r4,-12(fp)
 1002fdc:	e17ffe15 	stw	r5,-8(fp)
 1002fe0:	e1bfff15 	stw	r6,-4(fp)
      typedef typename iterator_traits<_BI2>::value_type _ValueType2;
      typedef typename iterator_traits<_BI1>::iterator_category _Category;
      const bool __simple = (__is_scalar<_ValueType1>::__value
	                     && __is_pointer<_BI1>::__value
	                     && __is_pointer<_BI2>::__value
			     && __are_same<_ValueType1, _ValueType2>::__value);
 1002fe4:	00800044 	movi	r2,1
 1002fe8:	e0bffc05 	stb	r2,-16(fp)

      return std::__copy_backward<__simple, _Category>::copy_b(__first, __last,
							       __result);
 1002fec:	e13ffd17 	ldw	r4,-12(fp)
 1002ff0:	e17ffe17 	ldw	r5,-8(fp)
 1002ff4:	e1bfff17 	ldw	r6,-4(fp)
 1002ff8:	1002f5c0 	call	1002f5c <_ZNSt15__copy_backwardILb1ESt26random_access_iterator_tagE6copy_bIcEEPT_PKS3_S6_S4_>
 1002ffc:	e037883a 	mov	sp,fp
 1003000:	dfc00117 	ldw	ra,4(sp)
 1003004:	df000017 	ldw	fp,0(sp)
 1003008:	dec00204 	addi	sp,sp,8
 100300c:	f800283a 	ret

01003010 <_ZNSt22__copy_backward_normalILb1ELb1EE8copy_b_nIN9__gnu_cxx17__normal_iteratorIPcSt6vectorIcSaIcEEEES8_EET0_T_SA_S9_>:
  template<>
    struct __copy_backward_normal<true, true>
    {
      template<typename _BI1, typename _BI2>
        static _BI2
        copy_b_n(_BI1 __first, _BI1 __last, _BI2 __result)
 1003010:	defff704 	addi	sp,sp,-36
 1003014:	dfc00815 	stw	ra,32(sp)
 1003018:	df000715 	stw	fp,28(sp)
 100301c:	dc400615 	stw	r17,24(sp)
 1003020:	dc000515 	stw	r16,20(sp)
 1003024:	df000504 	addi	fp,sp,20
 1003028:	e13ffd15 	stw	r4,-12(fp)
 100302c:	e17ffe15 	stw	r5,-8(fp)
 1003030:	e1bfff15 	stw	r6,-4(fp)
        { return _BI2(std::__copy_backward_aux(__first.base(), __last.base(),
					       __result.base())); }
 1003034:	e13ffd04 	addi	r4,fp,-12
 1003038:	10024240 	call	1002424 <_ZNK9__gnu_cxx17__normal_iteratorIPcSt6vectorIcSaIcEEE4baseEv>
 100303c:	14400017 	ldw	r17,0(r2)
 1003040:	e13ffe04 	addi	r4,fp,-8
 1003044:	10024240 	call	1002424 <_ZNK9__gnu_cxx17__normal_iteratorIPcSt6vectorIcSaIcEEE4baseEv>
 1003048:	14000017 	ldw	r16,0(r2)
 100304c:	e13fff04 	addi	r4,fp,-4
 1003050:	10024240 	call	1002424 <_ZNK9__gnu_cxx17__normal_iteratorIPcSt6vectorIcSaIcEEE4baseEv>
 1003054:	11800017 	ldw	r6,0(r2)
 1003058:	8809883a 	mov	r4,r17
 100305c:	800b883a 	mov	r5,r16
 1003060:	1002fc80 	call	1002fc8 <_ZSt19__copy_backward_auxIPcS0_ET0_T_S2_S1_>
 1003064:	e0bffb15 	stw	r2,-20(fp)
 1003068:	e13ffc04 	addi	r4,fp,-16
 100306c:	e17ffb04 	addi	r5,fp,-20
 1003070:	100237c0 	call	100237c <_ZN9__gnu_cxx17__normal_iteratorIPcSt6vectorIcSaIcEEEC1ERKS1_>
 1003074:	e0bffc17 	ldw	r2,-16(fp)
 1003078:	e037883a 	mov	sp,fp
 100307c:	dfc00317 	ldw	ra,12(sp)
