
InfraredHandler.elf:     file format elf32-littlenios2
InfraredHandler.elf
architecture: nios2, flags 0x00000112:
EXEC_P, HAS_SYMS, D_PAGED
start address 0x010001bc

Program Header:
    LOAD off    0x00001000 vaddr 0x01000000 paddr 0x01000000 align 2**12
         filesz 0x00000020 memsz 0x00000020 flags r-x
    LOAD off    0x00001020 vaddr 0x01000020 paddr 0x01000020 align 2**12
         filesz 0x0001f7d4 memsz 0x0001f7d4 flags r-x
    LOAD off    0x000207f4 vaddr 0x0101f7f4 paddr 0x0102133c align 2**12
         filesz 0x00001b48 memsz 0x00001b48 flags rw-
    LOAD off    0x00022e84 vaddr 0x01022e84 paddr 0x01022e84 align 2**12
         filesz 0x00000000 memsz 0x00007da4 flags rw-

Sections:
Idx Name          Size      VMA       LMA       File off  Algn
  0 .entry        00000020  01000000  01000000  00001000  2**5
                  CONTENTS, ALLOC, LOAD, READONLY, CODE
  1 .exceptions   0000019c  01000020  01000020  00001020  2**2
                  CONTENTS, ALLOC, LOAD, READONLY, CODE
  2 .text         0001ebe4  010001bc  010001bc  000011bc  2**2
                  CONTENTS, ALLOC, LOAD, READONLY, CODE
  3 .rodata       00000a54  0101eda0  0101eda0  0001fda0  2**2
                  CONTENTS, ALLOC, LOAD, READONLY, DATA
  4 .rwdata       00001b48  0101f7f4  0102133c  000207f4  2**2
                  CONTENTS, ALLOC, LOAD, DATA, SMALL_DATA
  5 .bss          00007da4  01022e84  01022e84  00022e84  2**2
                  ALLOC, SMALL_DATA
  6 .comment      00000026  00000000  00000000  0002233c  2**0
                  CONTENTS, READONLY
  7 .debug_aranges 00001990  00000000  00000000  00022368  2**3
                  CONTENTS, READONLY, DEBUGGING
  8 .debug_pubnames 000082a2  00000000  00000000  00023cf8  2**0
                  CONTENTS, READONLY, DEBUGGING
  9 .debug_info   00064107  00000000  00000000  0002bf9a  2**0
                  CONTENTS, READONLY, DEBUGGING
 10 .debug_abbrev 0000fbd5  00000000  00000000  000900a1  2**0
                  CONTENTS, READONLY, DEBUGGING
 11 .debug_line   00029ea9  00000000  00000000  0009fc76  2**0
                  CONTENTS, READONLY, DEBUGGING
 12 .debug_frame  00004e30  00000000  00000000  000c9b20  2**2
                  CONTENTS, READONLY, DEBUGGING
 13 .debug_str    00008eeb  00000000  00000000  000ce950  2**0
                  CONTENTS, READONLY, DEBUGGING
 14 .debug_loc    000162d1  00000000  00000000  000d783b  2**0
                  CONTENTS, READONLY, DEBUGGING
 15 .debug_alt_sim_info 00000030  00000000  00000000  000edb0c  2**2
                  CONTENTS, READONLY, DEBUGGING
 16 .debug_ranges 00003290  00000000  00000000  000edb40  2**3
                  CONTENTS, READONLY, DEBUGGING
 17 .thread_model 00000006  00000000  00000000  000fadc4  2**0
                  CONTENTS, READONLY
 18 .cpu          00000003  00000000  00000000  000fadca  2**0
                  CONTENTS, READONLY
 19 .qsys         00000001  00000000  00000000  000fadcd  2**0
                  CONTENTS, READONLY
 20 .simulation_enabled 00000001  00000000  00000000  000fadce  2**0
                  CONTENTS, READONLY
 21 .sysid_hash   00000004  00000000  00000000  000fadcf  2**0
                  CONTENTS, READONLY
 22 .sysid_base   00000004  00000000  00000000  000fadd3  2**0
                  CONTENTS, READONLY
 23 .sysid_time   00000004  00000000  00000000  000fadd7  2**0
                  CONTENTS, READONLY
 24 .stderr_dev   0000000b  00000000  00000000  000faddb  2**0
                  CONTENTS, READONLY
 25 .stdin_dev    0000000b  00000000  00000000  000fade6  2**0
                  CONTENTS, READONLY
 26 .stdout_dev   0000000b  00000000  00000000  000fadf1  2**0
                  CONTENTS, READONLY
 27 .sopc_system_name 00000006  00000000  00000000  000fadfc  2**0
                  CONTENTS, READONLY
 28 .quartus_project_dir 0000003c  00000000  00000000  000fae02  2**0
                  CONTENTS, READONLY
 29 .jdi          000046ad  00000000  00000000  000fae3e  2**0
                  CONTENTS, READONLY
 30 .sopcinfo     00048ed1  00000000  00000000  000ff4eb  2**0
                  CONTENTS, READONLY
SYMBOL TABLE:
01000000 l    d  .entry	00000000 .entry
01000020 l    d  .exceptions	00000000 .exceptions
010001bc l    d  .text	00000000 .text
0101eda0 l    d  .rodata	00000000 .rodata
0101f7f4 l    d  .rwdata	00000000 .rwdata
01022e84 l    d  .bss	00000000 .bss
00000000 l    d  .comment	00000000 .comment
00000000 l    d  .debug_aranges	00000000 .debug_aranges
00000000 l    d  .debug_pubnames	00000000 .debug_pubnames
00000000 l    d  .debug_info	00000000 .debug_info
00000000 l    d  .debug_abbrev	00000000 .debug_abbrev
00000000 l    d  .debug_line	00000000 .debug_line
00000000 l    d  .debug_frame	00000000 .debug_frame
00000000 l    d  .debug_str	00000000 .debug_str
00000000 l    d  .debug_loc	00000000 .debug_loc
00000000 l    d  .debug_alt_sim_info	00000000 .debug_alt_sim_info
00000000 l    d  .debug_ranges	00000000 .debug_ranges
01000204 l       .text	00000000 alt_after_alt_main
00000000 l    df *ABS*	00000000 alt_irq_handler.c
00000000 l    df *ABS*	00000000 CommandHandler.cpp
00000000 l    df *ABS*	00000000 CommandTasks.cpp
00000000 l    df *ABS*	00000000 DataSource.cpp
00000000 l    df *ABS*	00000000 InfraredHandler.cpp
00000000 l    df *ABS*	00000000 InfraredTasks.cpp
00000000 l    df *ABS*	00000000 main.cpp
010015ac l     F .text	00000030 _GLOBAL__I_command_check_infrared_task_stk
0100141c l     F .text	00000190 _Z41__static_initialization_and_destruction_0ii
00000000 l    df *ABS*	00000000 functexcept.cc
00000000 l    df *ABS*	00000000 ios_failure.cc
00000000 l    df *ABS*	00000000 list.cc
00000000 l    df *ABS*	00000000 stdexcept.cc
00000000 l    df *ABS*	00000000 string-inst.cc
00000000 l    df *ABS*	00000000 atomicity.cc
00000000 l    df *ABS*	00000000 eh_exception.cc
00000000 l    df *ABS*	00000000 new_handler.cc
00000000 l    df *ABS*	00000000 class_type_info.cc
00000000 l    df *ABS*	00000000 eh_personality.cc
01007bac l     F .text	00000030 _Z12read_uleb128PKhPj
01007bdc l     F .text	00000054 _Z12read_sleb128PKhPi
01007c30 l     F .text	0000009c _Z16get_adjusted_ptrPKSt9type_infoS1_PPv
01007ccc l     F .text	000001d4 _Z28read_encoded_value_with_basehjPKhPj
01007ea0 l     F .text	00000090 _Z21base_of_encoded_valuehP15_Unwind_Context
01007f30 l     F .text	00000100 _Z17parse_lsda_headerP15_Unwind_ContextPKhP16lsda_header_info
01008030 l     F .text	00000084 _Z15get_ttype_entryP16lsda_header_infoj
010080b4 l     F .text	00000084 _Z20check_exception_specP16lsda_header_infoPKSt9type_infoPvi
00000000 l    df *ABS*	00000000 eh_terminate.cc
00000000 l    df *ABS*	00000000 eh_term_handler.cc
00000000 l    df *ABS*	00000000 eh_catch.cc
00000000 l    df *ABS*	00000000 del_op.cc
00000000 l    df *ABS*	00000000 eh_throw.cc
01008b7c l     F .text	00000060 _Z23__gxx_exception_cleanup19_Unwind_Reason_CodeP17_Unwind_Exception
00000000 l    df *ABS*	00000000 bad_typeid.cc
00000000 l    df *ABS*	00000000 si_class_type_info.cc
00000000 l    df *ABS*	00000000 tinfo.cc
00000000 l    df *ABS*	00000000 eh_alloc.cc
01026f4c l     O .bss	00000800 emergency_buffer
01022e94 l     O .bss	00000004 emergency_used
00000000 l    df *ABS*	00000000 bad_cast.cc
00000000 l    df *ABS*	00000000 new_op.cc
00000000 l    df *ABS*	00000000 eh_call.cc
00000000 l    df *ABS*	00000000 eh_globals.cc
01022e98 l     O .bss	00000008 eh_globals
00000000 l    df *ABS*	00000000 eh_unex_handler.cc
00000000 l    df *ABS*	00000000 unwind-sjlj.c
01022ea0 l     O .bss	00000004 fc_static
0100922c l     F .text	00000100 _Unwind_ForcedUnwind_Phase2
01009344 l     F .text	000000cc _Unwind_RaiseException_Phase2
01009410 l     F .text	00000028 uw_install_context
00000000 l    df *ABS*	00000000 abort.c
00000000 l    df *ABS*	00000000 malloc.c
00000000 l    df *ABS*	00000000 mallocr.c
00000000 l    df *ABS*	00000000 memchr.c
00000000 l    df *ABS*	00000000 memcmp.c
00000000 l    df *ABS*	00000000 memcpy.c
00000000 l    df *ABS*	00000000 memmove.c
00000000 l    df *ABS*	00000000 memset.c
00000000 l    df *ABS*	00000000 printf.c
00000000 l    df *ABS*	00000000 sbrkr.c
00000000 l    df *ABS*	00000000 signal.c
00000000 l    df *ABS*	00000000 signalr.c
00000000 l    df *ABS*	00000000 strlen.c
00000000 l    df *ABS*	00000000 vfprintf.c
0100a650 l     F .text	00000058 __sprint_r
0101f3f2 l     O .rodata	00000010 blanks.3452
0101f3e2 l     O .rodata	00000010 zeroes.3453
00000000 l    df *ABS*	00000000 wsetup.c
00000000 l    df *ABS*	00000000 dtoa.c
0100c6b4 l     F .text	00000218 quorem
00000000 l    df *ABS*	00000000 fflush.c
00000000 l    df *ABS*	00000000 findfp.c
0100e0b0 l     F .text	00000058 std
0100e1bc l     F .text	00000008 __fp_lock
0100e1c4 l     F .text	00000008 __fp_unlock
00000000 l    df *ABS*	00000000 mallocr.c
00000000 l    df *ABS*	00000000 fvwrite.c
00000000 l    df *ABS*	00000000 fwalk.c
00000000 l    df *ABS*	00000000 impure.c
0101fbfc l     O .rwdata	00000400 impure_data
00000000 l    df *ABS*	00000000 int_errno.c
00000000 l    df *ABS*	00000000 locale.c
01021294 l     O .rwdata	00000004 charset
0101f428 l     O .rodata	00000030 lconv
00000000 l    df *ABS*	00000000 makebuf.c
00000000 l    df *ABS*	00000000 mprec.c
0101f570 l     O .rodata	0000000c p05.2458
00000000 l    df *ABS*	00000000 mallocr.c
00000000 l    df *ABS*	00000000 s_isinfd.c
00000000 l    df *ABS*	00000000 s_isnand.c
00000000 l    df *ABS*	00000000 stdio.c
00000000 l    df *ABS*	00000000 strcmp.c
00000000 l    df *ABS*	00000000 writer.c
00000000 l    df *ABS*	00000000 mallocr.c
00000000 l    df *ABS*	00000000 closer.c
00000000 l    df *ABS*	00000000 fclose.c
00000000 l    df *ABS*	00000000 fstatr.c
00000000 l    df *ABS*	00000000 isattyr.c
00000000 l    df *ABS*	00000000 lseekr.c
00000000 l    df *ABS*	00000000 readr.c
00000000 l    df *ABS*	00000000 libgcc2.c
00000000 l    df *ABS*	00000000 libgcc2.c
00000000 l    df *ABS*	00000000 dp-bit.c
010118a4 l     F .text	00000410 _fpadd_parts
00000000 l    df *ABS*	00000000 dp-bit.c
00000000 l    df *ABS*	00000000 dp-bit.c
00000000 l    df *ABS*	00000000 dp-bit.c
00000000 l    df *ABS*	00000000 dp-bit.c
00000000 l    df *ABS*	00000000 dp-bit.c
00000000 l    df *ABS*	00000000 dp-bit.c
00000000 l    df *ABS*	00000000 dp-bit.c
00000000 l    df *ABS*	00000000 dp-bit.c
00000000 l    df *ABS*	00000000 dp-bit.c
00000000 l    df *ABS*	00000000 dp-bit.c
00000000 l    df *ABS*	00000000 dp-bit.c
00000000 l    df *ABS*	00000000 lib2-divmod.c
010129d0 l     F .text	0000007c udivmodsi4
00000000 l    df *ABS*	00000000 libgcc2.c
00000000 l    df *ABS*	00000000 libgcc2.c
00000000 l    df *ABS*	00000000 libgcc2.c
00000000 l    df *ABS*	00000000 dp-bit.c
00000000 l    df *ABS*	00000000 dp-bit.c
00000000 l    df *ABS*	00000000 dp-bit.c
00000000 l    df *ABS*	00000000 alt_close.c
01013244 l     F .text	00000060 alt_get_errno
00000000 l    df *ABS*	00000000 alt_dev.c
010132a4 l     F .text	0000002c alt_dev_null_write
00000000 l    df *ABS*	00000000 alt_errno.c
00000000 l    df *ABS*	00000000 alt_exit.c
010132d0 l     F .text	00000040 alt_sim_halt
00000000 l    df *ABS*	00000000 alt_fstat.c
01013410 l     F .text	00000060 alt_get_errno
00000000 l    df *ABS*	00000000 alt_getpid.c
00000000 l    df *ABS*	00000000 alt_isatty.c
01013550 l     F .text	00000060 alt_get_errno
00000000 l    df *ABS*	00000000 alt_kill.c
010136f0 l     F .text	00000060 alt_get_errno
00000000 l    df *ABS*	00000000 alt_load.c
010137d0 l     F .text	0000006c alt_load_section
00000000 l    df *ABS*	00000000 alt_lseek.c
0101392c l     F .text	00000060 alt_get_errno
00000000 l    df *ABS*	00000000 alt_main.c
00000000 l    df *ABS*	00000000 alt_read.c
01013b74 l     F .text	00000060 alt_get_errno
00000000 l    df *ABS*	00000000 alt_release_fd.c
00000000 l    df *ABS*	00000000 alt_sbrk.c
010212b0 l     O .rwdata	00000004 heap_end
00000000 l    df *ABS*	00000000 alt_write.c
01013e10 l     F .text	00000060 alt_get_errno
00000000 l    df *ABS*	00000000 alt_env_lock.c
010212b4 l     O .rwdata	00000004 lockid
01022ed0 l     O .bss	00000004 locks
00000000 l    df *ABS*	00000000 alt_malloc_lock.c
010212b8 l     O .rwdata	00000004 lockid
01022ed8 l     O .bss	00000004 locks
00000000 l    df *ABS*	00000000 os_core.c
01015848 l     F .text	00000044 OS_InitMisc
0101588c l     F .text	0000006c OS_InitRdyList
010159f0 l     F .text	000000e0 OS_InitTCBList
0101576c l     F .text	000000dc OS_InitEventList
010158f8 l     F .text	0000007c OS_InitTaskIdle
01015974 l     F .text	0000007c OS_InitTaskStat
01015c64 l     F .text	00000070 OS_SchedNew
00000000 l    df *ABS*	00000000 os_dbg.c
00000000 l    df *ABS*	00000000 os_flag.c
01017b84 l     F .text	00000110 OS_FlagTaskRdy
010178dc l     F .text	000001c4 OS_FlagBlock
00000000 l    df *ABS*	00000000 os_mem.c
00000000 l    df *ABS*	00000000 os_q.c
00000000 l    df *ABS*	00000000 os_sem.c
00000000 l    df *ABS*	00000000 os_task.c
00000000 l    df *ABS*	00000000 os_time.c
00000000 l    df *ABS*	00000000 alt_sys_init.c
010201b0 l     O .rwdata	0000106c jtag_uart_0
0102121c l     O .rwdata	0000002c adc
0101c4b8 l     F .text	00000038 alt_dev_reg
00000000 l    df *ABS*	00000000 altera_avalon_jtag_uart_fd.c
00000000 l    df *ABS*	00000000 altera_avalon_jtag_uart_init.c
0101c770 l     F .text	000002c4 altera_avalon_jtag_uart_irq
0101ca34 l     F .text	00000114 altera_avalon_jtag_uart_timeout
00000000 l    df *ABS*	00000000 altera_avalon_jtag_uart_ioctl.c
00000000 l    df *ABS*	00000000 altera_avalon_jtag_uart_read.c
00000000 l    df *ABS*	00000000 altera_avalon_jtag_uart_write.c
00000000 l    df *ABS*	00000000 altera_avalon_timer_sc.c
0101d24c l     F .text	00000070 alt_avalon_timer_sc_irq
00000000 l    df *ABS*	00000000 alt_alarm_start.c
00000000 l    df *ABS*	00000000 alt_dcache_flush_all.c
00000000 l    df *ABS*	00000000 alt_dev_llist_insert.c
0101d598 l     F .text	00000060 alt_get_errno
00000000 l    df *ABS*	00000000 alt_do_ctors.c
00000000 l    df *ABS*	00000000 alt_do_dtors.c
00000000 l    df *ABS*	00000000 alt_icache_flush_all.c
00000000 l    df *ABS*	00000000 alt_iic.c
00000000 l    df *ABS*	00000000 alt_iic_isr_register.c
00000000 l    df *ABS*	00000000 alt_io_redirect.c
0101d9bc l     F .text	000000c4 alt_open_fd
00000000 l    df *ABS*	00000000 alt_irq_vars.c
00000000 l    df *ABS*	00000000 alt_open.c
0101daf8 l     F .text	000000dc alt_file_locked
0101dd5c l     F .text	00000060 alt_get_errno
00000000 l    df *ABS*	00000000 alt_tick.c
00000000 l    df *ABS*	00000000 altera_nios2_qsys_irq.c
00000040 l       *ABS*	00000000 OSCtxSw_SWITCH_PC
00000000 l    df *ABS*	00000000 os_cpu_c.c
00000014 l       *ABS*	00000000 OSTCBNext_OFFSET
00000032 l       *ABS*	00000000 OSTCBPrio_OFFSET
00000000 l       *ABS*	00000000 OSTCBStkPtr_OFFSET
00000000 l    df *ABS*	00000000 alt_find_dev.c
00000000 l    df *ABS*	00000000 alt_find_file.c
00000000 l    df *ABS*	00000000 alt_get_fd.c
00000000 l    df *ABS*	00000000 alt_icache_flush.c
00000000 l    df *ABS*	00000000 atexit.c
00000000 l    df *ABS*	00000000 exit.c
00000000 l    df *ABS*	00000000 __atexit.c
00000000 l    df *ABS*	00000000 __call_atexit.c
0101e924 l     F .text	00000004 register_fini
01000f6c  w    F .text	00000064 _ZN9__gnu_cxx13new_allocatorISt10_List_nodeIP8os_eventEE8allocateEmPKv
01006dfc  w    F .text	0000005c _ZNSs2atEm
01008e50 g     F .text	00000040 __cxa_free_exception
01005798  w    F .text	00000034 _ZNSsC1IN9__gnu_cxx17__normal_iteratorIPcSsEEEET_S4_RKSaIcE
01024f3c g     O .bss	00002000 infrared_read_task_stk
01008e00 g     F .text	00000008 _ZNKSt9type_info15__is_function_pEv
0100f430 g     F .text	00000094 _mprec_log10
0100888c g     F .text	00000018 _ZSt10unexpectedv
01021306 g     O .rwdata	00000002 OSTaskNameSize
010016ec g     F .text	00000034 _ZSt18__throw_bad_typeidv
0100f51c g     F .text	00000088 __any_on
01010bb8 g     F .text	00000070 _isatty_r
0101f548 g     O .rodata	00000028 __mprec_tinytens
010030a4 g     F .text	00000030 _ZNSt14overflow_errorC1ERKSs
0101398c g     F .text	000000c8 alt_main
010052bc  w    F .text	00000040 _ZNKSs6substrEmm
0102a998 g     O .bss	00000100 alt_irq
01021258  w    O .rwdata	00000004 _ZNSs4nposE
01010c28 g     F .text	00000078 _lseek_r
01018478 g     F .text	000000d0 OS_MemInit
010091dc g     F .text	00000014 _Unwind_GetIPInfo
0102133c g       *ABS*	00000000 __flash_rwdata_start
0101c3b8 g     F .text	00000064 OSTimeSet
010123c4 g     F .text	00000088 __eqdf2
010013b8 g     F .text	00000064 _Z18infrared_read_taskPv
01008a94 g     F .text	00000074 __cxa_rethrow
0100917c g     F .text	0000000c _Unwind_SjLj_Unregister
01004940  w    F .text	00000018 _ZNKSs6rbeginEv
010087ac g     F .text	00000014 _ZSt14set_unexpectedPFvvE
010143c4 g     F .text	000006b4 OSEventPendMulti
010056b0  w    F .text	000000b4 _ZNSs12_S_constructIN9__gnu_cxx17__normal_iteratorIPcSsEEEES2_T_S4_RKSaIcESt20forward_iterator_tag
0100541c  w    F .text	00000020 _ZNSs13_S_copy_charsEPcN9__gnu_cxx17__normal_iteratorIS_SsEES2_
0100782c  w    F .text	00000024 _ZNSs7replaceEmmRKSs
010091cc g     F .text	00000010 _Unwind_GetIP
0102ac28 g       *ABS*	00000000 __alt_heap_start
0101e364 g     F .text	00000020 OSTaskCreateHook
01003324 g     F .text	00000030 _ZNSt12length_errorC1ERKSs
0100a568 g     F .text	00000074 _kill_r
01006ed8  w    F .text	00000038 _ZNSs5beginEv
010079e0 g     F .text	00000010 _ZNSt9bad_allocD2Ev
0100a1a4 g     F .text	00000044 printf
010212de g     O .rwdata	00000002 OSMboxEn
01014acc g     F .text	0000007c OSIntEnter
01008cfc g     F .text	00000034 _ZNK10__cxxabiv120__si_class_type_info20__do_find_public_srcElPKvPKNS_17__class_type_infoES2_
0100a4a8 g     F .text	000000a0 _signal_r
0101ee88  w    O .rodata	00000013 _ZTSSt14overflow_error
01010684 g     F .text	00000068 __sseek
0100e118 g     F .text	000000a4 __sinit
010212ee g     O .rwdata	00000002 OSQEn
01000b2c  w    F .text	0000005c _ZN9__gnu_cxx13new_allocatorIP8os_eventE9constructEPS2_RKS2_
010065d8  w    F .text	000000f8 _ZNSs6assignEPKcm
01000904  w    F .text	00000030 _ZNSaISt10_List_nodeIP8os_eventEED2Ev
01008cec g     F .text	00000010 _ZN10__cxxabiv120__si_class_type_infoD2Ev
0100edf0 g     F .text	00000084 _setlocale_r
0101f2f4  w    O .rodata	00000025 _ZTSN10__cxxabiv120__si_class_type_infoE
0100e218 g     F .text	00000068 __sfmoreglue
0100114c g     F .text	000000a4 _ZN15InfraredHandler17onInfraredReceiveEj
01014080 g     F .text	000000d0 __malloc_unlock
0101e3c0 g     F .text	0000001c OSTaskStatHook
01003e10  w    F .text	00000018 _ZNSs7_M_moveEPcPKcm
01000b88  w    F .text	00000024 _ZN9__gnu_cxx13new_allocatorISt10_List_nodeIP8os_eventEEC2ERKS5_
01022ee0 g     O .bss	00000001 OSLockNesting
01007880  w    F .text	00000064 _ZNSs7replaceEN9__gnu_cxx17__normal_iteratorIPcSsEES2_PKc
010088ac g     F .text	00000020 _ZSt18uncaught_exceptionv
0101ee48  w    O .rodata	0000000c _ZTISt15underflow_error
01000a5c  w    F .text	00000020 _ZN9__gnu_cxx13new_allocatorISt10_List_nodeIP8os_eventEEC2Ev
0102132c g     O .rwdata	00000002 OSDataSize
01022ee1 g     O .bss	00000001 OSRunning
01006248  w    F .text	000000bc _ZNSsD2Ev
01006100  w    F .text	0000008c _ZNSspLEc
01005cec  w    F .text	000000e0 _ZNSs6appendEmc
0100a02c g     F .text	000000e0 memmove
0101e3f8 g     F .text	0000001c OSInitHookBegin
01021324 g     O .rwdata	00000002 OSTmrSize
0100792c g     F .text	00000010 _ZNSt9exceptionD2Ev
0100e208 g     F .text	00000010 _cleanup
0100f5a4 g     F .text	000000bc _Balloc
01005690  w    F .text	00000020 _ZNSs13_S_copy_charsEPcN9__gnu_cxx17__normal_iteratorIPKcSsEES4_
0101eeec  w    O .rodata	00000011 _ZTSSt12out_of_range
0101f378  w    O .rodata	0000000c _ZTISt8bad_cast
01003e28  w    F .text	00000018 _ZNSs7_M_copyEPcPKcm
01022e88 g     O .bss	00000004 infrared
01022ee4 g     O .bss	00000004 OSIdleCtr
01006760  w    F .text	00000040 _ZNSsaSEPKc
010078e4 g     F .text	00000014 _ZN9__gnu_cxx18__exchange_and_addEPVii
010017bc g     F .text	00000108 _ZSt19__throw_ios_failurePKc
010124d4 g     F .text	00000088 __gtdf2
0101f1b4  w    O .rodata	00000014 _ZTVSt13bad_exception
0101e030 g       .text	00000000 OSStartTsk
00000000  w      *UND*	00000000 __errno
01015f98 g     F .text	000002e0 OS_TCBInit
01002718  w    F .text	00000034 _ZNSt14overflow_errorD0Ev
0101ee18  w    O .rodata	00000010 _ZTV15InfraredHandler
01000000 g     F .entry	0000001c __reset
01021260  w    O .rwdata	00000001 _ZNSs4_Rep11_S_terminalE
010045d8  w    F .text	000000e0 _ZNKSs16find_last_not_ofEPKcmm
01001378 g     F .text	00000040 _ZN15InfraredHandlerC2Ev
0100920c g     F .text	00000008 _Unwind_GetRegionStart
0102132a g     O .rwdata	00000002 OSTmrWheelTblSize
01000020 g       *ABS*	00000000 __flash_exceptions_start
010212ca g     O .rwdata	00000002 OSEventSize
01022ee8 g     O .bss	00000001 OSPrioHighRdy
01010b44 g     F .text	00000074 _fstat_r
0101e384 g     F .text	00000020 OSTaskDelHook
01009018 g     F .text	00000100 _Znwm
01004378  w    F .text	00000064 _ZNSs4_Rep10_M_disposeERKSaIcE
01022eb0 g     O .bss	00000004 errno
01004a54  w    F .text	0000003c _ZNSsC2EmcRKSaIcE
0101e010 g       .text	00000000 OSStartHighRdy
01004774  w    F .text	0000007c _ZNKSs7compareEPKc
010057cc  w    F .text	000000fc _ZNSsC1ERKSs
0101ab8c g     F .text	00000200 OSTaskCreateExt
010173f8 g     F .text	00000068 OSFlagPendGetFlagsRdy
0102130a g     O .rwdata	00000002 OSTaskStatStkSize
010095dc g     F .text	00000080 _Unwind_Backtrace
01004f50  w    F .text	00000088 _ZNKSs4copyEPcmm
01016404 g     F .text	00000334 OSFlagAccept
01018bb0 g     F .text	000000c8 OSQFlush
01018548 g     F .text	00000154 OSQAccept
01022ec8 g     O .bss	00000004 alt_argv
01000268 g     F .text	00000028 _ZN14CommandHandler17onInfraredReceiveEv
01029248 g       *ABS*	00000000 _gp
01000ae4  w    F .text	00000048 _ZNKSt10_List_baseIP8os_eventSaIS1_EE19_M_get_Tp_allocatorEv
01008bdc g     F .text	00000034 _ZNSt10bad_typeidD0Ev
0100274c  w    F .text	00000010 _ZNSt14overflow_errorD1Ev
01000e7c  w    F .text	00000088 _ZNSt10_List_baseIP8os_eventSaIS1_EE8_M_clearEv
0101a9b8 g     F .text	000001d4 OSTaskCreate
0101a444 g     F .text	00000574 OSTaskChangePrio
01008fc4 g     F .text	00000034 _ZNSt8bad_castD0Ev
01022edc g     O .bss	00000004 alt_heapsem
01013470 g     F .text	00000020 getpid
01006994  w    F .text	00000038 _ZNSs6assignEmc
01003b18  w    F .text	0000000c _ZNKSs4_Rep12_M_is_leakedEv
01016278 g     F .text	0000018c OSDebugInit
01008138 g     F .text	00000180 __cxa_call_unexpected
0101ad8c g     F .text	0000040c OSTaskDel
01000238 g     F .text	00000030 _ZN14CommandHandlerC1Ev
010088a4 g     F .text	00000008 __cxa_get_exception_ptr
0101ee08  w    O .rodata	0000000d _ZTS10DataSource
01003e48  w    F .text	0000000c _ZNKSsixEm
01020030 g     O .rwdata	00000180 alt_fd_list
01027774 g     O .bss	00000370 OSFlagTbl
01000d68  w    F .text	0000006c _ZNSt4listIP8os_eventSaIS1_EE8_M_eraseESt14_List_iteratorIS1_E
0101ef00  w    O .rodata	00000014 _ZTVSt12out_of_range
0100958c g     F .text	00000050 _Unwind_SjLj_ForcedUnwind
01015548 g     F .text	000000b8 OS_EventTaskRemove
010091a0 g     F .text	00000014 _Unwind_GetCFA
01008798 g     F .text	00000014 _ZSt13set_terminatePFvvE
0101e46c g     F .text	00000094 alt_find_dev
01009f8c g     F .text	000000a0 memcpy
010040f4  w    F .text	00000010 _ZNSsC2Ev
010004cc g     F .text	00000028 _Z27command_check_infrared_taskPv
01003fe4  w    F .text	0000000c _ZNKSs17find_first_not_ofERKSsm
010212f4 g     O .rwdata	00000002 OSRdyTblSize
01003e54  w    F .text	000000a4 _ZNKSs17find_first_not_ofEPKcmm
0100559c  w    F .text	00000034 _ZNSsC1IPKcEET_S2_RKSaIcE
0100e1fc g     F .text	0000000c _cleanup_r
0101266c g     F .text	000000f8 __floatsidf
0101da80 g     F .text	00000078 alt_io_redirect
010125e4 g     F .text	00000088 __ltdf2
0101eecc  w    O .rodata	00000014 _ZTVSt11range_error
01002d6c g     F .text	00000038 _ZNSt15_List_node_base8transferEPS_S0_
01003600 g     F .text	00000104 _ZNSt13runtime_errorD2Ev
01002224 g     F .text	00000190 _ZSt21__throw_runtime_errorPKc
01000c30  w    F .text	00000060 _ZNSt10_List_baseIP8os_eventSaIS1_EEC2ERKS2_
0101eda0 g       *ABS*	00000000 __DTOR_END__
01004098  w    F .text	00000050 _ZNKSs5rfindEPKcm
01007ab0 g     F .text	00000010 _ZN10__cxxabiv117__class_type_infoD1Ev
01003214 g     F .text	000000b0 _ZNSt11logic_errorC2ERKSs
0101ef6c  w    O .rodata	00000014 _ZTVSt16invalid_argument
01004104  w    F .text	00000010 _ZN9__gnu_cxxeqIPKcSsEEbRKNS_17__normal_iteratorIT_T0_EES8_
010009b8  w    F .text	00000030 _ZNSt14_List_iteratorIP8os_eventEC1EPSt15_List_node_base
01007028  w    F .text	00000150 _ZStplIcSt11char_traitsIcESaIcEESbIT_T0_T1_EPKS3_RKS6_
01014150 g     F .text	00000130 OSEventNameGet
010212d8 g     O .rwdata	00000002 OSFlagMax
01003134 g     F .text	00000030 _ZNSt11range_errorC2ERKSs
0100f380 g     F .text	000000b0 __ratio
01014b48 g     F .text	00000100 OSIntExit
01005b38  w    F .text	00000004 _ZNSsaSERKSs
0101eee0  w    O .rodata	0000000c _ZTISt12out_of_range
01003d80  w    F .text	00000038 _ZNKSs15_M_check_lengthEmmPKc
01021312 g     O .rwdata	00000002 OSTCBSize
01004958  w    F .text	000000c0 _ZNSs12_S_constructEmcRKSaIcE
01022ee9 g     O .bss	00000001 OSPrioCur
0101ccb0 g     F .text	000002c0 altera_avalon_jtag_uart_read
010096e0 g     F .text	00000014 malloc
0100a1e8 g     F .text	00000034 _printf_r
01012b0c g     F .text	00000008 __udivsi3
01013490 g     F .text	000000c0 isatty
01000cc8  w    F .text	00000028 _ZNK9__gnu_cxx13new_allocatorISt10_List_nodeIP8os_eventEE8max_sizeEv
0100a28c g     F .text	000000cc _raise_r
010212f8 g     O .rwdata	00000002 OSStkWidth
0101f458 g     O .rodata	000000c8 __mprec_tens
0100653c  w    F .text	0000009c _ZNSs15_M_replace_safeEmmPKcm
010212ec g     O .rwdata	00000002 OSPtrSize
01001be4 g     F .text	00000190 _ZSt22__throw_overflow_errorPKc
01000558 g     F .text	00000064 _ZN10DataSourceC2Ev
010032f4 g     F .text	00000030 _ZNSt12out_of_rangeC2ERKSs
0100edcc g     F .text	00000008 __locale_charset
010212cc g     O .rwdata	00000002 OSEventTblSize
01005b3c  w    F .text	00000128 _ZNSs7reserveEm
01004b88  w    F .text	000000c8 _ZNKSs7compareEmmPKc
0101df84 g       .text	00000000 OSCtxSw
0101e714 g     F .text	00000090 alt_icache_flush
01003ad0  w    F .text	0000000c _ZNKSs4sizeEv
01022ea4 g     O .bss	00000004 __malloc_top_pad
01006304  w    F .text	00000238 _ZNSs9_M_mutateEmmm
0100740c  w    F .text	000002e0 _ZNSs7replaceEmmPKcm
01004188  w    F .text	00000058 _ZNKSs16find_last_not_ofEcm
01022eec g     O .bss	00000004 OSTCBList
0100a564 g     F .text	00000004 _getpid_r
01022ec0 g     O .bss	00000004 alt_fd_list_lock
0100775c  w    F .text	00000010 _ZNSs7replaceEN9__gnu_cxx17__normal_iteratorIPcSsEES2_PKcm
0101edd4  w    O .rodata	00000010 _ZTV14CommandHandler
01021290 g     O .rwdata	00000004 __mb_cur_max
01005ed8  w    F .text	00000040 _ZNSs6appendEPKc
0101edf8  w    O .rodata	00000010 _ZTV10DataSource
0100edd4 g     F .text	0000000c _localeconv_r
010041e0  w    F .text	00000064 _ZNKSs17find_first_not_ofEcm
0100fc9c g     F .text	0000003c __i2b
0100e7b0 g     F .text	0000049c __sfvwrite_r
01007ad0 g     F .text	00000060 _ZNK10__cxxabiv117__class_type_info10__do_catchEPKSt9type_infoPPvj
0100a3e0 g     F .text	000000b4 __sigtramp_r
01003a50  w    F .text	00000008 _ZNKSs9_M_ibeginEv
01002f94 g     F .text	000000b0 _ZNSt13runtime_errorC2ERKSs
01027ae4 g     O .bss	00000c30 OSMemTbl
01022ef0 g     O .bss	00000001 OSTickStepState
01000810  w    F .text	00000038 _ZNKSt14_List_iteratorIP8os_eventEneERKS2_
0100a21c g     F .text	00000070 _sbrk_r
0100047c g     F .text	00000050 _ZN14CommandHandlerD2Ev
0101f328  w    O .rodata	00000020 _ZTVSt9type_info
0101ef54  w    O .rodata	00000015 _ZTSSt16invalid_argument
01001754 g     F .text	00000034 _ZSt17__throw_bad_allocv
010212f0 g     O .rwdata	00000002 OSQMax
01028714 g     O .bss	00000800 OSTaskStatStk
01018060 g     F .text	0000010c OSMemNameGet
01000a7c  w    F .text	00000034 _ZNSaISt10_List_nodeIP8os_eventEEC1IS1_EERKSaIT_E
01003a20  w    F .text	00000010 _ZNSt11char_traitsIcE2eqERKcS2_
010212d0 g     O .rwdata	00000002 OSFlagEn
01010ca0 g     F .text	00000078 _read_r
010078fc g     F .text	00000010 _ZNKSt9exception4whatEv
01004560  w    F .text	00000068 _ZNKSs4findEcm
01021316 g     O .rwdata	00000002 OSTimeTickHookEn
01022e84 g     O .bss	00000004 command
010008ac  w    F .text	00000038 _ZNSt10_List_baseIP8os_eventSaIS1_EE7_M_initEv
01017c94 g     F .text	000000ac OS_FlagUnlink
01019114 g     F .text	00000180 OSQPost
0101fffc g     O .rwdata	0000000c __lc_ctype
010212a8 g     O .rwdata	00000004 alt_max_fd
010047f0  w    F .text	00000050 _ZNKSs16find_last_not_ofEPKcm
01015b24 g     F .text	0000006c OS_MemCopy
01015b90 g     F .text	000000d4 OS_Sched
01012f48 g     F .text	00000138 __unpack_d
01004724  w    F .text	00000050 _ZNKSs4findEPKcm
01010a20 g     F .text	00000110 _fclose_r
01004890  w    F .text	00000050 _ZNKSs12find_last_ofEPKcm
01017f5c g     F .text	00000104 OSMemGet
01003ff0  w    F .text	000000a8 _ZNKSs5rfindEPKcmm
0101b4c0 g     F .text	000001c4 OSTaskNameSet
0101f230  w    O .rodata	0000000c _ZTISt9bad_alloc
01003a44  w    F .text	0000000c _ZNKSs6_M_repEv
0100e07c g     F .text	00000034 fflush
01022ea8 g     O .bss	00000004 __malloc_max_sbrked_mem
01022ef4 g     O .bss	00000004 OSCtxSwCtr
0101e3dc g     F .text	0000001c OSTimeTickHook
01006a9c  w    F .text	00000050 _ZNSs5eraseEN9__gnu_cxx17__normal_iteratorIPcSsEE
010212da g     O .rwdata	00000002 OSFlagNameSize
0100042c g     F .text	00000050 _ZN14CommandHandlerD1Ev
01006e58  w    F .text	00000044 _ZNSsixEm
010059c4  w    F .text	00000174 _ZNSs6assignERKSs
01015600 g     F .text	00000104 OS_EventTaskRemoveMulti
01001124 g     F .text	00000028 _ZN15InfraredHandler4readEi
01011d34 g     F .text	00000074 __adddf3
0101f2c8  w    O .rodata	0000002c _ZTVN10__cxxabiv120__si_class_type_infoE
010153f4 g     F .text	00000154 OS_EventTaskWaitMulti
0100100c  w    F .text	00000064 _ZNSt4listIP8os_eventSaIS1_EE14_M_create_nodeERKS1_
0100618c  w    F .text	000000bc _ZNSsD1Ev
0100f260 g     F .text	00000120 __b2d
01000cf0  w    F .text	00000038 _ZN9__gnu_cxx13new_allocatorISt10_List_nodeIP8os_eventEE10deallocateEPS4_m
010212f2 g     O .rwdata	00000002 OSQSize
01008ff8 g     F .text	00000010 _ZNSt8bad_castD1Ev
010112f4 g     F .text	000005b0 __umoddi3
0101383c g     F .text	000000f0 lseek
01006e9c  w    F .text	0000003c _ZNSs3endEv
01019cf0 g     F .text	0000027c OSSemPend
01007b30 g     F .text	00000030 _ZNK10__cxxabiv117__class_type_info11__do_upcastEPKS0_PKvRNS0_15__upcast_resultE
0101f000  w    O .rodata	00000014 _ZTVSt11logic_error
01008a88 g     F .text	0000000c _ZdlPv
010027e4  w    F .text	00000034 _ZNSt12length_errorD0Ev
0102128c g     O .rwdata	00000004 _global_impure_ptr
01010018 g     F .text	000005f4 _realloc_r
010212dc g     O .rwdata	00000002 OSLowestPrio
0102ac28 g       *ABS*	00000000 __bss_end
0101d8c4 g     F .text	000000f8 alt_iic_isr_register
0101e44c g     F .text	00000020 OSTCBInitHook
01021322 g     O .rwdata	00000002 OSTmrCfgTicksPerSec
0101de54 g     F .text	00000110 alt_tick
0100916c g     F .text	00000010 _Unwind_SjLj_Register
01010d18 g     F .text	000005dc __udivdi3
0101ee9c  w    O .rodata	00000014 _ZTVSt14overflow_error
01002544 g     F .text	00000190 _ZSt20__throw_length_errorPKc
010212c4 g     O .rwdata	00000002 OSEventEn
0101f520 g     O .rodata	00000028 __mprec_bigtens
0100fef8 g     F .text	00000120 __s2b
0102131e g     O .rwdata	00000002 OSTmrCfgNameSize
010096b4 g     F .text	00000018 abort
0101283c g     F .text	00000194 __floatunsidf
01003cc4  w    F .text	000000bc _ZNSs4_Rep10_M_refcopyEv
0100f180 g     F .text	00000060 __mcmp
010088cc g     F .text	000000a4 __cxa_end_catch
0100e1e4 g     F .text	00000018 __fp_lock_all
0101d87c g     F .text	00000048 alt_ic_irq_enabled
01007980 g     F .text	00000010 _ZNSt13bad_exceptionD2Ev
01017aa0 g     F .text	000000e4 OS_FlagInit
0101ddbc g     F .text	00000098 alt_alarm_stop
01003b24  w    F .text	0000000c _ZNKSs4_Rep12_M_is_sharedEv
01021300 g     O .rwdata	00000002 OSTaskIdleStkSize
01003a30  w    F .text	00000008 _ZNKSs7_M_dataEv
01005170  w    F .text	00000060 _ZNSsC2ERKSsmmRKSaIcE
01022f30 g     O .bss	00000004 alt_irq_active
0101987c g     F .text	000000c0 OSSemAccept
01002e68 g     F .text	00000020 _ZNSt15_List_node_base7reverseEv
01008864 g     F .text	00000018 _ZSt9terminatev
0101828c g     F .text	000000f0 OSMemPut
01007020  w    F .text	00000008 _ZNSs6resizeEm
01017d40 g     F .text	0000021c OSMemCreate
01002708  w    F .text	00000010 _ZNSt15underflow_errorD1Ev
01022ef8 g     O .bss	00000004 OSIdleCtrMax
01001d74 g     F .text	00000190 _ZSt24__throw_invalid_argumentPKc
010000ec g     F .exceptions	000000d0 alt_irq_handler
010066d0  w    F .text	00000040 _ZNSs6assignEPKc
01020008 g     O .rwdata	00000028 alt_dev_null
01001230 g     F .text	00000058 _ZN15InfraredHandlerD0Ev
01000be4  w    F .text	0000004c _ZNSt10_List_baseIP8os_eventSaIS1_EE10_List_implC1ERKSaISt10_List_nodeIS1_EE
01004e4c  w    F .text	00000104 _ZNSs4_Rep7_M_grabERKSaIcES2_
01006d1c  w    F .text	00000050 _ZNSs6insertEmRKSsmm
01021314 g     O .rwdata	00000002 OSTicksPerSec
010028b0 g     F .text	00000008 _ZNKSt8ios_base7failure4whatEv
01003914 g     F .text	0000010c _ZNSt11logic_errorD0Ev
010048e0  w    F .text	00000050 _ZNKSs13find_first_ofEPKcm
0101df84 g       .text	00000000 OSIntCtxSw
0101f268  w    O .rodata	00000022 _ZTSN10__cxxabiv117__class_type_infoE
010003ac g     F .text	00000030 _ZN14CommandHandler4initEv
01005f58  w    F .text	000000e8 _ZNSs6appendERKSsmm
0101d4a0 g     F .text	00000044 alt_dcache_flush_all
0100f04c g     F .text	00000070 __hi0bits
01021264  w    O .rwdata	00000008 _ZTISt9exception
01012764 g     F .text	000000d8 __fixdfsi
01004930  w    F .text	00000010 _ZNKSs4rendEv
01003fd8  w    F .text	0000000c _ZNKSs4findERKSsm
01002c60 g     F .text	0000010c _ZNSt8ios_base7failureD0Ev
01003b60  w    F .text	0000014c _ZSt6searchIPKcS1_PFbRS0_S2_EET_S5_S5_T0_S6_T1_
01006d6c  w    F .text	0000000c _ZNSs6insertEmRKSs
01022efc g     O .bss	00000004 OSTCBFreeList
0102133c g       *ABS*	00000000 __ram_rwdata_end
01019f6c g     F .text	0000017c OSSemPendAbort
01002dc0 g     F .text	00000014 _ZNSt15_List_node_base6unhookEv
01008e30 g     F .text	00000010 _ZNSt9type_infoD1Ev
010212a0 g     O .rwdata	00000008 alt_dev_list
01022e90 g     O .bss	00000004 __new_handler
0101ef8c  w    O .rodata	00000011 _ZTSSt12domain_error
01013cf0 g     F .text	00000120 write
01006a14  w    F .text	00000038 _ZNSs6insertEN9__gnu_cxx17__normal_iteratorIPcSsEEmc
01005534  w    F .text	00000034 _ZNSsC1EPKcmRKSaIcE
01002da4 g     F .text	0000001c _ZNSt15_List_node_base4hookEPS_
01021318 g     O .rwdata	00000002 OSVersionNbr
01006f10  w    F .text	0000004c _ZNSs4rendEv
01008e20 g     F .text	00000010 _ZNSt9type_infoD0Ev
01000880  w    F .text	0000002c _ZNKSt14_List_iteratorIP8os_eventEdeEv
010034fc g     F .text	00000104 _ZNSt13runtime_errorD1Ev
0101f7f4 g       *ABS*	00000000 __ram_rodata_end
0101333c g     F .text	000000d4 fstat
01003cbc  w    F .text	00000008 _ZNSs12_Alloc_hiderC2EPcRKSaIcE
010135b0 g     F .text	00000140 kill
01005110  w    F .text	00000060 _ZNSsC1ERKSsmmRKSaIcE
01003414 g     F .text	00000030 _ZNSt12domain_errorC2ERKSs
010033e4 g     F .text	00000030 _ZNSt12domain_errorC1ERKSs
010028a0  w    F .text	00000010 _ZNSt12domain_errorD1Ev
010050dc  w    F .text	00000034 _ZNSsC2IPcEET_S1_RKSaIcE
010212c0 g     O .rwdata	00000004 OSEndiannessTest
0100fdd8 g     F .text	00000120 __pow5mult
010072c0  w    F .text	0000014c _ZStplIcSt11char_traitsIcESaIcEESbIT_T0_T1_ES3_RKS6_
01022eb4 g     O .bss	00000004 __nlocale_changed
010026d4  w    F .text	00000034 _ZNSt15underflow_errorD0Ev
01012b14 g     F .text	00000008 __umodsi3
01008e18 g     F .text	00000008 _ZNKSt9type_info11__do_upcastEPKN10__cxxabiv117__class_type_infoEPPv
01001338 g     F .text	00000040 _ZN15InfraredHandlerC1Ev
0100776c  w    F .text	00000064 _ZNSs7replaceEmmPKc
010212d2 g     O .rwdata	00000002 OSFlagGrpSize
01000964  w    F .text	00000030 _ZNSaISt10_List_nodeIP8os_eventEED1Ev
010009e8  w    F .text	0000003c _ZNSt4listIP8os_eventSaIS1_EE5beginEv
0102ac28 g       *ABS*	00000000 end
010078f8 g     F .text	00000004 _ZN9__gnu_cxx12__atomic_addEPVii
010002d0 g     F .text	00000070 _ZN14CommandHandler20checkInfraredReceiveEv
01003074 g     F .text	00000030 _ZNSt15underflow_errorC2ERKSs
010077d0  w    F .text	0000005c _ZNSs7replaceEmmRKSsmm
0100070c g     F .text	0000003c _ZN10DataSource11addListenerEP8os_event
01003f8c  w    F .text	00000030 _ZNKSs2atEm
01006710  w    F .text	00000050 _ZNSs6assignERKSsmm
01000790  w    F .text	00000030 _ZNSaIP8os_eventEC1Ev
010053e8  w    F .text	00000034 _ZNSsC1IPcEET_S1_RKSaIcE
01003a58  w    F .text	00000010 _ZNKSs7_M_iendEv
0100932c g     F .text	00000018 _Unwind_DeleteException
0101c638 g     F .text	00000138 altera_avalon_jtag_uart_init
01015e08 g     F .text	000000c8 OS_TaskStat
01003ab8  w    F .text	00000008 _ZNKSs5beginEv
0101ed98 g       *ABS*	00000000 __CTOR_LIST__
02000000 g       *ABS*	00000000 __alt_stack_pointer
0100686c  w    F .text	00000018 _ZNSs7replaceEN9__gnu_cxx17__normal_iteratorIPcSsEES2_mc
01001288 g     F .text	00000058 _ZN15InfraredHandlerD1Ev
01026f3c  w    O .bss	00000010 _ZNSs4_Rep20_S_empty_rep_storageE
0101d2bc g     F .text	00000090 alt_avalon_timer_sc_init
01002e88 g     F .text	00000008 _ZNKSt13runtime_error4whatEv
01012bb4 g     F .text	00000080 __clzsi2
0101f028  w    O .rodata	0000000c _ZTISt13runtime_error
010079f0 g     F .text	0000006c _ZNK10__cxxabiv117__class_type_info11__do_upcastEPKS0_PPv
0101cf70 g     F .text	000002dc altera_avalon_jtag_uart_write
0100e108 g     F .text	00000004 __sfp_lock_acquire
0101f1dc  w    O .rodata	00000012 _ZTSSt13bad_exception
01009e34 g     F .text	000000e4 memchr
01015ad0 g     F .text	00000054 OS_MemClr
0100a6a8 g     F .text	00001eac ___vfprintf_internal_r
0101ef34  w    O .rodata	00000014 _ZTVSt12length_error
0101e054 g     F .text	00000310 OSTaskStkInit
01000dd4  w    F .text	000000a8 _ZNSt4listIP8os_eventSaIS1_EE6removeERKS1_
0100e49c g     F .text	00000314 _free_r
01007708  w    F .text	0000001c _ZNSs7replaceEN9__gnu_cxx17__normal_iteratorIPcSsEES2_S2_S2_
01004a90  w    F .text	00000034 _ZNSsC1ERKSaIcE
01015150 g     F .text	00000194 OS_EventTaskRdy
010010bc  w    F .text	00000044 _ZNSt4listIP8os_eventSaIS1_EE9push_backERKS1_
0101e928 g     F .text	000001b0 __call_exitprocs
01003b3c  w    F .text	00000008 _ZNSs4_Rep15_M_set_sharableEv
01000290 g     F .text	00000040 _ZN14CommandHandler22processInfraredReceiveEj
01022f00 g     O .bss	00000001 OSCPUUsage
010006b0 g     F .text	0000005c _ZN10DataSourceD2Ev
0102125c  w    O .rwdata	00000004 _ZNSs4_Rep11_S_max_sizeE
01022eb8 g     O .bss	00000004 __mlocale_changed
01002818  w    F .text	00000010 _ZNSt12length_errorD1Ev
01021284 g     O .rwdata	00000004 __malloc_sbrk_base
010001bc g     F .text	0000004c _start
0101f044  w    O .rodata	0000000c _ZTISt11logic_error
01003af4  w    F .text	00000008 _ZNKSs4dataEv
01022f34 g     O .bss	00000004 _alt_tick_rate
01018c78 g     F .text	00000320 OSQPend
0101f348  w    O .rodata	0000000d _ZTSSt9type_info
01003ae8  w    F .text	0000000c _ZNKSs8capacityEv
01003a38  w    F .text	0000000c _ZNSs7_M_dataEPc
0101be84 g     F .text	0000014c OSTimeDly
01003044 g     F .text	00000030 _ZNSt15underflow_errorC1ERKSs
0100f968 g     F .text	0000014c __lshift
01003a68  w    F .text	00000018 _ZNKSs8_M_limitEmm
01021248  w    O .rwdata	00000008 _ZTI14CommandHandler
0101f20c  w    O .rodata	00000014 _ZTVSt9bad_alloc
01022f38 g     O .bss	00000004 _alt_nticks
0100a548 g     F .text	0000001c signal
01013a54 g     F .text	00000120 read
010067a0  w    F .text	000000cc _ZNSs14_M_replace_auxEmmmc
0101c450 g     F .text	00000068 alt_sys_init
010058c8  w    F .text	000000fc _ZNSsC2ERKSs
01003afc  w    F .text	00000008 _ZNKSs13get_allocatorEv
0101f2bc  w    O .rodata	0000000c _ZTISt10bad_typeid
010005f8 g     F .text	0000005c _ZN10DataSourceD0Ev
0101e7f0 g     F .text	00000134 __register_exitproc
0101f220  w    O .rodata	0000000d _ZTSSt9bad_alloc
01022f01 g     O .bss	00000001 OSTaskCtr
01003ef8  w    F .text	00000094 _ZNKSs4findEPKcmm
01006a4c  w    F .text	00000050 _ZNSs5eraseEN9__gnu_cxx17__normal_iteratorIPcSsEES2_
0101bfd0 g     F .text	00000174 OSTimeDlyHMSM
0100fab4 g     F .text	000001e8 __multiply
0101cb48 g     F .text	00000074 altera_avalon_jtag_uart_close
0101f7f4 g       *ABS*	00000000 __ram_rwdata_start
01009494 g     F .text	000000f8 _Unwind_SjLj_RaiseException
0101eda0 g       *ABS*	00000000 __ram_rodata_start
010046c4  w    F .text	00000060 _ZNKSs7compareERKSs
0102774c g     O .bss	00000028 __malloc_current_mallinfo
01009438 g     F .text	0000005c _Unwind_SjLj_Resume
010212c6 g     O .rwdata	00000002 OSEventMax
01006de8  w    F .text	00000014 _ZNSs7_M_leakEv
0100f660 g     F .text	0000017c __d2b
0101a0e8 g     F .text	00000128 OSSemPost
01008e40 g     F .text	00000010 _ZNSt9type_infoD2Ev
01014cd4 g     F .text	000000e4 OSSchedUnlock
01008c30 g     F .text	00000078 _ZNK10__cxxabiv120__si_class_type_info11__do_upcastEPKNS_17__class_type_infoEPKvRNS1_15__upcast_resultE
0100285c  w    F .text	00000010 _ZNSt16invalid_argumentD1Ev
01003ac0  w    F .text	00000010 _ZNKSs3endEv
01003de4  w    F .text	0000002c _ZNSs9_M_assignEPcmc
01000f04  w    F .text	00000038 _ZNSt10_List_baseIP8os_eventSaIS1_EED2Ev
0101c4f0 g     F .text	00000058 altera_avalon_jtag_uart_read_fd
0101e620 g     F .text	000000f4 alt_get_fd
01022f04 g     O .bss	00000004 OSMemFreeList
01014e28 g     F .text	000000ac OSStatInit
01004114  w    F .text	00000064 _ZNKSs5rfindEcm
01017808 g     F .text	000000d4 OSFlagQuery
01013080 g     F .text	000000c8 __fpcmp_parts_d
0101ee54  w    O .rodata	00000014 _ZTSSt15underflow_error
010212fc g     O .rwdata	00000002 OSTaskCreateExtEn
01000340 g     F .text	0000006c _ZN14CommandHandler21createInfraredReceiveEv
010045c8  w    F .text	00000010 _ZNKSs13find_first_ofEcm
010109b0 g     F .text	00000070 _close_r
01009f18 g     F .text	00000074 memcmp
01015134 g     F .text	0000001c OS_Dummy
0101c5a0 g     F .text	00000048 altera_avalon_jtag_uart_close_fd
0102ac28 g       *ABS*	00000000 __alt_stack_base
0101c5e8 g     F .text	00000050 altera_avalon_jtag_uart_ioctl_fd
01000d28  w    F .text	00000040 _ZNSt10_List_baseIP8os_eventSaIS1_EE11_M_put_nodeEPSt10_List_nodeIS1_E
0100799c g     F .text	00000034 _ZNSt9bad_allocD0Ev
01008cdc g     F .text	00000010 _ZN10__cxxabiv120__si_class_type_infoD1Ev
01002790  w    F .text	00000010 _ZNSt11range_errorD1Ev
0100c578 g     F .text	0000013c __swsetup_r
0101eebc  w    O .rodata	00000010 _ZTSSt11range_error
01028f14 g     O .bss	000001e0 OSQTbl
0100965c g     F .text	00000058 _Unwind_SjLj_Resume_or_Rethrow
0101216c g     F .text	00000258 __divdf3
0100e280 g     F .text	000000f0 __sfp
0100f4c4 g     F .text	00000058 __copybits
0101ef80  w    O .rodata	0000000c _ZTISt12domain_error
0101f36c  w    O .rodata	0000000c _ZTSSt8bad_cast
01008df8 g     F .text	00000008 _ZNKSt9type_info14__is_pointer_pEv
010076ec  w    F .text	0000001c _ZNSs7replaceEN9__gnu_cxx17__normal_iteratorIPcSsEES2_NS0_IPKcSsEES5_
0101ee7c  w    O .rodata	0000000c _ZTISt14overflow_error
0101f7f4 g     O .rwdata	00000408 __malloc_av_
0100e114 g     F .text	00000004 __sinit_lock_release
01022f08 g     O .bss	00000004 OSTCBHighRdy
01011da8 g     F .text	000003c4 __muldf3
01010768 g     F .text	00000060 __sread
0101f1c8  w    O .rodata	00000014 _ZTVSt9exception
01022f0c g     O .bss	00000004 OSQFreeList
0101e500 g     F .text	00000120 alt_find_file
01007850  w    F .text	00000030 _ZNSs7replaceEN9__gnu_cxx17__normal_iteratorIPcSsEES2_RKSs
01007a5c g     F .text	00000020 _ZNK10__cxxabiv117__class_type_info20__do_find_public_srcElPKvPKS0_S2_
01006d78  w    F .text	00000014 _ZNSs5clearEv
0101d4e4 g     F .text	000000b4 alt_dev_llist_insert
01013f78 g     F .text	00000108 __malloc_lock
01013c34 g     F .text	000000bc sbrk
01001f04 g     F .text	00000190 _ZSt20__throw_domain_errorPKc
010018c4 g     F .text	00000190 _ZSt19__throw_logic_errorPKc
0101f23c  w    O .rodata	0000002c _ZTVN10__cxxabiv117__class_type_infoE
01008b08 g     F .text	00000074 __cxa_throw
01014280 g     F .text	00000144 OSEventNameSet
0100de80 g     F .text	000001fc _fflush_r
010091f0 g     F .text	00000010 _Unwind_SetIP
010044cc  w    F .text	00000088 _ZNKSs13find_first_ofEPKcmm
010108fc g     F .text	000000b4 _calloc_r
01022f10 g     O .bss	00000001 OSRdyGrp
01004178  w    F .text	00000010 _ZNKSs12find_last_ofEcm
0101ef14  w    O .rodata	0000000c _ZTISt12length_error
01003b30  w    F .text	0000000c _ZNSs4_Rep13_M_set_leakedEv
01005568  w    F .text	00000034 _ZNSsC2EPKcmRKSaIcE
01002094 g     F .text	00000190 _ZSt19__throw_range_errorPKc
01003384 g     F .text	00000030 _ZNSt16invalid_argumentC1ERKSs
01022e84 g       *ABS*	00000000 __bss_start
01004554  w    F .text	0000000c _ZNKSs13find_first_ofERKSsm
01004d10  w    F .text	000000a0 _ZNKSs7compareEmmRKSs
0100a10c g     F .text	00000098 memset
01003b44  w    F .text	00000014 _ZNSs4_Rep26_M_set_length_and_sharableEm
01003a9c  w    F .text	0000000c _ZNSs12_S_empty_repEv
010015dc g     F .text	00000110 main
0101f014  w    O .rodata	00000012 _ZTSSt13runtime_error
01022ecc g     O .bss	00000004 alt_envp
01022eac g     O .bss	00000004 __malloc_max_total_mem
0101f298  w    O .rodata	00000014 _ZTVSt10bad_typeid
0101c548 g     F .text	00000058 altera_avalon_jtag_uart_write_fd
01001788 g     F .text	00000034 _ZSt21__throw_bad_exceptionv
0100915c g     F .text	00000008 __cxa_get_globals_fast
0101f6b0 g     O .rodata	00000100 OSUnMapTbl
010212f6 g     O .rwdata	00000002 OSSemEn
0101efc8  w    O .rodata	00000016 _ZTSNSt8ios_base7failureE
010005bc g     F .text	0000003c _ZN10DataSource14removeListenerEP8os_event
01017460 g     F .text	000003a8 OSFlagPost
0101f358  w    O .rodata	00000014 _ZTVSt8bad_cast
0101067c g     F .text	00000008 __sclose
02000000 g       *ABS*	00000000 __alt_heap_limit
01000748  w    F .text	00000028 _ZnwmPv
010007c0  w    F .text	00000020 _ZN9__gnu_cxx13new_allocatorIP8os_eventED2Ev
01010b30 g     F .text	00000014 fclose
010152e4 g     F .text	00000110 OS_EventTaskWait
01015ed0 g     F .text	000000c8 OS_TaskStatStkChk
0102aa98 g     O .bss	00000190 _atexit0
0101b198 g     F .text	00000170 OSTaskDelReq
010027d4  w    F .text	00000010 _ZNSt12out_of_rangeD1Ev
01021250  w    O .rwdata	00000008 _ZTI10DataSource
01000770  w    F .text	00000020 _ZN9__gnu_cxx13new_allocatorIP8os_eventEC2Ev
0100c8cc g     F .text	000015b4 _dtoa_r
010096f4 g     F .text	00000740 _malloc_r
01005500  w    F .text	00000034 _ZNSsC2IPKcEET_S2_RKSaIcE
01004ac4  w    F .text	00000034 _ZNSsC2ERKSaIcE
010212ac g     O .rwdata	00000004 alt_errno
01000a24  w    F .text	00000038 _ZNSt4listIP8os_eventSaIS1_EE3endEv
01007740  w    F .text	0000001c _ZNSs7replaceEN9__gnu_cxx17__normal_iteratorIPcSsEES2_S1_S1_
01014db8 g     F .text	00000070 OSStart
010030d4 g     F .text	00000030 _ZNSt14overflow_errorC2ERKSs
0100275c  w    F .text	00000034 _ZNSt11range_errorD0Ev
0100a3d0 g     F .text	00000010 _init_signal
01013f1c g     F .text	0000005c __env_unlock
0101f28c  w    O .rodata	0000000c _ZTIN10__cxxabiv117__class_type_infoE
01000994  w    F .text	00000024 _ZN9__gnu_cxx13new_allocatorIP8os_eventE7destroyEPS2_
0100ed14 g     F .text	000000b8 _fwalk
0101b684 g     F .text	00000218 OSTaskResume
0101837c g     F .text	000000fc OSMemQuery
01001100 g     F .text	00000024 _ZN15InfraredHandler4initEv
01021308 g     O .rwdata	00000002 OSTaskStatEn
010212e2 g     O .rwdata	00000002 OSMemMax
010043dc  w    F .text	000000e4 _ZNKSs12find_last_ofEPKcmm
01019294 g     F .text	00000188 OSQPostFront
01007970 g     F .text	00000010 _ZNSt13bad_exceptionD1Ev
01012a4c g     F .text	00000060 __divsi3
01022f11 g     O .bss	00000003 OSRdyTbl
010212bc g     O .rwdata	00000002 OSDebugEn
0101f57c g     O .rodata	00000014 __thenan_df
0100e370 g     F .text	0000012c _malloc_trim_r
0101eda0 g       *ABS*	00000000 __CTOR_END__
010212d4 g     O .rwdata	00000002 OSFlagNodeSize
01006040  w    F .text	000000bc _ZNSs6appendERKSs
0102131c g     O .rwdata	00000002 OSTmrCfgMax
01005c64  w    F .text	00000088 _ZNSs9push_backEc
01000fd0  w    F .text	0000003c _ZNSt10_List_baseIP8os_eventSaIS1_EE11_M_get_nodeEv
010107c8 g     F .text	000000bc strcmp
01004fd8  w    F .text	00000020 _ZNSs13_S_copy_charsEPcPKcS1_
0101869c g     F .text	00000214 OSQCreate
0101b308 g     F .text	000001b8 OSTaskNameGet
0101eda0 g       *ABS*	00000000 __flash_rodata_start
0101941c g     F .text	00000234 OSQPostOpt
01014ed4 g     F .text	00000240 OSTimeTick
01021304 g     O .rwdata	00000002 OSTaskMax
01002b5c g     F .text	00000104 _ZNSt8ios_base7failureD2Ev
0101eda0 g       *ABS*	00000000 __DTOR_LIST__
0101993c g     F .text	00000114 OSSemCreate
010029bc g     F .text	000000d0 _ZNSt8ios_base7failureC1ERKSs
01021328 g     O .rwdata	00000002 OSTmrWheelSize
010055d0  w    F .text	00000060 _ZNSsC1EPKcRKSaIcE
0101244c g     F .text	00000088 __nedf2
01009008 g     F .text	00000010 _ZNSt8bad_castD2Ev
0101ede4  w    O .rodata	00000011 _ZTS14CommandHandler
010212fe g     O .rwdata	00000002 OSTaskDelEn
010032c4 g     F .text	00000030 _ZNSt12out_of_rangeC1ERKSs
01000208 g     F .text	00000030 _ZN14CommandHandlerC2Ev
0101a210 g     F .text	00000130 OSSemQuery
010188b0 g     F .text	00000300 OSQDel
01018f98 g     F .text	0000017c OSQPendAbort
0101c41c g     F .text	00000034 alt_irq_init
01005018  w    F .text	000000c4 _ZNSs12_S_constructIPcEES0_T_S1_RKSaIcESt20forward_iterator_tag
01013bd4 g     F .text	00000060 alt_release_fd
01008ca8 g     F .text	00000034 _ZN10__cxxabiv120__si_class_type_infoD0Ev
01006ccc  w    F .text	00000050 _ZNSs6insertEmPKc
0101f590 g     O .rodata	00000100 __clz_tab
01003810 g     F .text	00000104 _ZNSt11logic_errorD2Ev
01006d8c  w    F .text	0000005c _ZNSs12_M_leak_hardEv
010011f0 g     F .text	00000040 _ZN15InfraredHandler6updateEv
01022ebc g     O .bss	00000004 _PathLocale
0101f034  w    O .rodata	00000010 _ZTSSt11logic_error
01022f3c g     O .bss	00002000 command_check_infrared_task_stk
01002e90 g     F .text	00000104 _ZNSt11logic_errorD1Ev
0101e7a4 g     F .text	00000014 atexit
0101eeb0  w    O .rodata	0000000c _ZTISt11range_error
01003104 g     F .text	00000030 _ZNSt11range_errorC1ERKSs
01010884 g     F .text	00000078 _write_r
010007e0  w    F .text	00000030 _ZNSaIP8os_eventED1Ev
0101ee3c  w    O .rodata	0000000c _ZTI15InfraredHandler
01014c48 g     F .text	0000008c OSSchedLock
0100ee74 g     F .text	0000001c setlocale
010027a0  w    F .text	00000034 _ZNSt12out_of_rangeD0Ev
01009224 g     F .text	00000008 _Unwind_GetTextRelBase
01009118 g     F .text	00000044 __cxa_call_terminate
01016738 g     F .text	0000013c OSFlagCreate
01000654 g     F .text	0000005c _ZN10DataSourceD1Ev
01021288 g     O .rwdata	00000004 _impure_ptr
01022ec4 g     O .bss	00000004 alt_argc
0101d65c g     F .text	00000064 _do_dtors
010212ce g     O .rwdata	00000002 OSEventMultiEn
01007178  w    F .text	00000114 _ZStplIcSt11char_traitsIcESaIcEESbIT_T0_T1_ERKS6_S8_
01016874 g     F .text	000002a8 OSFlagDel
01022f14 g     O .bss	00000004 OSEventFreeList
01000020 g       .exceptions	00000000 alt_irq_entry
01003db8  w    F .text	0000002c _ZNKSs8_M_checkEmPKc
01004840  w    F .text	00000050 _ZNKSs17find_first_not_ofEPKcm
01003fbc  w    F .text	00000010 _ZNKSs5emptyEv
0100f1e0 g     F .text	00000080 __ulp
0101060c g     F .text	00000040 __isinfd
01009214 g     F .text	00000008 _Unwind_FindEnclosingFunction
01016db4 g     F .text	00000644 OSFlagPend
0102131a g     O .rwdata	00000002 OSTmrEn
01003cac  w    F .text	00000010 _ZN9__gnu_cxxeqIPcSsEEbRKNS_17__normal_iteratorIT_T0_EES7_
0100e1cc g     F .text	00000018 __fp_unlock_all
01006aec  w    F .text	0000006c _ZNSs5eraseEmm
01021298 g     O .rwdata	00000008 alt_fs_list
010040e8  w    F .text	0000000c _ZNKSs5rfindERKSsm
01000c90  w    F .text	00000038 _ZNSt4listIP8os_eventSaIS1_EEC1ERKS2_
010052fc  w    F .text	000000ec _ZNSsC2ERKSsmm
010046b8  w    F .text	0000000c _ZNKSs16find_last_not_ofERKSsm
01015cd4 g     F .text	00000080 OS_StrCopy
01009200 g     F .text	0000000c _Unwind_GetLanguageSpecificData
01002828  w    F .text	00000034 _ZNSt16invalid_argumentD0Ev
01008970 g     F .text	00000118 __cxa_begin_catch
010212e4 g     O .rwdata	00000002 OSMemNameSize
01007ac0 g     F .text	00000010 _ZN10__cxxabiv117__class_type_infoD2Ev
0100887c g     F .text	00000010 _ZN10__cxxabiv112__unexpectedEPFvvE
0101e414 g     F .text	0000001c OSInitHookEnd
0101ef20  w    O .rodata	00000011 _ZTSSt12length_error
01000020 g       *ABS*	00000000 __ram_exceptions_start
01021310 g     O .rwdata	00000002 OSTCBPrioTblMax
0100ede0 g     F .text	00000010 localeconv
01001720 g     F .text	00000034 _ZSt16__throw_bad_castv
0102130c g     O .rwdata	00000002 OSTaskStatStkChkEn
0100793c g     F .text	00000034 _ZNSt13bad_exceptionD0Ev
01000ab0  w    F .text	00000034 _ZNSaIP8os_eventEC1ISt10_List_nodeIS0_EEERKSaIT_E
01021270 g     O .rwdata	00000004 _ZN10__cxxabiv119__terminate_handlerE
0101ee68  w    O .rodata	00000014 _ZTVSt15underflow_error
0101d6f0 g     F .text	00000050 alt_ic_isr_register
010212e0 g     O .rwdata	00000002 OSMemEn
01008e90 g     F .text	00000134 __cxa_allocate_exception
010212ea g     O .rwdata	00000002 OSMutexEn
0101f31c  w    O .rodata	0000000c _ZTIN10__cxxabiv120__si_class_type_infoE
01007990 g     F .text	0000000c _ZSt15set_new_handlerPFvvE
010069cc  w    F .text	00000048 _ZNSsaSEc
0102133c g       *ABS*	00000000 _edata
0102ac28 g       *ABS*	00000000 _end
0102126c g     O .rwdata	00000001 _ZSt7nothrow
01003704 g     F .text	0000010c _ZNSt13runtime_errorD0Ev
01022f18 g     O .bss	00000001 OSIntNesting
010082b8 g     F .text	000004e0 __gxx_personality_sj0
01004db0  w    F .text	0000009c _ZNSs4_Rep8_M_cloneERKSaIcEm
010001bc g       *ABS*	00000000 __ram_exceptions_end
0101cbbc g     F .text	000000f4 altera_avalon_jtag_uart_ioctl
0101c144 g     F .text	00000210 OSTimeDlyResume
010008e4  w    F .text	00000020 _ZN9__gnu_cxx13new_allocatorISt10_List_nodeIP8os_eventEED2Ev
01016c60 g     F .text	00000154 OSFlagNameSet
01007b60 g     F .text	0000004c _ZNK10__cxxabiv117__class_type_info12__do_dyncastElNS0_10__sub_kindEPKS0_PKvS3_S5_RNS0_16__dyncast_resultE
0100791c g     F .text	00000010 _ZNSt9exceptionD1Ev
0101b89c g     F .text	000001fc OSTaskStkChk
0101d7dc g     F .text	000000a0 alt_ic_irq_disable
01022e8c g     O .bss	00000004 _ZN14__gnu_internal12atomic_mutexE
010212e6 g     O .rwdata	00000002 OSMemSize
0101efe0  w    O .rodata	0000000c _ZTINSt8ios_base7failureE
010106ec g     F .text	0000007c __swrite
01021280 g     O .rwdata	00000004 __malloc_trim_threshold
0101df64 g     F .text	00000020 altera_nios2_qsys_irq_init
01004244  w    F .text	00000130 _ZNSs4_Rep9_S_createEmmRKSaIcE
01022f1c g     O .bss	00000004 OSTCBCur
0101e7b8 g     F .text	00000038 exit
010091b4 g     F .text	00000018 _Unwind_SetGR
010060fc  w    F .text	00000004 _ZNSspLERKSs
010212e8 g     O .rwdata	00000002 OSMemTblSize
0100ec4c g     F .text	000000c8 _fwalk_reent
0101efa0  w    O .rodata	00000014 _ZTVSt12domain_error
0100f7dc g     F .text	0000018c __mdiff
010087c0 g     F .text	000000a4 _ZN10__cxxabiv111__terminateEPFvvE
01006884  w    F .text	00000068 _ZNSs7replaceEmmmc
01012aac g     F .text	00000060 __modsi3
010004f4 g     F .text	00000064 _ZN10DataSourceC1Ev
010079d0 g     F .text	00000010 _ZNSt9bad_allocD1Ev
02000000 g       *ABS*	00000000 __alt_data_end
01000020 g     F .exceptions	00000000 alt_exception
0100e10c g     F .text	00000004 __sfp_lock_release
01008d30 g     F .text	000000c8 _ZNK10__cxxabiv120__si_class_type_info12__do_dyncastElNS_17__class_type_info10__sub_kindEPKS1_PKvS4_S6_RNS1_16__dyncast_resultE
01014a78 g     F .text	00000054 OSInit
0101f1f0  w    O .rodata	0000000c _ZTISt13bad_exception
01000000 g       *ABS*	00000000 __alt_mem_sdram
0101bcc4 g     F .text	00000144 OSTaskQuery
010197d0 g     F .text	000000ac OS_QInit
01015d54 g     F .text	00000058 OS_StrLen
01000bac  w    F .text	00000038 _ZNSaISt10_List_nodeIP8os_eventEEC2ERKS3_
0101816c g     F .text	00000120 OSMemNameSet
01000f3c  w    F .text	00000030 _ZNSt4listIP8os_eventSaIS1_EED1Ev
01000934  w    F .text	00000030 _ZNSt10_List_baseIP8os_eventSaIS1_EE10_List_implD1Ev
0100286c  w    F .text	00000034 _ZNSt12domain_errorD0Ev
01021302 g     O .rwdata	00000002 OSTaskProfileEn
010012e0 g     F .text	00000058 _ZN15InfraredHandlerD2Ev
01022f20 g     O .bss	00000004 OSTime
01003e40  w    F .text	00000008 _ZNKSs5c_strEv
010290f4 g     O .bss	00000800 OSTaskIdleStk
0101064c g     F .text	00000030 __isnand
01013310 g     F .text	0000002c _exit
01002a8c g     F .text	000000d0 _ZNSt8ios_base7failureC2ERKSs
0101d34c g     F .text	00000154 alt_alarm_start
01016b1c g     F .text	00000144 OSFlagNameGet
010023b4 g     F .text	00000190 _ZSt20__throw_out_of_rangePKc
01004af8  w    F .text	00000090 _ZNKSs7compareEmmPKcm
010068ec  w    F .text	00000060 _ZNSs6insertEN9__gnu_cxx17__normal_iteratorIPcSsEEc
0101c354 g     F .text	00000064 OSTimeGet
01012b1c g     F .text	00000098 __muldi3
01009188 g     F .text	00000018 _Unwind_GetGR
01009164 g     F .text	00000008 __cxa_get_globals
0100ee90 g     F .text	00000194 __smakebuf_r
0102127c g     O .rwdata	00000004 _ZN10__cxxabiv120__unexpected_handlerE
01005f18  w    F .text	00000040 _ZNSspLEPKc
0100a5dc g     F .text	00000074 strlen
01001a54 g     F .text	00000190 _ZSt23__throw_underflow_errorPKc
0100a36c g     F .text	00000064 _init_signal_r
01021274  w    O .rwdata	00000008 _ZTISt9type_info
0101e3a4 g     F .text	0000001c OSTaskSwHook
0101dbd4 g     F .text	00000188 open
01003b0c  w    F .text	0000000c _ZNSs4_Rep12_S_empty_repEv
01003b04  w    F .text	00000008 _ZNSs12_Alloc_hiderC1EPcRKSaIcE
010298f4 g     O .bss	00000b40 OSEventTbl
0101255c g     F .text	00000088 __gedf2
0101f1fc  w    O .rodata	0000000d _ZTSSt9exception
0102a434 g     O .bss	00000510 OSTCBTbl
0101efec  w    O .rodata	00000014 _ZTVSt13runtime_error
0101a340 g     F .text	00000104 OSSemSet
0101f2ac  w    O .rodata	0000000f _ZTSSt10bad_typeid
01003fcc  w    F .text	0000000c _ZNKSs6lengthEv
01004ff8  w    F .text	00000020 _ZNSs13_S_copy_charsEPcS_S_
01003444 g     F .text	00000008 _ZNKSt11logic_error4whatEv
0100543c  w    F .text	000000c4 _ZNSs12_S_constructIPKcEEPcT_S3_RKSaIcESt20forward_iterator_tag
0100790c g     F .text	00000010 _ZNSt9exceptionD0Ev
01006fb0  w    F .text	00000070 _ZNSs6resizeEmc
0101d6c0 g     F .text	00000030 alt_icache_flush_all
0101efb4  w    O .rodata	00000014 _ZTVNSt8ios_base7failureE
01008c10 g     F .text	00000010 _ZNSt10bad_typeidD1Ev
0100921c g     F .text	00000008 _Unwind_GetDataRelBase
01007724  w    F .text	0000001c _ZNSs7replaceEN9__gnu_cxx17__normal_iteratorIPcSsEES2_PKcS4_
01021330 g     O .rwdata	00000004 alt_priority_mask
01006b58  w    F .text	00000174 _ZNSs6insertEmPKcm
01019a50 g     F .text	000002a0 OSSemDel
01002dd4 g     F .text	00000094 _ZNSt15_List_node_base4swapERS_S0_
01022f24 g     O .bss	00000004 OSFlagFreeList
0101d740 g     F .text	0000009c alt_ic_irq_enable
010212c8 g     O .rwdata	00000002 OSEventNameSize
0100c554 g     F .text	00000024 __vfprintf_internal
01003adc  w    F .text	0000000c _ZNKSs8max_sizeEv
01022f28 g     O .bss	00000001 OSStatRdy
0102a944 g     O .bss	00000054 OSTCBPrioTbl
01013e70 g     F .text	000000ac __env_lock
0102130e g     O .rwdata	00000002 OSTaskSwHookEn
010028b8 g     F .text	00000104 _ZNSt8ios_base7failureD1Ev
01008c20 g     F .text	00000010 _ZNSt10bad_typeidD2Ev
01011cb4 g     F .text	00000080 __subdf3
01004374  w    F .text	00000004 _ZNSs4_Rep10_M_destroyERKSaIcE
01004c50  w    F .text	000000c0 _ZNKSs7compareEmmRKSsmm
010044c0  w    F .text	0000000c _ZNKSs12find_last_ofERKSsm
01005630  w    F .text	00000060 _ZNSsC2EPKcRKSaIcE
01003b58  w    F .text	00000008 _ZNSs4_Rep10_M_refdataEv
0100f0bc g     F .text	000000c4 __lo0bits
01001070  w    F .text	0000004c _ZNSt4listIP8os_eventSaIS1_EE9_M_insertESt14_List_iteratorIS1_ERKS1_
01006f5c  w    F .text	00000054 _ZNSs6rbeginEv
0100694c  w    F .text	00000048 _ZNSs6insertEmmc
01021334 g     O .rwdata	00000008 alt_alarm_list
010212d6 g     O .rwdata	00000002 OSFlagWidth
0101d5f8 g     F .text	00000064 _do_ctors
0100a494 g     F .text	00000014 __sigtramp
0101ef48  w    O .rodata	0000000c _ZTISt16invalid_argument
01005764  w    F .text	00000034 _ZNSsC2IN9__gnu_cxx17__normal_iteratorIPcSsEEEET_S4_RKSaIcE
01003a80  w    F .text	0000001c _ZNKSs11_M_disjunctEPKc
01013148 g     F .text	000000fc close
0100728c  w    F .text	00000034 _ZNSs4swapERSs
01004a18  w    F .text	0000003c _ZNSsC1EmcRKSaIcE
01022ed4 g     O .bss	00000004 alt_envsem
01022f2c g     O .bss	00000004 OSIdleCtrRun
01015114 g     F .text	00000020 OSVersion
01021320 g     O .rwdata	00000002 OSTmrCfgWheelSize
01003164 g     F .text	000000b0 _ZNSt11logic_errorC1ERKSs
01013750 g     F .text	00000080 alt_load
0101be08 g     F .text	0000007c OS_TaskStkClr
01000848  w    F .text	00000038 _ZNSt14_List_iteratorIP8os_eventEppEv
01012c34 g     F .text	00000314 __pack_d
010212fa g     O .rwdata	00000002 OSTaskCreateEn
01003aa8  w    F .text	00000010 _ZNSsC1Ev
01008e08 g     F .text	00000010 _ZNKSt9type_info10__do_catchEPKS_PPvj
010003dc g     F .text	00000050 _ZN14CommandHandlerD0Ev
01015704 g     F .text	00000068 OS_EventWaitListInit
0100a358 g     F .text	00000014 raise
0101e430 g     F .text	0000001c OSTaskIdleHook
010033b4 g     F .text	00000030 _ZNSt16invalid_argumentC2ERKSs
010096cc g     F .text	00000014 free
0100e110 g     F .text	00000004 __sinit_lock_acquire
01003354 g     F .text	00000030 _ZNSt12length_errorC2ERKSs
0100fcd8 g     F .text	00000100 __multadd
01007a7c g     F .text	00000034 _ZN10__cxxabiv117__class_type_infoD0Ev
0101ee28  w    O .rodata	00000012 _ZTS15InfraredHandler
0101ba98 g     F .text	0000022c OSTaskSuspend
0100f024 g     F .text	00000028 _Bfree
01005dcc  w    F .text	0000010c _ZNSs6appendEPKcm
01015dac g     F .text	0000005c OS_TaskIdle
0100344c g     F .text	000000b0 _ZNSt13runtime_errorC1ERKSs
010051d0  w    F .text	000000ec _ZNSsC1ERKSsmm
01021326 g     O .rwdata	00000002 OSTmrTblSize
01019650 g     F .text	00000180 OSQQuery



Disassembly of section .entry:

01000000 <__reset>:
#if NIOS2_ICACHE_SIZE > 0 && defined(ALT_ALLOW_CODE_AT_RESET) && !defined(ALT_SIM_OPTIMIZE)
    /* Assume the instruction cache size is always a power of two. */
#if NIOS2_ICACHE_SIZE > 0x8000
    movhi r2, %hi(NIOS2_ICACHE_SIZE)
#else
    movui r2, NIOS2_ICACHE_SIZE
 1000000:	00880014 	movui	r2,8192
#endif

0:
    initi r2
 1000004:	1001483a 	initi	r2
    addi r2, r2, -NIOS2_ICACHE_LINE_SIZE
 1000008:	10bff804 	addi	r2,r2,-32
    bgt r2, zero, 0b
 100000c:	00bffd16 	blt	zero,r2,1000004 <__reset+0x4>
 * Jump to the _start entry point in the .text section if reset code
 * is allowed or if optimizing for RTL simulation.
 */
#if defined(ALT_ALLOW_CODE_AT_RESET) || defined(ALT_SIM_OPTIMIZE)
    /* Jump to the _start entry point in the .text section. */
    movhi r1, %hi(_start)
 1000010:	00404034 	movhi	at,256
    ori r1, r1, %lo(_start)
 1000014:	08406f14 	ori	at,at,444
    jmp r1
 1000018:	0800683a 	jmp	at
 100001c:	00000000 	call	0 <OSTCBStkPtr_OFFSET>

Disassembly of section .exceptions:

01000020 <alt_exception>:
         * Process an exception.  For all exceptions we must preserve all
         * caller saved registers on the stack (See the Nios2 ABI
         * documentation for details).
         */

        addi  sp, sp, -76
 1000020:	deffed04 	addi	sp,sp,-76

#endif

#endif

        stw   ra,  0(sp)
 1000024:	dfc00015 	stw	ra,0(sp)
        /*
         * Leave a gap in the stack frame at 4(sp) for the muldiv handler to
         * store zero into.
         */

        stw   r1,   8(sp)
 1000028:	d8400215 	stw	at,8(sp)
        stw   r2,  12(sp)
 100002c:	d8800315 	stw	r2,12(sp)
        stw   r3,  16(sp)
 1000030:	d8c00415 	stw	r3,16(sp)
        stw   r4,  20(sp)
 1000034:	d9000515 	stw	r4,20(sp)
        stw   r5,  24(sp)
 1000038:	d9400615 	stw	r5,24(sp)
        stw   r6,  28(sp)
 100003c:	d9800715 	stw	r6,28(sp)
        stw   r7,  32(sp)
 1000040:	d9c00815 	stw	r7,32(sp)

        rdctl r5, estatus
 1000044:	000b307a 	rdctl	r5,estatus

        stw   r8,  36(sp)
 1000048:	da000915 	stw	r8,36(sp)
        stw   r9,  40(sp)
 100004c:	da400a15 	stw	r9,40(sp)
        stw   r10, 44(sp)
 1000050:	da800b15 	stw	r10,44(sp)
        stw   r11, 48(sp)
 1000054:	dac00c15 	stw	r11,48(sp)
        stw   r12, 52(sp)
 1000058:	db000d15 	stw	r12,52(sp)
        stw   r13, 56(sp)
 100005c:	db400e15 	stw	r13,56(sp)
        stw   r14, 60(sp)
 1000060:	db800f15 	stw	r14,60(sp)
        stw   r15, 64(sp)
 1000064:	dbc01015 	stw	r15,64(sp)
        /*
         * ea-4 contains the address of the instruction being executed
         * when the exception occured. For interrupt exceptions, we will
         * will be re-issue the isntruction. Store it in 72(sp)
         */
        stw   r5,  68(sp)  /* estatus */
 1000068:	d9401115 	stw	r5,68(sp)
        addi  r15, ea, -4  /* instruction that caused exception */
 100006c:	ebffff04 	addi	r15,ea,-4
        stw   r15,  72(sp)
 1000070:	dbc01215 	stw	r15,72(sp)
#else
        /*
         * Test to see if the exception was a software exception or caused 
         * by an external interrupt, and vector accordingly.
         */
        rdctl r4, ipending
 1000074:	0009313a 	rdctl	r4,ipending
        andi  r2, r5, 1
 1000078:	2880004c 	andi	r2,r5,1
        beq   r2, zero, .Lnot_irq
 100007c:	10000326 	beq	r2,zero,100008c <alt_exception+0x6c>
        beq   r4, zero, .Lnot_irq
 1000080:	20000226 	beq	r4,zero,100008c <alt_exception+0x6c>
        /*
         * Now that all necessary registers have been preserved, call 
         * alt_irq_handler() to process the interrupts.
         */

        call alt_irq_handler
 1000084:	10000ec0 	call	10000ec <alt_irq_handler>

        .section .exceptions.irqreturn, "xa"

        br    .Lexception_exit
 1000088:	00000306 	br	1000098 <alt_exception+0x78>
         * upon completion, so we write ea (address of instruction *after*
         * the one where the exception occured) into 72(sp). The actual
         * instruction that caused the exception is written in r2, which these
         * handlers will utilize.
         */
        stw   ea,  72(sp)  /* Don't re-issue */
 100008c:	df401215 	stw	ea,72(sp)
        ldw   r2, -4(ea)   /* Instruction that caused exception */
 1000090:	e8bfff17 	ldw	r2,-4(ea)
#ifdef NIOS2_HAS_DEBUG_STUB
       /*
        *  Either tell the user now (if there is a debugger attached) or go into
        *  the debug monitor which will loop until a debugger is attached.
        */
        break
 1000094:	003da03a 	break	0
        /* 
         * Restore the saved registers, so that all general purpose registers 
         * have been restored to their state at the time the interrupt occured.
         */

        ldw   r5,  68(sp)
 1000098:	d9401117 	ldw	r5,68(sp)
        ldw   ea,  72(sp)  /* This becomes the PC once eret is executed */
 100009c:	df401217 	ldw	ea,72(sp)
        ldw   ra,   0(sp)
 10000a0:	dfc00017 	ldw	ra,0(sp)

        wrctl estatus, r5
 10000a4:	2801707a 	wrctl	estatus,r5

        ldw   r1,   8(sp)
 10000a8:	d8400217 	ldw	at,8(sp)
        ldw   r2,  12(sp)
 10000ac:	d8800317 	ldw	r2,12(sp)
        ldw   r3,  16(sp)
 10000b0:	d8c00417 	ldw	r3,16(sp)
        ldw   r4,  20(sp)
 10000b4:	d9000517 	ldw	r4,20(sp)
        ldw   r5,  24(sp)
 10000b8:	d9400617 	ldw	r5,24(sp)
        ldw   r6,  28(sp)
 10000bc:	d9800717 	ldw	r6,28(sp)
        ldw   r7,  32(sp)
 10000c0:	d9c00817 	ldw	r7,32(sp)
#ifdef ALT_STACK_CHECK
        ldw   et, %gprel(alt_exception_old_stack_limit)(gp)
#endif
#endif

        ldw   r8,  36(sp)
 10000c4:	da000917 	ldw	r8,36(sp)
        ldw   r9,  40(sp)
 10000c8:	da400a17 	ldw	r9,40(sp)
        ldw   r10, 44(sp)
 10000cc:	da800b17 	ldw	r10,44(sp)
        ldw   r11, 48(sp)
 10000d0:	dac00c17 	ldw	r11,48(sp)
        ldw   r12, 52(sp)
 10000d4:	db000d17 	ldw	r12,52(sp)
        ldw   r13, 56(sp)
 10000d8:	db400e17 	ldw	r13,56(sp)
        ldw   r14, 60(sp)
 10000dc:	db800f17 	ldw	r14,60(sp)
        ldw   r15, 64(sp)
 10000e0:	dbc01017 	ldw	r15,64(sp)
#endif

        ldw   sp,  76(sp)

#else
        addi  sp, sp, 76
 10000e4:	dec01304 	addi	sp,sp,76

        /*
         * Return to the interrupted instruction.
         */

        eret
 10000e8:	ef80083a 	eret

010000ec <alt_irq_handler>:
 * instruction is present if the macro ALT_CI_INTERRUPT_VECTOR defined.
 */

void alt_irq_handler (void) __attribute__ ((section (".exceptions")));
void alt_irq_handler (void)
{
 10000ec:	defff904 	addi	sp,sp,-28
 10000f0:	dfc00615 	stw	ra,24(sp)
 10000f4:	df000515 	stw	fp,20(sp)
 10000f8:	df000504 	addi	fp,sp,20
  
  /*
   * Notify the operating system that we are at interrupt level.
   */ 
  
  ALT_OS_INT_ENTER();
 10000fc:	1014acc0 	call	1014acc <OSIntEnter>
#ifndef NIOS2_EIC_PRESENT
static ALT_INLINE alt_u32 ALT_ALWAYS_INLINE alt_irq_pending (void)
{
  alt_u32 active;

  NIOS2_READ_IPENDING (active);
 1000100:	0005313a 	rdctl	r2,ipending
 1000104:	e0bffc15 	stw	r2,-16(fp)

  return active;
 1000108:	e0bffc17 	ldw	r2,-16(fp)
   * Consider the case where the high priority interupt is asserted during
   * the interrupt entry sequence for a lower priority interrupt to see why
   * this is the case.
   */

  active = alt_irq_pending ();
 100010c:	e0bfff15 	stw	r2,-4(fp)

  do
  {
    i = 0;
 1000110:	e03ffd15 	stw	zero,-12(fp)
    mask = 1;
 1000114:	00800044 	movi	r2,1
 1000118:	e0bffe15 	stw	r2,-8(fp)
     * called to clear the interrupt condition.
     */

    do
    {
      if (active & mask)
 100011c:	e0ffff17 	ldw	r3,-4(fp)
 1000120:	e0bffe17 	ldw	r2,-8(fp)
 1000124:	1884703a 	and	r2,r3,r2
 1000128:	1005003a 	cmpeq	r2,r2,zero
 100012c:	1000161e 	bne	r2,zero,1000188 <alt_irq_handler+0x9c>
      { 
#ifdef ALT_ENHANCED_INTERRUPT_API_PRESENT
        alt_irq[i].handler(alt_irq[i].context); 
 1000130:	e0bffd17 	ldw	r2,-12(fp)
 1000134:	00c040f4 	movhi	r3,259
 1000138:	18ea6604 	addi	r3,r3,-22120
 100013c:	100490fa 	slli	r2,r2,3
 1000140:	10c5883a 	add	r2,r2,r3
 1000144:	11400017 	ldw	r5,0(r2)
 1000148:	e0bffd17 	ldw	r2,-12(fp)
 100014c:	00c040f4 	movhi	r3,259
 1000150:	18ea6604 	addi	r3,r3,-22120
 1000154:	100490fa 	slli	r2,r2,3
 1000158:	10c5883a 	add	r2,r2,r3
 100015c:	10800104 	addi	r2,r2,4
 1000160:	11000017 	ldw	r4,0(r2)
 1000164:	283ee83a 	callr	r5
#ifndef NIOS2_EIC_PRESENT
static ALT_INLINE alt_u32 ALT_ALWAYS_INLINE alt_irq_pending (void)
{
  alt_u32 active;

  NIOS2_READ_IPENDING (active);
 1000168:	0005313a 	rdctl	r2,ipending
 100016c:	e0bffb15 	stw	r2,-20(fp)

  return active;
 1000170:	e0bffb17 	ldw	r2,-20(fp)
      mask <<= 1;
      i++;

    } while (1);

    active = alt_irq_pending ();
 1000174:	e0bfff15 	stw	r2,-4(fp)
    
  } while (active);
 1000178:	e0bfff17 	ldw	r2,-4(fp)
 100017c:	1004c03a 	cmpne	r2,r2,zero
 1000180:	103fe31e 	bne	r2,zero,1000110 <alt_irq_handler+0x24>
 1000184:	00000706 	br	10001a4 <alt_irq_handler+0xb8>
#else
        alt_irq[i].handler(alt_irq[i].context, i); 
#endif
        break;
      }
      mask <<= 1;
 1000188:	e0bffe17 	ldw	r2,-8(fp)
 100018c:	1085883a 	add	r2,r2,r2
 1000190:	e0bffe15 	stw	r2,-8(fp)
      i++;
 1000194:	e0bffd17 	ldw	r2,-12(fp)
 1000198:	10800044 	addi	r2,r2,1
 100019c:	e0bffd15 	stw	r2,-12(fp)

    } while (1);
 10001a0:	003fde06 	br	100011c <alt_irq_handler+0x30>

  /*
   * Notify the operating system that interrupt processing is complete.
   */ 

  ALT_OS_INT_EXIT();
 10001a4:	1014b480 	call	1014b48 <OSIntExit>
}
 10001a8:	e037883a 	mov	sp,fp
 10001ac:	dfc00117 	ldw	ra,4(sp)
 10001b0:	df000017 	ldw	fp,0(sp)
 10001b4:	dec00204 	addi	sp,sp,8
 10001b8:	f800283a 	ret

Disassembly of section .text:

010001bc <_start>:

    /* Assume the data cache size is always a power of two. */
#if NIOS2_DCACHE_SIZE > 0x8000
    movhi r2, %hi(NIOS2_DCACHE_SIZE)
#else
    movui r2, NIOS2_DCACHE_SIZE
 10001bc:	00840014 	movui	r2,4096
#endif

0:
    initd 0(r2)
 10001c0:	10000033 	initd	0(r2)
    addi r2, r2, -NIOS2_DCACHE_LINE_SIZE
 10001c4:	10bff804 	addi	r2,r2,-32
    bgt r2, zero, 0b
 10001c8:	00bffd16 	blt	zero,r2,10001c0 <_start+0x4>
#if (NIOS2_NUM_OF_SHADOW_REG_SETS == 0)    
    /*
     * Now that the caches are initialized, set up the stack pointer.
     * The value provided by the linker is assumed to be correctly aligned.
     */
    movhi sp, %hi(__alt_stack_pointer)
 10001cc:	06c08034 	movhi	sp,512
    ori sp, sp, %lo(__alt_stack_pointer)
 10001d0:	dec00014 	ori	sp,sp,0

    /* Set up the global pointer. */
    movhi gp, %hi(_gp)
 10001d4:	068040b4 	movhi	gp,258
    ori gp, gp, %lo(_gp)
 10001d8:	d6a49214 	ori	gp,gp,37448
 */
#ifndef ALT_SIM_OPTIMIZE
    /* Log that the BSS is about to be cleared. */
    ALT_LOG_PUTS(alt_log_msg_bss)

    movhi r2, %hi(__bss_start)
 10001dc:	008040b4 	movhi	r2,258
    ori r2, r2, %lo(__bss_start)
 10001e0:	108ba114 	ori	r2,r2,11908

    movhi r3, %hi(__bss_end)
 10001e4:	00c040b4 	movhi	r3,258
    ori r3, r3, %lo(__bss_end)
 10001e8:	18eb0a14 	ori	r3,r3,44072

    beq r2, r3, 1f
 10001ec:	10c00326 	beq	r2,r3,10001fc <_start+0x40>

0:
    stw zero, (r2)
 10001f0:	10000015 	stw	zero,0(r2)
    addi r2, r2, 4
 10001f4:	10800104 	addi	r2,r2,4
    bltu r2, r3, 0b
 10001f8:	10fffd36 	bltu	r2,r3,10001f0 <_start+0x34>
     * section aren't defined until alt_load() has been called).
     */
    mov   et, zero
#endif

    call alt_load
 10001fc:	10137500 	call	1013750 <alt_load>

    /* Log that alt_main is about to be called. */
    ALT_LOG_PUTS(alt_log_msg_alt_main)

    /* Call the C entry point. It should never return. */
    call alt_main
 1000200:	101398c0 	call	101398c <alt_main>

01000204 <alt_after_alt_main>:

    /* Wait in infinite loop in case alt_main does return. */
alt_after_alt_main:
    br alt_after_alt_main
 1000204:	003fff06 	br	1000204 <alt_after_alt_main>

01000208 <_ZN14CommandHandlerC2Ev>:

#include <stdio.h>
#include "CommandHandler.h"

// ALLOCATION
CommandHandler::CommandHandler() {}
 1000208:	defffe04 	addi	sp,sp,-8
 100020c:	df000115 	stw	fp,4(sp)
 1000210:	df000104 	addi	fp,sp,4
 1000214:	e13fff15 	stw	r4,-4(fp)
 1000218:	00c040b4 	movhi	r3,258
 100021c:	18fb7704 	addi	r3,r3,-4644
 1000220:	e0bfff17 	ldw	r2,-4(fp)
 1000224:	10c00015 	stw	r3,0(r2)
 1000228:	e037883a 	mov	sp,fp
 100022c:	df000017 	ldw	fp,0(sp)
 1000230:	dec00104 	addi	sp,sp,4
 1000234:	f800283a 	ret

01000238 <_ZN14CommandHandlerC1Ev>:
 1000238:	defffe04 	addi	sp,sp,-8
 100023c:	df000115 	stw	fp,4(sp)
 1000240:	df000104 	addi	fp,sp,4
 1000244:	e13fff15 	stw	r4,-4(fp)
 1000248:	00c040b4 	movhi	r3,258
 100024c:	18fb7704 	addi	r3,r3,-4644
 1000250:	e0bfff17 	ldw	r2,-4(fp)
 1000254:	10c00015 	stw	r3,0(r2)
 1000258:	e037883a 	mov	sp,fp
 100025c:	df000017 	ldw	fp,0(sp)
 1000260:	dec00104 	addi	sp,sp,4
 1000264:	f800283a 	ret

01000268 <_ZN14CommandHandler17onInfraredReceiveEv>:

/*
 * Gets the queue used to accept infrared receive events.
 * @return the infrared receive queue
 */
OS_EVENT *CommandHandler::onInfraredReceive() {
 1000268:	defffe04 	addi	sp,sp,-8
 100026c:	df000115 	stw	fp,4(sp)
 1000270:	df000104 	addi	fp,sp,4
 1000274:	e13fff15 	stw	r4,-4(fp)
	return infraredReceiveQueue;
 1000278:	e0bfff17 	ldw	r2,-4(fp)
 100027c:	10800517 	ldw	r2,20(r2)
}
 1000280:	e037883a 	mov	sp,fp
 1000284:	df000017 	ldw	fp,0(sp)
 1000288:	dec00104 	addi	sp,sp,4
 100028c:	f800283a 	ret

01000290 <_ZN14CommandHandler22processInfraredReceiveEj>:

/*
 * Processes an infrared receive event.
 * @param level - the level recorded by the infrared receiver
 */
Status CommandHandler::processInfraredReceive(unsigned int level) {
 1000290:	defffc04 	addi	sp,sp,-16
 1000294:	dfc00315 	stw	ra,12(sp)
 1000298:	df000215 	stw	fp,8(sp)
 100029c:	df000204 	addi	fp,sp,8
 10002a0:	e13ffe15 	stw	r4,-8(fp)
 10002a4:	e17fff15 	stw	r5,-4(fp)
	printf("CommandHandler [event: infrared receive, level: %u]", level);
 10002a8:	010040b4 	movhi	r4,258
 10002ac:	213b6804 	addi	r4,r4,-4704
 10002b0:	e17fff17 	ldw	r5,-4(fp)
 10002b4:	100a1a40 	call	100a1a4 <printf>
	return OK;
 10002b8:	0005883a 	mov	r2,zero
}
 10002bc:	e037883a 	mov	sp,fp
 10002c0:	dfc00117 	ldw	ra,4(sp)
 10002c4:	df000017 	ldw	fp,0(sp)
 10002c8:	dec00204 	addi	sp,sp,8
 10002cc:	f800283a 	ret

010002d0 <_ZN14CommandHandler20checkInfraredReceiveEv>:

/*
 * Checks the infrared receive queue for new readings.
 * @return OK when a new reading is received and processed without error
 */
Status CommandHandler::checkInfraredReceive() {
 10002d0:	defffa04 	addi	sp,sp,-24
 10002d4:	dfc00515 	stw	ra,20(sp)
 10002d8:	df000415 	stw	fp,16(sp)
 10002dc:	df000404 	addi	fp,sp,16
 10002e0:	e13ffe15 	stw	r4,-8(fp)
	INT8U status;
	int level = (int)OSQPend(infraredReceiveQueue, 0, &status);
 10002e4:	e0bffe17 	ldw	r2,-8(fp)
 10002e8:	11000517 	ldw	r4,20(r2)
 10002ec:	e1bffd04 	addi	r6,fp,-12
 10002f0:	000b883a 	mov	r5,zero
 10002f4:	1018c780 	call	1018c78 <OSQPend>
 10002f8:	e0bffc15 	stw	r2,-16(fp)
	if (status != OS_NO_ERR) {
 10002fc:	e0bffd03 	ldbu	r2,-12(fp)
 1000300:	10803fcc 	andi	r2,r2,255
 1000304:	1005003a 	cmpeq	r2,r2,zero
 1000308:	1000031e 	bne	r2,zero,1000318 <_ZN14CommandHandler20checkInfraredReceiveEv+0x48>
		return ERR_INFRARED;
 100030c:	00800044 	movi	r2,1
 1000310:	e0bfff15 	stw	r2,-4(fp)
 1000314:	00000406 	br	1000328 <_ZN14CommandHandler20checkInfraredReceiveEv+0x58>
	} else {
		return processInfraredReceive(level);
 1000318:	e17ffc17 	ldw	r5,-16(fp)
 100031c:	e13ffe17 	ldw	r4,-8(fp)
 1000320:	10002900 	call	1000290 <_ZN14CommandHandler22processInfraredReceiveEj>
 1000324:	e0bfff15 	stw	r2,-4(fp)
 1000328:	e0bfff17 	ldw	r2,-4(fp)
	}
}
 100032c:	e037883a 	mov	sp,fp
 1000330:	dfc00117 	ldw	ra,4(sp)
 1000334:	df000017 	ldw	fp,0(sp)
 1000338:	dec00204 	addi	sp,sp,8
 100033c:	f800283a 	ret

01000340 <_ZN14CommandHandler21createInfraredReceiveEv>:
	return createInfraredReceive();
}

// INFRARED

Status CommandHandler::createInfraredReceive() {
 1000340:	defffc04 	addi	sp,sp,-16
 1000344:	dfc00315 	stw	ra,12(sp)
 1000348:	df000215 	stw	fp,8(sp)
 100034c:	df000204 	addi	fp,sp,8
 1000350:	e13ffe15 	stw	r4,-8(fp)
	/* Create the infrared receive queue. */
	infraredReceiveQueue = OSQCreate((void**)&infraredReceiveArray, COMMAND_INFRARED_RECEIVE_SIZE);
 1000354:	e0bffe17 	ldw	r2,-8(fp)
 1000358:	10800104 	addi	r2,r2,4
 100035c:	1009883a 	mov	r4,r2
 1000360:	01400104 	movi	r5,4
 1000364:	101869c0 	call	101869c <OSQCreate>
 1000368:	1007883a 	mov	r3,r2
 100036c:	e0bffe17 	ldw	r2,-8(fp)
 1000370:	10c00515 	stw	r3,20(r2)
	if (infraredReceiveQueue == NULL) {
 1000374:	e0bffe17 	ldw	r2,-8(fp)
 1000378:	10800517 	ldw	r2,20(r2)
 100037c:	1004c03a 	cmpne	r2,r2,zero
 1000380:	1000031e 	bne	r2,zero,1000390 <_ZN14CommandHandler21createInfraredReceiveEv+0x50>
		return ERR_INFRARED;
 1000384:	00800044 	movi	r2,1
 1000388:	e0bfff15 	stw	r2,-4(fp)
 100038c:	00000106 	br	1000394 <_ZN14CommandHandler21createInfraredReceiveEv+0x54>
	} else {
		return OK;
 1000390:	e03fff15 	stw	zero,-4(fp)
 1000394:	e0bfff17 	ldw	r2,-4(fp)
	}
}
 1000398:	e037883a 	mov	sp,fp
 100039c:	dfc00117 	ldw	ra,4(sp)
 10003a0:	df000017 	ldw	fp,0(sp)
 10003a4:	dec00204 	addi	sp,sp,8
 10003a8:	f800283a 	ret

010003ac <_ZN14CommandHandler4initEv>:

/*
 * Initializes this handler.
 * @return OK if there are no initialization errors
 */
Status CommandHandler::init() {
 10003ac:	defffd04 	addi	sp,sp,-12
 10003b0:	dfc00215 	stw	ra,8(sp)
 10003b4:	df000115 	stw	fp,4(sp)
 10003b8:	df000104 	addi	fp,sp,4
 10003bc:	e13fff15 	stw	r4,-4(fp)
	return createInfraredReceive();
 10003c0:	e13fff17 	ldw	r4,-4(fp)
 10003c4:	10003400 	call	1000340 <_ZN14CommandHandler21createInfraredReceiveEv>
}
 10003c8:	e037883a 	mov	sp,fp
 10003cc:	dfc00117 	ldw	ra,4(sp)
 10003d0:	df000017 	ldw	fp,0(sp)
 10003d4:	dec00204 	addi	sp,sp,8
 10003d8:	f800283a 	ret

010003dc <_ZN14CommandHandlerD0Ev>:
#include <stdio.h>
#include "CommandHandler.h"

// ALLOCATION
CommandHandler::CommandHandler() {}
CommandHandler::~CommandHandler() {}
 10003dc:	defffd04 	addi	sp,sp,-12
 10003e0:	dfc00215 	stw	ra,8(sp)
 10003e4:	df000115 	stw	fp,4(sp)
 10003e8:	df000104 	addi	fp,sp,4
 10003ec:	e13fff15 	stw	r4,-4(fp)
 10003f0:	00c040b4 	movhi	r3,258
 10003f4:	18fb7704 	addi	r3,r3,-4644
 10003f8:	e0bfff17 	ldw	r2,-4(fp)
 10003fc:	10c00015 	stw	r3,0(r2)
 1000400:	00800044 	movi	r2,1
 1000404:	10803fcc 	andi	r2,r2,255
 1000408:	1005003a 	cmpeq	r2,r2,zero
 100040c:	1000021e 	bne	r2,zero,1000418 <_ZN14CommandHandlerD0Ev+0x3c>
 1000410:	e13fff17 	ldw	r4,-4(fp)
 1000414:	1008a880 	call	1008a88 <_ZdlPv>
 1000418:	e037883a 	mov	sp,fp
 100041c:	dfc00117 	ldw	ra,4(sp)
 1000420:	df000017 	ldw	fp,0(sp)
 1000424:	dec00204 	addi	sp,sp,8
 1000428:	f800283a 	ret

0100042c <_ZN14CommandHandlerD1Ev>:
 100042c:	defffd04 	addi	sp,sp,-12
 1000430:	dfc00215 	stw	ra,8(sp)
 1000434:	df000115 	stw	fp,4(sp)
 1000438:	df000104 	addi	fp,sp,4
 100043c:	e13fff15 	stw	r4,-4(fp)
 1000440:	00c040b4 	movhi	r3,258
 1000444:	18fb7704 	addi	r3,r3,-4644
 1000448:	e0bfff17 	ldw	r2,-4(fp)
 100044c:	10c00015 	stw	r3,0(r2)
 1000450:	0005883a 	mov	r2,zero
 1000454:	10803fcc 	andi	r2,r2,255
 1000458:	1005003a 	cmpeq	r2,r2,zero
 100045c:	1000021e 	bne	r2,zero,1000468 <_ZN14CommandHandlerD1Ev+0x3c>
 1000460:	e13fff17 	ldw	r4,-4(fp)
 1000464:	1008a880 	call	1008a88 <_ZdlPv>
 1000468:	e037883a 	mov	sp,fp
 100046c:	dfc00117 	ldw	ra,4(sp)
 1000470:	df000017 	ldw	fp,0(sp)
 1000474:	dec00204 	addi	sp,sp,8
 1000478:	f800283a 	ret

0100047c <_ZN14CommandHandlerD2Ev>:
 100047c:	defffd04 	addi	sp,sp,-12
 1000480:	dfc00215 	stw	ra,8(sp)
 1000484:	df000115 	stw	fp,4(sp)
 1000488:	df000104 	addi	fp,sp,4
 100048c:	e13fff15 	stw	r4,-4(fp)
 1000490:	00c040b4 	movhi	r3,258
 1000494:	18fb7704 	addi	r3,r3,-4644
 1000498:	e0bfff17 	ldw	r2,-4(fp)
 100049c:	10c00015 	stw	r3,0(r2)
 10004a0:	0005883a 	mov	r2,zero
 10004a4:	10803fcc 	andi	r2,r2,255
 10004a8:	1005003a 	cmpeq	r2,r2,zero
 10004ac:	1000021e 	bne	r2,zero,10004b8 <_ZN14CommandHandlerD2Ev+0x3c>
 10004b0:	e13fff17 	ldw	r4,-4(fp)
 10004b4:	1008a880 	call	1008a88 <_ZdlPv>
 10004b8:	e037883a 	mov	sp,fp
 10004bc:	dfc00117 	ldw	ra,4(sp)
 10004c0:	df000017 	ldw	fp,0(sp)
 10004c4:	dec00204 	addi	sp,sp,8
 10004c8:	f800283a 	ret

010004cc <_Z27command_check_infrared_taskPv>:
#include "CommandTasks.h"

extern CommandHandler *command;

/* Monitors the infrared receive queue and responds to infrared receive events. */
void command_check_infrared_task(void* pdata) {
 10004cc:	defffd04 	addi	sp,sp,-12
 10004d0:	dfc00215 	stw	ra,8(sp)
 10004d4:	df000115 	stw	fp,4(sp)
 10004d8:	df000104 	addi	fp,sp,4
 10004dc:	e13fff15 	stw	r4,-4(fp)
	while (true) {
		command->checkInfraredReceive();
 10004e0:	008040b4 	movhi	r2,258
 10004e4:	108ba104 	addi	r2,r2,11908
 10004e8:	11000017 	ldw	r4,0(r2)
 10004ec:	10002d00 	call	10002d0 <_ZN14CommandHandler20checkInfraredReceiveEv>

extern CommandHandler *command;

/* Monitors the infrared receive queue and responds to infrared receive events. */
void command_check_infrared_task(void* pdata) {
	while (true) {
 10004f0:	003ffb06 	br	10004e0 <_Z27command_check_infrared_taskPv+0x14>

010004f4 <_ZN10DataSourceC1Ev>:
 */

#include "DataSource.h"

// ALLOCATION
DataSource::DataSource() {}
 10004f4:	defffb04 	addi	sp,sp,-20
 10004f8:	dfc00415 	stw	ra,16(sp)
 10004fc:	df000315 	stw	fp,12(sp)
 1000500:	dc000215 	stw	r16,8(sp)
 1000504:	df000204 	addi	fp,sp,8
 1000508:	e13fff15 	stw	r4,-4(fp)
 100050c:	00c040b4 	movhi	r3,258
 1000510:	18fb8004 	addi	r3,r3,-4608
 1000514:	e0bfff17 	ldw	r2,-4(fp)
 1000518:	10c00015 	stw	r3,0(r2)
 100051c:	e0bfff17 	ldw	r2,-4(fp)
 1000520:	14000104 	addi	r16,r2,4
 1000524:	e13ffe04 	addi	r4,fp,-8
 1000528:	10007900 	call	1000790 <_ZNSaIP8os_eventEC1Ev>
 100052c:	8009883a 	mov	r4,r16
 1000530:	e17ffe04 	addi	r5,fp,-8
 1000534:	1000c900 	call	1000c90 <_ZNSt4listIP8os_eventSaIS1_EEC1ERKS2_>
 1000538:	e13ffe04 	addi	r4,fp,-8
 100053c:	10007e00 	call	10007e0 <_ZNSaIP8os_eventED1Ev>
 1000540:	e037883a 	mov	sp,fp
 1000544:	dfc00217 	ldw	ra,8(sp)
 1000548:	df000117 	ldw	fp,4(sp)
 100054c:	dc000017 	ldw	r16,0(sp)
 1000550:	dec00304 	addi	sp,sp,12
 1000554:	f800283a 	ret

01000558 <_ZN10DataSourceC2Ev>:
 1000558:	defffb04 	addi	sp,sp,-20
 100055c:	dfc00415 	stw	ra,16(sp)
 1000560:	df000315 	stw	fp,12(sp)
 1000564:	dc000215 	stw	r16,8(sp)
 1000568:	df000204 	addi	fp,sp,8
 100056c:	e13fff15 	stw	r4,-4(fp)
 1000570:	00c040b4 	movhi	r3,258
 1000574:	18fb8004 	addi	r3,r3,-4608
 1000578:	e0bfff17 	ldw	r2,-4(fp)
 100057c:	10c00015 	stw	r3,0(r2)
 1000580:	e0bfff17 	ldw	r2,-4(fp)
 1000584:	14000104 	addi	r16,r2,4
 1000588:	e13ffe04 	addi	r4,fp,-8
 100058c:	10007900 	call	1000790 <_ZNSaIP8os_eventEC1Ev>
 1000590:	8009883a 	mov	r4,r16
 1000594:	e17ffe04 	addi	r5,fp,-8
 1000598:	1000c900 	call	1000c90 <_ZNSt4listIP8os_eventSaIS1_EEC1ERKS2_>
 100059c:	e13ffe04 	addi	r4,fp,-8
 10005a0:	10007e00 	call	10007e0 <_ZNSaIP8os_eventED1Ev>
 10005a4:	e037883a 	mov	sp,fp
 10005a8:	dfc00217 	ldw	ra,8(sp)
 10005ac:	df000117 	ldw	fp,4(sp)
 10005b0:	dc000017 	ldw	r16,0(sp)
 10005b4:	dec00304 	addi	sp,sp,12
 10005b8:	f800283a 	ret

010005bc <_ZN10DataSource14removeListenerEP8os_event>:

/*
 * Removes a listener queue from this data source.
 * @param queue - the queue to remove
 */
void DataSource::removeListener(OS_EVENT *queue) {
 10005bc:	defffc04 	addi	sp,sp,-16
 10005c0:	dfc00315 	stw	ra,12(sp)
 10005c4:	df000215 	stw	fp,8(sp)
 10005c8:	df000204 	addi	fp,sp,8
 10005cc:	e13ffe15 	stw	r4,-8(fp)
 10005d0:	e17fff15 	stw	r5,-4(fp)
	listeners.remove(queue);
 10005d4:	e0bffe17 	ldw	r2,-8(fp)
 10005d8:	11000104 	addi	r4,r2,4
 10005dc:	e17fff04 	addi	r5,fp,-4
 10005e0:	1000dd40 	call	1000dd4 <_ZNSt4listIP8os_eventSaIS1_EE6removeERKS1_>
}
 10005e4:	e037883a 	mov	sp,fp
 10005e8:	dfc00117 	ldw	ra,4(sp)
 10005ec:	df000017 	ldw	fp,0(sp)
 10005f0:	dec00204 	addi	sp,sp,8
 10005f4:	f800283a 	ret

010005f8 <_ZN10DataSourceD0Ev>:

#include "DataSource.h"

// ALLOCATION
DataSource::DataSource() {}
DataSource::~DataSource() {}
 10005f8:	defffd04 	addi	sp,sp,-12
 10005fc:	dfc00215 	stw	ra,8(sp)
 1000600:	df000115 	stw	fp,4(sp)
 1000604:	df000104 	addi	fp,sp,4
 1000608:	e13fff15 	stw	r4,-4(fp)
 100060c:	00c040b4 	movhi	r3,258
 1000610:	18fb8004 	addi	r3,r3,-4608
 1000614:	e0bfff17 	ldw	r2,-4(fp)
 1000618:	10c00015 	stw	r3,0(r2)
 100061c:	e0bfff17 	ldw	r2,-4(fp)
 1000620:	11000104 	addi	r4,r2,4
 1000624:	1000f3c0 	call	1000f3c <_ZNSt4listIP8os_eventSaIS1_EED1Ev>
 1000628:	00800044 	movi	r2,1
 100062c:	10803fcc 	andi	r2,r2,255
 1000630:	1005003a 	cmpeq	r2,r2,zero
 1000634:	1000021e 	bne	r2,zero,1000640 <_ZN10DataSourceD0Ev+0x48>
 1000638:	e13fff17 	ldw	r4,-4(fp)
 100063c:	1008a880 	call	1008a88 <_ZdlPv>
 1000640:	e037883a 	mov	sp,fp
 1000644:	dfc00117 	ldw	ra,4(sp)
 1000648:	df000017 	ldw	fp,0(sp)
 100064c:	dec00204 	addi	sp,sp,8
 1000650:	f800283a 	ret

01000654 <_ZN10DataSourceD1Ev>:
 1000654:	defffd04 	addi	sp,sp,-12
 1000658:	dfc00215 	stw	ra,8(sp)
 100065c:	df000115 	stw	fp,4(sp)
 1000660:	df000104 	addi	fp,sp,4
 1000664:	e13fff15 	stw	r4,-4(fp)
 1000668:	00c040b4 	movhi	r3,258
 100066c:	18fb8004 	addi	r3,r3,-4608
 1000670:	e0bfff17 	ldw	r2,-4(fp)
 1000674:	10c00015 	stw	r3,0(r2)
 1000678:	e0bfff17 	ldw	r2,-4(fp)
 100067c:	11000104 	addi	r4,r2,4
 1000680:	1000f3c0 	call	1000f3c <_ZNSt4listIP8os_eventSaIS1_EED1Ev>
 1000684:	0005883a 	mov	r2,zero
 1000688:	10803fcc 	andi	r2,r2,255
 100068c:	1005003a 	cmpeq	r2,r2,zero
 1000690:	1000021e 	bne	r2,zero,100069c <_ZN10DataSourceD1Ev+0x48>
 1000694:	e13fff17 	ldw	r4,-4(fp)
 1000698:	1008a880 	call	1008a88 <_ZdlPv>
 100069c:	e037883a 	mov	sp,fp
 10006a0:	dfc00117 	ldw	ra,4(sp)
 10006a4:	df000017 	ldw	fp,0(sp)
 10006a8:	dec00204 	addi	sp,sp,8
 10006ac:	f800283a 	ret

010006b0 <_ZN10DataSourceD2Ev>:
 10006b0:	defffd04 	addi	sp,sp,-12
 10006b4:	dfc00215 	stw	ra,8(sp)
 10006b8:	df000115 	stw	fp,4(sp)
 10006bc:	df000104 	addi	fp,sp,4
 10006c0:	e13fff15 	stw	r4,-4(fp)
 10006c4:	00c040b4 	movhi	r3,258
 10006c8:	18fb8004 	addi	r3,r3,-4608
 10006cc:	e0bfff17 	ldw	r2,-4(fp)
 10006d0:	10c00015 	stw	r3,0(r2)
 10006d4:	e0bfff17 	ldw	r2,-4(fp)
 10006d8:	11000104 	addi	r4,r2,4
 10006dc:	1000f3c0 	call	1000f3c <_ZNSt4listIP8os_eventSaIS1_EED1Ev>
 10006e0:	0005883a 	mov	r2,zero
 10006e4:	10803fcc 	andi	r2,r2,255
 10006e8:	1005003a 	cmpeq	r2,r2,zero
 10006ec:	1000021e 	bne	r2,zero,10006f8 <_ZN10DataSourceD2Ev+0x48>
 10006f0:	e13fff17 	ldw	r4,-4(fp)
 10006f4:	1008a880 	call	1008a88 <_ZdlPv>
 10006f8:	e037883a 	mov	sp,fp
 10006fc:	dfc00117 	ldw	ra,4(sp)
 1000700:	df000017 	ldw	fp,0(sp)
 1000704:	dec00204 	addi	sp,sp,8
 1000708:	f800283a 	ret

0100070c <_ZN10DataSource11addListenerEP8os_event>:

/*
 * Adds a listener queue to this data source.
 * @param queue - the queue to add
 */
void DataSource::addListener(OS_EVENT *queue) {
 100070c:	defffc04 	addi	sp,sp,-16
 1000710:	dfc00315 	stw	ra,12(sp)
 1000714:	df000215 	stw	fp,8(sp)
 1000718:	df000204 	addi	fp,sp,8
 100071c:	e13ffe15 	stw	r4,-8(fp)
 1000720:	e17fff15 	stw	r5,-4(fp)
	listeners.push_back(queue);
 1000724:	e0bffe17 	ldw	r2,-8(fp)
 1000728:	11000104 	addi	r4,r2,4
 100072c:	e17fff04 	addi	r5,fp,-4
 1000730:	10010bc0 	call	10010bc <_ZNSt4listIP8os_eventSaIS1_EE9push_backERKS1_>
}
 1000734:	e037883a 	mov	sp,fp
 1000738:	dfc00117 	ldw	ra,4(sp)
 100073c:	df000017 	ldw	fp,0(sp)
 1000740:	dec00204 	addi	sp,sp,8
 1000744:	f800283a 	ret

01000748 <_ZnwmPv>:
void* operator new[](std::size_t, const std::nothrow_t&) throw();
void operator delete(void*, const std::nothrow_t&) throw();
void operator delete[](void*, const std::nothrow_t&) throw();

// Default placement versions of operator new.
inline void* operator new(std::size_t, void* __p) throw() { return __p; }
 1000748:	defffd04 	addi	sp,sp,-12
 100074c:	df000215 	stw	fp,8(sp)
 1000750:	df000204 	addi	fp,sp,8
 1000754:	e13ffe15 	stw	r4,-8(fp)
 1000758:	e17fff15 	stw	r5,-4(fp)
 100075c:	e0bfff17 	ldw	r2,-4(fp)
 1000760:	e037883a 	mov	sp,fp
 1000764:	df000017 	ldw	fp,0(sp)
 1000768:	dec00104 	addi	sp,sp,4
 100076c:	f800283a 	ret

01000770 <_ZN9__gnu_cxx13new_allocatorIP8os_eventEC2Ev>:

      template<typename _Tp1>
        struct rebind
        { typedef new_allocator<_Tp1> other; };

      new_allocator() throw() { }
 1000770:	defffe04 	addi	sp,sp,-8
 1000774:	df000115 	stw	fp,4(sp)
 1000778:	df000104 	addi	fp,sp,4
 100077c:	e13fff15 	stw	r4,-4(fp)
 1000780:	e037883a 	mov	sp,fp
 1000784:	df000017 	ldw	fp,0(sp)
 1000788:	dec00104 	addi	sp,sp,4
 100078c:	f800283a 	ret

01000790 <_ZNSaIP8os_eventEC1Ev>:

      template<typename _Tp1>
        struct rebind
        { typedef allocator<_Tp1> other; };

      allocator() throw() { }
 1000790:	defffd04 	addi	sp,sp,-12
 1000794:	dfc00215 	stw	ra,8(sp)
 1000798:	df000115 	stw	fp,4(sp)
 100079c:	df000104 	addi	fp,sp,4
 10007a0:	e13fff15 	stw	r4,-4(fp)
 10007a4:	e13fff17 	ldw	r4,-4(fp)
 10007a8:	10007700 	call	1000770 <_ZN9__gnu_cxx13new_allocatorIP8os_eventEC2Ev>
 10007ac:	e037883a 	mov	sp,fp
 10007b0:	dfc00117 	ldw	ra,4(sp)
 10007b4:	df000017 	ldw	fp,0(sp)
 10007b8:	dec00204 	addi	sp,sp,8
 10007bc:	f800283a 	ret

010007c0 <_ZN9__gnu_cxx13new_allocatorIP8os_eventED2Ev>:
      new_allocator(const new_allocator&) throw() { }

      template<typename _Tp1>
        new_allocator(const new_allocator<_Tp1>&) throw() { }

      ~new_allocator() throw() { }
 10007c0:	defffe04 	addi	sp,sp,-8
 10007c4:	df000115 	stw	fp,4(sp)
 10007c8:	df000104 	addi	fp,sp,4
 10007cc:	e13fff15 	stw	r4,-4(fp)
 10007d0:	e037883a 	mov	sp,fp
 10007d4:	df000017 	ldw	fp,0(sp)
 10007d8:	dec00104 	addi	sp,sp,4
 10007dc:	f800283a 	ret

010007e0 <_ZNSaIP8os_eventED1Ev>:
      : __glibcxx_base_allocator<_Tp>(__a) { }

      template<typename _Tp1>
        allocator(const allocator<_Tp1>&) throw() { }

      ~allocator() throw() { }
 10007e0:	defffd04 	addi	sp,sp,-12
 10007e4:	dfc00215 	stw	ra,8(sp)
 10007e8:	df000115 	stw	fp,4(sp)
 10007ec:	df000104 	addi	fp,sp,4
 10007f0:	e13fff15 	stw	r4,-4(fp)
 10007f4:	e13fff17 	ldw	r4,-4(fp)
 10007f8:	10007c00 	call	10007c0 <_ZN9__gnu_cxx13new_allocatorIP8os_eventED2Ev>
 10007fc:	e037883a 	mov	sp,fp
 1000800:	dfc00117 	ldw	ra,4(sp)
 1000804:	df000017 	ldw	fp,0(sp)
 1000808:	dec00204 	addi	sp,sp,8
 100080c:	f800283a 	ret

01000810 <_ZNKSt14_List_iteratorIP8os_eventEneERKS2_>:
      bool
      operator==(const _Self& __x) const
      { return _M_node == __x._M_node; }

      bool
      operator!=(const _Self& __x) const
 1000810:	defffd04 	addi	sp,sp,-12
 1000814:	df000215 	stw	fp,8(sp)
 1000818:	df000204 	addi	fp,sp,8
 100081c:	e13ffe15 	stw	r4,-8(fp)
 1000820:	e17fff15 	stw	r5,-4(fp)
      { return _M_node != __x._M_node; }
 1000824:	e0bffe17 	ldw	r2,-8(fp)
 1000828:	10c00017 	ldw	r3,0(r2)
 100082c:	e0bfff17 	ldw	r2,-4(fp)
 1000830:	10800017 	ldw	r2,0(r2)
 1000834:	1884c03a 	cmpne	r2,r3,r2
 1000838:	e037883a 	mov	sp,fp
 100083c:	df000017 	ldw	fp,0(sp)
 1000840:	dec00104 	addi	sp,sp,4
 1000844:	f800283a 	ret

01000848 <_ZNSt14_List_iteratorIP8os_eventEppEv>:
      pointer
      operator->() const
      { return &static_cast<_Node*>(_M_node)->_M_data; }

      _Self&
      operator++()
 1000848:	defffe04 	addi	sp,sp,-8
 100084c:	df000115 	stw	fp,4(sp)
 1000850:	df000104 	addi	fp,sp,4
 1000854:	e13fff15 	stw	r4,-4(fp)
      {
	_M_node = _M_node->_M_next;
 1000858:	e0bfff17 	ldw	r2,-4(fp)
 100085c:	10800017 	ldw	r2,0(r2)
 1000860:	10c00017 	ldw	r3,0(r2)
 1000864:	e0bfff17 	ldw	r2,-4(fp)
 1000868:	10c00015 	stw	r3,0(r2)
	return *this;
 100086c:	e0bfff17 	ldw	r2,-4(fp)
 1000870:	e037883a 	mov	sp,fp
 1000874:	df000017 	ldw	fp,0(sp)
 1000878:	dec00104 	addi	sp,sp,4
 100087c:	f800283a 	ret

01000880 <_ZNKSt14_List_iteratorIP8os_eventEdeEv>:
      _List_iterator(_List_node_base* __x)
      : _M_node(__x) { }

      // Must downcast from List_node_base to _List_node to get to _M_data.
      reference
      operator*() const
 1000880:	defffe04 	addi	sp,sp,-8
 1000884:	df000115 	stw	fp,4(sp)
 1000888:	df000104 	addi	fp,sp,4
 100088c:	e13fff15 	stw	r4,-4(fp)
      { return static_cast<_Node*>(_M_node)->_M_data; }
 1000890:	e0bfff17 	ldw	r2,-4(fp)
 1000894:	10800017 	ldw	r2,0(r2)
 1000898:	10800204 	addi	r2,r2,8
 100089c:	e037883a 	mov	sp,fp
 10008a0:	df000017 	ldw	fp,0(sp)
 10008a4:	dec00104 	addi	sp,sp,4
 10008a8:	f800283a 	ret

010008ac <_ZNSt10_List_baseIP8os_eventSaIS1_EE7_M_initEv>:

      void
      _M_clear();

      void
      _M_init()
 10008ac:	defffe04 	addi	sp,sp,-8
 10008b0:	df000115 	stw	fp,4(sp)
 10008b4:	df000104 	addi	fp,sp,4
 10008b8:	e13fff15 	stw	r4,-4(fp)
      {
        this->_M_impl._M_node._M_next = &this->_M_impl._M_node;
 10008bc:	e0ffff17 	ldw	r3,-4(fp)
 10008c0:	e0bfff17 	ldw	r2,-4(fp)
 10008c4:	10c00015 	stw	r3,0(r2)
        this->_M_impl._M_node._M_prev = &this->_M_impl._M_node;
 10008c8:	e0ffff17 	ldw	r3,-4(fp)
 10008cc:	e0bfff17 	ldw	r2,-4(fp)
 10008d0:	10c00115 	stw	r3,4(r2)
 10008d4:	e037883a 	mov	sp,fp
 10008d8:	df000017 	ldw	fp,0(sp)
 10008dc:	dec00104 	addi	sp,sp,4
 10008e0:	f800283a 	ret

010008e4 <_ZN9__gnu_cxx13new_allocatorISt10_List_nodeIP8os_eventEED2Ev>:
 10008e4:	defffe04 	addi	sp,sp,-8
 10008e8:	df000115 	stw	fp,4(sp)
 10008ec:	df000104 	addi	fp,sp,4
 10008f0:	e13fff15 	stw	r4,-4(fp)
 10008f4:	e037883a 	mov	sp,fp
 10008f8:	df000017 	ldw	fp,0(sp)
 10008fc:	dec00104 	addi	sp,sp,4
 1000900:	f800283a 	ret

01000904 <_ZNSaISt10_List_nodeIP8os_eventEED2Ev>:
 1000904:	defffd04 	addi	sp,sp,-12
 1000908:	dfc00215 	stw	ra,8(sp)
 100090c:	df000115 	stw	fp,4(sp)
 1000910:	df000104 	addi	fp,sp,4
 1000914:	e13fff15 	stw	r4,-4(fp)
 1000918:	e13fff17 	ldw	r4,-4(fp)
 100091c:	10008e40 	call	10008e4 <_ZN9__gnu_cxx13new_allocatorISt10_List_nodeIP8os_eventEED2Ev>
 1000920:	e037883a 	mov	sp,fp
 1000924:	dfc00117 	ldw	ra,4(sp)
 1000928:	df000017 	ldw	fp,0(sp)
 100092c:	dec00204 	addi	sp,sp,8
 1000930:	f800283a 	ret

01000934 <_ZNSt10_List_baseIP8os_eventSaIS1_EE10_List_implD1Ev>:

      typedef typename _Alloc::template rebind<_Tp>::other _Tp_alloc_type;

      struct _List_impl 
      : public _Node_alloc_type
      {
 1000934:	defffd04 	addi	sp,sp,-12
 1000938:	dfc00215 	stw	ra,8(sp)
 100093c:	df000115 	stw	fp,4(sp)
 1000940:	df000104 	addi	fp,sp,4
 1000944:	e13fff15 	stw	r4,-4(fp)
 1000948:	e13fff17 	ldw	r4,-4(fp)
 100094c:	10009040 	call	1000904 <_ZNSaISt10_List_nodeIP8os_eventEED2Ev>
 1000950:	e037883a 	mov	sp,fp
 1000954:	dfc00117 	ldw	ra,4(sp)
 1000958:	df000017 	ldw	fp,0(sp)
 100095c:	dec00204 	addi	sp,sp,8
 1000960:	f800283a 	ret

01000964 <_ZNSaISt10_List_nodeIP8os_eventEED1Ev>:
 1000964:	defffd04 	addi	sp,sp,-12
 1000968:	dfc00215 	stw	ra,8(sp)
 100096c:	df000115 	stw	fp,4(sp)
 1000970:	df000104 	addi	fp,sp,4
 1000974:	e13fff15 	stw	r4,-4(fp)
 1000978:	e13fff17 	ldw	r4,-4(fp)
 100097c:	10008e40 	call	10008e4 <_ZN9__gnu_cxx13new_allocatorISt10_List_nodeIP8os_eventEED2Ev>
 1000980:	e037883a 	mov	sp,fp
 1000984:	dfc00117 	ldw	ra,4(sp)
 1000988:	df000017 	ldw	fp,0(sp)
 100098c:	dec00204 	addi	sp,sp,8
 1000990:	f800283a 	ret

01000994 <_ZN9__gnu_cxx13new_allocatorIP8os_eventE7destroyEPS2_>:
      void 
      construct(pointer __p, const _Tp& __val) 
      { ::new(__p) _Tp(__val); }

      void 
      destroy(pointer __p) { __p->~_Tp(); }
 1000994:	defffd04 	addi	sp,sp,-12
 1000998:	df000215 	stw	fp,8(sp)
 100099c:	df000204 	addi	fp,sp,8
 10009a0:	e13ffe15 	stw	r4,-8(fp)
 10009a4:	e17fff15 	stw	r5,-4(fp)
 10009a8:	e037883a 	mov	sp,fp
 10009ac:	df000017 	ldw	fp,0(sp)
 10009b0:	dec00104 	addi	sp,sp,4
 10009b4:	f800283a 	ret

010009b8 <_ZNSt14_List_iteratorIP8os_eventEC1EPSt15_List_node_base>:

      _List_iterator()
      : _M_node() { }

      explicit
      _List_iterator(_List_node_base* __x)
 10009b8:	defffd04 	addi	sp,sp,-12
 10009bc:	df000215 	stw	fp,8(sp)
 10009c0:	df000204 	addi	fp,sp,8
 10009c4:	e13ffe15 	stw	r4,-8(fp)
 10009c8:	e17fff15 	stw	r5,-4(fp)
      : _M_node(__x) { }
 10009cc:	e0fffe17 	ldw	r3,-8(fp)
 10009d0:	e0bfff17 	ldw	r2,-4(fp)
 10009d4:	18800015 	stw	r2,0(r3)
 10009d8:	e037883a 	mov	sp,fp
 10009dc:	df000017 	ldw	fp,0(sp)
 10009e0:	dec00104 	addi	sp,sp,4
 10009e4:	f800283a 	ret

010009e8 <_ZNSt4listIP8os_eventSaIS1_EE5beginEv>:
      /**
       *  Returns a read/write iterator that points to the first element in the
       *  %list.  Iteration is done in ordinary element order.
       */
      iterator
      begin()
 10009e8:	defffc04 	addi	sp,sp,-16
 10009ec:	dfc00315 	stw	ra,12(sp)
 10009f0:	df000215 	stw	fp,8(sp)
 10009f4:	df000204 	addi	fp,sp,8
 10009f8:	e13fff15 	stw	r4,-4(fp)
      { return iterator(this->_M_impl._M_node._M_next); }
 10009fc:	e0bfff17 	ldw	r2,-4(fp)
 1000a00:	11400017 	ldw	r5,0(r2)
 1000a04:	e13ffe04 	addi	r4,fp,-8
 1000a08:	10009b80 	call	10009b8 <_ZNSt14_List_iteratorIP8os_eventEC1EPSt15_List_node_base>
 1000a0c:	e0bffe17 	ldw	r2,-8(fp)
 1000a10:	e037883a 	mov	sp,fp
 1000a14:	dfc00117 	ldw	ra,4(sp)
 1000a18:	df000017 	ldw	fp,0(sp)
 1000a1c:	dec00204 	addi	sp,sp,8
 1000a20:	f800283a 	ret

01000a24 <_ZNSt4listIP8os_eventSaIS1_EE3endEv>:
       *  Returns a read/write iterator that points one past the last
       *  element in the %list.  Iteration is done in ordinary element
       *  order.
       */
      iterator
      end()
 1000a24:	defffc04 	addi	sp,sp,-16
 1000a28:	dfc00315 	stw	ra,12(sp)
 1000a2c:	df000215 	stw	fp,8(sp)
 1000a30:	df000204 	addi	fp,sp,8
 1000a34:	e13fff15 	stw	r4,-4(fp)
      { return iterator(&this->_M_impl._M_node); }
 1000a38:	e17fff17 	ldw	r5,-4(fp)
 1000a3c:	e13ffe04 	addi	r4,fp,-8
 1000a40:	10009b80 	call	10009b8 <_ZNSt14_List_iteratorIP8os_eventEC1EPSt15_List_node_base>
 1000a44:	e0bffe17 	ldw	r2,-8(fp)
 1000a48:	e037883a 	mov	sp,fp
 1000a4c:	dfc00117 	ldw	ra,4(sp)
 1000a50:	df000017 	ldw	fp,0(sp)
 1000a54:	dec00204 	addi	sp,sp,8
 1000a58:	f800283a 	ret

01000a5c <_ZN9__gnu_cxx13new_allocatorISt10_List_nodeIP8os_eventEEC2Ev>:

      template<typename _Tp1>
        struct rebind
        { typedef new_allocator<_Tp1> other; };

      new_allocator() throw() { }
 1000a5c:	defffe04 	addi	sp,sp,-8
 1000a60:	df000115 	stw	fp,4(sp)
 1000a64:	df000104 	addi	fp,sp,4
 1000a68:	e13fff15 	stw	r4,-4(fp)
 1000a6c:	e037883a 	mov	sp,fp
 1000a70:	df000017 	ldw	fp,0(sp)
 1000a74:	dec00104 	addi	sp,sp,4
 1000a78:	f800283a 	ret

01000a7c <_ZNSaISt10_List_nodeIP8os_eventEEC1IS1_EERKSaIT_E>:

      allocator(const allocator& __a) throw()
      : __glibcxx_base_allocator<_Tp>(__a) { }

      template<typename _Tp1>
        allocator(const allocator<_Tp1>&) throw() { }
 1000a7c:	defffc04 	addi	sp,sp,-16
 1000a80:	dfc00315 	stw	ra,12(sp)
 1000a84:	df000215 	stw	fp,8(sp)
 1000a88:	df000204 	addi	fp,sp,8
 1000a8c:	e13ffe15 	stw	r4,-8(fp)
 1000a90:	e17fff15 	stw	r5,-4(fp)
 1000a94:	e13ffe17 	ldw	r4,-8(fp)
 1000a98:	1000a5c0 	call	1000a5c <_ZN9__gnu_cxx13new_allocatorISt10_List_nodeIP8os_eventEEC2Ev>
 1000a9c:	e037883a 	mov	sp,fp
 1000aa0:	dfc00117 	ldw	ra,4(sp)
 1000aa4:	df000017 	ldw	fp,0(sp)
 1000aa8:	dec00204 	addi	sp,sp,8
 1000aac:	f800283a 	ret

01000ab0 <_ZNSaIP8os_eventEC1ISt10_List_nodeIS0_EEERKSaIT_E>:
 1000ab0:	defffc04 	addi	sp,sp,-16
 1000ab4:	dfc00315 	stw	ra,12(sp)
 1000ab8:	df000215 	stw	fp,8(sp)
 1000abc:	df000204 	addi	fp,sp,8
 1000ac0:	e13ffe15 	stw	r4,-8(fp)
 1000ac4:	e17fff15 	stw	r5,-4(fp)
 1000ac8:	e13ffe17 	ldw	r4,-8(fp)
 1000acc:	10007700 	call	1000770 <_ZN9__gnu_cxx13new_allocatorIP8os_eventEC2Ev>
 1000ad0:	e037883a 	mov	sp,fp
 1000ad4:	dfc00117 	ldw	ra,4(sp)
 1000ad8:	df000017 	ldw	fp,0(sp)
 1000adc:	dec00204 	addi	sp,sp,8
 1000ae0:	f800283a 	ret

01000ae4 <_ZNKSt10_List_baseIP8os_eventSaIS1_EE19_M_get_Tp_allocatorEv>:
      
  public:
      typedef _Alloc allocator_type;

      _Tp_alloc_type
      _M_get_Tp_allocator() const
 1000ae4:	defffc04 	addi	sp,sp,-16
 1000ae8:	dfc00315 	stw	ra,12(sp)
 1000aec:	df000215 	stw	fp,8(sp)
 1000af0:	dc000115 	stw	r16,4(sp)
 1000af4:	df000104 	addi	fp,sp,4
 1000af8:	2021883a 	mov	r16,r4
 1000afc:	e17fff15 	stw	r5,-4(fp)
      { return *static_cast<const _Node_alloc_type*>(&this->_M_impl); }
 1000b00:	8009883a 	mov	r4,r16
 1000b04:	e0bfff17 	ldw	r2,-4(fp)
 1000b08:	100b883a 	mov	r5,r2
 1000b0c:	1000ab00 	call	1000ab0 <_ZNSaIP8os_eventEC1ISt10_List_nodeIS0_EEERKSaIT_E>
 1000b10:	8005883a 	mov	r2,r16
 1000b14:	e037883a 	mov	sp,fp
 1000b18:	dfc00217 	ldw	ra,8(sp)
 1000b1c:	df000117 	ldw	fp,4(sp)
 1000b20:	dc000017 	ldw	r16,0(sp)
 1000b24:	dec00304 	addi	sp,sp,12
 1000b28:	f800283a 	ret

01000b2c <_ZN9__gnu_cxx13new_allocatorIP8os_eventE9constructEPS2_RKS2_>:
      { return size_t(-1) / sizeof(_Tp); }

      // _GLIBCXX_RESOLVE_LIB_DEFECTS
      // 402. wrong new expression in [some_] allocator::construct
      void 
      construct(pointer __p, const _Tp& __val) 
 1000b2c:	defffa04 	addi	sp,sp,-24
 1000b30:	dfc00515 	stw	ra,20(sp)
 1000b34:	df000415 	stw	fp,16(sp)
 1000b38:	df000404 	addi	fp,sp,16
 1000b3c:	e13ffc15 	stw	r4,-16(fp)
 1000b40:	e17ffd15 	stw	r5,-12(fp)
 1000b44:	e1bffe15 	stw	r6,-8(fp)
      { ::new(__p) _Tp(__val); }
 1000b48:	01000104 	movi	r4,4
 1000b4c:	e17ffd17 	ldw	r5,-12(fp)
 1000b50:	10007480 	call	1000748 <_ZnwmPv>
 1000b54:	e0bfff15 	stw	r2,-4(fp)
 1000b58:	e0ffff17 	ldw	r3,-4(fp)
 1000b5c:	1805003a 	cmpeq	r2,r3,zero
 1000b60:	1000041e 	bne	r2,zero,1000b74 <_ZN9__gnu_cxx13new_allocatorIP8os_eventE9constructEPS2_RKS2_+0x48>
 1000b64:	e0bffe17 	ldw	r2,-8(fp)
 1000b68:	10800017 	ldw	r2,0(r2)
 1000b6c:	e0ffff17 	ldw	r3,-4(fp)
 1000b70:	18800015 	stw	r2,0(r3)
 1000b74:	e037883a 	mov	sp,fp
 1000b78:	dfc00117 	ldw	ra,4(sp)
 1000b7c:	df000017 	ldw	fp,0(sp)
 1000b80:	dec00204 	addi	sp,sp,8
 1000b84:	f800283a 	ret

01000b88 <_ZN9__gnu_cxx13new_allocatorISt10_List_nodeIP8os_eventEEC2ERKS5_>:
        struct rebind
        { typedef new_allocator<_Tp1> other; };

      new_allocator() throw() { }

      new_allocator(const new_allocator&) throw() { }
 1000b88:	defffd04 	addi	sp,sp,-12
 1000b8c:	df000215 	stw	fp,8(sp)
 1000b90:	df000204 	addi	fp,sp,8
 1000b94:	e13ffe15 	stw	r4,-8(fp)
 1000b98:	e17fff15 	stw	r5,-4(fp)
 1000b9c:	e037883a 	mov	sp,fp
 1000ba0:	df000017 	ldw	fp,0(sp)
 1000ba4:	dec00104 	addi	sp,sp,4
 1000ba8:	f800283a 	ret

01000bac <_ZNSaISt10_List_nodeIP8os_eventEEC2ERKS3_>:
        struct rebind
        { typedef allocator<_Tp1> other; };

      allocator() throw() { }

      allocator(const allocator& __a) throw()
 1000bac:	defffc04 	addi	sp,sp,-16
 1000bb0:	dfc00315 	stw	ra,12(sp)
 1000bb4:	df000215 	stw	fp,8(sp)
 1000bb8:	df000204 	addi	fp,sp,8
 1000bbc:	e13ffe15 	stw	r4,-8(fp)
 1000bc0:	e17fff15 	stw	r5,-4(fp)
      : __glibcxx_base_allocator<_Tp>(__a) { }
 1000bc4:	e13ffe17 	ldw	r4,-8(fp)
 1000bc8:	e17fff17 	ldw	r5,-4(fp)
 1000bcc:	1000b880 	call	1000b88 <_ZN9__gnu_cxx13new_allocatorISt10_List_nodeIP8os_eventEEC2ERKS5_>
 1000bd0:	e037883a 	mov	sp,fp
 1000bd4:	dfc00117 	ldw	ra,4(sp)
 1000bd8:	df000017 	ldw	fp,0(sp)
 1000bdc:	dec00204 	addi	sp,sp,8
 1000be0:	f800283a 	ret

01000be4 <_ZNSt10_List_baseIP8os_eventSaIS1_EE10_List_implC1ERKSaISt10_List_nodeIS1_EE>:
      struct _List_impl 
      : public _Node_alloc_type
      {
	_List_node_base _M_node;

	_List_impl(const _Node_alloc_type& __a)
 1000be4:	defffc04 	addi	sp,sp,-16
 1000be8:	dfc00315 	stw	ra,12(sp)
 1000bec:	df000215 	stw	fp,8(sp)
 1000bf0:	df000204 	addi	fp,sp,8
 1000bf4:	e13ffe15 	stw	r4,-8(fp)
 1000bf8:	e17fff15 	stw	r5,-4(fp)
	: _Node_alloc_type(__a), _M_node()
 1000bfc:	e13ffe17 	ldw	r4,-8(fp)
 1000c00:	e17fff17 	ldw	r5,-4(fp)
 1000c04:	1000bac0 	call	1000bac <_ZNSaISt10_List_nodeIP8os_eventEEC2ERKS3_>
 1000c08:	e13ffe17 	ldw	r4,-8(fp)
 1000c0c:	0005883a 	mov	r2,zero
 1000c10:	0007883a 	mov	r3,zero
 1000c14:	20800015 	stw	r2,0(r4)
 1000c18:	20c00115 	stw	r3,4(r4)
	{ }
 1000c1c:	e037883a 	mov	sp,fp
 1000c20:	dfc00117 	ldw	ra,4(sp)
 1000c24:	df000017 	ldw	fp,0(sp)
 1000c28:	dec00204 	addi	sp,sp,8
 1000c2c:	f800283a 	ret

01000c30 <_ZNSt10_List_baseIP8os_eventSaIS1_EEC2ERKS2_>:

      allocator_type
      get_allocator() const
      { return _M_get_Tp_allocator(); }

      _List_base(const allocator_type& __a)
 1000c30:	defffa04 	addi	sp,sp,-24
 1000c34:	dfc00515 	stw	ra,20(sp)
 1000c38:	df000415 	stw	fp,16(sp)
 1000c3c:	dc000315 	stw	r16,12(sp)
 1000c40:	df000304 	addi	fp,sp,12
 1000c44:	e13ffe15 	stw	r4,-8(fp)
 1000c48:	e17fff15 	stw	r5,-4(fp)
      : _M_impl(__a)
 1000c4c:	e43ffe17 	ldw	r16,-8(fp)
 1000c50:	e13ffd04 	addi	r4,fp,-12
 1000c54:	e17fff17 	ldw	r5,-4(fp)
 1000c58:	1000a7c0 	call	1000a7c <_ZNSaISt10_List_nodeIP8os_eventEEC1IS1_EERKSaIT_E>
 1000c5c:	8009883a 	mov	r4,r16
 1000c60:	e17ffd04 	addi	r5,fp,-12
 1000c64:	1000be40 	call	1000be4 <_ZNSt10_List_baseIP8os_eventSaIS1_EE10_List_implC1ERKSaISt10_List_nodeIS1_EE>
 1000c68:	e13ffd04 	addi	r4,fp,-12
 1000c6c:	10009640 	call	1000964 <_ZNSaISt10_List_nodeIP8os_eventEED1Ev>
      { _M_init(); }
 1000c70:	e13ffe17 	ldw	r4,-8(fp)
 1000c74:	10008ac0 	call	10008ac <_ZNSt10_List_baseIP8os_eventSaIS1_EE7_M_initEv>
 1000c78:	e037883a 	mov	sp,fp
 1000c7c:	dfc00217 	ldw	ra,8(sp)
 1000c80:	df000117 	ldw	fp,4(sp)
 1000c84:	dc000017 	ldw	r16,0(sp)
 1000c88:	dec00304 	addi	sp,sp,12
 1000c8c:	f800283a 	ret

01000c90 <_ZNSt4listIP8os_eventSaIS1_EEC1ERKS2_>:
      // (assign() and get_allocator() are also listed in this section)
      /**
       *  @brief  Default constructor creates no elements.
       */
      explicit
      list(const allocator_type& __a = allocator_type())
 1000c90:	defffc04 	addi	sp,sp,-16
 1000c94:	dfc00315 	stw	ra,12(sp)
 1000c98:	df000215 	stw	fp,8(sp)
 1000c9c:	df000204 	addi	fp,sp,8
 1000ca0:	e13ffe15 	stw	r4,-8(fp)
 1000ca4:	e17fff15 	stw	r5,-4(fp)
      : _Base(__a) { }
 1000ca8:	e13ffe17 	ldw	r4,-8(fp)
 1000cac:	e17fff17 	ldw	r5,-4(fp)
 1000cb0:	1000c300 	call	1000c30 <_ZNSt10_List_baseIP8os_eventSaIS1_EEC2ERKS2_>
 1000cb4:	e037883a 	mov	sp,fp
 1000cb8:	dfc00117 	ldw	ra,4(sp)
 1000cbc:	df000017 	ldw	fp,0(sp)
 1000cc0:	dec00204 	addi	sp,sp,8
 1000cc4:	f800283a 	ret

01000cc8 <_ZNK9__gnu_cxx13new_allocatorISt10_List_nodeIP8os_eventEE8max_sizeEv>:
      void
      deallocate(pointer __p, size_type)
      { ::operator delete(__p); }

      size_type
      max_size() const throw() 
 1000cc8:	defffe04 	addi	sp,sp,-8
 1000ccc:	df000115 	stw	fp,4(sp)
 1000cd0:	df000104 	addi	fp,sp,4
 1000cd4:	e13fff15 	stw	r4,-4(fp)
      { return size_t(-1) / sizeof(_Tp); }
 1000cd8:	00855574 	movhi	r2,5461
 1000cdc:	10955544 	addi	r2,r2,21845
 1000ce0:	e037883a 	mov	sp,fp
 1000ce4:	df000017 	ldw	fp,0(sp)
 1000ce8:	dec00104 	addi	sp,sp,4
 1000cec:	f800283a 	ret

01000cf0 <_ZN9__gnu_cxx13new_allocatorISt10_List_nodeIP8os_eventEE10deallocateEPS4_m>:
	return static_cast<_Tp*>(::operator new(__n * sizeof(_Tp)));
      }

      // __p is not permitted to be a null pointer.
      void
      deallocate(pointer __p, size_type)
 1000cf0:	defffb04 	addi	sp,sp,-20
 1000cf4:	dfc00415 	stw	ra,16(sp)
 1000cf8:	df000315 	stw	fp,12(sp)
 1000cfc:	df000304 	addi	fp,sp,12
 1000d00:	e13ffd15 	stw	r4,-12(fp)
 1000d04:	e17ffe15 	stw	r5,-8(fp)
 1000d08:	e1bfff15 	stw	r6,-4(fp)
      { ::operator delete(__p); }
 1000d0c:	e13ffe17 	ldw	r4,-8(fp)
 1000d10:	1008a880 	call	1008a88 <_ZdlPv>
 1000d14:	e037883a 	mov	sp,fp
 1000d18:	dfc00117 	ldw	ra,4(sp)
 1000d1c:	df000017 	ldw	fp,0(sp)
 1000d20:	dec00204 	addi	sp,sp,8
 1000d24:	f800283a 	ret

01000d28 <_ZNSt10_List_baseIP8os_eventSaIS1_EE11_M_put_nodeEPSt10_List_nodeIS1_E>:
      _List_node<_Tp>*
      _M_get_node()
      { return _M_impl._Node_alloc_type::allocate(1); }
      
      void
      _M_put_node(_List_node<_Tp>* __p)
 1000d28:	defffc04 	addi	sp,sp,-16
 1000d2c:	dfc00315 	stw	ra,12(sp)
 1000d30:	df000215 	stw	fp,8(sp)
 1000d34:	df000204 	addi	fp,sp,8
 1000d38:	e13ffe15 	stw	r4,-8(fp)
 1000d3c:	e17fff15 	stw	r5,-4(fp)
      { _M_impl._Node_alloc_type::deallocate(__p, 1); }
 1000d40:	e0bffe17 	ldw	r2,-8(fp)
 1000d44:	1009883a 	mov	r4,r2
 1000d48:	e17fff17 	ldw	r5,-4(fp)
 1000d4c:	01800044 	movi	r6,1
 1000d50:	1000cf00 	call	1000cf0 <_ZN9__gnu_cxx13new_allocatorISt10_List_nodeIP8os_eventEE10deallocateEPS4_m>
 1000d54:	e037883a 	mov	sp,fp
 1000d58:	dfc00117 	ldw	ra,4(sp)
 1000d5c:	df000017 	ldw	fp,0(sp)
 1000d60:	dec00204 	addi	sp,sp,8
 1000d64:	f800283a 	ret

01000d68 <_ZNSt4listIP8os_eventSaIS1_EE8_M_eraseESt14_List_iteratorIS1_E>:
        __tmp->hook(__position._M_node);
      }

      // Erases element at position given.
      void
      _M_erase(iterator __position)
 1000d68:	defffa04 	addi	sp,sp,-24
 1000d6c:	dfc00515 	stw	ra,20(sp)
 1000d70:	df000415 	stw	fp,16(sp)
 1000d74:	df000404 	addi	fp,sp,16
 1000d78:	e13ffe15 	stw	r4,-8(fp)
 1000d7c:	e17fff15 	stw	r5,-4(fp)
      {
        __position._M_node->unhook();
 1000d80:	e13fff17 	ldw	r4,-4(fp)
 1000d84:	1002dc00 	call	1002dc0 <_ZNSt15_List_node_base6unhookEv>
        _Node* __n = static_cast<_Node*>(__position._M_node);
 1000d88:	e0bfff17 	ldw	r2,-4(fp)
 1000d8c:	e0bffc15 	stw	r2,-16(fp)
        _M_get_Tp_allocator().destroy(&__n->_M_data);
 1000d90:	e17ffe17 	ldw	r5,-8(fp)
 1000d94:	e13ffd04 	addi	r4,fp,-12
 1000d98:	1000ae40 	call	1000ae4 <_ZNKSt10_List_baseIP8os_eventSaIS1_EE19_M_get_Tp_allocatorEv>
 1000d9c:	e13ffd04 	addi	r4,fp,-12
 1000da0:	e0bffc17 	ldw	r2,-16(fp)
 1000da4:	11400204 	addi	r5,r2,8
 1000da8:	10009940 	call	1000994 <_ZN9__gnu_cxx13new_allocatorIP8os_eventE7destroyEPS2_>
 1000dac:	e13ffd04 	addi	r4,fp,-12
 1000db0:	10007e00 	call	10007e0 <_ZNSaIP8os_eventED1Ev>
        _M_put_node(__n);
 1000db4:	e13ffe17 	ldw	r4,-8(fp)
 1000db8:	e17ffc17 	ldw	r5,-16(fp)
 1000dbc:	1000d280 	call	1000d28 <_ZNSt10_List_baseIP8os_eventSaIS1_EE11_M_put_nodeEPSt10_List_nodeIS1_E>
 1000dc0:	e037883a 	mov	sp,fp
 1000dc4:	dfc00117 	ldw	ra,4(sp)
 1000dc8:	df000017 	ldw	fp,0(sp)
 1000dcc:	dec00204 	addi	sp,sp,8
 1000dd0:	f800283a 	ret

01000dd4 <_ZNSt4listIP8os_eventSaIS1_EE6removeERKS1_>:
      }

  template<typename _Tp, typename _Alloc>
    void
    list<_Tp, _Alloc>::
    remove(const value_type& __value)
 1000dd4:	defff904 	addi	sp,sp,-28
 1000dd8:	dfc00615 	stw	ra,24(sp)
 1000ddc:	df000515 	stw	fp,20(sp)
 1000de0:	df000504 	addi	fp,sp,20
 1000de4:	e13ffe15 	stw	r4,-8(fp)
 1000de8:	e17fff15 	stw	r5,-4(fp)
    {
      iterator __first = begin();
 1000dec:	e13ffe17 	ldw	r4,-8(fp)
 1000df0:	10009e80 	call	10009e8 <_ZNSt4listIP8os_eventSaIS1_EE5beginEv>
 1000df4:	e0bffb15 	stw	r2,-20(fp)
      iterator __last = end();
 1000df8:	e13ffe17 	ldw	r4,-8(fp)
 1000dfc:	1000a240 	call	1000a24 <_ZNSt4listIP8os_eventSaIS1_EE3endEv>
 1000e00:	e0bffc15 	stw	r2,-16(fp)
      while (__first != __last)
 1000e04:	00001206 	br	1000e50 <_ZNSt4listIP8os_eventSaIS1_EE6removeERKS1_+0x7c>
	{
	  iterator __next = __first;
 1000e08:	e0bffb17 	ldw	r2,-20(fp)
 1000e0c:	e0bffd15 	stw	r2,-12(fp)
	  ++__next;
 1000e10:	e13ffd04 	addi	r4,fp,-12
 1000e14:	10008480 	call	1000848 <_ZNSt14_List_iteratorIP8os_eventEppEv>
	  if (*__first == __value)
 1000e18:	e13ffb04 	addi	r4,fp,-20
 1000e1c:	10008800 	call	1000880 <_ZNKSt14_List_iteratorIP8os_eventEdeEv>
 1000e20:	10c00017 	ldw	r3,0(r2)
 1000e24:	e0bfff17 	ldw	r2,-4(fp)
 1000e28:	10800017 	ldw	r2,0(r2)
 1000e2c:	1885003a 	cmpeq	r2,r3,r2
 1000e30:	10803fcc 	andi	r2,r2,255
 1000e34:	1005003a 	cmpeq	r2,r2,zero
 1000e38:	1000031e 	bne	r2,zero,1000e48 <_ZNSt4listIP8os_eventSaIS1_EE6removeERKS1_+0x74>
	    _M_erase(__first);
 1000e3c:	e13ffe17 	ldw	r4,-8(fp)
 1000e40:	e17ffb17 	ldw	r5,-20(fp)
 1000e44:	1000d680 	call	1000d68 <_ZNSt4listIP8os_eventSaIS1_EE8_M_eraseESt14_List_iteratorIS1_E>
	  __first = __next;
 1000e48:	e0bffd17 	ldw	r2,-12(fp)
 1000e4c:	e0bffb15 	stw	r2,-20(fp)
    list<_Tp, _Alloc>::
    remove(const value_type& __value)
    {
      iterator __first = begin();
      iterator __last = end();
      while (__first != __last)
 1000e50:	e17ffc04 	addi	r5,fp,-16
 1000e54:	e13ffb04 	addi	r4,fp,-20
 1000e58:	10008100 	call	1000810 <_ZNKSt14_List_iteratorIP8os_eventEneERKS2_>
 1000e5c:	10803fcc 	andi	r2,r2,255
 1000e60:	1004c03a 	cmpne	r2,r2,zero
 1000e64:	103fe81e 	bne	r2,zero,1000e08 <_ZNSt4listIP8os_eventSaIS1_EE6removeERKS1_+0x34>
	{
	  iterator __next = __first;
	  ++__next;
	  if (*__first == __value)
	    _M_erase(__first);
	  __first = __next;
 1000e68:	e037883a 	mov	sp,fp
 1000e6c:	dfc00117 	ldw	ra,4(sp)
 1000e70:	df000017 	ldw	fp,0(sp)
 1000e74:	dec00204 	addi	sp,sp,8
 1000e78:	f800283a 	ret

01000e7c <_ZNSt10_List_baseIP8os_eventSaIS1_EE8_M_clearEv>:
namespace _GLIBCXX_STD
{
  template<typename _Tp, typename _Alloc>
    void
    _List_base<_Tp, _Alloc>::
    _M_clear()
 1000e7c:	defffa04 	addi	sp,sp,-24
 1000e80:	dfc00515 	stw	ra,20(sp)
 1000e84:	df000415 	stw	fp,16(sp)
 1000e88:	df000404 	addi	fp,sp,16
 1000e8c:	e13fff15 	stw	r4,-4(fp)
    {
      typedef _List_node<_Tp>  _Node;
      _Node* __cur = static_cast<_Node*>(this->_M_impl._M_node._M_next);
 1000e90:	e0bfff17 	ldw	r2,-4(fp)
 1000e94:	10800017 	ldw	r2,0(r2)
 1000e98:	e0bffd15 	stw	r2,-12(fp)
      while (__cur != &this->_M_impl._M_node)
 1000e9c:	00001106 	br	1000ee4 <_ZNSt10_List_baseIP8os_eventSaIS1_EE8_M_clearEv+0x68>
	{
	  _Node* __tmp = __cur;
 1000ea0:	e0bffd17 	ldw	r2,-12(fp)
 1000ea4:	e0bffc15 	stw	r2,-16(fp)
	  __cur = static_cast<_Node*>(__cur->_M_next);
 1000ea8:	e0bffd17 	ldw	r2,-12(fp)
 1000eac:	10800017 	ldw	r2,0(r2)
 1000eb0:	e0bffd15 	stw	r2,-12(fp)
	  _M_get_Tp_allocator().destroy(&__tmp->_M_data);
 1000eb4:	e13ffe04 	addi	r4,fp,-8
 1000eb8:	e17fff17 	ldw	r5,-4(fp)
 1000ebc:	1000ae40 	call	1000ae4 <_ZNKSt10_List_baseIP8os_eventSaIS1_EE19_M_get_Tp_allocatorEv>
 1000ec0:	e13ffe04 	addi	r4,fp,-8
 1000ec4:	e0bffc17 	ldw	r2,-16(fp)
 1000ec8:	11400204 	addi	r5,r2,8
 1000ecc:	10009940 	call	1000994 <_ZN9__gnu_cxx13new_allocatorIP8os_eventE7destroyEPS2_>
 1000ed0:	e13ffe04 	addi	r4,fp,-8
 1000ed4:	10007e00 	call	10007e0 <_ZNSaIP8os_eventED1Ev>
	  _M_put_node(__tmp);
 1000ed8:	e13fff17 	ldw	r4,-4(fp)
 1000edc:	e17ffc17 	ldw	r5,-16(fp)
 1000ee0:	1000d280 	call	1000d28 <_ZNSt10_List_baseIP8os_eventSaIS1_EE11_M_put_nodeEPSt10_List_nodeIS1_E>
    _List_base<_Tp, _Alloc>::
    _M_clear()
    {
      typedef _List_node<_Tp>  _Node;
      _Node* __cur = static_cast<_Node*>(this->_M_impl._M_node._M_next);
      while (__cur != &this->_M_impl._M_node)
 1000ee4:	e0ffff17 	ldw	r3,-4(fp)
 1000ee8:	e0bffd17 	ldw	r2,-12(fp)
 1000eec:	18bfec1e 	bne	r3,r2,1000ea0 <_ZNSt10_List_baseIP8os_eventSaIS1_EE8_M_clearEv+0x24>
	{
	  _Node* __tmp = __cur;
	  __cur = static_cast<_Node*>(__cur->_M_next);
	  _M_get_Tp_allocator().destroy(&__tmp->_M_data);
	  _M_put_node(__tmp);
 1000ef0:	e037883a 	mov	sp,fp
 1000ef4:	dfc00117 	ldw	ra,4(sp)
 1000ef8:	df000017 	ldw	fp,0(sp)
 1000efc:	dec00204 	addi	sp,sp,8
 1000f00:	f800283a 	ret

01000f04 <_ZNSt10_List_baseIP8os_eventSaIS1_EED2Ev>:
      _List_base(const allocator_type& __a)
      : _M_impl(__a)
      { _M_init(); }

      // This is what actually destroys the list.
      ~_List_base()
 1000f04:	defffd04 	addi	sp,sp,-12
 1000f08:	dfc00215 	stw	ra,8(sp)
 1000f0c:	df000115 	stw	fp,4(sp)
 1000f10:	df000104 	addi	fp,sp,4
 1000f14:	e13fff15 	stw	r4,-4(fp)
      { _M_clear(); }
 1000f18:	e13fff17 	ldw	r4,-4(fp)
 1000f1c:	1000e7c0 	call	1000e7c <_ZNSt10_List_baseIP8os_eventSaIS1_EE8_M_clearEv>
 1000f20:	e13fff17 	ldw	r4,-4(fp)
 1000f24:	10009340 	call	1000934 <_ZNSt10_List_baseIP8os_eventSaIS1_EE10_List_implD1Ev>
 1000f28:	e037883a 	mov	sp,fp
 1000f2c:	dfc00117 	ldw	ra,4(sp)
 1000f30:	df000017 	ldw	fp,0(sp)
 1000f34:	dec00204 	addi	sp,sp,8
 1000f38:	f800283a 	ret

01000f3c <_ZNSt4listIP8os_eventSaIS1_EED1Ev>:
   *  iterator's next/previous pointers refer to itself, the %list is
   *  %empty.  @endif
  */
  template<typename _Tp, typename _Alloc = std::allocator<_Tp> >
    class list : protected _List_base<_Tp, _Alloc>
    {
 1000f3c:	defffd04 	addi	sp,sp,-12
 1000f40:	dfc00215 	stw	ra,8(sp)
 1000f44:	df000115 	stw	fp,4(sp)
 1000f48:	df000104 	addi	fp,sp,4
 1000f4c:	e13fff15 	stw	r4,-4(fp)
 1000f50:	e13fff17 	ldw	r4,-4(fp)
 1000f54:	1000f040 	call	1000f04 <_ZNSt10_List_baseIP8os_eventSaIS1_EED2Ev>
 1000f58:	e037883a 	mov	sp,fp
 1000f5c:	dfc00117 	ldw	ra,4(sp)
 1000f60:	df000017 	ldw	fp,0(sp)
 1000f64:	dec00204 	addi	sp,sp,8
 1000f68:	f800283a 	ret

01000f6c <_ZN9__gnu_cxx13new_allocatorISt10_List_nodeIP8os_eventEE8allocateEmPKv>:
      address(const_reference __x) const { return &__x; }

      // NB: __n is permitted to be 0.  The C++ standard says nothing
      // about what the return value is when __n == 0.
      pointer
      allocate(size_type __n, const void* = 0)
 1000f6c:	defffb04 	addi	sp,sp,-20
 1000f70:	dfc00415 	stw	ra,16(sp)
 1000f74:	df000315 	stw	fp,12(sp)
 1000f78:	df000304 	addi	fp,sp,12
 1000f7c:	e13ffd15 	stw	r4,-12(fp)
 1000f80:	e17ffe15 	stw	r5,-8(fp)
 1000f84:	e1bfff15 	stw	r6,-4(fp)
      { 
	if (__builtin_expect(__n > this->max_size(), false))
 1000f88:	e13ffd17 	ldw	r4,-12(fp)
 1000f8c:	1000cc80 	call	1000cc8 <_ZNK9__gnu_cxx13new_allocatorISt10_List_nodeIP8os_eventEE8max_sizeEv>
 1000f90:	1007883a 	mov	r3,r2
 1000f94:	e0bffe17 	ldw	r2,-8(fp)
 1000f98:	1885803a 	cmpltu	r2,r3,r2
 1000f9c:	1004c03a 	cmpne	r2,r2,zero
 1000fa0:	10803fcc 	andi	r2,r2,255
 1000fa4:	1005003a 	cmpeq	r2,r2,zero
 1000fa8:	1000011e 	bne	r2,zero,1000fb0 <_ZN9__gnu_cxx13new_allocatorISt10_List_nodeIP8os_eventEE8allocateEmPKv+0x44>
	  std::__throw_bad_alloc();
 1000fac:	10017540 	call	1001754 <_ZSt17__throw_bad_allocv>

	return static_cast<_Tp*>(::operator new(__n * sizeof(_Tp)));
 1000fb0:	e0bffe17 	ldw	r2,-8(fp)
 1000fb4:	11000324 	muli	r4,r2,12
 1000fb8:	10090180 	call	1009018 <_Znwm>
 1000fbc:	e037883a 	mov	sp,fp
 1000fc0:	dfc00117 	ldw	ra,4(sp)
 1000fc4:	df000017 	ldw	fp,0(sp)
 1000fc8:	dec00204 	addi	sp,sp,8
 1000fcc:	f800283a 	ret

01000fd0 <_ZNSt10_List_baseIP8os_eventSaIS1_EE11_M_get_nodeEv>:
      };

      _List_impl _M_impl;

      _List_node<_Tp>*
      _M_get_node()
 1000fd0:	defffd04 	addi	sp,sp,-12
 1000fd4:	dfc00215 	stw	ra,8(sp)
 1000fd8:	df000115 	stw	fp,4(sp)
 1000fdc:	df000104 	addi	fp,sp,4
 1000fe0:	e13fff15 	stw	r4,-4(fp)
      { return _M_impl._Node_alloc_type::allocate(1); }
 1000fe4:	e0bfff17 	ldw	r2,-4(fp)
 1000fe8:	1009883a 	mov	r4,r2
 1000fec:	01400044 	movi	r5,1
 1000ff0:	000d883a 	mov	r6,zero
 1000ff4:	1000f6c0 	call	1000f6c <_ZN9__gnu_cxx13new_allocatorISt10_List_nodeIP8os_eventEE8allocateEmPKv>
 1000ff8:	e037883a 	mov	sp,fp
 1000ffc:	dfc00117 	ldw	ra,4(sp)
 1001000:	df000017 	ldw	fp,0(sp)
 1001004:	dec00204 	addi	sp,sp,8
 1001008:	f800283a 	ret

0100100c <_ZNSt4listIP8os_eventSaIS1_EE14_M_create_nodeERKS1_>:
       *
       *  Allocates space for a new node and constructs a copy of @a x in it.
       *  @endif
       */
      _Node*
      _M_create_node(const value_type& __x)
 100100c:	defffa04 	addi	sp,sp,-24
 1001010:	dfc00515 	stw	ra,20(sp)
 1001014:	df000415 	stw	fp,16(sp)
 1001018:	df000404 	addi	fp,sp,16
 100101c:	e13ffe15 	stw	r4,-8(fp)
 1001020:	e17fff15 	stw	r5,-4(fp)
      {
	_Node* __p = this->_M_get_node();
 1001024:	e13ffe17 	ldw	r4,-8(fp)
 1001028:	1000fd00 	call	1000fd0 <_ZNSt10_List_baseIP8os_eventSaIS1_EE11_M_get_nodeEv>
 100102c:	e0bffc15 	stw	r2,-16(fp)
	try
	  {
	    _M_get_Tp_allocator().construct(&__p->_M_data, __x);
 1001030:	e17ffe17 	ldw	r5,-8(fp)
 1001034:	e13ffd04 	addi	r4,fp,-12
 1001038:	1000ae40 	call	1000ae4 <_ZNKSt10_List_baseIP8os_eventSaIS1_EE19_M_get_Tp_allocatorEv>
 100103c:	e13ffd04 	addi	r4,fp,-12
 1001040:	e0bffc17 	ldw	r2,-16(fp)
 1001044:	11400204 	addi	r5,r2,8
 1001048:	e1bfff17 	ldw	r6,-4(fp)
 100104c:	1000b2c0 	call	1000b2c <_ZN9__gnu_cxx13new_allocatorIP8os_eventE9constructEPS2_RKS2_>
 1001050:	e13ffd04 	addi	r4,fp,-12
 1001054:	10007e00 	call	10007e0 <_ZNSaIP8os_eventED1Ev>
	catch(...)
	  {
	    _M_put_node(__p);
	    __throw_exception_again;
	  }
	return __p;
 1001058:	e0bffc17 	ldw	r2,-16(fp)
 100105c:	e037883a 	mov	sp,fp
 1001060:	dfc00117 	ldw	ra,4(sp)
 1001064:	df000017 	ldw	fp,0(sp)
 1001068:	dec00204 	addi	sp,sp,8
 100106c:	f800283a 	ret

01001070 <_ZNSt4listIP8os_eventSaIS1_EE9_M_insertESt14_List_iteratorIS1_ERKS1_>:
      _M_transfer(iterator __position, iterator __first, iterator __last)
      { __position._M_node->transfer(__first._M_node, __last._M_node); }

      // Inserts new element at position given and with value given.
      void
      _M_insert(iterator __position, const value_type& __x)
 1001070:	defffa04 	addi	sp,sp,-24
 1001074:	dfc00515 	stw	ra,20(sp)
 1001078:	df000415 	stw	fp,16(sp)
 100107c:	df000404 	addi	fp,sp,16
 1001080:	e13ffd15 	stw	r4,-12(fp)
 1001084:	e17ffe15 	stw	r5,-8(fp)
 1001088:	e1bfff15 	stw	r6,-4(fp)
      {
        _Node* __tmp = _M_create_node(__x);
 100108c:	e13ffd17 	ldw	r4,-12(fp)
 1001090:	e17fff17 	ldw	r5,-4(fp)
 1001094:	100100c0 	call	100100c <_ZNSt4listIP8os_eventSaIS1_EE14_M_create_nodeERKS1_>
 1001098:	e0bffc15 	stw	r2,-16(fp)
        __tmp->hook(__position._M_node);
 100109c:	e13ffc17 	ldw	r4,-16(fp)
 10010a0:	e17ffe17 	ldw	r5,-8(fp)
 10010a4:	1002da40 	call	1002da4 <_ZNSt15_List_node_base4hookEPS_>
 10010a8:	e037883a 	mov	sp,fp
 10010ac:	dfc00117 	ldw	ra,4(sp)
 10010b0:	df000017 	ldw	fp,0(sp)
 10010b4:	dec00204 	addi	sp,sp,8
 10010b8:	f800283a 	ret

010010bc <_ZNSt4listIP8os_eventSaIS1_EE9push_backERKS1_>:
       *  it.  Due to the nature of a %list this operation can be done
       *  in constant time, and does not invalidate iterators and
       *  references.
       */
      void
      push_back(const value_type& __x)
 10010bc:	defffc04 	addi	sp,sp,-16
 10010c0:	dfc00315 	stw	ra,12(sp)
 10010c4:	df000215 	stw	fp,8(sp)
 10010c8:	df000204 	addi	fp,sp,8
 10010cc:	e13ffe15 	stw	r4,-8(fp)
 10010d0:	e17fff15 	stw	r5,-4(fp)
      { this->_M_insert(end(), __x); }
 10010d4:	e13ffe17 	ldw	r4,-8(fp)
 10010d8:	1000a240 	call	1000a24 <_ZNSt4listIP8os_eventSaIS1_EE3endEv>
 10010dc:	100b883a 	mov	r5,r2
 10010e0:	e13ffe17 	ldw	r4,-8(fp)
 10010e4:	e1bfff17 	ldw	r6,-4(fp)
 10010e8:	10010700 	call	1001070 <_ZNSt4listIP8os_eventSaIS1_EE9_M_insertESt14_List_iteratorIS1_ERKS1_>
 10010ec:	e037883a 	mov	sp,fp
 10010f0:	dfc00117 	ldw	ra,4(sp)
 10010f4:	df000017 	ldw	fp,0(sp)
 10010f8:	dec00204 	addi	sp,sp,8
 10010fc:	f800283a 	ret

01001100 <_ZN15InfraredHandler4initEv>:
InfraredHandler::~InfraredHandler() {}

// INITIALIZATION

/* A mock implemementation of InfraredHandler::init, for testing. */
Status InfraredHandler::init() {
 1001100:	defffe04 	addi	sp,sp,-8
 1001104:	df000115 	stw	fp,4(sp)
 1001108:	df000104 	addi	fp,sp,4
 100110c:	e13fff15 	stw	r4,-4(fp)
	return OK;
 1001110:	0005883a 	mov	r2,zero
}
 1001114:	e037883a 	mov	sp,fp
 1001118:	df000017 	ldw	fp,0(sp)
 100111c:	dec00104 	addi	sp,sp,4
 1001120:	f800283a 	ret

01001124 <_ZN15InfraredHandler4readEi>:
}

// RECEIVERS

/* A mock implementation of InfraredHandler::read, for testing. */
unsigned int InfraredHandler::read(int channel) {
 1001124:	defffd04 	addi	sp,sp,-12
 1001128:	df000215 	stw	fp,8(sp)
 100112c:	df000204 	addi	fp,sp,8
 1001130:	e13ffe15 	stw	r4,-8(fp)
 1001134:	e17fff15 	stw	r5,-4(fp)
	return 10;
 1001138:	00800284 	movi	r2,10
}
 100113c:	e037883a 	mov	sp,fp
 1001140:	df000017 	ldw	fp,0(sp)
 1001144:	dec00104 	addi	sp,sp,4
 1001148:	f800283a 	ret

0100114c <_ZN15InfraredHandler17onInfraredReceiveEj>:
/*
 * Posts the given infrared level readings to all listener queues.
 * @param level - the level read by the infrared receivers
 * @return OK if the readings are posted to all listener queues without error
 */
Status InfraredHandler::onInfraredReceive(unsigned int level) {
 100114c:	defff804 	addi	sp,sp,-32
 1001150:	dfc00715 	stw	ra,28(sp)
 1001154:	df000615 	stw	fp,24(sp)
 1001158:	df000604 	addi	fp,sp,24
 100115c:	e13ffe15 	stw	r4,-8(fp)
 1001160:	e17fff15 	stw	r5,-4(fp)
	Status overall = OK;
 1001164:	e03ffb15 	stw	zero,-20(fp)
	INT8U status;
	for (list<OS_EVENT *>::iterator it = listeners.begin(); it != listeners.end(); ++it) {
 1001168:	e0bffe17 	ldw	r2,-8(fp)
 100116c:	11000104 	addi	r4,r2,4
 1001170:	10009e80 	call	10009e8 <_ZNSt4listIP8os_eventSaIS1_EE5beginEv>
 1001174:	e0bffd15 	stw	r2,-12(fp)
 1001178:	00000d06 	br	10011b0 <_ZN15InfraredHandler17onInfraredReceiveEj+0x64>
		status = OSQPost(*it, (void*)level);
 100117c:	e13ffd04 	addi	r4,fp,-12
 1001180:	10008800 	call	1000880 <_ZNKSt14_List_iteratorIP8os_eventEdeEv>
 1001184:	11000017 	ldw	r4,0(r2)
 1001188:	e17fff17 	ldw	r5,-4(fp)
 100118c:	10191140 	call	1019114 <OSQPost>
 1001190:	e0bffa05 	stb	r2,-24(fp)
		if (status != OS_NO_ERR) overall = ERR_INFRARED;
 1001194:	e0bffa03 	ldbu	r2,-24(fp)
 1001198:	1005003a 	cmpeq	r2,r2,zero
 100119c:	1000021e 	bne	r2,zero,10011a8 <_ZN15InfraredHandler17onInfraredReceiveEj+0x5c>
 10011a0:	00800044 	movi	r2,1
 10011a4:	e0bffb15 	stw	r2,-20(fp)
 * @return OK if the readings are posted to all listener queues without error
 */
Status InfraredHandler::onInfraredReceive(unsigned int level) {
	Status overall = OK;
	INT8U status;
	for (list<OS_EVENT *>::iterator it = listeners.begin(); it != listeners.end(); ++it) {
 10011a8:	e13ffd04 	addi	r4,fp,-12
 10011ac:	10008480 	call	1000848 <_ZNSt14_List_iteratorIP8os_eventEppEv>
 10011b0:	e0bffe17 	ldw	r2,-8(fp)
 10011b4:	11000104 	addi	r4,r2,4
 10011b8:	1000a240 	call	1000a24 <_ZNSt4listIP8os_eventSaIS1_EE3endEv>
 10011bc:	e0bffc15 	stw	r2,-16(fp)
 10011c0:	e13ffd04 	addi	r4,fp,-12
 10011c4:	e17ffc04 	addi	r5,fp,-16
 10011c8:	10008100 	call	1000810 <_ZNKSt14_List_iteratorIP8os_eventEneERKS2_>
 10011cc:	10803fcc 	andi	r2,r2,255
 10011d0:	1004c03a 	cmpne	r2,r2,zero
 10011d4:	103fe91e 	bne	r2,zero,100117c <_ZN15InfraredHandler17onInfraredReceiveEj+0x30>
		status = OSQPost(*it, (void*)level);
		if (status != OS_NO_ERR) overall = ERR_INFRARED;
	} return overall;
 10011d8:	e0bffb17 	ldw	r2,-20(fp)
}
 10011dc:	e037883a 	mov	sp,fp
 10011e0:	dfc00117 	ldw	ra,4(sp)
 10011e4:	df000017 	ldw	fp,0(sp)
 10011e8:	dec00204 	addi	sp,sp,8
 10011ec:	f800283a 	ret

010011f0 <_ZN15InfraredHandler6updateEv>:

/*
 * Updates the infrared readings by checking all receivers.
 * @return OK if the infrared readings are accepted by all listeners
 */
Status InfraredHandler::update() {
 10011f0:	defffd04 	addi	sp,sp,-12
 10011f4:	dfc00215 	stw	ra,8(sp)
 10011f8:	df000115 	stw	fp,4(sp)
 10011fc:	df000104 	addi	fp,sp,4
 1001200:	e13fff15 	stw	r4,-4(fp)
	return onInfraredReceive(read(1));
 1001204:	e13fff17 	ldw	r4,-4(fp)
 1001208:	01400044 	movi	r5,1
 100120c:	10011240 	call	1001124 <_ZN15InfraredHandler4readEi>
 1001210:	100b883a 	mov	r5,r2
 1001214:	e13fff17 	ldw	r4,-4(fp)
 1001218:	100114c0 	call	100114c <_ZN15InfraredHandler17onInfraredReceiveEj>
}
 100121c:	e037883a 	mov	sp,fp
 1001220:	dfc00117 	ldw	ra,4(sp)
 1001224:	df000017 	ldw	fp,0(sp)
 1001228:	dec00204 	addi	sp,sp,8
 100122c:	f800283a 	ret

01001230 <_ZN15InfraredHandlerD0Ev>:
#include <stdio.h>
#include "InfraredHandler.h"

// ALLOCATION
InfraredHandler::InfraredHandler() {}
InfraredHandler::~InfraredHandler() {}
 1001230:	defffd04 	addi	sp,sp,-12
 1001234:	dfc00215 	stw	ra,8(sp)
 1001238:	df000115 	stw	fp,4(sp)
 100123c:	df000104 	addi	fp,sp,4
 1001240:	e13fff15 	stw	r4,-4(fp)
 1001244:	00c040b4 	movhi	r3,258
 1001248:	18fb8804 	addi	r3,r3,-4576
 100124c:	e0bfff17 	ldw	r2,-4(fp)
 1001250:	10c00015 	stw	r3,0(r2)
 1001254:	e13fff17 	ldw	r4,-4(fp)
 1001258:	10006b00 	call	10006b0 <_ZN10DataSourceD2Ev>
 100125c:	00800044 	movi	r2,1
 1001260:	10803fcc 	andi	r2,r2,255
 1001264:	1005003a 	cmpeq	r2,r2,zero
 1001268:	1000021e 	bne	r2,zero,1001274 <_ZN15InfraredHandlerD0Ev+0x44>
 100126c:	e13fff17 	ldw	r4,-4(fp)
 1001270:	1008a880 	call	1008a88 <_ZdlPv>
 1001274:	e037883a 	mov	sp,fp
 1001278:	dfc00117 	ldw	ra,4(sp)
 100127c:	df000017 	ldw	fp,0(sp)
 1001280:	dec00204 	addi	sp,sp,8
 1001284:	f800283a 	ret

01001288 <_ZN15InfraredHandlerD1Ev>:
 1001288:	defffd04 	addi	sp,sp,-12
 100128c:	dfc00215 	stw	ra,8(sp)
 1001290:	df000115 	stw	fp,4(sp)
 1001294:	df000104 	addi	fp,sp,4
 1001298:	e13fff15 	stw	r4,-4(fp)
 100129c:	00c040b4 	movhi	r3,258
 10012a0:	18fb8804 	addi	r3,r3,-4576
 10012a4:	e0bfff17 	ldw	r2,-4(fp)
 10012a8:	10c00015 	stw	r3,0(r2)
 10012ac:	e13fff17 	ldw	r4,-4(fp)
 10012b0:	10006b00 	call	10006b0 <_ZN10DataSourceD2Ev>
 10012b4:	0005883a 	mov	r2,zero
 10012b8:	10803fcc 	andi	r2,r2,255
 10012bc:	1005003a 	cmpeq	r2,r2,zero
 10012c0:	1000021e 	bne	r2,zero,10012cc <_ZN15InfraredHandlerD1Ev+0x44>
 10012c4:	e13fff17 	ldw	r4,-4(fp)
 10012c8:	1008a880 	call	1008a88 <_ZdlPv>
 10012cc:	e037883a 	mov	sp,fp
 10012d0:	dfc00117 	ldw	ra,4(sp)
 10012d4:	df000017 	ldw	fp,0(sp)
 10012d8:	dec00204 	addi	sp,sp,8
 10012dc:	f800283a 	ret

010012e0 <_ZN15InfraredHandlerD2Ev>:
 10012e0:	defffd04 	addi	sp,sp,-12
 10012e4:	dfc00215 	stw	ra,8(sp)
 10012e8:	df000115 	stw	fp,4(sp)
 10012ec:	df000104 	addi	fp,sp,4
 10012f0:	e13fff15 	stw	r4,-4(fp)
 10012f4:	00c040b4 	movhi	r3,258
 10012f8:	18fb8804 	addi	r3,r3,-4576
 10012fc:	e0bfff17 	ldw	r2,-4(fp)
 1001300:	10c00015 	stw	r3,0(r2)
 1001304:	e13fff17 	ldw	r4,-4(fp)
 1001308:	10006b00 	call	10006b0 <_ZN10DataSourceD2Ev>
 100130c:	0005883a 	mov	r2,zero
 1001310:	10803fcc 	andi	r2,r2,255
 1001314:	1005003a 	cmpeq	r2,r2,zero
 1001318:	1000021e 	bne	r2,zero,1001324 <_ZN15InfraredHandlerD2Ev+0x44>
 100131c:	e13fff17 	ldw	r4,-4(fp)
 1001320:	1008a880 	call	1008a88 <_ZdlPv>
 1001324:	e037883a 	mov	sp,fp
 1001328:	dfc00117 	ldw	ra,4(sp)
 100132c:	df000017 	ldw	fp,0(sp)
 1001330:	dec00204 	addi	sp,sp,8
 1001334:	f800283a 	ret

01001338 <_ZN15InfraredHandlerC1Ev>:

#include <stdio.h>
#include "InfraredHandler.h"

// ALLOCATION
InfraredHandler::InfraredHandler() {}
 1001338:	defffd04 	addi	sp,sp,-12
 100133c:	dfc00215 	stw	ra,8(sp)
 1001340:	df000115 	stw	fp,4(sp)
 1001344:	df000104 	addi	fp,sp,4
 1001348:	e13fff15 	stw	r4,-4(fp)
 100134c:	e13fff17 	ldw	r4,-4(fp)
 1001350:	10005580 	call	1000558 <_ZN10DataSourceC2Ev>
 1001354:	00c040b4 	movhi	r3,258
 1001358:	18fb8804 	addi	r3,r3,-4576
 100135c:	e0bfff17 	ldw	r2,-4(fp)
 1001360:	10c00015 	stw	r3,0(r2)
 1001364:	e037883a 	mov	sp,fp
 1001368:	dfc00117 	ldw	ra,4(sp)
 100136c:	df000017 	ldw	fp,0(sp)
 1001370:	dec00204 	addi	sp,sp,8
 1001374:	f800283a 	ret

01001378 <_ZN15InfraredHandlerC2Ev>:
 1001378:	defffd04 	addi	sp,sp,-12
 100137c:	dfc00215 	stw	ra,8(sp)
 1001380:	df000115 	stw	fp,4(sp)
 1001384:	df000104 	addi	fp,sp,4
 1001388:	e13fff15 	stw	r4,-4(fp)
 100138c:	e13fff17 	ldw	r4,-4(fp)
 1001390:	10005580 	call	1000558 <_ZN10DataSourceC2Ev>
 1001394:	00c040b4 	movhi	r3,258
 1001398:	18fb8804 	addi	r3,r3,-4576
 100139c:	e0bfff17 	ldw	r2,-4(fp)
 10013a0:	10c00015 	stw	r3,0(r2)
 10013a4:	e037883a 	mov	sp,fp
 10013a8:	dfc00117 	ldw	ra,4(sp)
 10013ac:	df000017 	ldw	fp,0(sp)
 10013b0:	dec00204 	addi	sp,sp,8
 10013b4:	f800283a 	ret

010013b8 <_Z18infrared_read_taskPv>:
#include "InfraredTasks.h"

extern InfraredHandler *infrared;

/* Polls the infrared handler for infrared updates. */
void infrared_read_task(void* pdata) {
 10013b8:	defffc04 	addi	sp,sp,-16
 10013bc:	dfc00315 	stw	ra,12(sp)
 10013c0:	df000215 	stw	fp,8(sp)
 10013c4:	df000204 	addi	fp,sp,8
 10013c8:	e13fff15 	stw	r4,-4(fp)
	int status = OK;
 10013cc:	e03ffe15 	stw	zero,-8(fp)
	while (status == OK) {
 10013d0:	00000a06 	br	10013fc <_Z18infrared_read_taskPv+0x44>
		// Update the infrared handler.
		status = infrared->update();
 10013d4:	008040b4 	movhi	r2,258
 10013d8:	108ba204 	addi	r2,r2,11912
 10013dc:	11000017 	ldw	r4,0(r2)
 10013e0:	10011f00 	call	10011f0 <_ZN15InfraredHandler6updateEv>
 10013e4:	e0bffe15 	stw	r2,-8(fp)
		// Wait for 500 ms.
		OSTimeDlyHMSM(0, 0, 0, 500);
 10013e8:	0009883a 	mov	r4,zero
 10013ec:	000b883a 	mov	r5,zero
 10013f0:	000d883a 	mov	r6,zero
 10013f4:	01c07d04 	movi	r7,500
 10013f8:	101bfd00 	call	101bfd0 <OSTimeDlyHMSM>
extern InfraredHandler *infrared;

/* Polls the infrared handler for infrared updates. */
void infrared_read_task(void* pdata) {
	int status = OK;
	while (status == OK) {
 10013fc:	e0bffe17 	ldw	r2,-8(fp)
 1001400:	1005003a 	cmpeq	r2,r2,zero
 1001404:	103ff31e 	bne	r2,zero,10013d4 <_Z18infrared_read_taskPv+0x1c>
		// Update the infrared handler.
		status = infrared->update();
		// Wait for 500 ms.
		OSTimeDlyHMSM(0, 0, 0, 500);
	}
}
 1001408:	e037883a 	mov	sp,fp
 100140c:	dfc00117 	ldw	ra,4(sp)
 1001410:	df000017 	ldw	fp,0(sp)
 1001414:	dec00204 	addi	sp,sp,8
 1001418:	f800283a 	ret

0100141c <_Z41__static_initialization_and_destruction_0ii>:
		// Start.
		OSStart();
	}

	return 0;
}
 100141c:	deffe204 	addi	sp,sp,-120
 1001420:	dfc01d15 	stw	ra,116(sp)
 1001424:	df001c15 	stw	fp,112(sp)
 1001428:	ddc01b15 	stw	r23,108(sp)
 100142c:	dd801a15 	stw	r22,104(sp)
 1001430:	dd401915 	stw	r21,100(sp)
 1001434:	dd001815 	stw	r20,96(sp)
 1001438:	dcc01715 	stw	r19,92(sp)
 100143c:	dc801615 	stw	r18,88(sp)
 1001440:	dc401515 	stw	r17,84(sp)
 1001444:	dc001415 	stw	r16,80(sp)
 1001448:	df001404 	addi	fp,sp,80
 100144c:	e13fec15 	stw	r4,-80(fp)
 1001450:	e17fed15 	stw	r5,-76(fp)
 1001454:	00804074 	movhi	r2,257
 1001458:	10a0ae04 	addi	r2,r2,-32072
 100145c:	e0bff415 	stw	r2,-48(fp)
 1001460:	008040b4 	movhi	r2,258
 1001464:	10bab604 	addi	r2,r2,-5416
 1001468:	e0bff515 	stw	r2,-44(fp)
 100146c:	e0bff604 	addi	r2,fp,-40
 1001470:	e0ffec04 	addi	r3,fp,-80
 1001474:	10c00015 	stw	r3,0(r2)
 1001478:	00c04034 	movhi	r3,256
 100147c:	18c54c04 	addi	r3,r3,5424
 1001480:	10c00115 	stw	r3,4(r2)
 1001484:	16c00215 	stw	sp,8(r2)
 1001488:	e13fee04 	addi	r4,fp,-72
 100148c:	100916c0 	call	100916c <_Unwind_SjLj_Register>
 1001490:	e0bfec17 	ldw	r2,-80(fp)
 1001494:	10800058 	cmpnei	r2,r2,1
 1001498:	1000351e 	bne	r2,zero,1001570 <_Z41__static_initialization_and_destruction_0ii+0x154>
 100149c:	e0ffed17 	ldw	r3,-76(fp)
 10014a0:	00bfffd4 	movui	r2,65535
 10014a4:	1880321e 	bne	r3,r2,1001570 <_Z41__static_initialization_and_destruction_0ii+0x154>
#include "includes.h"

#include "Tasks.h"

/* Command handler. */
CommandHandler *command = new CommandHandler();
 10014a8:	00bfffc4 	movi	r2,-1
 10014ac:	e0bfef15 	stw	r2,-68(fp)
 10014b0:	01000604 	movi	r4,24
 10014b4:	10090180 	call	1009018 <_Znwm>
 10014b8:	e0bffe15 	stw	r2,-8(fp)
 10014bc:	00800084 	movi	r2,2
 10014c0:	e0bfef15 	stw	r2,-68(fp)
 10014c4:	e13ffe17 	ldw	r4,-8(fp)
 10014c8:	10002380 	call	1000238 <_ZN14CommandHandlerC1Ev>
 10014cc:	e0bffe17 	ldw	r2,-8(fp)
 10014d0:	d0a70f15 	stw	r2,-25540(gp)
InfraredHandler *infrared = new InfraredHandler();
 10014d4:	00bfffc4 	movi	r2,-1
 10014d8:	e0bfef15 	stw	r2,-68(fp)
 10014dc:	01000404 	movi	r4,16
 10014e0:	10090180 	call	1009018 <_Znwm>
 10014e4:	e0bffd15 	stw	r2,-12(fp)
 10014e8:	00800044 	movi	r2,1
 10014ec:	e0bfef15 	stw	r2,-68(fp)
 10014f0:	e13ffd17 	ldw	r4,-12(fp)
 10014f4:	10013380 	call	1001338 <_ZN15InfraredHandlerC1Ev>
 10014f8:	00000a06 	br	1001524 <_Z41__static_initialization_and_destruction_0ii+0x108>
 10014fc:	e0ffff17 	ldw	r3,-4(fp)
 1001500:	e0fffc15 	stw	r3,-16(fp)
#include "includes.h"

#include "Tasks.h"

/* Command handler. */
CommandHandler *command = new CommandHandler();
 1001504:	e13ffe17 	ldw	r4,-8(fp)
 1001508:	1008a880 	call	1008a88 <_ZdlPv>
 100150c:	e0bffc17 	ldw	r2,-16(fp)
 1001510:	e0bfff15 	stw	r2,-4(fp)
 1001514:	00bfffc4 	movi	r2,-1
 1001518:	e0bfef15 	stw	r2,-68(fp)
 100151c:	e13fff17 	ldw	r4,-4(fp)
 1001520:	10094380 	call	1009438 <_Unwind_SjLj_Resume>
InfraredHandler *infrared = new InfraredHandler();
 1001524:	e0fffd17 	ldw	r3,-12(fp)
 1001528:	d0e71015 	stw	r3,-25536(gp)
 100152c:	00001006 	br	1001570 <_Z41__static_initialization_and_destruction_0ii+0x154>
 1001530:	e7001404 	addi	fp,fp,80
 1001534:	e0bfef17 	ldw	r2,-68(fp)
 1001538:	e0fff017 	ldw	r3,-64(fp)
 100153c:	e0ffff15 	stw	r3,-4(fp)
 1001540:	10800060 	cmpeqi	r2,r2,1
 1001544:	103fed1e 	bne	r2,zero,10014fc <_Z41__static_initialization_and_destruction_0ii+0xe0>
 1001548:	e0bfff17 	ldw	r2,-4(fp)
 100154c:	e0bffb15 	stw	r2,-20(fp)
 1001550:	e13ffd17 	ldw	r4,-12(fp)
 1001554:	1008a880 	call	1008a88 <_ZdlPv>
 1001558:	e0fffb17 	ldw	r3,-20(fp)
 100155c:	e0ffff15 	stw	r3,-4(fp)
 1001560:	00bfffc4 	movi	r2,-1
 1001564:	e0bfef15 	stw	r2,-68(fp)
 1001568:	e13fff17 	ldw	r4,-4(fp)
 100156c:	10094380 	call	1009438 <_Unwind_SjLj_Resume>
 1001570:	e13fee04 	addi	r4,fp,-72
 1001574:	100917c0 	call	100917c <_Unwind_SjLj_Unregister>
		// Start.
		OSStart();
	}

	return 0;
}
 1001578:	e037883a 	mov	sp,fp
 100157c:	dfc00917 	ldw	ra,36(sp)
 1001580:	df000817 	ldw	fp,32(sp)
 1001584:	ddc00717 	ldw	r23,28(sp)
 1001588:	dd800617 	ldw	r22,24(sp)
 100158c:	dd400517 	ldw	r21,20(sp)
 1001590:	dd000417 	ldw	r20,16(sp)
 1001594:	dcc00317 	ldw	r19,12(sp)
 1001598:	dc800217 	ldw	r18,8(sp)
 100159c:	dc400117 	ldw	r17,4(sp)
 10015a0:	dc000017 	ldw	r16,0(sp)
 10015a4:	dec00a04 	addi	sp,sp,40
 10015a8:	f800283a 	ret

010015ac <_GLOBAL__I_command_check_infrared_task_stk>:

 10015ac:	defffe04 	addi	sp,sp,-8
 10015b0:	dfc00115 	stw	ra,4(sp)
 10015b4:	df000015 	stw	fp,0(sp)
 10015b8:	d839883a 	mov	fp,sp
 10015bc:	01000044 	movi	r4,1
 10015c0:	017fffd4 	movui	r5,65535
 10015c4:	100141c0 	call	100141c <_Z41__static_initialization_and_destruction_0ii>
 10015c8:	e037883a 	mov	sp,fp
 10015cc:	dfc00117 	ldw	ra,4(sp)
 10015d0:	df000017 	ldw	fp,0(sp)
 10015d4:	dec00204 	addi	sp,sp,8
 10015d8:	f800283a 	ret

010015dc <main>:
/* Command handler. */
CommandHandler *command = new CommandHandler();
InfraredHandler *infrared = new InfraredHandler();

/* The main function creates the command and infrared tasks and starts multi-tasking */
int main(void) {
 10015dc:	defff704 	addi	sp,sp,-36
 10015e0:	dfc00815 	stw	ra,32(sp)
 10015e4:	df000715 	stw	fp,28(sp)
 10015e8:	dc000615 	stw	r16,24(sp)
 10015ec:	df000604 	addi	fp,sp,24
			INFRARED_READ_TASK_PRIORITY,
			INFRARED_READ_TASK_PRIORITY,
			infrared_read_task_stk,
			TASK_STACKSIZE,
			NULL,
			0);
 10015f0:	00800084 	movi	r2,2
 10015f4:	d8800015 	stw	r2,0(sp)
 10015f8:	008040b4 	movhi	r2,258
 10015fc:	1093cf04 	addi	r2,r2,20284
 1001600:	d8800115 	stw	r2,4(sp)
 1001604:	00820004 	movi	r2,2048
 1001608:	d8800215 	stw	r2,8(sp)
 100160c:	d8000315 	stw	zero,12(sp)
 1001610:	d8000415 	stw	zero,16(sp)
 1001614:	01004034 	movhi	r4,256
 1001618:	2104ee04 	addi	r4,r4,5048
 100161c:	000b883a 	mov	r5,zero
 1001620:	018040b4 	movhi	r6,258
 1001624:	319bce04 	addi	r6,r6,28472
 1001628:	01c00084 	movi	r7,2
 100162c:	101ab8c0 	call	101ab8c <OSTaskCreateExt>
			COMMAND_CHECK_INFRARED_TASK_PRIORITY,
			COMMAND_CHECK_INFRARED_TASK_PRIORITY,
			command_check_infrared_task_stk,
			TASK_STACKSIZE,
			0,
			0);
 1001630:	00800044 	movi	r2,1
 1001634:	d8800015 	stw	r2,0(sp)
 1001638:	008040b4 	movhi	r2,258
 100163c:	108bcf04 	addi	r2,r2,12092
 1001640:	d8800115 	stw	r2,4(sp)
 1001644:	00820004 	movi	r2,2048
 1001648:	d8800215 	stw	r2,8(sp)
 100164c:	d8000315 	stw	zero,12(sp)
 1001650:	d8000415 	stw	zero,16(sp)
 1001654:	01004034 	movhi	r4,256
 1001658:	21013304 	addi	r4,r4,1228
 100165c:	000b883a 	mov	r5,zero
 1001660:	018040b4 	movhi	r6,258
 1001664:	3193ce04 	addi	r6,r6,20280
 1001668:	01c00044 	movi	r7,1
 100166c:	101ab8c0 	call	101ab8c <OSTaskCreateExt>


	// Initialize the handlers.
	if ((command->init() == OK) && (infrared->init() == OK)) {
 1001670:	d1270f17 	ldw	r4,-25540(gp)
 1001674:	10003ac0 	call	10003ac <_ZN14CommandHandler4initEv>
 1001678:	1004c03a 	cmpne	r2,r2,zero
 100167c:	1000071e 	bne	r2,zero,100169c <main+0xc0>
 1001680:	d1271017 	ldw	r4,-25536(gp)
 1001684:	10011000 	call	1001100 <_ZN15InfraredHandler4initEv>
 1001688:	1004c03a 	cmpne	r2,r2,zero
 100168c:	1000031e 	bne	r2,zero,100169c <main+0xc0>
 1001690:	00800044 	movi	r2,1
 1001694:	e0bfff05 	stb	r2,-4(fp)
 1001698:	00000106 	br	10016a0 <main+0xc4>
 100169c:	e03fff05 	stb	zero,-4(fp)
 10016a0:	e0bfff03 	ldbu	r2,-4(fp)
 10016a4:	10803fcc 	andi	r2,r2,255
 10016a8:	1005003a 	cmpeq	r2,r2,zero
 10016ac:	1000081e 	bne	r2,zero,10016d0 <main+0xf4>

		// Create the communications chain.
		infrared->addListener(command->onInfraredReceive());
 10016b0:	d0a71017 	ldw	r2,-25536(gp)
 10016b4:	1021883a 	mov	r16,r2
 10016b8:	d1270f17 	ldw	r4,-25540(gp)
 10016bc:	10002680 	call	1000268 <_ZN14CommandHandler17onInfraredReceiveEv>
 10016c0:	100b883a 	mov	r5,r2
 10016c4:	8009883a 	mov	r4,r16
 10016c8:	100070c0 	call	100070c <_ZN10DataSource11addListenerEP8os_event>

		// Start.
		OSStart();
 10016cc:	1014db80 	call	1014db8 <OSStart>
	}

	return 0;
 10016d0:	0005883a 	mov	r2,zero
}
 10016d4:	e037883a 	mov	sp,fp
 10016d8:	dfc00217 	ldw	ra,8(sp)
 10016dc:	df000117 	ldw	fp,4(sp)
 10016e0:	dc000017 	ldw	r16,0(sp)
 10016e4:	dec00304 	addi	sp,sp,12
 10016e8:	f800283a 	ret

010016ec <_ZSt18__throw_bad_typeidv>:
 10016ec:	deffff04 	addi	sp,sp,-4
 10016f0:	01000104 	movi	r4,4
 10016f4:	dfc00015 	stw	ra,0(sp)
 10016f8:	1008e900 	call	1008e90 <__cxa_allocate_exception>
 10016fc:	1009883a 	mov	r4,r2
 1001700:	008040b4 	movhi	r2,258
 1001704:	10bca804 	addi	r2,r2,-3424
 1001708:	20800015 	stw	r2,0(r4)
 100170c:	014040b4 	movhi	r5,258
 1001710:	297caf04 	addi	r5,r5,-3396
 1001714:	01804074 	movhi	r6,257
 1001718:	31a30404 	addi	r6,r6,-29680
 100171c:	1008b080 	call	1008b08 <__cxa_throw>

01001720 <_ZSt16__throw_bad_castv>:
 1001720:	deffff04 	addi	sp,sp,-4
 1001724:	01000104 	movi	r4,4
 1001728:	dfc00015 	stw	ra,0(sp)
 100172c:	1008e900 	call	1008e90 <__cxa_allocate_exception>
 1001730:	1009883a 	mov	r4,r2
 1001734:	008040b4 	movhi	r2,258
 1001738:	10bcd804 	addi	r2,r2,-3232
 100173c:	20800015 	stw	r2,0(r4)
 1001740:	014040b4 	movhi	r5,258
 1001744:	297cde04 	addi	r5,r5,-3208
 1001748:	01804074 	movhi	r6,257
 100174c:	31a3fe04 	addi	r6,r6,-28680
 1001750:	1008b080 	call	1008b08 <__cxa_throw>

01001754 <_ZSt17__throw_bad_allocv>:
 1001754:	deffff04 	addi	sp,sp,-4
 1001758:	01000104 	movi	r4,4
 100175c:	dfc00015 	stw	ra,0(sp)
 1001760:	1008e900 	call	1008e90 <__cxa_allocate_exception>
 1001764:	1009883a 	mov	r4,r2
 1001768:	008040b4 	movhi	r2,258
 100176c:	10bc8504 	addi	r2,r2,-3564
 1001770:	20800015 	stw	r2,0(r4)
 1001774:	014040b4 	movhi	r5,258
 1001778:	297c8c04 	addi	r5,r5,-3536
 100177c:	01804034 	movhi	r6,256
 1001780:	319e7404 	addi	r6,r6,31184
 1001784:	1008b080 	call	1008b08 <__cxa_throw>

01001788 <_ZSt21__throw_bad_exceptionv>:
 1001788:	deffff04 	addi	sp,sp,-4
 100178c:	01000104 	movi	r4,4
 1001790:	dfc00015 	stw	ra,0(sp)
 1001794:	1008e900 	call	1008e90 <__cxa_allocate_exception>
 1001798:	1009883a 	mov	r4,r2
 100179c:	008040b4 	movhi	r2,258
 10017a0:	10bc6f04 	addi	r2,r2,-3652
 10017a4:	20800015 	stw	r2,0(r4)
 10017a8:	014040b4 	movhi	r5,258
 10017ac:	297c7c04 	addi	r5,r5,-3600
 10017b0:	01804034 	movhi	r6,256
 10017b4:	319e5c04 	addi	r6,r6,31088
 10017b8:	1008b080 	call	1008b08 <__cxa_throw>

010017bc <_ZSt19__throw_ios_failurePKc>:
 10017bc:	deffeb04 	addi	sp,sp,-84
 10017c0:	00804074 	movhi	r2,257
 10017c4:	10a0ae04 	addi	r2,r2,-32072
 10017c8:	d8800815 	stw	r2,32(sp)
 10017cc:	00c040b4 	movhi	r3,258
 10017d0:	18fab804 	addi	r3,r3,-5408
 10017d4:	00804034 	movhi	r2,256
 10017d8:	10862604 	addi	r2,r2,6296
 10017dc:	d9001115 	stw	r4,68(sp)
 10017e0:	d9000204 	addi	r4,sp,8
 10017e4:	d8800b15 	stw	r2,44(sp)
 10017e8:	dfc01415 	stw	ra,80(sp)
 10017ec:	df001315 	stw	fp,76(sp)
 10017f0:	ddc01215 	stw	r23,72(sp)
 10017f4:	d8c00915 	stw	r3,36(sp)
 10017f8:	dec00a15 	stw	sp,40(sp)
 10017fc:	dec00c15 	stw	sp,48(sp)
 1001800:	100916c0 	call	100916c <_Unwind_SjLj_Register>
 1001804:	00800084 	movi	r2,2
 1001808:	d8800315 	stw	r2,12(sp)
 100180c:	d9401117 	ldw	r5,68(sp)
 1001810:	d9000104 	addi	r4,sp,4
 1001814:	d9800044 	addi	r6,sp,1
 1001818:	10055d00 	call	10055d0 <_ZNSsC1EPKcRKSaIcE>
 100181c:	01000204 	movi	r4,8
 1001820:	1008e900 	call	1008e90 <__cxa_allocate_exception>
 1001824:	1009883a 	mov	r4,r2
 1001828:	d9400104 	addi	r5,sp,4
 100182c:	d8801015 	stw	r2,64(sp)
 1001830:	10029bc0 	call	10029bc <_ZNSt8ios_base7failureC1ERKSs>
 1001834:	d8800117 	ldw	r2,4(sp)
 1001838:	00c040b4 	movhi	r3,258
 100183c:	18dbcf04 	addi	r3,r3,28476
 1001840:	10bffd04 	addi	r2,r2,-12
 1001844:	d8800f15 	stw	r2,60(sp)
 1001848:	10c0081e 	bne	r2,r3,100186c <_ZSt19__throw_ios_failurePKc+0xb0>
 100184c:	d9001017 	ldw	r4,64(sp)
 1001850:	00bfffc4 	movi	r2,-1
 1001854:	014040b4 	movhi	r5,258
 1001858:	297bf804 	addi	r5,r5,-4128
 100185c:	01804034 	movhi	r6,256
 1001860:	318a2e04 	addi	r6,r6,10424
 1001864:	d8800315 	stw	r2,12(sp)
 1001868:	1008b080 	call	1008b08 <__cxa_throw>
 100186c:	00800044 	movi	r2,1
 1001870:	d8800315 	stw	r2,12(sp)
 1001874:	d8800f17 	ldw	r2,60(sp)
 1001878:	017fffc4 	movi	r5,-1
 100187c:	11000204 	addi	r4,r2,8
 1001880:	10078e40 	call	10078e4 <_ZN9__gnu_cxx18__exchange_and_addEPVii>
 1001884:	00bff116 	blt	zero,r2,100184c <_ZSt19__throw_ios_failurePKc+0x90>
 1001888:	d9000f17 	ldw	r4,60(sp)
 100188c:	d80b883a 	mov	r5,sp
 1001890:	10043740 	call	1004374 <_ZNSs4_Rep10_M_destroyERKSaIcE>
 1001894:	003fed06 	br	100184c <_ZSt19__throw_ios_failurePKc+0x90>
 1001898:	d8c00317 	ldw	r3,12(sp)
 100189c:	00800044 	movi	r2,1
 10018a0:	d9000417 	ldw	r4,16(sp)
 10018a4:	d9400517 	ldw	r5,20(sp)
 10018a8:	18800226 	beq	r3,r2,10018b4 <_ZSt19__throw_ios_failurePKc+0xf8>
 10018ac:	00bfffc4 	movi	r2,-1
 10018b0:	28800326 	beq	r5,r2,10018c0 <_ZSt19__throw_ios_failurePKc+0x104>
 10018b4:	00bfffc4 	movi	r2,-1
 10018b8:	d8800315 	stw	r2,12(sp)
 10018bc:	10094380 	call	1009438 <_Unwind_SjLj_Resume>
 10018c0:	10088640 	call	1008864 <_ZSt9terminatev>

010018c4 <_ZSt19__throw_logic_errorPKc>:
 10018c4:	deffe704 	addi	sp,sp,-100
 10018c8:	00804074 	movhi	r2,257
 10018cc:	10a0ae04 	addi	r2,r2,-32072
 10018d0:	d8800815 	stw	r2,32(sp)
 10018d4:	00c040b4 	movhi	r3,258
 10018d8:	18fabd04 	addi	r3,r3,-5388
 10018dc:	00804034 	movhi	r2,256
 10018e0:	10866c04 	addi	r2,r2,6576
 10018e4:	d9001315 	stw	r4,76(sp)
 10018e8:	d9000204 	addi	r4,sp,8
 10018ec:	d8800b15 	stw	r2,44(sp)
 10018f0:	dfc01815 	stw	ra,96(sp)
 10018f4:	df001715 	stw	fp,92(sp)
 10018f8:	ddc01615 	stw	r23,88(sp)
 10018fc:	d8c00915 	stw	r3,36(sp)
 1001900:	dec00a15 	stw	sp,40(sp)
 1001904:	dec00c15 	stw	sp,48(sp)
 1001908:	100916c0 	call	100916c <_Unwind_SjLj_Register>
 100190c:	00800104 	movi	r2,4
 1001910:	d8800315 	stw	r2,12(sp)
 1001914:	d885883a 	add	r2,sp,r2
 1001918:	d8801415 	stw	r2,80(sp)
 100191c:	d9401317 	ldw	r5,76(sp)
 1001920:	1009883a 	mov	r4,r2
 1001924:	d9800084 	addi	r6,sp,2
 1001928:	10055d00 	call	10055d0 <_ZNSsC1EPKcRKSaIcE>
 100192c:	01000204 	movi	r4,8
 1001930:	1008e900 	call	1008e90 <__cxa_allocate_exception>
 1001934:	d8801215 	stw	r2,72(sp)
 1001938:	008000c4 	movi	r2,3
 100193c:	d8800315 	stw	r2,12(sp)
 1001940:	d9401417 	ldw	r5,80(sp)
 1001944:	d9001217 	ldw	r4,72(sp)
 1001948:	10031640 	call	1003164 <_ZNSt11logic_errorC1ERKSs>
 100194c:	d8800117 	ldw	r2,4(sp)
 1001950:	00c040b4 	movhi	r3,258
 1001954:	18dbcf04 	addi	r3,r3,28476
 1001958:	10bffd04 	addi	r2,r2,-12
 100195c:	d8800f15 	stw	r2,60(sp)
 1001960:	10c0081e 	bne	r2,r3,1001984 <_ZSt19__throw_logic_errorPKc+0xc0>
 1001964:	d9001217 	ldw	r4,72(sp)
 1001968:	00bfffc4 	movi	r2,-1
 100196c:	014040b4 	movhi	r5,258
 1001970:	297c1104 	addi	r5,r5,-4028
 1001974:	01804034 	movhi	r6,256
 1001978:	318ba404 	addi	r6,r6,11920
 100197c:	d8800315 	stw	r2,12(sp)
 1001980:	1008b080 	call	1008b08 <__cxa_throw>
 1001984:	00800044 	movi	r2,1
 1001988:	d8800315 	stw	r2,12(sp)
 100198c:	d8800f17 	ldw	r2,60(sp)
 1001990:	017fffc4 	movi	r5,-1
 1001994:	11000204 	addi	r4,r2,8
 1001998:	10078e40 	call	10078e4 <_ZN9__gnu_cxx18__exchange_and_addEPVii>
 100199c:	00bff116 	blt	zero,r2,1001964 <_ZSt19__throw_logic_errorPKc+0xa0>
 10019a0:	d9000f17 	ldw	r4,60(sp)
 10019a4:	d80b883a 	mov	r5,sp
 10019a8:	10043740 	call	1004374 <_ZNSs4_Rep10_M_destroyERKSaIcE>
 10019ac:	003fed06 	br	1001964 <_ZSt19__throw_logic_errorPKc+0xa0>
 10019b0:	d8800417 	ldw	r2,16(sp)
 10019b4:	d8c00317 	ldw	r3,12(sp)
 10019b8:	d9000517 	ldw	r4,20(sp)
 10019bc:	d8801515 	stw	r2,84(sp)
 10019c0:	00800044 	movi	r2,1
 10019c4:	18800426 	beq	r3,r2,10019d8 <_ZSt19__throw_logic_errorPKc+0x114>
 10019c8:	00800084 	movi	r2,2
 10019cc:	18800826 	beq	r3,r2,10019f0 <_ZSt19__throw_logic_errorPKc+0x12c>
 10019d0:	008000c4 	movi	r2,3
 10019d4:	18800226 	beq	r3,r2,10019e0 <_ZSt19__throw_logic_errorPKc+0x11c>
 10019d8:	00bfffc4 	movi	r2,-1
 10019dc:	20801126 	beq	r4,r2,1001a24 <_ZSt19__throw_logic_errorPKc+0x160>
 10019e0:	d9001517 	ldw	r4,84(sp)
 10019e4:	00bfffc4 	movi	r2,-1
 10019e8:	d8800315 	stw	r2,12(sp)
 10019ec:	10094380 	call	1009438 <_Unwind_SjLj_Resume>
 10019f0:	d9001217 	ldw	r4,72(sp)
 10019f4:	1008e500 	call	1008e50 <__cxa_free_exception>
 10019f8:	d8801517 	ldw	r2,84(sp)
 10019fc:	00c040b4 	movhi	r3,258
 1001a00:	18dbcf04 	addi	r3,r3,28476
 1001a04:	d8801115 	stw	r2,68(sp)
 1001a08:	d8800117 	ldw	r2,4(sp)
 1001a0c:	10bffd04 	addi	r2,r2,-12
 1001a10:	d8801015 	stw	r2,64(sp)
 1001a14:	10c0041e 	bne	r2,r3,1001a28 <_ZSt19__throw_logic_errorPKc+0x164>
 1001a18:	d8801117 	ldw	r2,68(sp)
 1001a1c:	d8801515 	stw	r2,84(sp)
 1001a20:	003fef06 	br	10019e0 <_ZSt19__throw_logic_errorPKc+0x11c>
 1001a24:	10088640 	call	1008864 <_ZSt9terminatev>
 1001a28:	00800084 	movi	r2,2
 1001a2c:	d8800315 	stw	r2,12(sp)
 1001a30:	d8801017 	ldw	r2,64(sp)
 1001a34:	017fffc4 	movi	r5,-1
 1001a38:	11000204 	addi	r4,r2,8
 1001a3c:	10078e40 	call	10078e4 <_ZN9__gnu_cxx18__exchange_and_addEPVii>
 1001a40:	00bff516 	blt	zero,r2,1001a18 <_ZSt19__throw_logic_errorPKc+0x154>
 1001a44:	d9001017 	ldw	r4,64(sp)
 1001a48:	d9400044 	addi	r5,sp,1
 1001a4c:	10043740 	call	1004374 <_ZNSs4_Rep10_M_destroyERKSaIcE>
 1001a50:	003ff106 	br	1001a18 <_ZSt19__throw_logic_errorPKc+0x154>

01001a54 <_ZSt23__throw_underflow_errorPKc>:
 1001a54:	deffe704 	addi	sp,sp,-100
 1001a58:	00804074 	movhi	r2,257
 1001a5c:	10a0ae04 	addi	r2,r2,-32072
 1001a60:	d8800815 	stw	r2,32(sp)
 1001a64:	00c040b4 	movhi	r3,258
 1001a68:	18fac304 	addi	r3,r3,-5364
 1001a6c:	00804034 	movhi	r2,256
 1001a70:	1086d004 	addi	r2,r2,6976
 1001a74:	d9001315 	stw	r4,76(sp)
 1001a78:	d9000204 	addi	r4,sp,8
 1001a7c:	d8800b15 	stw	r2,44(sp)
 1001a80:	dfc01815 	stw	ra,96(sp)
 1001a84:	df001715 	stw	fp,92(sp)
 1001a88:	ddc01615 	stw	r23,88(sp)
 1001a8c:	d8c00915 	stw	r3,36(sp)
 1001a90:	dec00a15 	stw	sp,40(sp)
 1001a94:	dec00c15 	stw	sp,48(sp)
 1001a98:	100916c0 	call	100916c <_Unwind_SjLj_Register>
 1001a9c:	00800104 	movi	r2,4
 1001aa0:	d8800315 	stw	r2,12(sp)
 1001aa4:	d885883a 	add	r2,sp,r2
 1001aa8:	d8801415 	stw	r2,80(sp)
 1001aac:	d9401317 	ldw	r5,76(sp)
 1001ab0:	1009883a 	mov	r4,r2
 1001ab4:	d9800084 	addi	r6,sp,2
 1001ab8:	10055d00 	call	10055d0 <_ZNSsC1EPKcRKSaIcE>
 1001abc:	01000204 	movi	r4,8
 1001ac0:	1008e900 	call	1008e90 <__cxa_allocate_exception>
 1001ac4:	d8801215 	stw	r2,72(sp)
 1001ac8:	008000c4 	movi	r2,3
 1001acc:	d8800315 	stw	r2,12(sp)
 1001ad0:	d9401417 	ldw	r5,80(sp)
 1001ad4:	d9001217 	ldw	r4,72(sp)
 1001ad8:	10030440 	call	1003044 <_ZNSt15underflow_errorC1ERKSs>
 1001adc:	d8800117 	ldw	r2,4(sp)
 1001ae0:	00c040b4 	movhi	r3,258
 1001ae4:	18dbcf04 	addi	r3,r3,28476
 1001ae8:	10bffd04 	addi	r2,r2,-12
 1001aec:	d8800f15 	stw	r2,60(sp)
 1001af0:	10c0081e 	bne	r2,r3,1001b14 <_ZSt23__throw_underflow_errorPKc+0xc0>
 1001af4:	d9001217 	ldw	r4,72(sp)
 1001af8:	00bfffc4 	movi	r2,-1
 1001afc:	014040b4 	movhi	r5,258
 1001b00:	297b9204 	addi	r5,r5,-4536
 1001b04:	01804034 	movhi	r6,256
 1001b08:	3189c204 	addi	r6,r6,9992
 1001b0c:	d8800315 	stw	r2,12(sp)
 1001b10:	1008b080 	call	1008b08 <__cxa_throw>
 1001b14:	00800044 	movi	r2,1
 1001b18:	d8800315 	stw	r2,12(sp)
 1001b1c:	d8800f17 	ldw	r2,60(sp)
 1001b20:	017fffc4 	movi	r5,-1
 1001b24:	11000204 	addi	r4,r2,8
 1001b28:	10078e40 	call	10078e4 <_ZN9__gnu_cxx18__exchange_and_addEPVii>
 1001b2c:	00bff116 	blt	zero,r2,1001af4 <_ZSt23__throw_underflow_errorPKc+0xa0>
 1001b30:	d9000f17 	ldw	r4,60(sp)
 1001b34:	d80b883a 	mov	r5,sp
 1001b38:	10043740 	call	1004374 <_ZNSs4_Rep10_M_destroyERKSaIcE>
 1001b3c:	003fed06 	br	1001af4 <_ZSt23__throw_underflow_errorPKc+0xa0>
 1001b40:	d8800417 	ldw	r2,16(sp)
 1001b44:	d8c00317 	ldw	r3,12(sp)
 1001b48:	d9000517 	ldw	r4,20(sp)
 1001b4c:	d8801515 	stw	r2,84(sp)
 1001b50:	00800044 	movi	r2,1
 1001b54:	18800426 	beq	r3,r2,1001b68 <_ZSt23__throw_underflow_errorPKc+0x114>
 1001b58:	00800084 	movi	r2,2
 1001b5c:	18800826 	beq	r3,r2,1001b80 <_ZSt23__throw_underflow_errorPKc+0x12c>
 1001b60:	008000c4 	movi	r2,3
 1001b64:	18800226 	beq	r3,r2,1001b70 <_ZSt23__throw_underflow_errorPKc+0x11c>
 1001b68:	00bfffc4 	movi	r2,-1
 1001b6c:	20801126 	beq	r4,r2,1001bb4 <_ZSt23__throw_underflow_errorPKc+0x160>
 1001b70:	d9001517 	ldw	r4,84(sp)
 1001b74:	00bfffc4 	movi	r2,-1
 1001b78:	d8800315 	stw	r2,12(sp)
 1001b7c:	10094380 	call	1009438 <_Unwind_SjLj_Resume>
 1001b80:	d9001217 	ldw	r4,72(sp)
 1001b84:	1008e500 	call	1008e50 <__cxa_free_exception>
 1001b88:	d8801517 	ldw	r2,84(sp)
 1001b8c:	00c040b4 	movhi	r3,258
 1001b90:	18dbcf04 	addi	r3,r3,28476
 1001b94:	d8801115 	stw	r2,68(sp)
 1001b98:	d8800117 	ldw	r2,4(sp)
 1001b9c:	10bffd04 	addi	r2,r2,-12
 1001ba0:	d8801015 	stw	r2,64(sp)
 1001ba4:	10c0041e 	bne	r2,r3,1001bb8 <_ZSt23__throw_underflow_errorPKc+0x164>
 1001ba8:	d8801117 	ldw	r2,68(sp)
 1001bac:	d8801515 	stw	r2,84(sp)
 1001bb0:	003fef06 	br	1001b70 <_ZSt23__throw_underflow_errorPKc+0x11c>
 1001bb4:	10088640 	call	1008864 <_ZSt9terminatev>
 1001bb8:	00800084 	movi	r2,2
 1001bbc:	d8800315 	stw	r2,12(sp)
 1001bc0:	d8801017 	ldw	r2,64(sp)
 1001bc4:	017fffc4 	movi	r5,-1
 1001bc8:	11000204 	addi	r4,r2,8
 1001bcc:	10078e40 	call	10078e4 <_ZN9__gnu_cxx18__exchange_and_addEPVii>
 1001bd0:	00bff516 	blt	zero,r2,1001ba8 <_ZSt23__throw_underflow_errorPKc+0x154>
 1001bd4:	d9001017 	ldw	r4,64(sp)
 1001bd8:	d9400044 	addi	r5,sp,1
 1001bdc:	10043740 	call	1004374 <_ZNSs4_Rep10_M_destroyERKSaIcE>
 1001be0:	003ff106 	br	1001ba8 <_ZSt23__throw_underflow_errorPKc+0x154>

01001be4 <_ZSt22__throw_overflow_errorPKc>:
 1001be4:	deffe704 	addi	sp,sp,-100
 1001be8:	00804074 	movhi	r2,257
 1001bec:	10a0ae04 	addi	r2,r2,-32072
 1001bf0:	d8800815 	stw	r2,32(sp)
 1001bf4:	00c040b4 	movhi	r3,258
 1001bf8:	18fac904 	addi	r3,r3,-5340
 1001bfc:	00804034 	movhi	r2,256
 1001c00:	10873404 	addi	r2,r2,7376
 1001c04:	d9001315 	stw	r4,76(sp)
 1001c08:	d9000204 	addi	r4,sp,8
 1001c0c:	d8800b15 	stw	r2,44(sp)
 1001c10:	dfc01815 	stw	ra,96(sp)
 1001c14:	df001715 	stw	fp,92(sp)
 1001c18:	ddc01615 	stw	r23,88(sp)
 1001c1c:	d8c00915 	stw	r3,36(sp)
 1001c20:	dec00a15 	stw	sp,40(sp)
 1001c24:	dec00c15 	stw	sp,48(sp)
 1001c28:	100916c0 	call	100916c <_Unwind_SjLj_Register>
 1001c2c:	00800104 	movi	r2,4
 1001c30:	d8800315 	stw	r2,12(sp)
 1001c34:	d885883a 	add	r2,sp,r2
 1001c38:	d8801415 	stw	r2,80(sp)
 1001c3c:	d9401317 	ldw	r5,76(sp)
 1001c40:	1009883a 	mov	r4,r2
 1001c44:	d9800084 	addi	r6,sp,2
 1001c48:	10055d00 	call	10055d0 <_ZNSsC1EPKcRKSaIcE>
 1001c4c:	01000204 	movi	r4,8
 1001c50:	1008e900 	call	1008e90 <__cxa_allocate_exception>
 1001c54:	d8801215 	stw	r2,72(sp)
 1001c58:	008000c4 	movi	r2,3
 1001c5c:	d8800315 	stw	r2,12(sp)
 1001c60:	d9401417 	ldw	r5,80(sp)
 1001c64:	d9001217 	ldw	r4,72(sp)
 1001c68:	10030a40 	call	10030a4 <_ZNSt14overflow_errorC1ERKSs>
 1001c6c:	d8800117 	ldw	r2,4(sp)
 1001c70:	00c040b4 	movhi	r3,258
 1001c74:	18dbcf04 	addi	r3,r3,28476
 1001c78:	10bffd04 	addi	r2,r2,-12
 1001c7c:	d8800f15 	stw	r2,60(sp)
 1001c80:	10c0081e 	bne	r2,r3,1001ca4 <_ZSt22__throw_overflow_errorPKc+0xc0>
 1001c84:	d9001217 	ldw	r4,72(sp)
 1001c88:	00bfffc4 	movi	r2,-1
 1001c8c:	014040b4 	movhi	r5,258
 1001c90:	297b9f04 	addi	r5,r5,-4484
 1001c94:	01804034 	movhi	r6,256
 1001c98:	3189d304 	addi	r6,r6,10060
 1001c9c:	d8800315 	stw	r2,12(sp)
 1001ca0:	1008b080 	call	1008b08 <__cxa_throw>
 1001ca4:	00800044 	movi	r2,1
 1001ca8:	d8800315 	stw	r2,12(sp)
 1001cac:	d8800f17 	ldw	r2,60(sp)
 1001cb0:	017fffc4 	movi	r5,-1
 1001cb4:	11000204 	addi	r4,r2,8
 1001cb8:	10078e40 	call	10078e4 <_ZN9__gnu_cxx18__exchange_and_addEPVii>
 1001cbc:	00bff116 	blt	zero,r2,1001c84 <_ZSt22__throw_overflow_errorPKc+0xa0>
 1001cc0:	d9000f17 	ldw	r4,60(sp)
 1001cc4:	d80b883a 	mov	r5,sp
 1001cc8:	10043740 	call	1004374 <_ZNSs4_Rep10_M_destroyERKSaIcE>
 1001ccc:	003fed06 	br	1001c84 <_ZSt22__throw_overflow_errorPKc+0xa0>
 1001cd0:	d8800417 	ldw	r2,16(sp)
 1001cd4:	d8c00317 	ldw	r3,12(sp)
 1001cd8:	d9000517 	ldw	r4,20(sp)
 1001cdc:	d8801515 	stw	r2,84(sp)
 1001ce0:	00800044 	movi	r2,1
 1001ce4:	18800426 	beq	r3,r2,1001cf8 <_ZSt22__throw_overflow_errorPKc+0x114>
 1001ce8:	00800084 	movi	r2,2
 1001cec:	18800826 	beq	r3,r2,1001d10 <_ZSt22__throw_overflow_errorPKc+0x12c>
 1001cf0:	008000c4 	movi	r2,3
 1001cf4:	18800226 	beq	r3,r2,1001d00 <_ZSt22__throw_overflow_errorPKc+0x11c>
 1001cf8:	00bfffc4 	movi	r2,-1
 1001cfc:	20801126 	beq	r4,r2,1001d44 <_ZSt22__throw_overflow_errorPKc+0x160>
 1001d00:	d9001517 	ldw	r4,84(sp)
 1001d04:	00bfffc4 	movi	r2,-1
 1001d08:	d8800315 	stw	r2,12(sp)
 1001d0c:	10094380 	call	1009438 <_Unwind_SjLj_Resume>
 1001d10:	d9001217 	ldw	r4,72(sp)
 1001d14:	1008e500 	call	1008e50 <__cxa_free_exception>
 1001d18:	d8801517 	ldw	r2,84(sp)
 1001d1c:	00c040b4 	movhi	r3,258
 1001d20:	18dbcf04 	addi	r3,r3,28476
 1001d24:	d8801115 	stw	r2,68(sp)
 1001d28:	d8800117 	ldw	r2,4(sp)
 1001d2c:	10bffd04 	addi	r2,r2,-12
 1001d30:	d8801015 	stw	r2,64(sp)
 1001d34:	10c0041e 	bne	r2,r3,1001d48 <_ZSt22__throw_overflow_errorPKc+0x164>
 1001d38:	d8801117 	ldw	r2,68(sp)
 1001d3c:	d8801515 	stw	r2,84(sp)
 1001d40:	003fef06 	br	1001d00 <_ZSt22__throw_overflow_errorPKc+0x11c>
 1001d44:	10088640 	call	1008864 <_ZSt9terminatev>
 1001d48:	00800084 	movi	r2,2
 1001d4c:	d8800315 	stw	r2,12(sp)
 1001d50:	d8801017 	ldw	r2,64(sp)
 1001d54:	017fffc4 	movi	r5,-1
 1001d58:	11000204 	addi	r4,r2,8
 1001d5c:	10078e40 	call	10078e4 <_ZN9__gnu_cxx18__exchange_and_addEPVii>
 1001d60:	00bff516 	blt	zero,r2,1001d38 <_ZSt22__throw_overflow_errorPKc+0x154>
 1001d64:	d9001017 	ldw	r4,64(sp)
 1001d68:	d9400044 	addi	r5,sp,1
 1001d6c:	10043740 	call	1004374 <_ZNSs4_Rep10_M_destroyERKSaIcE>
 1001d70:	003ff106 	br	1001d38 <_ZSt22__throw_overflow_errorPKc+0x154>

01001d74 <_ZSt24__throw_invalid_argumentPKc>:
 1001d74:	deffe704 	addi	sp,sp,-100
 1001d78:	00804074 	movhi	r2,257
 1001d7c:	10a0ae04 	addi	r2,r2,-32072
 1001d80:	d8800815 	stw	r2,32(sp)
 1001d84:	00c040b4 	movhi	r3,258
 1001d88:	18facf04 	addi	r3,r3,-5316
 1001d8c:	00804034 	movhi	r2,256
 1001d90:	10879804 	addi	r2,r2,7776
 1001d94:	d9001315 	stw	r4,76(sp)
 1001d98:	d9000204 	addi	r4,sp,8
 1001d9c:	d8800b15 	stw	r2,44(sp)
 1001da0:	dfc01815 	stw	ra,96(sp)
 1001da4:	df001715 	stw	fp,92(sp)
 1001da8:	ddc01615 	stw	r23,88(sp)
 1001dac:	d8c00915 	stw	r3,36(sp)
 1001db0:	dec00a15 	stw	sp,40(sp)
 1001db4:	dec00c15 	stw	sp,48(sp)
 1001db8:	100916c0 	call	100916c <_Unwind_SjLj_Register>
 1001dbc:	00800104 	movi	r2,4
 1001dc0:	d8800315 	stw	r2,12(sp)
 1001dc4:	d885883a 	add	r2,sp,r2
 1001dc8:	d8801415 	stw	r2,80(sp)
 1001dcc:	d9401317 	ldw	r5,76(sp)
 1001dd0:	1009883a 	mov	r4,r2
 1001dd4:	d9800084 	addi	r6,sp,2
 1001dd8:	10055d00 	call	10055d0 <_ZNSsC1EPKcRKSaIcE>
 1001ddc:	01000204 	movi	r4,8
 1001de0:	1008e900 	call	1008e90 <__cxa_allocate_exception>
 1001de4:	d8801215 	stw	r2,72(sp)
 1001de8:	008000c4 	movi	r2,3
 1001dec:	d8800315 	stw	r2,12(sp)
 1001df0:	d9401417 	ldw	r5,80(sp)
 1001df4:	d9001217 	ldw	r4,72(sp)
 1001df8:	10033840 	call	1003384 <_ZNSt16invalid_argumentC1ERKSs>
 1001dfc:	d8800117 	ldw	r2,4(sp)
 1001e00:	00c040b4 	movhi	r3,258
 1001e04:	18dbcf04 	addi	r3,r3,28476
 1001e08:	10bffd04 	addi	r2,r2,-12
 1001e0c:	d8800f15 	stw	r2,60(sp)
 1001e10:	10c0081e 	bne	r2,r3,1001e34 <_ZSt24__throw_invalid_argumentPKc+0xc0>
 1001e14:	d9001217 	ldw	r4,72(sp)
 1001e18:	00bfffc4 	movi	r2,-1
 1001e1c:	014040b4 	movhi	r5,258
 1001e20:	297bd204 	addi	r5,r5,-4280
 1001e24:	01804034 	movhi	r6,256
 1001e28:	318a1704 	addi	r6,r6,10332
 1001e2c:	d8800315 	stw	r2,12(sp)
 1001e30:	1008b080 	call	1008b08 <__cxa_throw>
 1001e34:	00800044 	movi	r2,1
 1001e38:	d8800315 	stw	r2,12(sp)
 1001e3c:	d8800f17 	ldw	r2,60(sp)
 1001e40:	017fffc4 	movi	r5,-1
 1001e44:	11000204 	addi	r4,r2,8
 1001e48:	10078e40 	call	10078e4 <_ZN9__gnu_cxx18__exchange_and_addEPVii>
 1001e4c:	00bff116 	blt	zero,r2,1001e14 <_ZSt24__throw_invalid_argumentPKc+0xa0>
 1001e50:	d9000f17 	ldw	r4,60(sp)
 1001e54:	d80b883a 	mov	r5,sp
 1001e58:	10043740 	call	1004374 <_ZNSs4_Rep10_M_destroyERKSaIcE>
 1001e5c:	003fed06 	br	1001e14 <_ZSt24__throw_invalid_argumentPKc+0xa0>
 1001e60:	d8800417 	ldw	r2,16(sp)
 1001e64:	d8c00317 	ldw	r3,12(sp)
 1001e68:	d9000517 	ldw	r4,20(sp)
 1001e6c:	d8801515 	stw	r2,84(sp)
 1001e70:	00800044 	movi	r2,1
 1001e74:	18800426 	beq	r3,r2,1001e88 <_ZSt24__throw_invalid_argumentPKc+0x114>
 1001e78:	00800084 	movi	r2,2
 1001e7c:	18800826 	beq	r3,r2,1001ea0 <_ZSt24__throw_invalid_argumentPKc+0x12c>
 1001e80:	008000c4 	movi	r2,3
 1001e84:	18800226 	beq	r3,r2,1001e90 <_ZSt24__throw_invalid_argumentPKc+0x11c>
 1001e88:	00bfffc4 	movi	r2,-1
 1001e8c:	20801126 	beq	r4,r2,1001ed4 <_ZSt24__throw_invalid_argumentPKc+0x160>
 1001e90:	d9001517 	ldw	r4,84(sp)
 1001e94:	00bfffc4 	movi	r2,-1
 1001e98:	d8800315 	stw	r2,12(sp)
 1001e9c:	10094380 	call	1009438 <_Unwind_SjLj_Resume>
 1001ea0:	d9001217 	ldw	r4,72(sp)
 1001ea4:	1008e500 	call	1008e50 <__cxa_free_exception>
 1001ea8:	d8801517 	ldw	r2,84(sp)
 1001eac:	00c040b4 	movhi	r3,258
 1001eb0:	18dbcf04 	addi	r3,r3,28476
 1001eb4:	d8801115 	stw	r2,68(sp)
 1001eb8:	d8800117 	ldw	r2,4(sp)
 1001ebc:	10bffd04 	addi	r2,r2,-12
 1001ec0:	d8801015 	stw	r2,64(sp)
 1001ec4:	10c0041e 	bne	r2,r3,1001ed8 <_ZSt24__throw_invalid_argumentPKc+0x164>
 1001ec8:	d8801117 	ldw	r2,68(sp)
 1001ecc:	d8801515 	stw	r2,84(sp)
 1001ed0:	003fef06 	br	1001e90 <_ZSt24__throw_invalid_argumentPKc+0x11c>
 1001ed4:	10088640 	call	1008864 <_ZSt9terminatev>
 1001ed8:	00800084 	movi	r2,2
 1001edc:	d8800315 	stw	r2,12(sp)
 1001ee0:	d8801017 	ldw	r2,64(sp)
 1001ee4:	017fffc4 	movi	r5,-1
 1001ee8:	11000204 	addi	r4,r2,8
 1001eec:	10078e40 	call	10078e4 <_ZN9__gnu_cxx18__exchange_and_addEPVii>
 1001ef0:	00bff516 	blt	zero,r2,1001ec8 <_ZSt24__throw_invalid_argumentPKc+0x154>
 1001ef4:	d9001017 	ldw	r4,64(sp)
 1001ef8:	d9400044 	addi	r5,sp,1
 1001efc:	10043740 	call	1004374 <_ZNSs4_Rep10_M_destroyERKSaIcE>
 1001f00:	003ff106 	br	1001ec8 <_ZSt24__throw_invalid_argumentPKc+0x154>

01001f04 <_ZSt20__throw_domain_errorPKc>:
 1001f04:	deffe704 	addi	sp,sp,-100
 1001f08:	00804074 	movhi	r2,257
 1001f0c:	10a0ae04 	addi	r2,r2,-32072
 1001f10:	d8800815 	stw	r2,32(sp)
 1001f14:	00c040b4 	movhi	r3,258
 1001f18:	18fad504 	addi	r3,r3,-5292
 1001f1c:	00804034 	movhi	r2,256
 1001f20:	1087fc04 	addi	r2,r2,8176
 1001f24:	d9001315 	stw	r4,76(sp)
 1001f28:	d9000204 	addi	r4,sp,8
 1001f2c:	d8800b15 	stw	r2,44(sp)
 1001f30:	dfc01815 	stw	ra,96(sp)
 1001f34:	df001715 	stw	fp,92(sp)
 1001f38:	ddc01615 	stw	r23,88(sp)
 1001f3c:	d8c00915 	stw	r3,36(sp)
 1001f40:	dec00a15 	stw	sp,40(sp)
 1001f44:	dec00c15 	stw	sp,48(sp)
 1001f48:	100916c0 	call	100916c <_Unwind_SjLj_Register>
 1001f4c:	00800104 	movi	r2,4
 1001f50:	d8800315 	stw	r2,12(sp)
 1001f54:	d885883a 	add	r2,sp,r2
 1001f58:	d8801415 	stw	r2,80(sp)
 1001f5c:	d9401317 	ldw	r5,76(sp)
 1001f60:	1009883a 	mov	r4,r2
 1001f64:	d9800084 	addi	r6,sp,2
 1001f68:	10055d00 	call	10055d0 <_ZNSsC1EPKcRKSaIcE>
 1001f6c:	01000204 	movi	r4,8
 1001f70:	1008e900 	call	1008e90 <__cxa_allocate_exception>
 1001f74:	d8801215 	stw	r2,72(sp)
 1001f78:	008000c4 	movi	r2,3
 1001f7c:	d8800315 	stw	r2,12(sp)
 1001f80:	d9401417 	ldw	r5,80(sp)
 1001f84:	d9001217 	ldw	r4,72(sp)
 1001f88:	10033e40 	call	10033e4 <_ZNSt12domain_errorC1ERKSs>
 1001f8c:	d8800117 	ldw	r2,4(sp)
 1001f90:	00c040b4 	movhi	r3,258
 1001f94:	18dbcf04 	addi	r3,r3,28476
 1001f98:	10bffd04 	addi	r2,r2,-12
 1001f9c:	d8800f15 	stw	r2,60(sp)
 1001fa0:	10c0081e 	bne	r2,r3,1001fc4 <_ZSt20__throw_domain_errorPKc+0xc0>
 1001fa4:	d9001217 	ldw	r4,72(sp)
 1001fa8:	00bfffc4 	movi	r2,-1
 1001fac:	014040b4 	movhi	r5,258
 1001fb0:	297be004 	addi	r5,r5,-4224
 1001fb4:	01804034 	movhi	r6,256
 1001fb8:	318a2804 	addi	r6,r6,10400
 1001fbc:	d8800315 	stw	r2,12(sp)
 1001fc0:	1008b080 	call	1008b08 <__cxa_throw>
 1001fc4:	00800044 	movi	r2,1
 1001fc8:	d8800315 	stw	r2,12(sp)
 1001fcc:	d8800f17 	ldw	r2,60(sp)
 1001fd0:	017fffc4 	movi	r5,-1
 1001fd4:	11000204 	addi	r4,r2,8
 1001fd8:	10078e40 	call	10078e4 <_ZN9__gnu_cxx18__exchange_and_addEPVii>
 1001fdc:	00bff116 	blt	zero,r2,1001fa4 <_ZSt20__throw_domain_errorPKc+0xa0>
 1001fe0:	d9000f17 	ldw	r4,60(sp)
 1001fe4:	d80b883a 	mov	r5,sp
 1001fe8:	10043740 	call	1004374 <_ZNSs4_Rep10_M_destroyERKSaIcE>
 1001fec:	003fed06 	br	1001fa4 <_ZSt20__throw_domain_errorPKc+0xa0>
 1001ff0:	d8800417 	ldw	r2,16(sp)
 1001ff4:	d8c00317 	ldw	r3,12(sp)
 1001ff8:	d9000517 	ldw	r4,20(sp)
 1001ffc:	d8801515 	stw	r2,84(sp)
 1002000:	00800044 	movi	r2,1
 1002004:	18800426 	beq	r3,r2,1002018 <_ZSt20__throw_domain_errorPKc+0x114>
 1002008:	00800084 	movi	r2,2
 100200c:	18800826 	beq	r3,r2,1002030 <_ZSt20__throw_domain_errorPKc+0x12c>
 1002010:	008000c4 	movi	r2,3
 1002014:	18800226 	beq	r3,r2,1002020 <_ZSt20__throw_domain_errorPKc+0x11c>
 1002018:	00bfffc4 	movi	r2,-1
 100201c:	20801126 	beq	r4,r2,1002064 <_ZSt20__throw_domain_errorPKc+0x160>
 1002020:	d9001517 	ldw	r4,84(sp)
 1002024:	00bfffc4 	movi	r2,-1
 1002028:	d8800315 	stw	r2,12(sp)
 100202c:	10094380 	call	1009438 <_Unwind_SjLj_Resume>
 1002030:	d9001217 	ldw	r4,72(sp)
 1002034:	1008e500 	call	1008e50 <__cxa_free_exception>
 1002038:	d8801517 	ldw	r2,84(sp)
 100203c:	00c040b4 	movhi	r3,258
 1002040:	18dbcf04 	addi	r3,r3,28476
 1002044:	d8801115 	stw	r2,68(sp)
 1002048:	d8800117 	ldw	r2,4(sp)
 100204c:	10bffd04 	addi	r2,r2,-12
 1002050:	d8801015 	stw	r2,64(sp)
 1002054:	10c0041e 	bne	r2,r3,1002068 <_ZSt20__throw_domain_errorPKc+0x164>
 1002058:	d8801117 	ldw	r2,68(sp)
 100205c:	d8801515 	stw	r2,84(sp)
 1002060:	003fef06 	br	1002020 <_ZSt20__throw_domain_errorPKc+0x11c>
 1002064:	10088640 	call	1008864 <_ZSt9terminatev>
 1002068:	00800084 	movi	r2,2
 100206c:	d8800315 	stw	r2,12(sp)
 1002070:	d8801017 	ldw	r2,64(sp)
 1002074:	017fffc4 	movi	r5,-1
 1002078:	11000204 	addi	r4,r2,8
 100207c:	10078e40 	call	10078e4 <_ZN9__gnu_cxx18__exchange_and_addEPVii>
 1002080:	00bff516 	blt	zero,r2,1002058 <_ZSt20__throw_domain_errorPKc+0x154>
 1002084:	d9001017 	ldw	r4,64(sp)
 1002088:	d9400044 	addi	r5,sp,1
 100208c:	10043740 	call	1004374 <_ZNSs4_Rep10_M_destroyERKSaIcE>
 1002090:	003ff106 	br	1002058 <_ZSt20__throw_domain_errorPKc+0x154>

01002094 <_ZSt19__throw_range_errorPKc>:
 1002094:	deffe704 	addi	sp,sp,-100
 1002098:	00804074 	movhi	r2,257
 100209c:	10a0ae04 	addi	r2,r2,-32072
 10020a0:	d8800815 	stw	r2,32(sp)
 10020a4:	00c040b4 	movhi	r3,258
 10020a8:	18fadb04 	addi	r3,r3,-5268
 10020ac:	00804034 	movhi	r2,256
 10020b0:	10886004 	addi	r2,r2,8576
 10020b4:	d9001315 	stw	r4,76(sp)
 10020b8:	d9000204 	addi	r4,sp,8
 10020bc:	d8800b15 	stw	r2,44(sp)
 10020c0:	dfc01815 	stw	ra,96(sp)
 10020c4:	df001715 	stw	fp,92(sp)
 10020c8:	ddc01615 	stw	r23,88(sp)
 10020cc:	d8c00915 	stw	r3,36(sp)
 10020d0:	dec00a15 	stw	sp,40(sp)
 10020d4:	dec00c15 	stw	sp,48(sp)
 10020d8:	100916c0 	call	100916c <_Unwind_SjLj_Register>
 10020dc:	00800104 	movi	r2,4
 10020e0:	d8800315 	stw	r2,12(sp)
 10020e4:	d885883a 	add	r2,sp,r2
 10020e8:	d8801415 	stw	r2,80(sp)
 10020ec:	d9401317 	ldw	r5,76(sp)
 10020f0:	1009883a 	mov	r4,r2
 10020f4:	d9800084 	addi	r6,sp,2
 10020f8:	10055d00 	call	10055d0 <_ZNSsC1EPKcRKSaIcE>
 10020fc:	01000204 	movi	r4,8
 1002100:	1008e900 	call	1008e90 <__cxa_allocate_exception>
 1002104:	d8801215 	stw	r2,72(sp)
 1002108:	008000c4 	movi	r2,3
 100210c:	d8800315 	stw	r2,12(sp)
 1002110:	d9401417 	ldw	r5,80(sp)
 1002114:	d9001217 	ldw	r4,72(sp)
 1002118:	10031040 	call	1003104 <_ZNSt11range_errorC1ERKSs>
 100211c:	d8800117 	ldw	r2,4(sp)
 1002120:	00c040b4 	movhi	r3,258
 1002124:	18dbcf04 	addi	r3,r3,28476
 1002128:	10bffd04 	addi	r2,r2,-12
 100212c:	d8800f15 	stw	r2,60(sp)
 1002130:	10c0081e 	bne	r2,r3,1002154 <_ZSt19__throw_range_errorPKc+0xc0>
 1002134:	d9001217 	ldw	r4,72(sp)
 1002138:	00bfffc4 	movi	r2,-1
 100213c:	014040b4 	movhi	r5,258
 1002140:	297bac04 	addi	r5,r5,-4432
 1002144:	01804034 	movhi	r6,256
 1002148:	3189e404 	addi	r6,r6,10128
 100214c:	d8800315 	stw	r2,12(sp)
 1002150:	1008b080 	call	1008b08 <__cxa_throw>
 1002154:	00800044 	movi	r2,1
 1002158:	d8800315 	stw	r2,12(sp)
 100215c:	d8800f17 	ldw	r2,60(sp)
 1002160:	017fffc4 	movi	r5,-1
 1002164:	11000204 	addi	r4,r2,8
 1002168:	10078e40 	call	10078e4 <_ZN9__gnu_cxx18__exchange_and_addEPVii>
 100216c:	00bff116 	blt	zero,r2,1002134 <_ZSt19__throw_range_errorPKc+0xa0>
 1002170:	d9000f17 	ldw	r4,60(sp)
 1002174:	d80b883a 	mov	r5,sp
 1002178:	10043740 	call	1004374 <_ZNSs4_Rep10_M_destroyERKSaIcE>
 100217c:	003fed06 	br	1002134 <_ZSt19__throw_range_errorPKc+0xa0>
 1002180:	d8800417 	ldw	r2,16(sp)
 1002184:	d8c00317 	ldw	r3,12(sp)
 1002188:	d9000517 	ldw	r4,20(sp)
 100218c:	d8801515 	stw	r2,84(sp)
 1002190:	00800044 	movi	r2,1
 1002194:	18800426 	beq	r3,r2,10021a8 <_ZSt19__throw_range_errorPKc+0x114>
 1002198:	00800084 	movi	r2,2
 100219c:	18800826 	beq	r3,r2,10021c0 <_ZSt19__throw_range_errorPKc+0x12c>
 10021a0:	008000c4 	movi	r2,3
 10021a4:	18800226 	beq	r3,r2,10021b0 <_ZSt19__throw_range_errorPKc+0x11c>
 10021a8:	00bfffc4 	movi	r2,-1
 10021ac:	20801126 	beq	r4,r2,10021f4 <_ZSt19__throw_range_errorPKc+0x160>
 10021b0:	d9001517 	ldw	r4,84(sp)
 10021b4:	00bfffc4 	movi	r2,-1
 10021b8:	d8800315 	stw	r2,12(sp)
 10021bc:	10094380 	call	1009438 <_Unwind_SjLj_Resume>
 10021c0:	d9001217 	ldw	r4,72(sp)
 10021c4:	1008e500 	call	1008e50 <__cxa_free_exception>
 10021c8:	d8801517 	ldw	r2,84(sp)
 10021cc:	00c040b4 	movhi	r3,258
 10021d0:	18dbcf04 	addi	r3,r3,28476
 10021d4:	d8801115 	stw	r2,68(sp)
 10021d8:	d8800117 	ldw	r2,4(sp)
 10021dc:	10bffd04 	addi	r2,r2,-12
 10021e0:	d8801015 	stw	r2,64(sp)
 10021e4:	10c0041e 	bne	r2,r3,10021f8 <_ZSt19__throw_range_errorPKc+0x164>
 10021e8:	d8801117 	ldw	r2,68(sp)
 10021ec:	d8801515 	stw	r2,84(sp)
 10021f0:	003fef06 	br	10021b0 <_ZSt19__throw_range_errorPKc+0x11c>
 10021f4:	10088640 	call	1008864 <_ZSt9terminatev>
 10021f8:	00800084 	movi	r2,2
 10021fc:	d8800315 	stw	r2,12(sp)
 1002200:	d8801017 	ldw	r2,64(sp)
 1002204:	017fffc4 	movi	r5,-1
 1002208:	11000204 	addi	r4,r2,8
 100220c:	10078e40 	call	10078e4 <_ZN9__gnu_cxx18__exchange_and_addEPVii>
 1002210:	00bff516 	blt	zero,r2,10021e8 <_ZSt19__throw_range_errorPKc+0x154>
 1002214:	d9001017 	ldw	r4,64(sp)
 1002218:	d9400044 	addi	r5,sp,1
 100221c:	10043740 	call	1004374 <_ZNSs4_Rep10_M_destroyERKSaIcE>
 1002220:	003ff106 	br	10021e8 <_ZSt19__throw_range_errorPKc+0x154>

01002224 <_ZSt21__throw_runtime_errorPKc>:
 1002224:	deffe704 	addi	sp,sp,-100
 1002228:	00804074 	movhi	r2,257
 100222c:	10a0ae04 	addi	r2,r2,-32072
 1002230:	d8800815 	stw	r2,32(sp)
 1002234:	00c040b4 	movhi	r3,258
 1002238:	18fae104 	addi	r3,r3,-5244
 100223c:	00804034 	movhi	r2,256
 1002240:	1088c404 	addi	r2,r2,8976
 1002244:	d9001315 	stw	r4,76(sp)
 1002248:	d9000204 	addi	r4,sp,8
 100224c:	d8800b15 	stw	r2,44(sp)
 1002250:	dfc01815 	stw	ra,96(sp)
 1002254:	df001715 	stw	fp,92(sp)
 1002258:	ddc01615 	stw	r23,88(sp)
 100225c:	d8c00915 	stw	r3,36(sp)
 1002260:	dec00a15 	stw	sp,40(sp)
 1002264:	dec00c15 	stw	sp,48(sp)
 1002268:	100916c0 	call	100916c <_Unwind_SjLj_Register>
 100226c:	00800104 	movi	r2,4
 1002270:	d8800315 	stw	r2,12(sp)
 1002274:	d885883a 	add	r2,sp,r2
 1002278:	d8801415 	stw	r2,80(sp)
 100227c:	d9401317 	ldw	r5,76(sp)
 1002280:	1009883a 	mov	r4,r2
 1002284:	d9800084 	addi	r6,sp,2
 1002288:	10055d00 	call	10055d0 <_ZNSsC1EPKcRKSaIcE>
 100228c:	01000204 	movi	r4,8
 1002290:	1008e900 	call	1008e90 <__cxa_allocate_exception>
 1002294:	d8801215 	stw	r2,72(sp)
 1002298:	008000c4 	movi	r2,3
 100229c:	d8800315 	stw	r2,12(sp)
 10022a0:	d9401417 	ldw	r5,80(sp)
 10022a4:	d9001217 	ldw	r4,72(sp)
 10022a8:	100344c0 	call	100344c <_ZNSt13runtime_errorC1ERKSs>
 10022ac:	d8800117 	ldw	r2,4(sp)
 10022b0:	00c040b4 	movhi	r3,258
 10022b4:	18dbcf04 	addi	r3,r3,28476
 10022b8:	10bffd04 	addi	r2,r2,-12
 10022bc:	d8800f15 	stw	r2,60(sp)
 10022c0:	10c0081e 	bne	r2,r3,10022e4 <_ZSt21__throw_runtime_errorPKc+0xc0>
 10022c4:	d9001217 	ldw	r4,72(sp)
 10022c8:	00bfffc4 	movi	r2,-1
 10022cc:	014040b4 	movhi	r5,258
 10022d0:	297c0a04 	addi	r5,r5,-4056
 10022d4:	01804034 	movhi	r6,256
 10022d8:	318d3f04 	addi	r6,r6,13564
 10022dc:	d8800315 	stw	r2,12(sp)
 10022e0:	1008b080 	call	1008b08 <__cxa_throw>
 10022e4:	00800044 	movi	r2,1
 10022e8:	d8800315 	stw	r2,12(sp)
 10022ec:	d8800f17 	ldw	r2,60(sp)
 10022f0:	017fffc4 	movi	r5,-1
 10022f4:	11000204 	addi	r4,r2,8
 10022f8:	10078e40 	call	10078e4 <_ZN9__gnu_cxx18__exchange_and_addEPVii>
 10022fc:	00bff116 	blt	zero,r2,10022c4 <_ZSt21__throw_runtime_errorPKc+0xa0>
 1002300:	d9000f17 	ldw	r4,60(sp)
 1002304:	d80b883a 	mov	r5,sp
 1002308:	10043740 	call	1004374 <_ZNSs4_Rep10_M_destroyERKSaIcE>
 100230c:	003fed06 	br	10022c4 <_ZSt21__throw_runtime_errorPKc+0xa0>
 1002310:	d8800417 	ldw	r2,16(sp)
 1002314:	d8c00317 	ldw	r3,12(sp)
 1002318:	d9000517 	ldw	r4,20(sp)
 100231c:	d8801515 	stw	r2,84(sp)
 1002320:	00800044 	movi	r2,1
 1002324:	18800426 	beq	r3,r2,1002338 <_ZSt21__throw_runtime_errorPKc+0x114>
 1002328:	00800084 	movi	r2,2
 100232c:	18800826 	beq	r3,r2,1002350 <_ZSt21__throw_runtime_errorPKc+0x12c>
 1002330:	008000c4 	movi	r2,3
 1002334:	18800226 	beq	r3,r2,1002340 <_ZSt21__throw_runtime_errorPKc+0x11c>
 1002338:	00bfffc4 	movi	r2,-1
 100233c:	20801126 	beq	r4,r2,1002384 <_ZSt21__throw_runtime_errorPKc+0x160>
 1002340:	d9001517 	ldw	r4,84(sp)
 1002344:	00bfffc4 	movi	r2,-1
 1002348:	d8800315 	stw	r2,12(sp)
 100234c:	10094380 	call	1009438 <_Unwind_SjLj_Resume>
 1002350:	d9001217 	ldw	r4,72(sp)
 1002354:	1008e500 	call	1008e50 <__cxa_free_exception>
 1002358:	d8801517 	ldw	r2,84(sp)
 100235c:	00c040b4 	movhi	r3,258
 1002360:	18dbcf04 	addi	r3,r3,28476
 1002364:	d8801115 	stw	r2,68(sp)
 1002368:	d8800117 	ldw	r2,4(sp)
 100236c:	10bffd04 	addi	r2,r2,-12
 1002370:	d8801015 	stw	r2,64(sp)
 1002374:	10c0041e 	bne	r2,r3,1002388 <_ZSt21__throw_runtime_errorPKc+0x164>
 1002378:	d8801117 	ldw	r2,68(sp)
 100237c:	d8801515 	stw	r2,84(sp)
 1002380:	003fef06 	br	1002340 <_ZSt21__throw_runtime_errorPKc+0x11c>
 1002384:	10088640 	call	1008864 <_ZSt9terminatev>
 1002388:	00800084 	movi	r2,2
 100238c:	d8800315 	stw	r2,12(sp)
 1002390:	d8801017 	ldw	r2,64(sp)
 1002394:	017fffc4 	movi	r5,-1
 1002398:	11000204 	addi	r4,r2,8
 100239c:	10078e40 	call	10078e4 <_ZN9__gnu_cxx18__exchange_and_addEPVii>
 10023a0:	00bff516 	blt	zero,r2,1002378 <_ZSt21__throw_runtime_errorPKc+0x154>
 10023a4:	d9001017 	ldw	r4,64(sp)
 10023a8:	d9400044 	addi	r5,sp,1
 10023ac:	10043740 	call	1004374 <_ZNSs4_Rep10_M_destroyERKSaIcE>
 10023b0:	003ff106 	br	1002378 <_ZSt21__throw_runtime_errorPKc+0x154>

010023b4 <_ZSt20__throw_out_of_rangePKc>:
 10023b4:	deffe704 	addi	sp,sp,-100
 10023b8:	00804074 	movhi	r2,257
 10023bc:	10a0ae04 	addi	r2,r2,-32072
 10023c0:	d8800815 	stw	r2,32(sp)
 10023c4:	00c040b4 	movhi	r3,258
 10023c8:	18fae704 	addi	r3,r3,-5220
 10023cc:	00804034 	movhi	r2,256
 10023d0:	10892804 	addi	r2,r2,9376
 10023d4:	d9001315 	stw	r4,76(sp)
 10023d8:	d9000204 	addi	r4,sp,8
 10023dc:	d8800b15 	stw	r2,44(sp)
 10023e0:	dfc01815 	stw	ra,96(sp)
 10023e4:	df001715 	stw	fp,92(sp)
 10023e8:	ddc01615 	stw	r23,88(sp)
 10023ec:	d8c00915 	stw	r3,36(sp)
 10023f0:	dec00a15 	stw	sp,40(sp)
 10023f4:	dec00c15 	stw	sp,48(sp)
 10023f8:	100916c0 	call	100916c <_Unwind_SjLj_Register>
 10023fc:	00800104 	movi	r2,4
 1002400:	d8800315 	stw	r2,12(sp)
 1002404:	d885883a 	add	r2,sp,r2
 1002408:	d8801415 	stw	r2,80(sp)
 100240c:	d9401317 	ldw	r5,76(sp)
 1002410:	1009883a 	mov	r4,r2
 1002414:	d9800084 	addi	r6,sp,2
 1002418:	10055d00 	call	10055d0 <_ZNSsC1EPKcRKSaIcE>
 100241c:	01000204 	movi	r4,8
 1002420:	1008e900 	call	1008e90 <__cxa_allocate_exception>
 1002424:	d8801215 	stw	r2,72(sp)
 1002428:	008000c4 	movi	r2,3
 100242c:	d8800315 	stw	r2,12(sp)
 1002430:	d9401417 	ldw	r5,80(sp)
 1002434:	d9001217 	ldw	r4,72(sp)
 1002438:	10032c40 	call	10032c4 <_ZNSt12out_of_rangeC1ERKSs>
 100243c:	d8800117 	ldw	r2,4(sp)
 1002440:	00c040b4 	movhi	r3,258
 1002444:	18dbcf04 	addi	r3,r3,28476
 1002448:	10bffd04 	addi	r2,r2,-12
 100244c:	d8800f15 	stw	r2,60(sp)
 1002450:	10c0081e 	bne	r2,r3,1002474 <_ZSt20__throw_out_of_rangePKc+0xc0>
 1002454:	d9001217 	ldw	r4,72(sp)
 1002458:	00bfffc4 	movi	r2,-1
 100245c:	014040b4 	movhi	r5,258
 1002460:	297bb804 	addi	r5,r5,-4384
 1002464:	01804034 	movhi	r6,256
 1002468:	3189f504 	addi	r6,r6,10196
 100246c:	d8800315 	stw	r2,12(sp)
 1002470:	1008b080 	call	1008b08 <__cxa_throw>
 1002474:	00800044 	movi	r2,1
 1002478:	d8800315 	stw	r2,12(sp)
 100247c:	d8800f17 	ldw	r2,60(sp)
 1002480:	017fffc4 	movi	r5,-1
 1002484:	11000204 	addi	r4,r2,8
 1002488:	10078e40 	call	10078e4 <_ZN9__gnu_cxx18__exchange_and_addEPVii>
 100248c:	00bff116 	blt	zero,r2,1002454 <_ZSt20__throw_out_of_rangePKc+0xa0>
 1002490:	d9000f17 	ldw	r4,60(sp)
 1002494:	d80b883a 	mov	r5,sp
 1002498:	10043740 	call	1004374 <_ZNSs4_Rep10_M_destroyERKSaIcE>
 100249c:	003fed06 	br	1002454 <_ZSt20__throw_out_of_rangePKc+0xa0>
 10024a0:	d8800417 	ldw	r2,16(sp)
 10024a4:	d8c00317 	ldw	r3,12(sp)
 10024a8:	d9000517 	ldw	r4,20(sp)
 10024ac:	d8801515 	stw	r2,84(sp)
 10024b0:	00800044 	movi	r2,1
 10024b4:	18800426 	beq	r3,r2,10024c8 <_ZSt20__throw_out_of_rangePKc+0x114>
 10024b8:	00800084 	movi	r2,2
 10024bc:	18800826 	beq	r3,r2,10024e0 <_ZSt20__throw_out_of_rangePKc+0x12c>
 10024c0:	008000c4 	movi	r2,3
 10024c4:	18800226 	beq	r3,r2,10024d0 <_ZSt20__throw_out_of_rangePKc+0x11c>
 10024c8:	00bfffc4 	movi	r2,-1
 10024cc:	20801126 	beq	r4,r2,1002514 <_ZSt20__throw_out_of_rangePKc+0x160>
 10024d0:	d9001517 	ldw	r4,84(sp)
 10024d4:	00bfffc4 	movi	r2,-1
 10024d8:	d8800315 	stw	r2,12(sp)
 10024dc:	10094380 	call	1009438 <_Unwind_SjLj_Resume>
 10024e0:	d9001217 	ldw	r4,72(sp)
 10024e4:	1008e500 	call	1008e50 <__cxa_free_exception>
 10024e8:	d8801517 	ldw	r2,84(sp)
 10024ec:	00c040b4 	movhi	r3,258
 10024f0:	18dbcf04 	addi	r3,r3,28476
 10024f4:	d8801115 	stw	r2,68(sp)
 10024f8:	d8800117 	ldw	r2,4(sp)
 10024fc:	10bffd04 	addi	r2,r2,-12
 1002500:	d8801015 	stw	r2,64(sp)
 1002504:	10c0041e 	bne	r2,r3,1002518 <_ZSt20__throw_out_of_rangePKc+0x164>
 1002508:	d8801117 	ldw	r2,68(sp)
 100250c:	d8801515 	stw	r2,84(sp)
 1002510:	003fef06 	br	10024d0 <_ZSt20__throw_out_of_rangePKc+0x11c>
 1002514:	10088640 	call	1008864 <_ZSt9terminatev>
 1002518:	00800084 	movi	r2,2
 100251c:	d8800315 	stw	r2,12(sp)
 1002520:	d8801017 	ldw	r2,64(sp)
 1002524:	017fffc4 	movi	r5,-1
 1002528:	11000204 	addi	r4,r2,8
 100252c:	10078e40 	call	10078e4 <_ZN9__gnu_cxx18__exchange_and_addEPVii>
 1002530:	00bff516 	blt	zero,r2,1002508 <_ZSt20__throw_out_of_rangePKc+0x154>
 1002534:	d9001017 	ldw	r4,64(sp)
 1002538:	d9400044 	addi	r5,sp,1
 100253c:	10043740 	call	1004374 <_ZNSs4_Rep10_M_destroyERKSaIcE>
 1002540:	003ff106 	br	1002508 <_ZSt20__throw_out_of_rangePKc+0x154>

01002544 <_ZSt20__throw_length_errorPKc>:
 1002544:	deffe704 	addi	sp,sp,-100
 1002548:	00804074 	movhi	r2,257
 100254c:	10a0ae04 	addi	r2,r2,-32072
 1002550:	d8800815 	stw	r2,32(sp)
 1002554:	00c040b4 	movhi	r3,258
 1002558:	18faed04 	addi	r3,r3,-5196
 100255c:	00804034 	movhi	r2,256
 1002560:	10898c04 	addi	r2,r2,9776
 1002564:	d9001315 	stw	r4,76(sp)
 1002568:	d9000204 	addi	r4,sp,8
 100256c:	d8800b15 	stw	r2,44(sp)
 1002570:	dfc01815 	stw	ra,96(sp)
 1002574:	df001715 	stw	fp,92(sp)
 1002578:	ddc01615 	stw	r23,88(sp)
 100257c:	d8c00915 	stw	r3,36(sp)
 1002580:	dec00a15 	stw	sp,40(sp)
 1002584:	dec00c15 	stw	sp,48(sp)
 1002588:	100916c0 	call	100916c <_Unwind_SjLj_Register>
 100258c:	00800104 	movi	r2,4
 1002590:	d8800315 	stw	r2,12(sp)
 1002594:	d885883a 	add	r2,sp,r2
 1002598:	d8801415 	stw	r2,80(sp)
 100259c:	d9401317 	ldw	r5,76(sp)
 10025a0:	1009883a 	mov	r4,r2
 10025a4:	d9800084 	addi	r6,sp,2
 10025a8:	10055d00 	call	10055d0 <_ZNSsC1EPKcRKSaIcE>
 10025ac:	01000204 	movi	r4,8
 10025b0:	1008e900 	call	1008e90 <__cxa_allocate_exception>
 10025b4:	d8801215 	stw	r2,72(sp)
 10025b8:	008000c4 	movi	r2,3
 10025bc:	d8800315 	stw	r2,12(sp)
 10025c0:	d9401417 	ldw	r5,80(sp)
 10025c4:	d9001217 	ldw	r4,72(sp)
 10025c8:	10033240 	call	1003324 <_ZNSt12length_errorC1ERKSs>
 10025cc:	d8800117 	ldw	r2,4(sp)
 10025d0:	00c040b4 	movhi	r3,258
 10025d4:	18dbcf04 	addi	r3,r3,28476
 10025d8:	10bffd04 	addi	r2,r2,-12
 10025dc:	d8800f15 	stw	r2,60(sp)
 10025e0:	10c0081e 	bne	r2,r3,1002604 <_ZSt20__throw_length_errorPKc+0xc0>
 10025e4:	d9001217 	ldw	r4,72(sp)
 10025e8:	00bfffc4 	movi	r2,-1
 10025ec:	014040b4 	movhi	r5,258
 10025f0:	297bc504 	addi	r5,r5,-4332
 10025f4:	01804034 	movhi	r6,256
 10025f8:	318a0604 	addi	r6,r6,10264
 10025fc:	d8800315 	stw	r2,12(sp)
 1002600:	1008b080 	call	1008b08 <__cxa_throw>
 1002604:	00800044 	movi	r2,1
 1002608:	d8800315 	stw	r2,12(sp)
 100260c:	d8800f17 	ldw	r2,60(sp)
 1002610:	017fffc4 	movi	r5,-1
 1002614:	11000204 	addi	r4,r2,8
 1002618:	10078e40 	call	10078e4 <_ZN9__gnu_cxx18__exchange_and_addEPVii>
 100261c:	00bff116 	blt	zero,r2,10025e4 <_ZSt20__throw_length_errorPKc+0xa0>
 1002620:	d9000f17 	ldw	r4,60(sp)
 1002624:	d80b883a 	mov	r5,sp
 1002628:	10043740 	call	1004374 <_ZNSs4_Rep10_M_destroyERKSaIcE>
 100262c:	003fed06 	br	10025e4 <_ZSt20__throw_length_errorPKc+0xa0>
 1002630:	d8800417 	ldw	r2,16(sp)
 1002634:	d8c00317 	ldw	r3,12(sp)
 1002638:	d9000517 	ldw	r4,20(sp)
 100263c:	d8801515 	stw	r2,84(sp)
 1002640:	00800044 	movi	r2,1
 1002644:	18800426 	beq	r3,r2,1002658 <_ZSt20__throw_length_errorPKc+0x114>
 1002648:	00800084 	movi	r2,2
 100264c:	18800826 	beq	r3,r2,1002670 <_ZSt20__throw_length_errorPKc+0x12c>
 1002650:	008000c4 	movi	r2,3
 1002654:	18800226 	beq	r3,r2,1002660 <_ZSt20__throw_length_errorPKc+0x11c>
 1002658:	00bfffc4 	movi	r2,-1
 100265c:	20801126 	beq	r4,r2,10026a4 <_ZSt20__throw_length_errorPKc+0x160>
 1002660:	d9001517 	ldw	r4,84(sp)
 1002664:	00bfffc4 	movi	r2,-1
 1002668:	d8800315 	stw	r2,12(sp)
 100266c:	10094380 	call	1009438 <_Unwind_SjLj_Resume>
 1002670:	d9001217 	ldw	r4,72(sp)
 1002674:	1008e500 	call	1008e50 <__cxa_free_exception>
 1002678:	d8801517 	ldw	r2,84(sp)
 100267c:	00c040b4 	movhi	r3,258
 1002680:	18dbcf04 	addi	r3,r3,28476
 1002684:	d8801115 	stw	r2,68(sp)
 1002688:	d8800117 	ldw	r2,4(sp)
 100268c:	10bffd04 	addi	r2,r2,-12
 1002690:	d8801015 	stw	r2,64(sp)
 1002694:	10c0041e 	bne	r2,r3,10026a8 <_ZSt20__throw_length_errorPKc+0x164>
 1002698:	d8801117 	ldw	r2,68(sp)
 100269c:	d8801515 	stw	r2,84(sp)
 10026a0:	003fef06 	br	1002660 <_ZSt20__throw_length_errorPKc+0x11c>
 10026a4:	10088640 	call	1008864 <_ZSt9terminatev>
 10026a8:	00800084 	movi	r2,2
 10026ac:	d8800315 	stw	r2,12(sp)
 10026b0:	d8801017 	ldw	r2,64(sp)
 10026b4:	017fffc4 	movi	r5,-1
 10026b8:	11000204 	addi	r4,r2,8
 10026bc:	10078e40 	call	10078e4 <_ZN9__gnu_cxx18__exchange_and_addEPVii>
 10026c0:	00bff516 	blt	zero,r2,1002698 <_ZSt20__throw_length_errorPKc+0x154>
 10026c4:	d9001017 	ldw	r4,64(sp)
 10026c8:	d9400044 	addi	r5,sp,1
 10026cc:	10043740 	call	1004374 <_ZNSs4_Rep10_M_destroyERKSaIcE>
 10026d0:	003ff106 	br	1002698 <_ZSt20__throw_length_errorPKc+0x154>

010026d4 <_ZNSt15underflow_errorD0Ev>:
 10026d4:	defffe04 	addi	sp,sp,-8
 10026d8:	008040b4 	movhi	r2,258
 10026dc:	10bb9c04 	addi	r2,r2,-4496
 10026e0:	dc400015 	stw	r17,0(sp)
 10026e4:	20800015 	stw	r2,0(r4)
 10026e8:	2023883a 	mov	r17,r4
 10026ec:	dfc00115 	stw	ra,4(sp)
 10026f0:	10036000 	call	1003600 <_ZNSt13runtime_errorD2Ev>
 10026f4:	8809883a 	mov	r4,r17
 10026f8:	dfc00117 	ldw	ra,4(sp)
 10026fc:	dc400017 	ldw	r17,0(sp)
 1002700:	dec00204 	addi	sp,sp,8
 1002704:	1008a881 	jmpi	1008a88 <_ZdlPv>

01002708 <_ZNSt15underflow_errorD1Ev>:
 1002708:	008040b4 	movhi	r2,258
 100270c:	10bb9c04 	addi	r2,r2,-4496
 1002710:	20800015 	stw	r2,0(r4)
 1002714:	10036001 	jmpi	1003600 <_ZNSt13runtime_errorD2Ev>

01002718 <_ZNSt14overflow_errorD0Ev>:
 1002718:	defffe04 	addi	sp,sp,-8
 100271c:	008040b4 	movhi	r2,258
 1002720:	10bba904 	addi	r2,r2,-4444
 1002724:	dc400015 	stw	r17,0(sp)
 1002728:	20800015 	stw	r2,0(r4)
 100272c:	2023883a 	mov	r17,r4
 1002730:	dfc00115 	stw	ra,4(sp)
 1002734:	10036000 	call	1003600 <_ZNSt13runtime_errorD2Ev>
 1002738:	8809883a 	mov	r4,r17
 100273c:	dfc00117 	ldw	ra,4(sp)
 1002740:	dc400017 	ldw	r17,0(sp)
 1002744:	dec00204 	addi	sp,sp,8
 1002748:	1008a881 	jmpi	1008a88 <_ZdlPv>

0100274c <_ZNSt14overflow_errorD1Ev>:
 100274c:	008040b4 	movhi	r2,258
 1002750:	10bba904 	addi	r2,r2,-4444
 1002754:	20800015 	stw	r2,0(r4)
 1002758:	10036001 	jmpi	1003600 <_ZNSt13runtime_errorD2Ev>

0100275c <_ZNSt11range_errorD0Ev>:
 100275c:	defffe04 	addi	sp,sp,-8
 1002760:	008040b4 	movhi	r2,258
 1002764:	10bbb504 	addi	r2,r2,-4396
 1002768:	dc400015 	stw	r17,0(sp)
 100276c:	20800015 	stw	r2,0(r4)
 1002770:	2023883a 	mov	r17,r4
 1002774:	dfc00115 	stw	ra,4(sp)
 1002778:	10036000 	call	1003600 <_ZNSt13runtime_errorD2Ev>
 100277c:	8809883a 	mov	r4,r17
 1002780:	dfc00117 	ldw	ra,4(sp)
 1002784:	dc400017 	ldw	r17,0(sp)
 1002788:	dec00204 	addi	sp,sp,8
 100278c:	1008a881 	jmpi	1008a88 <_ZdlPv>

01002790 <_ZNSt11range_errorD1Ev>:
 1002790:	008040b4 	movhi	r2,258
 1002794:	10bbb504 	addi	r2,r2,-4396
 1002798:	20800015 	stw	r2,0(r4)
 100279c:	10036001 	jmpi	1003600 <_ZNSt13runtime_errorD2Ev>

010027a0 <_ZNSt12out_of_rangeD0Ev>:
 10027a0:	defffe04 	addi	sp,sp,-8
 10027a4:	008040b4 	movhi	r2,258
 10027a8:	10bbc204 	addi	r2,r2,-4344
 10027ac:	dc400015 	stw	r17,0(sp)
 10027b0:	20800015 	stw	r2,0(r4)
 10027b4:	2023883a 	mov	r17,r4
 10027b8:	dfc00115 	stw	ra,4(sp)
 10027bc:	10038100 	call	1003810 <_ZNSt11logic_errorD2Ev>
 10027c0:	8809883a 	mov	r4,r17
 10027c4:	dfc00117 	ldw	ra,4(sp)
 10027c8:	dc400017 	ldw	r17,0(sp)
 10027cc:	dec00204 	addi	sp,sp,8
 10027d0:	1008a881 	jmpi	1008a88 <_ZdlPv>

010027d4 <_ZNSt12out_of_rangeD1Ev>:
 10027d4:	008040b4 	movhi	r2,258
 10027d8:	10bbc204 	addi	r2,r2,-4344
 10027dc:	20800015 	stw	r2,0(r4)
 10027e0:	10038101 	jmpi	1003810 <_ZNSt11logic_errorD2Ev>

010027e4 <_ZNSt12length_errorD0Ev>:
 10027e4:	defffe04 	addi	sp,sp,-8
 10027e8:	008040b4 	movhi	r2,258
 10027ec:	10bbcf04 	addi	r2,r2,-4292
 10027f0:	dc400015 	stw	r17,0(sp)
 10027f4:	20800015 	stw	r2,0(r4)
 10027f8:	2023883a 	mov	r17,r4
 10027fc:	dfc00115 	stw	ra,4(sp)
 1002800:	10038100 	call	1003810 <_ZNSt11logic_errorD2Ev>
 1002804:	8809883a 	mov	r4,r17
 1002808:	dfc00117 	ldw	ra,4(sp)
 100280c:	dc400017 	ldw	r17,0(sp)
 1002810:	dec00204 	addi	sp,sp,8
 1002814:	1008a881 	jmpi	1008a88 <_ZdlPv>

01002818 <_ZNSt12length_errorD1Ev>:
 1002818:	008040b4 	movhi	r2,258
 100281c:	10bbcf04 	addi	r2,r2,-4292
 1002820:	20800015 	stw	r2,0(r4)
 1002824:	10038101 	jmpi	1003810 <_ZNSt11logic_errorD2Ev>

01002828 <_ZNSt16invalid_argumentD0Ev>:
 1002828:	defffe04 	addi	sp,sp,-8
 100282c:	008040b4 	movhi	r2,258
 1002830:	10bbdd04 	addi	r2,r2,-4236
 1002834:	dc400015 	stw	r17,0(sp)
 1002838:	20800015 	stw	r2,0(r4)
 100283c:	2023883a 	mov	r17,r4
 1002840:	dfc00115 	stw	ra,4(sp)
 1002844:	10038100 	call	1003810 <_ZNSt11logic_errorD2Ev>
 1002848:	8809883a 	mov	r4,r17
 100284c:	dfc00117 	ldw	ra,4(sp)
 1002850:	dc400017 	ldw	r17,0(sp)
 1002854:	dec00204 	addi	sp,sp,8
 1002858:	1008a881 	jmpi	1008a88 <_ZdlPv>

0100285c <_ZNSt16invalid_argumentD1Ev>:
 100285c:	008040b4 	movhi	r2,258
 1002860:	10bbdd04 	addi	r2,r2,-4236
 1002864:	20800015 	stw	r2,0(r4)
 1002868:	10038101 	jmpi	1003810 <_ZNSt11logic_errorD2Ev>

0100286c <_ZNSt12domain_errorD0Ev>:
 100286c:	defffe04 	addi	sp,sp,-8
 1002870:	008040b4 	movhi	r2,258
 1002874:	10bbea04 	addi	r2,r2,-4184
 1002878:	dc400015 	stw	r17,0(sp)
 100287c:	20800015 	stw	r2,0(r4)
 1002880:	2023883a 	mov	r17,r4
 1002884:	dfc00115 	stw	ra,4(sp)
 1002888:	10038100 	call	1003810 <_ZNSt11logic_errorD2Ev>
 100288c:	8809883a 	mov	r4,r17
 1002890:	dfc00117 	ldw	ra,4(sp)
 1002894:	dc400017 	ldw	r17,0(sp)
 1002898:	dec00204 	addi	sp,sp,8
 100289c:	1008a881 	jmpi	1008a88 <_ZdlPv>

010028a0 <_ZNSt12domain_errorD1Ev>:
 10028a0:	008040b4 	movhi	r2,258
 10028a4:	10bbea04 	addi	r2,r2,-4184
 10028a8:	20800015 	stw	r2,0(r4)
 10028ac:	10038101 	jmpi	1003810 <_ZNSt11logic_errorD2Ev>

010028b0 <_ZNKSt8ios_base7failure4whatEv>:
 10028b0:	20800117 	ldw	r2,4(r4)
 10028b4:	f800283a 	ret

010028b8 <_ZNSt8ios_base7failureD1Ev>:
 10028b8:	deffeb04 	addi	sp,sp,-84
 10028bc:	00804074 	movhi	r2,257
 10028c0:	10a0ae04 	addi	r2,r2,-32072
 10028c4:	00c040b4 	movhi	r3,258
 10028c8:	18faf304 	addi	r3,r3,-5172
 10028cc:	d8800715 	stw	r2,28(sp)
 10028d0:	d9001015 	stw	r4,64(sp)
 10028d4:	00804034 	movhi	r2,256
 10028d8:	108a5f04 	addi	r2,r2,10620
 10028dc:	d9000104 	addi	r4,sp,4
 10028e0:	d8c00815 	stw	r3,32(sp)
 10028e4:	d8800a15 	stw	r2,40(sp)
 10028e8:	dfc01415 	stw	ra,80(sp)
 10028ec:	df001315 	stw	fp,76(sp)
 10028f0:	ddc01215 	stw	r23,72(sp)
 10028f4:	dec00915 	stw	sp,36(sp)
 10028f8:	dec00b15 	stw	sp,44(sp)
 10028fc:	100916c0 	call	100916c <_Unwind_SjLj_Register>
 1002900:	d8c01017 	ldw	r3,64(sp)
 1002904:	18800117 	ldw	r2,4(r3)
 1002908:	00c040b4 	movhi	r3,258
 100290c:	18fbef04 	addi	r3,r3,-4164
 1002910:	10bffd04 	addi	r2,r2,-12
 1002914:	d8800e15 	stw	r2,56(sp)
 1002918:	d8801017 	ldw	r2,64(sp)
 100291c:	10c00015 	stw	r3,0(r2)
 1002920:	d8c00e17 	ldw	r3,56(sp)
 1002924:	008040b4 	movhi	r2,258
 1002928:	109bcf04 	addi	r2,r2,28476
 100292c:	1880091e 	bne	r3,r2,1002954 <_ZNSt8ios_base7failureD1Ev+0x9c>
 1002930:	d9001017 	ldw	r4,64(sp)
 1002934:	100792c0 	call	100792c <_ZNSt9exceptionD2Ev>
 1002938:	d9000104 	addi	r4,sp,4
 100293c:	100917c0 	call	100917c <_Unwind_SjLj_Unregister>
 1002940:	dfc01417 	ldw	ra,80(sp)
 1002944:	df001317 	ldw	fp,76(sp)
 1002948:	ddc01217 	ldw	r23,72(sp)
 100294c:	dec01504 	addi	sp,sp,84
 1002950:	f800283a 	ret
 1002954:	00800044 	movi	r2,1
 1002958:	d8800215 	stw	r2,8(sp)
 100295c:	19000204 	addi	r4,r3,8
 1002960:	017fffc4 	movi	r5,-1
 1002964:	10078e40 	call	10078e4 <_ZN9__gnu_cxx18__exchange_and_addEPVii>
 1002968:	00bff116 	blt	zero,r2,1002930 <_ZNSt8ios_base7failureD1Ev+0x78>
 100296c:	d9000e17 	ldw	r4,56(sp)
 1002970:	d80b883a 	mov	r5,sp
 1002974:	10043740 	call	1004374 <_ZNSs4_Rep10_M_destroyERKSaIcE>
 1002978:	003fed06 	br	1002930 <_ZNSt8ios_base7failureD1Ev+0x78>
 100297c:	d8800417 	ldw	r2,16(sp)
 1002980:	d8c00317 	ldw	r3,12(sp)
 1002984:	d9001017 	ldw	r4,64(sp)
 1002988:	d8800f15 	stw	r2,60(sp)
 100298c:	d8c01115 	stw	r3,68(sp)
 1002990:	100792c0 	call	100792c <_ZNSt9exceptionD2Ev>
 1002994:	d8c00f17 	ldw	r3,60(sp)
 1002998:	00bfffc4 	movi	r2,-1
 100299c:	18800326 	beq	r3,r2,10029ac <_ZNSt8ios_base7failureD1Ev+0xf4>
 10029a0:	d9001117 	ldw	r4,68(sp)
 10029a4:	d8800215 	stw	r2,8(sp)
 10029a8:	10094380 	call	1009438 <_Unwind_SjLj_Resume>
 10029ac:	d9001117 	ldw	r4,68(sp)
 10029b0:	00bfffc4 	movi	r2,-1
 10029b4:	d8800215 	stw	r2,8(sp)
 10029b8:	10081380 	call	1008138 <__cxa_call_unexpected>

010029bc <_ZNSt8ios_base7failureC1ERKSs>:
 10029bc:	deffec04 	addi	sp,sp,-80
 10029c0:	00804074 	movhi	r2,257
 10029c4:	10a0ae04 	addi	r2,r2,-32072
 10029c8:	00c040b4 	movhi	r3,258
 10029cc:	18faf704 	addi	r3,r3,-5156
 10029d0:	d8800615 	stw	r2,24(sp)
 10029d4:	d9000d15 	stw	r4,52(sp)
 10029d8:	00804034 	movhi	r2,256
 10029dc:	108a9304 	addi	r2,r2,10828
 10029e0:	d809883a 	mov	r4,sp
 10029e4:	d8c00715 	stw	r3,28(sp)
 10029e8:	d8800915 	stw	r2,36(sp)
 10029ec:	d9400e15 	stw	r5,56(sp)
 10029f0:	dfc01315 	stw	ra,76(sp)
 10029f4:	df001215 	stw	fp,72(sp)
 10029f8:	ddc01115 	stw	r23,68(sp)
 10029fc:	dec00815 	stw	sp,32(sp)
 1002a00:	dec00a15 	stw	sp,40(sp)
 1002a04:	100916c0 	call	100916c <_Unwind_SjLj_Register>
 1002a08:	d8c00d17 	ldw	r3,52(sp)
 1002a0c:	008040b4 	movhi	r2,258
 1002a10:	10bbef04 	addi	r2,r2,-4164
 1002a14:	d9400e17 	ldw	r5,56(sp)
 1002a18:	18800015 	stw	r2,0(r3)
 1002a1c:	d8800d17 	ldw	r2,52(sp)
 1002a20:	00c00044 	movi	r3,1
 1002a24:	d8c00115 	stw	r3,4(sp)
 1002a28:	11000104 	addi	r4,r2,4
 1002a2c:	10057cc0 	call	10057cc <_ZNSsC1ERKSs>
 1002a30:	d809883a 	mov	r4,sp
 1002a34:	100917c0 	call	100917c <_Unwind_SjLj_Unregister>
 1002a38:	dfc01317 	ldw	ra,76(sp)
 1002a3c:	df001217 	ldw	fp,72(sp)
 1002a40:	ddc01117 	ldw	r23,68(sp)
 1002a44:	dec01404 	addi	sp,sp,80
 1002a48:	f800283a 	ret
 1002a4c:	d8c00317 	ldw	r3,12(sp)
 1002a50:	d8800217 	ldw	r2,8(sp)
 1002a54:	d9000d17 	ldw	r4,52(sp)
 1002a58:	d8c00f15 	stw	r3,60(sp)
 1002a5c:	d8801015 	stw	r2,64(sp)
 1002a60:	100792c0 	call	100792c <_ZNSt9exceptionD2Ev>
 1002a64:	d8c00f17 	ldw	r3,60(sp)
 1002a68:	00bfffc4 	movi	r2,-1
 1002a6c:	18800326 	beq	r3,r2,1002a7c <_ZNSt8ios_base7failureC1ERKSs+0xc0>
 1002a70:	d9001017 	ldw	r4,64(sp)
 1002a74:	d8800115 	stw	r2,4(sp)
 1002a78:	10094380 	call	1009438 <_Unwind_SjLj_Resume>
 1002a7c:	d9001017 	ldw	r4,64(sp)
 1002a80:	00bfffc4 	movi	r2,-1
 1002a84:	d8800115 	stw	r2,4(sp)
 1002a88:	10081380 	call	1008138 <__cxa_call_unexpected>

01002a8c <_ZNSt8ios_base7failureC2ERKSs>:
 1002a8c:	deffec04 	addi	sp,sp,-80
 1002a90:	00804074 	movhi	r2,257
 1002a94:	10a0ae04 	addi	r2,r2,-32072
 1002a98:	00c040b4 	movhi	r3,258
 1002a9c:	18fafb04 	addi	r3,r3,-5140
 1002aa0:	d8800615 	stw	r2,24(sp)
 1002aa4:	d9000d15 	stw	r4,52(sp)
 1002aa8:	00804034 	movhi	r2,256
 1002aac:	108ac704 	addi	r2,r2,11036
 1002ab0:	d809883a 	mov	r4,sp
 1002ab4:	d8c00715 	stw	r3,28(sp)
 1002ab8:	d8800915 	stw	r2,36(sp)
 1002abc:	d9400e15 	stw	r5,56(sp)
 1002ac0:	dfc01315 	stw	ra,76(sp)
 1002ac4:	df001215 	stw	fp,72(sp)
 1002ac8:	ddc01115 	stw	r23,68(sp)
 1002acc:	dec00815 	stw	sp,32(sp)
 1002ad0:	dec00a15 	stw	sp,40(sp)
 1002ad4:	100916c0 	call	100916c <_Unwind_SjLj_Register>
 1002ad8:	d8c00d17 	ldw	r3,52(sp)
 1002adc:	008040b4 	movhi	r2,258
 1002ae0:	10bbef04 	addi	r2,r2,-4164
 1002ae4:	d9400e17 	ldw	r5,56(sp)
 1002ae8:	18800015 	stw	r2,0(r3)
 1002aec:	d8800d17 	ldw	r2,52(sp)
 1002af0:	00c00044 	movi	r3,1
 1002af4:	d8c00115 	stw	r3,4(sp)
 1002af8:	11000104 	addi	r4,r2,4
 1002afc:	10057cc0 	call	10057cc <_ZNSsC1ERKSs>
 1002b00:	d809883a 	mov	r4,sp
 1002b04:	100917c0 	call	100917c <_Unwind_SjLj_Unregister>
 1002b08:	dfc01317 	ldw	ra,76(sp)
 1002b0c:	df001217 	ldw	fp,72(sp)
 1002b10:	ddc01117 	ldw	r23,68(sp)
 1002b14:	dec01404 	addi	sp,sp,80
 1002b18:	f800283a 	ret
 1002b1c:	d8c00317 	ldw	r3,12(sp)
 1002b20:	d8800217 	ldw	r2,8(sp)
 1002b24:	d9000d17 	ldw	r4,52(sp)
 1002b28:	d8c00f15 	stw	r3,60(sp)
 1002b2c:	d8801015 	stw	r2,64(sp)
 1002b30:	100792c0 	call	100792c <_ZNSt9exceptionD2Ev>
 1002b34:	d8c00f17 	ldw	r3,60(sp)
 1002b38:	00bfffc4 	movi	r2,-1
 1002b3c:	18800326 	beq	r3,r2,1002b4c <_ZNSt8ios_base7failureC2ERKSs+0xc0>
 1002b40:	d9001017 	ldw	r4,64(sp)
 1002b44:	d8800115 	stw	r2,4(sp)
 1002b48:	10094380 	call	1009438 <_Unwind_SjLj_Resume>
 1002b4c:	d9001017 	ldw	r4,64(sp)
 1002b50:	00bfffc4 	movi	r2,-1
 1002b54:	d8800115 	stw	r2,4(sp)
 1002b58:	10081380 	call	1008138 <__cxa_call_unexpected>

01002b5c <_ZNSt8ios_base7failureD2Ev>:
 1002b5c:	deffeb04 	addi	sp,sp,-84
 1002b60:	00804074 	movhi	r2,257
 1002b64:	10a0ae04 	addi	r2,r2,-32072
 1002b68:	00c040b4 	movhi	r3,258
 1002b6c:	18faff04 	addi	r3,r3,-5124
 1002b70:	d8800715 	stw	r2,28(sp)
 1002b74:	d9001015 	stw	r4,64(sp)
 1002b78:	00804034 	movhi	r2,256
 1002b7c:	108b0804 	addi	r2,r2,11296
 1002b80:	d9000104 	addi	r4,sp,4
 1002b84:	d8c00815 	stw	r3,32(sp)
 1002b88:	d8800a15 	stw	r2,40(sp)
 1002b8c:	dfc01415 	stw	ra,80(sp)
 1002b90:	df001315 	stw	fp,76(sp)
 1002b94:	ddc01215 	stw	r23,72(sp)
 1002b98:	dec00915 	stw	sp,36(sp)
 1002b9c:	dec00b15 	stw	sp,44(sp)
 1002ba0:	100916c0 	call	100916c <_Unwind_SjLj_Register>
 1002ba4:	d8c01017 	ldw	r3,64(sp)
 1002ba8:	18800117 	ldw	r2,4(r3)
 1002bac:	00c040b4 	movhi	r3,258
 1002bb0:	18fbef04 	addi	r3,r3,-4164
 1002bb4:	10bffd04 	addi	r2,r2,-12
 1002bb8:	d8800e15 	stw	r2,56(sp)
 1002bbc:	d8801017 	ldw	r2,64(sp)
 1002bc0:	10c00015 	stw	r3,0(r2)
 1002bc4:	d8c00e17 	ldw	r3,56(sp)
 1002bc8:	008040b4 	movhi	r2,258
 1002bcc:	109bcf04 	addi	r2,r2,28476
 1002bd0:	1880091e 	bne	r3,r2,1002bf8 <_ZNSt8ios_base7failureD2Ev+0x9c>
 1002bd4:	d9001017 	ldw	r4,64(sp)
 1002bd8:	100792c0 	call	100792c <_ZNSt9exceptionD2Ev>
 1002bdc:	d9000104 	addi	r4,sp,4
 1002be0:	100917c0 	call	100917c <_Unwind_SjLj_Unregister>
 1002be4:	dfc01417 	ldw	ra,80(sp)
 1002be8:	df001317 	ldw	fp,76(sp)
 1002bec:	ddc01217 	ldw	r23,72(sp)
 1002bf0:	dec01504 	addi	sp,sp,84
 1002bf4:	f800283a 	ret
 1002bf8:	00800044 	movi	r2,1
 1002bfc:	d8800215 	stw	r2,8(sp)
 1002c00:	19000204 	addi	r4,r3,8
 1002c04:	017fffc4 	movi	r5,-1
 1002c08:	10078e40 	call	10078e4 <_ZN9__gnu_cxx18__exchange_and_addEPVii>
 1002c0c:	00bff116 	blt	zero,r2,1002bd4 <_ZNSt8ios_base7failureD2Ev+0x78>
 1002c10:	d9000e17 	ldw	r4,56(sp)
 1002c14:	d80b883a 	mov	r5,sp
 1002c18:	10043740 	call	1004374 <_ZNSs4_Rep10_M_destroyERKSaIcE>
 1002c1c:	003fed06 	br	1002bd4 <_ZNSt8ios_base7failureD2Ev+0x78>
 1002c20:	d8800417 	ldw	r2,16(sp)
 1002c24:	d8c00317 	ldw	r3,12(sp)
 1002c28:	d9001017 	ldw	r4,64(sp)
 1002c2c:	d8800f15 	stw	r2,60(sp)
 1002c30:	d8c01115 	stw	r3,68(sp)
 1002c34:	100792c0 	call	100792c <_ZNSt9exceptionD2Ev>
 1002c38:	d8c00f17 	ldw	r3,60(sp)
 1002c3c:	00bfffc4 	movi	r2,-1
 1002c40:	18800326 	beq	r3,r2,1002c50 <_ZNSt8ios_base7failureD2Ev+0xf4>
 1002c44:	d9001117 	ldw	r4,68(sp)
 1002c48:	d8800215 	stw	r2,8(sp)
 1002c4c:	10094380 	call	1009438 <_Unwind_SjLj_Resume>
 1002c50:	d9001117 	ldw	r4,68(sp)
 1002c54:	00bfffc4 	movi	r2,-1
 1002c58:	d8800215 	stw	r2,8(sp)
 1002c5c:	10081380 	call	1008138 <__cxa_call_unexpected>

01002c60 <_ZNSt8ios_base7failureD0Ev>:
 1002c60:	deffeb04 	addi	sp,sp,-84
 1002c64:	00804074 	movhi	r2,257
 1002c68:	10a0ae04 	addi	r2,r2,-32072
 1002c6c:	00c040b4 	movhi	r3,258
 1002c70:	18fb0304 	addi	r3,r3,-5108
 1002c74:	d8800715 	stw	r2,28(sp)
 1002c78:	d9001015 	stw	r4,64(sp)
 1002c7c:	00804034 	movhi	r2,256
 1002c80:	108b4b04 	addi	r2,r2,11564
 1002c84:	d9000104 	addi	r4,sp,4
 1002c88:	d8c00815 	stw	r3,32(sp)
 1002c8c:	d8800a15 	stw	r2,40(sp)
 1002c90:	dfc01415 	stw	ra,80(sp)
 1002c94:	df001315 	stw	fp,76(sp)
 1002c98:	ddc01215 	stw	r23,72(sp)
 1002c9c:	dec00915 	stw	sp,36(sp)
 1002ca0:	dec00b15 	stw	sp,44(sp)
 1002ca4:	100916c0 	call	100916c <_Unwind_SjLj_Register>
 1002ca8:	d8c01017 	ldw	r3,64(sp)
 1002cac:	18800117 	ldw	r2,4(r3)
 1002cb0:	00c040b4 	movhi	r3,258
 1002cb4:	18fbef04 	addi	r3,r3,-4164
 1002cb8:	10bffd04 	addi	r2,r2,-12
 1002cbc:	d8800e15 	stw	r2,56(sp)
 1002cc0:	d8801017 	ldw	r2,64(sp)
 1002cc4:	10c00015 	stw	r3,0(r2)
 1002cc8:	d8c00e17 	ldw	r3,56(sp)
 1002ccc:	008040b4 	movhi	r2,258
 1002cd0:	109bcf04 	addi	r2,r2,28476
 1002cd4:	18800b1e 	bne	r3,r2,1002d04 <_ZNSt8ios_base7failureD0Ev+0xa4>
 1002cd8:	d9001017 	ldw	r4,64(sp)
 1002cdc:	100792c0 	call	100792c <_ZNSt9exceptionD2Ev>
 1002ce0:	d9001017 	ldw	r4,64(sp)
 1002ce4:	1008a880 	call	1008a88 <_ZdlPv>
 1002ce8:	d9000104 	addi	r4,sp,4
 1002cec:	100917c0 	call	100917c <_Unwind_SjLj_Unregister>
 1002cf0:	dfc01417 	ldw	ra,80(sp)
 1002cf4:	df001317 	ldw	fp,76(sp)
 1002cf8:	ddc01217 	ldw	r23,72(sp)
 1002cfc:	dec01504 	addi	sp,sp,84
 1002d00:	f800283a 	ret
 1002d04:	00800044 	movi	r2,1
 1002d08:	d8800215 	stw	r2,8(sp)
 1002d0c:	19000204 	addi	r4,r3,8
 1002d10:	017fffc4 	movi	r5,-1
 1002d14:	10078e40 	call	10078e4 <_ZN9__gnu_cxx18__exchange_and_addEPVii>
 1002d18:	00bfef16 	blt	zero,r2,1002cd8 <_ZNSt8ios_base7failureD0Ev+0x78>
 1002d1c:	d9000e17 	ldw	r4,56(sp)
 1002d20:	d80b883a 	mov	r5,sp
 1002d24:	10043740 	call	1004374 <_ZNSs4_Rep10_M_destroyERKSaIcE>
 1002d28:	003feb06 	br	1002cd8 <_ZNSt8ios_base7failureD0Ev+0x78>
 1002d2c:	d8800417 	ldw	r2,16(sp)
 1002d30:	d8c00317 	ldw	r3,12(sp)
 1002d34:	d9001017 	ldw	r4,64(sp)
 1002d38:	d8800f15 	stw	r2,60(sp)
 1002d3c:	d8c01115 	stw	r3,68(sp)
 1002d40:	100792c0 	call	100792c <_ZNSt9exceptionD2Ev>
 1002d44:	d8c00f17 	ldw	r3,60(sp)
 1002d48:	00bfffc4 	movi	r2,-1
 1002d4c:	18800326 	beq	r3,r2,1002d5c <_ZNSt8ios_base7failureD0Ev+0xfc>
 1002d50:	d9001117 	ldw	r4,68(sp)
 1002d54:	d8800215 	stw	r2,8(sp)
 1002d58:	10094380 	call	1009438 <_Unwind_SjLj_Resume>
 1002d5c:	d9001117 	ldw	r4,68(sp)
 1002d60:	00bfffc4 	movi	r2,-1
 1002d64:	d8800215 	stw	r2,8(sp)
 1002d68:	10081380 	call	1008138 <__cxa_call_unexpected>

01002d6c <_ZNSt15_List_node_base8transferEPS_S0_>:
 1002d6c:	200f883a 	mov	r7,r4
 1002d70:	2811883a 	mov	r8,r5
 1002d74:	21800a26 	beq	r4,r6,1002da0 <_ZNSt15_List_node_base8transferEPS_S0_+0x34>
 1002d78:	30c00117 	ldw	r3,4(r6)
 1002d7c:	29400117 	ldw	r5,4(r5)
 1002d80:	21000117 	ldw	r4,4(r4)
 1002d84:	38c00115 	stw	r3,4(r7)
 1002d88:	40800117 	ldw	r2,4(r8)
 1002d8c:	19c00015 	stw	r7,0(r3)
 1002d90:	29800015 	stw	r6,0(r5)
 1002d94:	30800115 	stw	r2,4(r6)
 1002d98:	41000115 	stw	r4,4(r8)
 1002d9c:	22000015 	stw	r8,0(r4)
 1002da0:	f800283a 	ret

01002da4 <_ZNSt15_List_node_base4hookEPS_>:
 1002da4:	28c00117 	ldw	r3,4(r5)
 1002da8:	21400015 	stw	r5,0(r4)
 1002dac:	20c00115 	stw	r3,4(r4)
 1002db0:	28800117 	ldw	r2,4(r5)
 1002db4:	29000115 	stw	r4,4(r5)
 1002db8:	11000015 	stw	r4,0(r2)
 1002dbc:	f800283a 	ret

01002dc0 <_ZNSt15_List_node_base6unhookEv>:
 1002dc0:	20c00117 	ldw	r3,4(r4)
 1002dc4:	20800017 	ldw	r2,0(r4)
 1002dc8:	10c00115 	stw	r3,4(r2)
 1002dcc:	18800015 	stw	r2,0(r3)
 1002dd0:	f800283a 	ret

01002dd4 <_ZNSt15_List_node_base4swapERS_S0_>:
 1002dd4:	20c00017 	ldw	r3,0(r4)
 1002dd8:	20c01126 	beq	r4,r3,1002e20 <_ZNSt15_List_node_base4swapERS_S0_+0x4c>
 1002ddc:	28800017 	ldw	r2,0(r5)
 1002de0:	28801926 	beq	r5,r2,1002e48 <_ZNSt15_List_node_base4swapERS_S0_+0x74>
 1002de4:	20800015 	stw	r2,0(r4)
 1002de8:	28c00015 	stw	r3,0(r5)
 1002dec:	28800117 	ldw	r2,4(r5)
 1002df0:	20c00117 	ldw	r3,4(r4)
 1002df4:	20800115 	stw	r2,4(r4)
 1002df8:	28c00115 	stw	r3,4(r5)
 1002dfc:	20800017 	ldw	r2,0(r4)
 1002e00:	20c00117 	ldw	r3,4(r4)
 1002e04:	11000115 	stw	r4,4(r2)
 1002e08:	19000015 	stw	r4,0(r3)
 1002e0c:	28800017 	ldw	r2,0(r5)
 1002e10:	28c00117 	ldw	r3,4(r5)
 1002e14:	11400115 	stw	r5,4(r2)
 1002e18:	19400015 	stw	r5,0(r3)
 1002e1c:	f800283a 	ret
 1002e20:	28c00017 	ldw	r3,0(r5)
 1002e24:	28c00726 	beq	r5,r3,1002e44 <_ZNSt15_List_node_base4swapERS_S0_+0x70>
 1002e28:	28800117 	ldw	r2,4(r5)
 1002e2c:	20c00015 	stw	r3,0(r4)
 1002e30:	20800115 	stw	r2,4(r4)
 1002e34:	19000115 	stw	r4,4(r3)
 1002e38:	11000015 	stw	r4,0(r2)
 1002e3c:	29400115 	stw	r5,4(r5)
 1002e40:	29400015 	stw	r5,0(r5)
 1002e44:	f800283a 	ret
 1002e48:	20800117 	ldw	r2,4(r4)
 1002e4c:	28c00015 	stw	r3,0(r5)
 1002e50:	28800115 	stw	r2,4(r5)
 1002e54:	19400115 	stw	r5,4(r3)
 1002e58:	11400015 	stw	r5,0(r2)
 1002e5c:	21000115 	stw	r4,4(r4)
 1002e60:	21000015 	stw	r4,0(r4)
 1002e64:	f800283a 	ret

01002e68 <_ZNSt15_List_node_base7reverseEv>:
 1002e68:	200b883a 	mov	r5,r4
 1002e6c:	28800017 	ldw	r2,0(r5)
 1002e70:	28c00117 	ldw	r3,4(r5)
 1002e74:	28800115 	stw	r2,4(r5)
 1002e78:	28c00015 	stw	r3,0(r5)
 1002e7c:	100b883a 	mov	r5,r2
 1002e80:	20bffa1e 	bne	r4,r2,1002e6c <_ZNSt15_List_node_base7reverseEv+0x4>
 1002e84:	f800283a 	ret

01002e88 <_ZNKSt13runtime_error4whatEv>:
 1002e88:	20800117 	ldw	r2,4(r4)
 1002e8c:	f800283a 	ret

01002e90 <_ZNSt11logic_errorD1Ev>:
 1002e90:	deffeb04 	addi	sp,sp,-84
 1002e94:	00804074 	movhi	r2,257
 1002e98:	10a0ae04 	addi	r2,r2,-32072
 1002e9c:	00c040b4 	movhi	r3,258
 1002ea0:	18fb0704 	addi	r3,r3,-5092
 1002ea4:	d8800715 	stw	r2,28(sp)
 1002ea8:	d9001015 	stw	r4,64(sp)
 1002eac:	00804034 	movhi	r2,256
 1002eb0:	108bd504 	addi	r2,r2,12116
 1002eb4:	d9000104 	addi	r4,sp,4
 1002eb8:	d8c00815 	stw	r3,32(sp)
 1002ebc:	d8800a15 	stw	r2,40(sp)
 1002ec0:	dfc01415 	stw	ra,80(sp)
 1002ec4:	df001315 	stw	fp,76(sp)
 1002ec8:	ddc01215 	stw	r23,72(sp)
 1002ecc:	dec00915 	stw	sp,36(sp)
 1002ed0:	dec00b15 	stw	sp,44(sp)
 1002ed4:	100916c0 	call	100916c <_Unwind_SjLj_Register>
 1002ed8:	d8c01017 	ldw	r3,64(sp)
 1002edc:	18800117 	ldw	r2,4(r3)
 1002ee0:	00c040b4 	movhi	r3,258
 1002ee4:	18fc0204 	addi	r3,r3,-4088
 1002ee8:	10bffd04 	addi	r2,r2,-12
 1002eec:	d8800e15 	stw	r2,56(sp)
 1002ef0:	d8801017 	ldw	r2,64(sp)
 1002ef4:	10c00015 	stw	r3,0(r2)
 1002ef8:	d8c00e17 	ldw	r3,56(sp)
 1002efc:	008040b4 	movhi	r2,258
 1002f00:	109bcf04 	addi	r2,r2,28476
 1002f04:	1880091e 	bne	r3,r2,1002f2c <_ZNSt11logic_errorD1Ev+0x9c>
 1002f08:	d9001017 	ldw	r4,64(sp)
 1002f0c:	100792c0 	call	100792c <_ZNSt9exceptionD2Ev>
 1002f10:	d9000104 	addi	r4,sp,4
 1002f14:	100917c0 	call	100917c <_Unwind_SjLj_Unregister>
 1002f18:	dfc01417 	ldw	ra,80(sp)
 1002f1c:	df001317 	ldw	fp,76(sp)
 1002f20:	ddc01217 	ldw	r23,72(sp)
 1002f24:	dec01504 	addi	sp,sp,84
 1002f28:	f800283a 	ret
 1002f2c:	00800044 	movi	r2,1
 1002f30:	d8800215 	stw	r2,8(sp)
 1002f34:	19000204 	addi	r4,r3,8
 1002f38:	017fffc4 	movi	r5,-1
 1002f3c:	10078e40 	call	10078e4 <_ZN9__gnu_cxx18__exchange_and_addEPVii>
 1002f40:	00bff116 	blt	zero,r2,1002f08 <_ZNSt11logic_errorD1Ev+0x78>
 1002f44:	d9000e17 	ldw	r4,56(sp)
 1002f48:	d80b883a 	mov	r5,sp
 1002f4c:	10043740 	call	1004374 <_ZNSs4_Rep10_M_destroyERKSaIcE>
 1002f50:	003fed06 	br	1002f08 <_ZNSt11logic_errorD1Ev+0x78>
 1002f54:	d8800417 	ldw	r2,16(sp)
 1002f58:	d8c00317 	ldw	r3,12(sp)
 1002f5c:	d9001017 	ldw	r4,64(sp)
 1002f60:	d8800f15 	stw	r2,60(sp)
 1002f64:	d8c01115 	stw	r3,68(sp)
 1002f68:	100792c0 	call	100792c <_ZNSt9exceptionD2Ev>
 1002f6c:	d8c00f17 	ldw	r3,60(sp)
 1002f70:	00bfffc4 	movi	r2,-1
 1002f74:	18800326 	beq	r3,r2,1002f84 <_ZNSt11logic_errorD1Ev+0xf4>
 1002f78:	d9001117 	ldw	r4,68(sp)
 1002f7c:	d8800215 	stw	r2,8(sp)
 1002f80:	10094380 	call	1009438 <_Unwind_SjLj_Resume>
 1002f84:	d9001117 	ldw	r4,68(sp)
 1002f88:	00bfffc4 	movi	r2,-1
 1002f8c:	d8800215 	stw	r2,8(sp)
 1002f90:	10081380 	call	1008138 <__cxa_call_unexpected>

01002f94 <_ZNSt13runtime_errorC2ERKSs>:
 1002f94:	deffed04 	addi	sp,sp,-76
 1002f98:	00804074 	movhi	r2,257
 1002f9c:	10a0ae04 	addi	r2,r2,-32072
 1002fa0:	00c040b4 	movhi	r3,258
 1002fa4:	18fb0a44 	addi	r3,r3,-5079
 1002fa8:	d8800615 	stw	r2,24(sp)
 1002fac:	d9000d15 	stw	r4,52(sp)
 1002fb0:	00804034 	movhi	r2,256
 1002fb4:	108c0904 	addi	r2,r2,12324
 1002fb8:	d809883a 	mov	r4,sp
 1002fbc:	d8c00715 	stw	r3,28(sp)
 1002fc0:	d8800915 	stw	r2,36(sp)
 1002fc4:	d9400e15 	stw	r5,56(sp)
 1002fc8:	dfc01215 	stw	ra,72(sp)
 1002fcc:	df001115 	stw	fp,68(sp)
 1002fd0:	ddc01015 	stw	r23,64(sp)
 1002fd4:	dec00815 	stw	sp,32(sp)
 1002fd8:	dec00a15 	stw	sp,40(sp)
 1002fdc:	100916c0 	call	100916c <_Unwind_SjLj_Register>
 1002fe0:	d8c00d17 	ldw	r3,52(sp)
 1002fe4:	008040b4 	movhi	r2,258
 1002fe8:	10bbfd04 	addi	r2,r2,-4108
 1002fec:	d9400e17 	ldw	r5,56(sp)
 1002ff0:	18800015 	stw	r2,0(r3)
 1002ff4:	d8800d17 	ldw	r2,52(sp)
 1002ff8:	00c00044 	movi	r3,1
 1002ffc:	d8c00115 	stw	r3,4(sp)
 1003000:	11000104 	addi	r4,r2,4
 1003004:	10057cc0 	call	10057cc <_ZNSsC1ERKSs>
 1003008:	d809883a 	mov	r4,sp
 100300c:	100917c0 	call	100917c <_Unwind_SjLj_Unregister>
 1003010:	dfc01217 	ldw	ra,72(sp)
 1003014:	df001117 	ldw	fp,68(sp)
 1003018:	ddc01017 	ldw	r23,64(sp)
 100301c:	dec01304 	addi	sp,sp,76
 1003020:	f800283a 	ret
 1003024:	d8c00217 	ldw	r3,8(sp)
 1003028:	d9000d17 	ldw	r4,52(sp)
 100302c:	d8c00f15 	stw	r3,60(sp)
 1003030:	100792c0 	call	100792c <_ZNSt9exceptionD2Ev>
 1003034:	d9000f17 	ldw	r4,60(sp)
 1003038:	00bfffc4 	movi	r2,-1
 100303c:	d8800115 	stw	r2,4(sp)
 1003040:	10094380 	call	1009438 <_Unwind_SjLj_Resume>

01003044 <_ZNSt15underflow_errorC1ERKSs>:
 1003044:	defffe04 	addi	sp,sp,-8
 1003048:	dc000015 	stw	r16,0(sp)
 100304c:	dfc00115 	stw	ra,4(sp)
 1003050:	2021883a 	mov	r16,r4
 1003054:	1002f940 	call	1002f94 <_ZNSt13runtime_errorC2ERKSs>
 1003058:	008040b4 	movhi	r2,258
 100305c:	10bb9c04 	addi	r2,r2,-4496
 1003060:	80800015 	stw	r2,0(r16)
 1003064:	dfc00117 	ldw	ra,4(sp)
 1003068:	dc000017 	ldw	r16,0(sp)
 100306c:	dec00204 	addi	sp,sp,8
 1003070:	f800283a 	ret

01003074 <_ZNSt15underflow_errorC2ERKSs>:
 1003074:	defffe04 	addi	sp,sp,-8
 1003078:	dc000015 	stw	r16,0(sp)
 100307c:	dfc00115 	stw	ra,4(sp)
 1003080:	2021883a 	mov	r16,r4
 1003084:	1002f940 	call	1002f94 <_ZNSt13runtime_errorC2ERKSs>
 1003088:	008040b4 	movhi	r2,258
 100308c:	10bb9c04 	addi	r2,r2,-4496
 1003090:	80800015 	stw	r2,0(r16)
 1003094:	dfc00117 	ldw	ra,4(sp)
 1003098:	dc000017 	ldw	r16,0(sp)
 100309c:	dec00204 	addi	sp,sp,8
 10030a0:	f800283a 	ret

010030a4 <_ZNSt14overflow_errorC1ERKSs>:
 10030a4:	defffe04 	addi	sp,sp,-8
 10030a8:	dc000015 	stw	r16,0(sp)
 10030ac:	dfc00115 	stw	ra,4(sp)
 10030b0:	2021883a 	mov	r16,r4
 10030b4:	1002f940 	call	1002f94 <_ZNSt13runtime_errorC2ERKSs>
 10030b8:	008040b4 	movhi	r2,258
 10030bc:	10bba904 	addi	r2,r2,-4444
 10030c0:	80800015 	stw	r2,0(r16)
 10030c4:	dfc00117 	ldw	ra,4(sp)
 10030c8:	dc000017 	ldw	r16,0(sp)
 10030cc:	dec00204 	addi	sp,sp,8
 10030d0:	f800283a 	ret

010030d4 <_ZNSt14overflow_errorC2ERKSs>:
 10030d4:	defffe04 	addi	sp,sp,-8
 10030d8:	dc000015 	stw	r16,0(sp)
 10030dc:	dfc00115 	stw	ra,4(sp)
 10030e0:	2021883a 	mov	r16,r4
 10030e4:	1002f940 	call	1002f94 <_ZNSt13runtime_errorC2ERKSs>
 10030e8:	008040b4 	movhi	r2,258
 10030ec:	10bba904 	addi	r2,r2,-4444
 10030f0:	80800015 	stw	r2,0(r16)
 10030f4:	dfc00117 	ldw	ra,4(sp)
 10030f8:	dc000017 	ldw	r16,0(sp)
 10030fc:	dec00204 	addi	sp,sp,8
 1003100:	f800283a 	ret

01003104 <_ZNSt11range_errorC1ERKSs>:
 1003104:	defffe04 	addi	sp,sp,-8
 1003108:	dc000015 	stw	r16,0(sp)
 100310c:	dfc00115 	stw	ra,4(sp)
 1003110:	2021883a 	mov	r16,r4
 1003114:	1002f940 	call	1002f94 <_ZNSt13runtime_errorC2ERKSs>
 1003118:	008040b4 	movhi	r2,258
 100311c:	10bbb504 	addi	r2,r2,-4396
 1003120:	80800015 	stw	r2,0(r16)
 1003124:	dfc00117 	ldw	ra,4(sp)
 1003128:	dc000017 	ldw	r16,0(sp)
 100312c:	dec00204 	addi	sp,sp,8
 1003130:	f800283a 	ret

01003134 <_ZNSt11range_errorC2ERKSs>:
 1003134:	defffe04 	addi	sp,sp,-8
 1003138:	dc000015 	stw	r16,0(sp)
 100313c:	dfc00115 	stw	ra,4(sp)
 1003140:	2021883a 	mov	r16,r4
 1003144:	1002f940 	call	1002f94 <_ZNSt13runtime_errorC2ERKSs>
 1003148:	008040b4 	movhi	r2,258
 100314c:	10bbb504 	addi	r2,r2,-4396
 1003150:	80800015 	stw	r2,0(r16)
 1003154:	dfc00117 	ldw	ra,4(sp)
 1003158:	dc000017 	ldw	r16,0(sp)
 100315c:	dec00204 	addi	sp,sp,8
 1003160:	f800283a 	ret

01003164 <_ZNSt11logic_errorC1ERKSs>:
 1003164:	deffed04 	addi	sp,sp,-76
 1003168:	00804074 	movhi	r2,257
 100316c:	10a0ae04 	addi	r2,r2,-32072
 1003170:	00c040b4 	movhi	r3,258
 1003174:	18fb0bc4 	addi	r3,r3,-5073
 1003178:	d8800615 	stw	r2,24(sp)
 100317c:	d9000d15 	stw	r4,52(sp)
 1003180:	00804034 	movhi	r2,256
 1003184:	108c7d04 	addi	r2,r2,12788
 1003188:	d809883a 	mov	r4,sp
 100318c:	d8c00715 	stw	r3,28(sp)
 1003190:	d8800915 	stw	r2,36(sp)
 1003194:	d9400e15 	stw	r5,56(sp)
 1003198:	dfc01215 	stw	ra,72(sp)
 100319c:	df001115 	stw	fp,68(sp)
 10031a0:	ddc01015 	stw	r23,64(sp)
 10031a4:	dec00815 	stw	sp,32(sp)
 10031a8:	dec00a15 	stw	sp,40(sp)
 10031ac:	100916c0 	call	100916c <_Unwind_SjLj_Register>
 10031b0:	d8c00d17 	ldw	r3,52(sp)
 10031b4:	008040b4 	movhi	r2,258
 10031b8:	10bc0204 	addi	r2,r2,-4088
 10031bc:	d9400e17 	ldw	r5,56(sp)
 10031c0:	18800015 	stw	r2,0(r3)
 10031c4:	d8800d17 	ldw	r2,52(sp)
 10031c8:	00c00044 	movi	r3,1
 10031cc:	d8c00115 	stw	r3,4(sp)
 10031d0:	11000104 	addi	r4,r2,4
 10031d4:	10057cc0 	call	10057cc <_ZNSsC1ERKSs>
 10031d8:	d809883a 	mov	r4,sp
 10031dc:	100917c0 	call	100917c <_Unwind_SjLj_Unregister>
 10031e0:	dfc01217 	ldw	ra,72(sp)
 10031e4:	df001117 	ldw	fp,68(sp)
 10031e8:	ddc01017 	ldw	r23,64(sp)
 10031ec:	dec01304 	addi	sp,sp,76
 10031f0:	f800283a 	ret
 10031f4:	d8c00217 	ldw	r3,8(sp)
 10031f8:	d9000d17 	ldw	r4,52(sp)
 10031fc:	d8c00f15 	stw	r3,60(sp)
 1003200:	100792c0 	call	100792c <_ZNSt9exceptionD2Ev>
 1003204:	d9000f17 	ldw	r4,60(sp)
 1003208:	00bfffc4 	movi	r2,-1
 100320c:	d8800115 	stw	r2,4(sp)
 1003210:	10094380 	call	1009438 <_Unwind_SjLj_Resume>

01003214 <_ZNSt11logic_errorC2ERKSs>:
 1003214:	deffed04 	addi	sp,sp,-76
 1003218:	00804074 	movhi	r2,257
 100321c:	10a0ae04 	addi	r2,r2,-32072
 1003220:	00c040b4 	movhi	r3,258
 1003224:	18fb0d44 	addi	r3,r3,-5067
 1003228:	d8800615 	stw	r2,24(sp)
 100322c:	d9000d15 	stw	r4,52(sp)
 1003230:	00804034 	movhi	r2,256
 1003234:	108ca904 	addi	r2,r2,12964
 1003238:	d809883a 	mov	r4,sp
 100323c:	d8c00715 	stw	r3,28(sp)
 1003240:	d8800915 	stw	r2,36(sp)
 1003244:	d9400e15 	stw	r5,56(sp)
 1003248:	dfc01215 	stw	ra,72(sp)
 100324c:	df001115 	stw	fp,68(sp)
 1003250:	ddc01015 	stw	r23,64(sp)
 1003254:	dec00815 	stw	sp,32(sp)
 1003258:	dec00a15 	stw	sp,40(sp)
 100325c:	100916c0 	call	100916c <_Unwind_SjLj_Register>
 1003260:	d8c00d17 	ldw	r3,52(sp)
 1003264:	008040b4 	movhi	r2,258
 1003268:	10bc0204 	addi	r2,r2,-4088
 100326c:	d9400e17 	ldw	r5,56(sp)
 1003270:	18800015 	stw	r2,0(r3)
 1003274:	d8800d17 	ldw	r2,52(sp)
 1003278:	00c00044 	movi	r3,1
 100327c:	d8c00115 	stw	r3,4(sp)
 1003280:	11000104 	addi	r4,r2,4
 1003284:	10057cc0 	call	10057cc <_ZNSsC1ERKSs>
 1003288:	d809883a 	mov	r4,sp
 100328c:	100917c0 	call	100917c <_Unwind_SjLj_Unregister>
 1003290:	dfc01217 	ldw	ra,72(sp)
 1003294:	df001117 	ldw	fp,68(sp)
 1003298:	ddc01017 	ldw	r23,64(sp)
 100329c:	dec01304 	addi	sp,sp,76
 10032a0:	f800283a 	ret
 10032a4:	d8c00217 	ldw	r3,8(sp)
 10032a8:	d9000d17 	ldw	r4,52(sp)
 10032ac:	d8c00f15 	stw	r3,60(sp)
 10032b0:	100792c0 	call	100792c <_ZNSt9exceptionD2Ev>
 10032b4:	d9000f17 	ldw	r4,60(sp)
 10032b8:	00bfffc4 	movi	r2,-1
 10032bc:	d8800115 	stw	r2,4(sp)
 10032c0:	10094380 	call	1009438 <_Unwind_SjLj_Resume>

010032c4 <_ZNSt12out_of_rangeC1ERKSs>:
 10032c4:	defffe04 	addi	sp,sp,-8
 10032c8:	dc000015 	stw	r16,0(sp)
 10032cc:	dfc00115 	stw	ra,4(sp)
 10032d0:	2021883a 	mov	r16,r4
 10032d4:	10032140 	call	1003214 <_ZNSt11logic_errorC2ERKSs>
 10032d8:	008040b4 	movhi	r2,258
 10032dc:	10bbc204 	addi	r2,r2,-4344
 10032e0:	80800015 	stw	r2,0(r16)
 10032e4:	dfc00117 	ldw	ra,4(sp)
 10032e8:	dc000017 	ldw	r16,0(sp)
 10032ec:	dec00204 	addi	sp,sp,8
 10032f0:	f800283a 	ret

010032f4 <_ZNSt12out_of_rangeC2ERKSs>:
 10032f4:	defffe04 	addi	sp,sp,-8
 10032f8:	dc000015 	stw	r16,0(sp)
 10032fc:	dfc00115 	stw	ra,4(sp)
 1003300:	2021883a 	mov	r16,r4
 1003304:	10032140 	call	1003214 <_ZNSt11logic_errorC2ERKSs>
 1003308:	008040b4 	movhi	r2,258
 100330c:	10bbc204 	addi	r2,r2,-4344
 1003310:	80800015 	stw	r2,0(r16)
 1003314:	dfc00117 	ldw	ra,4(sp)
 1003318:	dc000017 	ldw	r16,0(sp)
 100331c:	dec00204 	addi	sp,sp,8
 1003320:	f800283a 	ret

01003324 <_ZNSt12length_errorC1ERKSs>:
 1003324:	defffe04 	addi	sp,sp,-8
 1003328:	dc000015 	stw	r16,0(sp)
 100332c:	dfc00115 	stw	ra,4(sp)
 1003330:	2021883a 	mov	r16,r4
 1003334:	10032140 	call	1003214 <_ZNSt11logic_errorC2ERKSs>
 1003338:	008040b4 	movhi	r2,258
 100333c:	10bbcf04 	addi	r2,r2,-4292
 1003340:	80800015 	stw	r2,0(r16)
 1003344:	dfc00117 	ldw	ra,4(sp)
 1003348:	dc000017 	ldw	r16,0(sp)
 100334c:	dec00204 	addi	sp,sp,8
 1003350:	f800283a 	ret

01003354 <_ZNSt12length_errorC2ERKSs>:
 1003354:	defffe04 	addi	sp,sp,-8
 1003358:	dc000015 	stw	r16,0(sp)
 100335c:	dfc00115 	stw	ra,4(sp)
 1003360:	2021883a 	mov	r16,r4
 1003364:	10032140 	call	1003214 <_ZNSt11logic_errorC2ERKSs>
 1003368:	008040b4 	movhi	r2,258
 100336c:	10bbcf04 	addi	r2,r2,-4292
 1003370:	80800015 	stw	r2,0(r16)
 1003374:	dfc00117 	ldw	ra,4(sp)
 1003378:	dc000017 	ldw	r16,0(sp)
 100337c:	dec00204 	addi	sp,sp,8
 1003380:	f800283a 	ret

01003384 <_ZNSt16invalid_argumentC1ERKSs>:
 1003384:	defffe04 	addi	sp,sp,-8
 1003388:	dc000015 	stw	r16,0(sp)
 100338c:	dfc00115 	stw	ra,4(sp)
 1003390:	2021883a 	mov	r16,r4
 1003394:	10032140 	call	1003214 <_ZNSt11logic_errorC2ERKSs>
 1003398:	008040b4 	movhi	r2,258
 100339c:	10bbdd04 	addi	r2,r2,-4236
 10033a0:	80800015 	stw	r2,0(r16)
 10033a4:	dfc00117 	ldw	ra,4(sp)
 10033a8:	dc000017 	ldw	r16,0(sp)
 10033ac:	dec00204 	addi	sp,sp,8
 10033b0:	f800283a 	ret

010033b4 <_ZNSt16invalid_argumentC2ERKSs>:
 10033b4:	defffe04 	addi	sp,sp,-8
 10033b8:	dc000015 	stw	r16,0(sp)
 10033bc:	dfc00115 	stw	ra,4(sp)
 10033c0:	2021883a 	mov	r16,r4
 10033c4:	10032140 	call	1003214 <_ZNSt11logic_errorC2ERKSs>
 10033c8:	008040b4 	movhi	r2,258
 10033cc:	10bbdd04 	addi	r2,r2,-4236
 10033d0:	80800015 	stw	r2,0(r16)
 10033d4:	dfc00117 	ldw	ra,4(sp)
 10033d8:	dc000017 	ldw	r16,0(sp)
 10033dc:	dec00204 	addi	sp,sp,8
 10033e0:	f800283a 	ret

010033e4 <_ZNSt12domain_errorC1ERKSs>:
 10033e4:	defffe04 	addi	sp,sp,-8
 10033e8:	dc000015 	stw	r16,0(sp)
 10033ec:	dfc00115 	stw	ra,4(sp)
 10033f0:	2021883a 	mov	r16,r4
 10033f4:	10032140 	call	1003214 <_ZNSt11logic_errorC2ERKSs>
 10033f8:	008040b4 	movhi	r2,258
 10033fc:	10bbea04 	addi	r2,r2,-4184
 1003400:	80800015 	stw	r2,0(r16)
 1003404:	dfc00117 	ldw	ra,4(sp)
 1003408:	dc000017 	ldw	r16,0(sp)
 100340c:	dec00204 	addi	sp,sp,8
 1003410:	f800283a 	ret

01003414 <_ZNSt12domain_errorC2ERKSs>:
 1003414:	defffe04 	addi	sp,sp,-8
 1003418:	dc000015 	stw	r16,0(sp)
 100341c:	dfc00115 	stw	ra,4(sp)
 1003420:	2021883a 	mov	r16,r4
 1003424:	10032140 	call	1003214 <_ZNSt11logic_errorC2ERKSs>
 1003428:	008040b4 	movhi	r2,258
 100342c:	10bbea04 	addi	r2,r2,-4184
 1003430:	80800015 	stw	r2,0(r16)
 1003434:	dfc00117 	ldw	ra,4(sp)
 1003438:	dc000017 	ldw	r16,0(sp)
 100343c:	dec00204 	addi	sp,sp,8
 1003440:	f800283a 	ret

01003444 <_ZNKSt11logic_error4whatEv>:
 1003444:	20800117 	ldw	r2,4(r4)
 1003448:	f800283a 	ret

0100344c <_ZNSt13runtime_errorC1ERKSs>:
 100344c:	deffed04 	addi	sp,sp,-76
 1003450:	00804074 	movhi	r2,257
 1003454:	10a0ae04 	addi	r2,r2,-32072
 1003458:	00c040b4 	movhi	r3,258
 100345c:	18fb0ec4 	addi	r3,r3,-5061
 1003460:	d8800615 	stw	r2,24(sp)
 1003464:	d9000d15 	stw	r4,52(sp)
 1003468:	00804034 	movhi	r2,256
 100346c:	108d3704 	addi	r2,r2,13532
 1003470:	d809883a 	mov	r4,sp
 1003474:	d8c00715 	stw	r3,28(sp)
 1003478:	d8800915 	stw	r2,36(sp)
 100347c:	d9400e15 	stw	r5,56(sp)
 1003480:	dfc01215 	stw	ra,72(sp)
 1003484:	df001115 	stw	fp,68(sp)
 1003488:	ddc01015 	stw	r23,64(sp)
 100348c:	dec00815 	stw	sp,32(sp)
 1003490:	dec00a15 	stw	sp,40(sp)
 1003494:	100916c0 	call	100916c <_Unwind_SjLj_Register>
 1003498:	d8c00d17 	ldw	r3,52(sp)
 100349c:	008040b4 	movhi	r2,258
 10034a0:	10bbfd04 	addi	r2,r2,-4108
 10034a4:	d9400e17 	ldw	r5,56(sp)
 10034a8:	18800015 	stw	r2,0(r3)
 10034ac:	d8800d17 	ldw	r2,52(sp)
 10034b0:	00c00044 	movi	r3,1
 10034b4:	d8c00115 	stw	r3,4(sp)
 10034b8:	11000104 	addi	r4,r2,4
 10034bc:	10057cc0 	call	10057cc <_ZNSsC1ERKSs>
 10034c0:	d809883a 	mov	r4,sp
 10034c4:	100917c0 	call	100917c <_Unwind_SjLj_Unregister>
 10034c8:	dfc01217 	ldw	ra,72(sp)
 10034cc:	df001117 	ldw	fp,68(sp)
 10034d0:	ddc01017 	ldw	r23,64(sp)
 10034d4:	dec01304 	addi	sp,sp,76
 10034d8:	f800283a 	ret
 10034dc:	d8c00217 	ldw	r3,8(sp)
 10034e0:	d9000d17 	ldw	r4,52(sp)
 10034e4:	d8c00f15 	stw	r3,60(sp)
 10034e8:	100792c0 	call	100792c <_ZNSt9exceptionD2Ev>
 10034ec:	d9000f17 	ldw	r4,60(sp)
 10034f0:	00bfffc4 	movi	r2,-1
 10034f4:	d8800115 	stw	r2,4(sp)
 10034f8:	10094380 	call	1009438 <_Unwind_SjLj_Resume>

010034fc <_ZNSt13runtime_errorD1Ev>:
 10034fc:	deffeb04 	addi	sp,sp,-84
 1003500:	00804074 	movhi	r2,257
 1003504:	10a0ae04 	addi	r2,r2,-32072
 1003508:	00c040b4 	movhi	r3,258
 100350c:	18fb1104 	addi	r3,r3,-5052
 1003510:	d8800715 	stw	r2,28(sp)
 1003514:	d9001015 	stw	r4,64(sp)
 1003518:	00804034 	movhi	r2,256
 100351c:	108d7004 	addi	r2,r2,13760
 1003520:	d9000104 	addi	r4,sp,4
 1003524:	d8c00815 	stw	r3,32(sp)
 1003528:	d8800a15 	stw	r2,40(sp)
 100352c:	dfc01415 	stw	ra,80(sp)
 1003530:	df001315 	stw	fp,76(sp)
 1003534:	ddc01215 	stw	r23,72(sp)
 1003538:	dec00915 	stw	sp,36(sp)
 100353c:	dec00b15 	stw	sp,44(sp)
 1003540:	100916c0 	call	100916c <_Unwind_SjLj_Register>
 1003544:	d8c01017 	ldw	r3,64(sp)
 1003548:	18800117 	ldw	r2,4(r3)
 100354c:	00c040b4 	movhi	r3,258
 1003550:	18fbfd04 	addi	r3,r3,-4108
 1003554:	10bffd04 	addi	r2,r2,-12
 1003558:	d8800e15 	stw	r2,56(sp)
 100355c:	d8801017 	ldw	r2,64(sp)
 1003560:	10c00015 	stw	r3,0(r2)
 1003564:	d8c00e17 	ldw	r3,56(sp)
 1003568:	008040b4 	movhi	r2,258
 100356c:	109bcf04 	addi	r2,r2,28476
 1003570:	1880091e 	bne	r3,r2,1003598 <_ZNSt13runtime_errorD1Ev+0x9c>
 1003574:	d9001017 	ldw	r4,64(sp)
 1003578:	100792c0 	call	100792c <_ZNSt9exceptionD2Ev>
 100357c:	d9000104 	addi	r4,sp,4
 1003580:	100917c0 	call	100917c <_Unwind_SjLj_Unregister>
 1003584:	dfc01417 	ldw	ra,80(sp)
 1003588:	df001317 	ldw	fp,76(sp)
 100358c:	ddc01217 	ldw	r23,72(sp)
 1003590:	dec01504 	addi	sp,sp,84
 1003594:	f800283a 	ret
 1003598:	00800044 	movi	r2,1
 100359c:	d8800215 	stw	r2,8(sp)
 10035a0:	19000204 	addi	r4,r3,8
 10035a4:	017fffc4 	movi	r5,-1
 10035a8:	10078e40 	call	10078e4 <_ZN9__gnu_cxx18__exchange_and_addEPVii>
 10035ac:	00bff116 	blt	zero,r2,1003574 <_ZNSt13runtime_errorD1Ev+0x78>
 10035b0:	d9000e17 	ldw	r4,56(sp)
 10035b4:	d80b883a 	mov	r5,sp
 10035b8:	10043740 	call	1004374 <_ZNSs4_Rep10_M_destroyERKSaIcE>
 10035bc:	003fed06 	br	1003574 <_ZNSt13runtime_errorD1Ev+0x78>
 10035c0:	d8800417 	ldw	r2,16(sp)
 10035c4:	d8c00317 	ldw	r3,12(sp)
 10035c8:	d9001017 	ldw	r4,64(sp)
 10035cc:	d8800f15 	stw	r2,60(sp)
 10035d0:	d8c01115 	stw	r3,68(sp)
 10035d4:	100792c0 	call	100792c <_ZNSt9exceptionD2Ev>
 10035d8:	d8c00f17 	ldw	r3,60(sp)
 10035dc:	00bfffc4 	movi	r2,-1
 10035e0:	18800326 	beq	r3,r2,10035f0 <_ZNSt13runtime_errorD1Ev+0xf4>
 10035e4:	d9001117 	ldw	r4,68(sp)
 10035e8:	d8800215 	stw	r2,8(sp)
 10035ec:	10094380 	call	1009438 <_Unwind_SjLj_Resume>
 10035f0:	d9001117 	ldw	r4,68(sp)
 10035f4:	00bfffc4 	movi	r2,-1
 10035f8:	d8800215 	stw	r2,8(sp)
 10035fc:	10081380 	call	1008138 <__cxa_call_unexpected>

01003600 <_ZNSt13runtime_errorD2Ev>:
 1003600:	deffeb04 	addi	sp,sp,-84
 1003604:	00804074 	movhi	r2,257
 1003608:	10a0ae04 	addi	r2,r2,-32072
 100360c:	00c040b4 	movhi	r3,258
 1003610:	18fb1504 	addi	r3,r3,-5036
 1003614:	d8800715 	stw	r2,28(sp)
 1003618:	d9001015 	stw	r4,64(sp)
 100361c:	00804034 	movhi	r2,256
 1003620:	108db104 	addi	r2,r2,14020
 1003624:	d9000104 	addi	r4,sp,4
 1003628:	d8c00815 	stw	r3,32(sp)
 100362c:	d8800a15 	stw	r2,40(sp)
 1003630:	dfc01415 	stw	ra,80(sp)
 1003634:	df001315 	stw	fp,76(sp)
 1003638:	ddc01215 	stw	r23,72(sp)
 100363c:	dec00915 	stw	sp,36(sp)
 1003640:	dec00b15 	stw	sp,44(sp)
 1003644:	100916c0 	call	100916c <_Unwind_SjLj_Register>
 1003648:	d8c01017 	ldw	r3,64(sp)
 100364c:	18800117 	ldw	r2,4(r3)
 1003650:	00c040b4 	movhi	r3,258
 1003654:	18fbfd04 	addi	r3,r3,-4108
 1003658:	10bffd04 	addi	r2,r2,-12
 100365c:	d8800e15 	stw	r2,56(sp)
 1003660:	d8801017 	ldw	r2,64(sp)
 1003664:	10c00015 	stw	r3,0(r2)
 1003668:	d8c00e17 	ldw	r3,56(sp)
 100366c:	008040b4 	movhi	r2,258
 1003670:	109bcf04 	addi	r2,r2,28476
 1003674:	1880091e 	bne	r3,r2,100369c <_ZNSt13runtime_errorD2Ev+0x9c>
 1003678:	d9001017 	ldw	r4,64(sp)
 100367c:	100792c0 	call	100792c <_ZNSt9exceptionD2Ev>
 1003680:	d9000104 	addi	r4,sp,4
 1003684:	100917c0 	call	100917c <_Unwind_SjLj_Unregister>
 1003688:	dfc01417 	ldw	ra,80(sp)
 100368c:	df001317 	ldw	fp,76(sp)
 1003690:	ddc01217 	ldw	r23,72(sp)
 1003694:	dec01504 	addi	sp,sp,84
 1003698:	f800283a 	ret
 100369c:	00800044 	movi	r2,1
 10036a0:	d8800215 	stw	r2,8(sp)
 10036a4:	19000204 	addi	r4,r3,8
 10036a8:	017fffc4 	movi	r5,-1
 10036ac:	10078e40 	call	10078e4 <_ZN9__gnu_cxx18__exchange_and_addEPVii>
 10036b0:	00bff116 	blt	zero,r2,1003678 <_ZNSt13runtime_errorD2Ev+0x78>
 10036b4:	d9000e17 	ldw	r4,56(sp)
 10036b8:	d80b883a 	mov	r5,sp
 10036bc:	10043740 	call	1004374 <_ZNSs4_Rep10_M_destroyERKSaIcE>
 10036c0:	003fed06 	br	1003678 <_ZNSt13runtime_errorD2Ev+0x78>
 10036c4:	d8800417 	ldw	r2,16(sp)
 10036c8:	d8c00317 	ldw	r3,12(sp)
 10036cc:	d9001017 	ldw	r4,64(sp)
 10036d0:	d8800f15 	stw	r2,60(sp)
 10036d4:	d8c01115 	stw	r3,68(sp)
 10036d8:	100792c0 	call	100792c <_ZNSt9exceptionD2Ev>
 10036dc:	d8c00f17 	ldw	r3,60(sp)
 10036e0:	00bfffc4 	movi	r2,-1
 10036e4:	18800326 	beq	r3,r2,10036f4 <_ZNSt13runtime_errorD2Ev+0xf4>
 10036e8:	d9001117 	ldw	r4,68(sp)
 10036ec:	d8800215 	stw	r2,8(sp)
 10036f0:	10094380 	call	1009438 <_Unwind_SjLj_Resume>
 10036f4:	d9001117 	ldw	r4,68(sp)
 10036f8:	00bfffc4 	movi	r2,-1
 10036fc:	d8800215 	stw	r2,8(sp)
 1003700:	10081380 	call	1008138 <__cxa_call_unexpected>

01003704 <_ZNSt13runtime_errorD0Ev>:
 1003704:	deffeb04 	addi	sp,sp,-84
 1003708:	00804074 	movhi	r2,257
 100370c:	10a0ae04 	addi	r2,r2,-32072
 1003710:	00c040b4 	movhi	r3,258
 1003714:	18fb1904 	addi	r3,r3,-5020
 1003718:	d8800715 	stw	r2,28(sp)
 100371c:	d9001015 	stw	r4,64(sp)
 1003720:	00804034 	movhi	r2,256
 1003724:	108df404 	addi	r2,r2,14288
 1003728:	d9000104 	addi	r4,sp,4
 100372c:	d8c00815 	stw	r3,32(sp)
 1003730:	d8800a15 	stw	r2,40(sp)
 1003734:	dfc01415 	stw	ra,80(sp)
 1003738:	df001315 	stw	fp,76(sp)
 100373c:	ddc01215 	stw	r23,72(sp)
 1003740:	dec00915 	stw	sp,36(sp)
 1003744:	dec00b15 	stw	sp,44(sp)
 1003748:	100916c0 	call	100916c <_Unwind_SjLj_Register>
 100374c:	d8c01017 	ldw	r3,64(sp)
 1003750:	18800117 	ldw	r2,4(r3)
 1003754:	00c040b4 	movhi	r3,258
 1003758:	18fbfd04 	addi	r3,r3,-4108
 100375c:	10bffd04 	addi	r2,r2,-12
 1003760:	d8800e15 	stw	r2,56(sp)
 1003764:	d8801017 	ldw	r2,64(sp)
 1003768:	10c00015 	stw	r3,0(r2)
 100376c:	d8c00e17 	ldw	r3,56(sp)
 1003770:	008040b4 	movhi	r2,258
 1003774:	109bcf04 	addi	r2,r2,28476
 1003778:	18800b1e 	bne	r3,r2,10037a8 <_ZNSt13runtime_errorD0Ev+0xa4>
 100377c:	d9001017 	ldw	r4,64(sp)
 1003780:	100792c0 	call	100792c <_ZNSt9exceptionD2Ev>
 1003784:	d9001017 	ldw	r4,64(sp)
 1003788:	1008a880 	call	1008a88 <_ZdlPv>
 100378c:	d9000104 	addi	r4,sp,4
 1003790:	100917c0 	call	100917c <_Unwind_SjLj_Unregister>
 1003794:	dfc01417 	ldw	ra,80(sp)
 1003798:	df001317 	ldw	fp,76(sp)
 100379c:	ddc01217 	ldw	r23,72(sp)
 10037a0:	dec01504 	addi	sp,sp,84
 10037a4:	f800283a 	ret
 10037a8:	00800044 	movi	r2,1
 10037ac:	d8800215 	stw	r2,8(sp)
 10037b0:	19000204 	addi	r4,r3,8
 10037b4:	017fffc4 	movi	r5,-1
 10037b8:	10078e40 	call	10078e4 <_ZN9__gnu_cxx18__exchange_and_addEPVii>
 10037bc:	00bfef16 	blt	zero,r2,100377c <_ZNSt13runtime_errorD0Ev+0x78>
 10037c0:	d9000e17 	ldw	r4,56(sp)
 10037c4:	d80b883a 	mov	r5,sp
 10037c8:	10043740 	call	1004374 <_ZNSs4_Rep10_M_destroyERKSaIcE>
 10037cc:	003feb06 	br	100377c <_ZNSt13runtime_errorD0Ev+0x78>
 10037d0:	d8800417 	ldw	r2,16(sp)
 10037d4:	d8c00317 	ldw	r3,12(sp)
 10037d8:	d9001017 	ldw	r4,64(sp)
 10037dc:	d8800f15 	stw	r2,60(sp)
 10037e0:	d8c01115 	stw	r3,68(sp)
 10037e4:	100792c0 	call	100792c <_ZNSt9exceptionD2Ev>
 10037e8:	d8c00f17 	ldw	r3,60(sp)
 10037ec:	00bfffc4 	movi	r2,-1
 10037f0:	18800326 	beq	r3,r2,1003800 <_ZNSt13runtime_errorD0Ev+0xfc>
 10037f4:	d9001117 	ldw	r4,68(sp)
 10037f8:	d8800215 	stw	r2,8(sp)
 10037fc:	10094380 	call	1009438 <_Unwind_SjLj_Resume>
 1003800:	d9001117 	ldw	r4,68(sp)
 1003804:	00bfffc4 	movi	r2,-1
 1003808:	d8800215 	stw	r2,8(sp)
 100380c:	10081380 	call	1008138 <__cxa_call_unexpected>

01003810 <_ZNSt11logic_errorD2Ev>:
 1003810:	deffeb04 	addi	sp,sp,-84
 1003814:	00804074 	movhi	r2,257
 1003818:	10a0ae04 	addi	r2,r2,-32072
 100381c:	00c040b4 	movhi	r3,258
 1003820:	18fb1d04 	addi	r3,r3,-5004
 1003824:	d8800715 	stw	r2,28(sp)
 1003828:	d9001015 	stw	r4,64(sp)
 100382c:	00804034 	movhi	r2,256
 1003830:	108e3504 	addi	r2,r2,14548
 1003834:	d9000104 	addi	r4,sp,4
 1003838:	d8c00815 	stw	r3,32(sp)
 100383c:	d8800a15 	stw	r2,40(sp)
 1003840:	dfc01415 	stw	ra,80(sp)
 1003844:	df001315 	stw	fp,76(sp)
 1003848:	ddc01215 	stw	r23,72(sp)
 100384c:	dec00915 	stw	sp,36(sp)
 1003850:	dec00b15 	stw	sp,44(sp)
 1003854:	100916c0 	call	100916c <_Unwind_SjLj_Register>
 1003858:	d8c01017 	ldw	r3,64(sp)
 100385c:	18800117 	ldw	r2,4(r3)
 1003860:	00c040b4 	movhi	r3,258
 1003864:	18fc0204 	addi	r3,r3,-4088
 1003868:	10bffd04 	addi	r2,r2,-12
 100386c:	d8800e15 	stw	r2,56(sp)
 1003870:	d8801017 	ldw	r2,64(sp)
 1003874:	10c00015 	stw	r3,0(r2)
 1003878:	d8c00e17 	ldw	r3,56(sp)
 100387c:	008040b4 	movhi	r2,258
 1003880:	109bcf04 	addi	r2,r2,28476
 1003884:	1880091e 	bne	r3,r2,10038ac <_ZNSt11logic_errorD2Ev+0x9c>
 1003888:	d9001017 	ldw	r4,64(sp)
 100388c:	100792c0 	call	100792c <_ZNSt9exceptionD2Ev>
 1003890:	d9000104 	addi	r4,sp,4
 1003894:	100917c0 	call	100917c <_Unwind_SjLj_Unregister>
 1003898:	dfc01417 	ldw	ra,80(sp)
 100389c:	df001317 	ldw	fp,76(sp)
 10038a0:	ddc01217 	ldw	r23,72(sp)
 10038a4:	dec01504 	addi	sp,sp,84
 10038a8:	f800283a 	ret
 10038ac:	00800044 	movi	r2,1
 10038b0:	d8800215 	stw	r2,8(sp)
 10038b4:	19000204 	addi	r4,r3,8
 10038b8:	017fffc4 	movi	r5,-1
 10038bc:	10078e40 	call	10078e4 <_ZN9__gnu_cxx18__exchange_and_addEPVii>
 10038c0:	00bff116 	blt	zero,r2,1003888 <_ZNSt11logic_errorD2Ev+0x78>
 10038c4:	d9000e17 	ldw	r4,56(sp)
 10038c8:	d80b883a 	mov	r5,sp
 10038cc:	10043740 	call	1004374 <_ZNSs4_Rep10_M_destroyERKSaIcE>
 10038d0:	003fed06 	br	1003888 <_ZNSt11logic_errorD2Ev+0x78>
 10038d4:	d8800417 	ldw	r2,16(sp)
 10038d8:	d8c00317 	ldw	r3,12(sp)
 10038dc:	d9001017 	ldw	r4,64(sp)
 10038e0:	d8800f15 	stw	r2,60(sp)
 10038e4:	d8c01115 	stw	r3,68(sp)
 10038e8:	100792c0 	call	100792c <_ZNSt9exceptionD2Ev>
 10038ec:	d8c00f17 	ldw	r3,60(sp)
 10038f0:	00bfffc4 	movi	r2,-1
 10038f4:	18800326 	beq	r3,r2,1003904 <_ZNSt11logic_errorD2Ev+0xf4>
 10038f8:	d9001117 	ldw	r4,68(sp)
 10038fc:	d8800215 	stw	r2,8(sp)
 1003900:	10094380 	call	1009438 <_Unwind_SjLj_Resume>
 1003904:	d9001117 	ldw	r4,68(sp)
 1003908:	00bfffc4 	movi	r2,-1
 100390c:	d8800215 	stw	r2,8(sp)
 1003910:	10081380 	call	1008138 <__cxa_call_unexpected>

01003914 <_ZNSt11logic_errorD0Ev>:
 1003914:	deffeb04 	addi	sp,sp,-84
 1003918:	00804074 	movhi	r2,257
 100391c:	10a0ae04 	addi	r2,r2,-32072
 1003920:	00c040b4 	movhi	r3,258
 1003924:	18fb2104 	addi	r3,r3,-4988
 1003928:	d8800715 	stw	r2,28(sp)
 100392c:	d9001015 	stw	r4,64(sp)
 1003930:	00804034 	movhi	r2,256
 1003934:	108e7804 	addi	r2,r2,14816
 1003938:	d9000104 	addi	r4,sp,4
 100393c:	d8c00815 	stw	r3,32(sp)
 1003940:	d8800a15 	stw	r2,40(sp)
 1003944:	dfc01415 	stw	ra,80(sp)
 1003948:	df001315 	stw	fp,76(sp)
 100394c:	ddc01215 	stw	r23,72(sp)
 1003950:	dec00915 	stw	sp,36(sp)
 1003954:	dec00b15 	stw	sp,44(sp)
 1003958:	100916c0 	call	100916c <_Unwind_SjLj_Register>
 100395c:	d8c01017 	ldw	r3,64(sp)
 1003960:	18800117 	ldw	r2,4(r3)
 1003964:	00c040b4 	movhi	r3,258
 1003968:	18fc0204 	addi	r3,r3,-4088
 100396c:	10bffd04 	addi	r2,r2,-12
 1003970:	d8800e15 	stw	r2,56(sp)
 1003974:	d8801017 	ldw	r2,64(sp)
 1003978:	10c00015 	stw	r3,0(r2)
 100397c:	d8c00e17 	ldw	r3,56(sp)
 1003980:	008040b4 	movhi	r2,258
 1003984:	109bcf04 	addi	r2,r2,28476
 1003988:	18800b1e 	bne	r3,r2,10039b8 <_ZNSt11logic_errorD0Ev+0xa4>
 100398c:	d9001017 	ldw	r4,64(sp)
 1003990:	100792c0 	call	100792c <_ZNSt9exceptionD2Ev>
 1003994:	d9001017 	ldw	r4,64(sp)
 1003998:	1008a880 	call	1008a88 <_ZdlPv>
 100399c:	d9000104 	addi	r4,sp,4
 10039a0:	100917c0 	call	100917c <_Unwind_SjLj_Unregister>
 10039a4:	dfc01417 	ldw	ra,80(sp)
 10039a8:	df001317 	ldw	fp,76(sp)
 10039ac:	ddc01217 	ldw	r23,72(sp)
 10039b0:	dec01504 	addi	sp,sp,84
 10039b4:	f800283a 	ret
 10039b8:	00800044 	movi	r2,1
 10039bc:	d8800215 	stw	r2,8(sp)
 10039c0:	19000204 	addi	r4,r3,8
 10039c4:	017fffc4 	movi	r5,-1
 10039c8:	10078e40 	call	10078e4 <_ZN9__gnu_cxx18__exchange_and_addEPVii>
 10039cc:	00bfef16 	blt	zero,r2,100398c <_ZNSt11logic_errorD0Ev+0x78>
 10039d0:	d9000e17 	ldw	r4,56(sp)
 10039d4:	d80b883a 	mov	r5,sp
 10039d8:	10043740 	call	1004374 <_ZNSs4_Rep10_M_destroyERKSaIcE>
 10039dc:	003feb06 	br	100398c <_ZNSt11logic_errorD0Ev+0x78>
 10039e0:	d8800417 	ldw	r2,16(sp)
 10039e4:	d8c00317 	ldw	r3,12(sp)
 10039e8:	d9001017 	ldw	r4,64(sp)
 10039ec:	d8800f15 	stw	r2,60(sp)
 10039f0:	d8c01115 	stw	r3,68(sp)
 10039f4:	100792c0 	call	100792c <_ZNSt9exceptionD2Ev>
 10039f8:	d8c00f17 	ldw	r3,60(sp)
 10039fc:	00bfffc4 	movi	r2,-1
 1003a00:	18800326 	beq	r3,r2,1003a10 <_ZNSt11logic_errorD0Ev+0xfc>
 1003a04:	d9001117 	ldw	r4,68(sp)
 1003a08:	d8800215 	stw	r2,8(sp)
 1003a0c:	10094380 	call	1009438 <_Unwind_SjLj_Resume>
 1003a10:	d9001117 	ldw	r4,68(sp)
 1003a14:	00bfffc4 	movi	r2,-1
 1003a18:	d8800215 	stw	r2,8(sp)
 1003a1c:	10081380 	call	1008138 <__cxa_call_unexpected>

01003a20 <_ZNSt11char_traitsIcE2eqERKcS2_>:
 1003a20:	20c00007 	ldb	r3,0(r4)
 1003a24:	28800007 	ldb	r2,0(r5)
 1003a28:	1885003a 	cmpeq	r2,r3,r2
 1003a2c:	f800283a 	ret

01003a30 <_ZNKSs7_M_dataEv>:
 1003a30:	20800017 	ldw	r2,0(r4)
 1003a34:	f800283a 	ret

01003a38 <_ZNSs7_M_dataEPc>:
 1003a38:	2805883a 	mov	r2,r5
 1003a3c:	21400015 	stw	r5,0(r4)
 1003a40:	f800283a 	ret

01003a44 <_ZNKSs6_M_repEv>:
 1003a44:	20800017 	ldw	r2,0(r4)
 1003a48:	10bffd04 	addi	r2,r2,-12
 1003a4c:	f800283a 	ret

01003a50 <_ZNKSs9_M_ibeginEv>:
 1003a50:	20800017 	ldw	r2,0(r4)
 1003a54:	f800283a 	ret

01003a58 <_ZNKSs7_M_iendEv>:
 1003a58:	20c00017 	ldw	r3,0(r4)
 1003a5c:	18bffd17 	ldw	r2,-12(r3)
 1003a60:	1885883a 	add	r2,r3,r2
 1003a64:	f800283a 	ret

01003a68 <_ZNKSs8_M_limitEmm>:
 1003a68:	20c00017 	ldw	r3,0(r4)
 1003a6c:	18bffd17 	ldw	r2,-12(r3)
 1003a70:	1145c83a 	sub	r2,r2,r5
 1003a74:	3080012e 	bgeu	r6,r2,1003a7c <_ZNKSs8_M_limitEmm+0x14>
 1003a78:	3005883a 	mov	r2,r6
 1003a7c:	f800283a 	ret

01003a80 <_ZNKSs11_M_disjunctEPKc>:
 1003a80:	21000017 	ldw	r4,0(r4)
 1003a84:	00800044 	movi	r2,1
 1003a88:	29000336 	bltu	r5,r4,1003a98 <_ZNKSs11_M_disjunctEPKc+0x18>
 1003a8c:	20bffd17 	ldw	r2,-12(r4)
 1003a90:	2085883a 	add	r2,r4,r2
 1003a94:	1145803a 	cmpltu	r2,r2,r5
 1003a98:	f800283a 	ret

01003a9c <_ZNSs12_S_empty_repEv>:
 1003a9c:	008040b4 	movhi	r2,258
 1003aa0:	109bcf04 	addi	r2,r2,28476
 1003aa4:	f800283a 	ret

01003aa8 <_ZNSsC1Ev>:
 1003aa8:	008040b4 	movhi	r2,258
 1003aac:	109bd204 	addi	r2,r2,28488
 1003ab0:	20800015 	stw	r2,0(r4)
 1003ab4:	f800283a 	ret

01003ab8 <_ZNKSs5beginEv>:
 1003ab8:	20800017 	ldw	r2,0(r4)
 1003abc:	f800283a 	ret

01003ac0 <_ZNKSs3endEv>:
 1003ac0:	20c00017 	ldw	r3,0(r4)
 1003ac4:	18bffd17 	ldw	r2,-12(r3)
 1003ac8:	1885883a 	add	r2,r3,r2
 1003acc:	f800283a 	ret

01003ad0 <_ZNKSs4sizeEv>:
 1003ad0:	20c00017 	ldw	r3,0(r4)
 1003ad4:	18bffd17 	ldw	r2,-12(r3)
 1003ad8:	f800283a 	ret

01003adc <_ZNKSs8max_sizeEv>:
 1003adc:	00900034 	movhi	r2,16384
 1003ae0:	10bfff04 	addi	r2,r2,-4
 1003ae4:	f800283a 	ret

01003ae8 <_ZNKSs8capacityEv>:
 1003ae8:	20c00017 	ldw	r3,0(r4)
 1003aec:	18bffe17 	ldw	r2,-8(r3)
 1003af0:	f800283a 	ret

01003af4 <_ZNKSs4dataEv>:
 1003af4:	20800017 	ldw	r2,0(r4)
 1003af8:	f800283a 	ret

01003afc <_ZNKSs13get_allocatorEv>:
 1003afc:	2005883a 	mov	r2,r4
 1003b00:	f800283a 	ret

01003b04 <_ZNSs12_Alloc_hiderC1EPcRKSaIcE>:
 1003b04:	21400015 	stw	r5,0(r4)
 1003b08:	f800283a 	ret

01003b0c <_ZNSs4_Rep12_S_empty_repEv>:
 1003b0c:	008040b4 	movhi	r2,258
 1003b10:	109bcf04 	addi	r2,r2,28476
 1003b14:	f800283a 	ret

01003b18 <_ZNKSs4_Rep12_M_is_leakedEv>:
 1003b18:	20800217 	ldw	r2,8(r4)
 1003b1c:	1004d7fa 	srli	r2,r2,31
 1003b20:	f800283a 	ret

01003b24 <_ZNKSs4_Rep12_M_is_sharedEv>:
 1003b24:	20800217 	ldw	r2,8(r4)
 1003b28:	0084803a 	cmplt	r2,zero,r2
 1003b2c:	f800283a 	ret

01003b30 <_ZNSs4_Rep13_M_set_leakedEv>:
 1003b30:	00bfffc4 	movi	r2,-1
 1003b34:	20800215 	stw	r2,8(r4)
 1003b38:	f800283a 	ret

01003b3c <_ZNSs4_Rep15_M_set_sharableEv>:
 1003b3c:	20000215 	stw	zero,8(r4)
 1003b40:	f800283a 	ret

01003b44 <_ZNSs4_Rep26_M_set_length_and_sharableEm>:
 1003b44:	2145883a 	add	r2,r4,r5
 1003b48:	20000215 	stw	zero,8(r4)
 1003b4c:	21400015 	stw	r5,0(r4)
 1003b50:	10000305 	stb	zero,12(r2)
 1003b54:	f800283a 	ret

01003b58 <_ZNSs4_Rep10_M_refdataEv>:
 1003b58:	20800304 	addi	r2,r4,12
 1003b5c:	f800283a 	ret

01003b60 <_ZSt6searchIPKcS1_PFbRS0_S2_EET_S5_S5_T0_S6_T1_>:
 1003b60:	defff504 	addi	sp,sp,-44
 1003b64:	dd400615 	stw	r21,24(sp)
 1003b68:	dd000515 	stw	r20,20(sp)
 1003b6c:	dcc00415 	stw	r19,16(sp)
 1003b70:	dc800315 	stw	r18,12(sp)
 1003b74:	dc400215 	stw	r17,8(sp)
 1003b78:	dfc00a15 	stw	ra,40(sp)
 1003b7c:	df000915 	stw	fp,36(sp)
 1003b80:	ddc00815 	stw	r23,32(sp)
 1003b84:	dd800715 	stw	r22,28(sp)
 1003b88:	dc000115 	stw	r16,4(sp)
 1003b8c:	2025883a 	mov	r18,r4
 1003b90:	2823883a 	mov	r17,r5
 1003b94:	3027883a 	mov	r19,r6
 1003b98:	382b883a 	mov	r21,r7
 1003b9c:	dd000b17 	ldw	r20,44(sp)
 1003ba0:	21400d26 	beq	r4,r5,1003bd8 <_ZSt6searchIPKcS1_PFbRS0_S2_EET_S5_S5_T0_S6_T1_+0x78>
 1003ba4:	31c00c26 	beq	r6,r7,1003bd8 <_ZSt6searchIPKcS1_PFbRS0_S2_EET_S5_S5_T0_S6_T1_+0x78>
 1003ba8:	30800044 	addi	r2,r6,1
 1003bac:	d8800015 	stw	r2,0(sp)
 1003bb0:	38803226 	beq	r7,r2,1003c7c <_ZSt6searchIPKcS1_PFbRS0_S2_EET_S5_S5_T0_S6_T1_+0x11c>
 1003bb4:	9021883a 	mov	r16,r18
 1003bb8:	8009883a 	mov	r4,r16
 1003bbc:	980b883a 	mov	r5,r19
 1003bc0:	a03ee83a 	callr	r20
 1003bc4:	10803fcc 	andi	r2,r2,255
 1003bc8:	1000101e 	bne	r2,zero,1003c0c <_ZSt6searchIPKcS1_PFbRS0_S2_EET_S5_S5_T0_S6_T1_+0xac>
 1003bcc:	84000044 	addi	r16,r16,1
 1003bd0:	847ff91e 	bne	r16,r17,1003bb8 <_ZSt6searchIPKcS1_PFbRS0_S2_EET_S5_S5_T0_S6_T1_+0x58>
 1003bd4:	8825883a 	mov	r18,r17
 1003bd8:	9005883a 	mov	r2,r18
 1003bdc:	dfc00a17 	ldw	ra,40(sp)
 1003be0:	df000917 	ldw	fp,36(sp)
 1003be4:	ddc00817 	ldw	r23,32(sp)
 1003be8:	dd800717 	ldw	r22,28(sp)
 1003bec:	dd400617 	ldw	r21,24(sp)
 1003bf0:	dd000517 	ldw	r20,20(sp)
 1003bf4:	dcc00417 	ldw	r19,16(sp)
 1003bf8:	dc800317 	ldw	r18,12(sp)
 1003bfc:	dc400217 	ldw	r17,8(sp)
 1003c00:	dc000117 	ldw	r16,4(sp)
 1003c04:	dec00b04 	addi	sp,sp,44
 1003c08:	f800283a 	ret
 1003c0c:	8c3ff126 	beq	r17,r16,1003bd4 <_ZSt6searchIPKcS1_PFbRS0_S2_EET_S5_S5_T0_S6_T1_+0x74>
 1003c10:	8825883a 	mov	r18,r17
 1003c14:	00000206 	br	1003c20 <_ZSt6searchIPKcS1_PFbRS0_S2_EET_S5_S5_T0_S6_T1_+0xc0>
 1003c18:	84000044 	addi	r16,r16,1
 1003c1c:	84bfed26 	beq	r16,r18,1003bd4 <_ZSt6searchIPKcS1_PFbRS0_S2_EET_S5_S5_T0_S6_T1_+0x74>
 1003c20:	8009883a 	mov	r4,r16
 1003c24:	980b883a 	mov	r5,r19
 1003c28:	a03ee83a 	callr	r20
 1003c2c:	10803fcc 	andi	r2,r2,255
 1003c30:	103ff926 	beq	r2,zero,1003c18 <_ZSt6searchIPKcS1_PFbRS0_S2_EET_S5_S5_T0_S6_T1_+0xb8>
 1003c34:	87000044 	addi	fp,r16,1
 1003c38:	8f001a26 	beq	r17,fp,1003ca4 <_ZSt6searchIPKcS1_PFbRS0_S2_EET_S5_S5_T0_S6_T1_+0x144>
 1003c3c:	dd800017 	ldw	r22,0(sp)
 1003c40:	e02f883a 	mov	r23,fp
 1003c44:	b809883a 	mov	r4,r23
 1003c48:	b00b883a 	mov	r5,r22
 1003c4c:	a03ee83a 	callr	r20
 1003c50:	8c07c83a 	sub	r3,r17,r16
 1003c54:	10803fcc 	andi	r2,r2,255
 1003c58:	98c7883a 	add	r3,r19,r3
 1003c5c:	b5800044 	addi	r22,r22,1
 1003c60:	bdc00044 	addi	r23,r23,1
 1003c64:	e025883a 	mov	r18,fp
 1003c68:	103fd226 	beq	r2,zero,1003bb4 <_ZSt6searchIPKcS1_PFbRS0_S2_EET_S5_S5_T0_S6_T1_+0x54>
 1003c6c:	ad800b26 	beq	r21,r22,1003c9c <_ZSt6searchIPKcS1_PFbRS0_S2_EET_S5_S5_T0_S6_T1_+0x13c>
 1003c70:	b0fff41e 	bne	r22,r3,1003c44 <_ZSt6searchIPKcS1_PFbRS0_S2_EET_S5_S5_T0_S6_T1_+0xe4>
 1003c74:	b825883a 	mov	r18,r23
 1003c78:	003fd706 	br	1003bd8 <_ZSt6searchIPKcS1_PFbRS0_S2_EET_S5_S5_T0_S6_T1_+0x78>
 1003c7c:	2021883a 	mov	r16,r4
 1003c80:	8009883a 	mov	r4,r16
 1003c84:	980b883a 	mov	r5,r19
 1003c88:	a03ee83a 	callr	r20
 1003c8c:	10803fcc 	andi	r2,r2,255
 1003c90:	1000021e 	bne	r2,zero,1003c9c <_ZSt6searchIPKcS1_PFbRS0_S2_EET_S5_S5_T0_S6_T1_+0x13c>
 1003c94:	84000044 	addi	r16,r16,1
 1003c98:	8c3ff91e 	bne	r17,r16,1003c80 <_ZSt6searchIPKcS1_PFbRS0_S2_EET_S5_S5_T0_S6_T1_+0x120>
 1003c9c:	8025883a 	mov	r18,r16
 1003ca0:	003fcd06 	br	1003bd8 <_ZSt6searchIPKcS1_PFbRS0_S2_EET_S5_S5_T0_S6_T1_+0x78>
 1003ca4:	e025883a 	mov	r18,fp
 1003ca8:	003fcb06 	br	1003bd8 <_ZSt6searchIPKcS1_PFbRS0_S2_EET_S5_S5_T0_S6_T1_+0x78>

01003cac <_ZN9__gnu_cxxeqIPcSsEEbRKNS_17__normal_iteratorIT_T0_EES7_>:
 1003cac:	20c00017 	ldw	r3,0(r4)
 1003cb0:	28800017 	ldw	r2,0(r5)
 1003cb4:	1885003a 	cmpeq	r2,r3,r2
 1003cb8:	f800283a 	ret

01003cbc <_ZNSs12_Alloc_hiderC2EPcRKSaIcE>:
 1003cbc:	21400015 	stw	r5,0(r4)
 1003cc0:	f800283a 	ret

01003cc4 <_ZNSs4_Rep10_M_refcopyEv>:
 1003cc4:	deffee04 	addi	sp,sp,-72
 1003cc8:	00804074 	movhi	r2,257
 1003ccc:	10a0ae04 	addi	r2,r2,-32072
 1003cd0:	00c040b4 	movhi	r3,258
 1003cd4:	18fb2504 	addi	r3,r3,-4972
 1003cd8:	d8800615 	stw	r2,24(sp)
 1003cdc:	d9000d15 	stw	r4,52(sp)
 1003ce0:	00804034 	movhi	r2,256
 1003ce4:	108f5704 	addi	r2,r2,15708
 1003ce8:	d809883a 	mov	r4,sp
 1003cec:	d8c00715 	stw	r3,28(sp)
 1003cf0:	d8800915 	stw	r2,36(sp)
 1003cf4:	dfc01115 	stw	ra,68(sp)
 1003cf8:	df001015 	stw	fp,64(sp)
 1003cfc:	ddc00f15 	stw	r23,60(sp)
 1003d00:	dec00815 	stw	sp,32(sp)
 1003d04:	dec00a15 	stw	sp,40(sp)
 1003d08:	100916c0 	call	100916c <_Unwind_SjLj_Register>
 1003d0c:	d8c00d17 	ldw	r3,52(sp)
 1003d10:	008040b4 	movhi	r2,258
 1003d14:	109bcf04 	addi	r2,r2,28476
 1003d18:	18800b1e 	bne	r3,r2,1003d48 <_ZNSs4_Rep10_M_refcopyEv+0x84>
 1003d1c:	d8800d17 	ldw	r2,52(sp)
 1003d20:	d809883a 	mov	r4,sp
 1003d24:	10800304 	addi	r2,r2,12
 1003d28:	d8800e15 	stw	r2,56(sp)
 1003d2c:	100917c0 	call	100917c <_Unwind_SjLj_Unregister>
 1003d30:	d8800e17 	ldw	r2,56(sp)
 1003d34:	dfc01117 	ldw	ra,68(sp)
 1003d38:	df001017 	ldw	fp,64(sp)
 1003d3c:	ddc00f17 	ldw	r23,60(sp)
 1003d40:	dec01204 	addi	sp,sp,72
 1003d44:	f800283a 	ret
 1003d48:	01400044 	movi	r5,1
 1003d4c:	d9400115 	stw	r5,4(sp)
 1003d50:	19000204 	addi	r4,r3,8
 1003d54:	10078f80 	call	10078f8 <_ZN9__gnu_cxx12__atomic_addEPVii>
 1003d58:	003ff006 	br	1003d1c <_ZNSs4_Rep10_M_refcopyEv+0x58>
 1003d5c:	d8800317 	ldw	r2,12(sp)
 1003d60:	00ffffc4 	movi	r3,-1
 1003d64:	d9000217 	ldw	r4,8(sp)
 1003d68:	10c00226 	beq	r2,r3,1003d74 <_ZNSs4_Rep10_M_refcopyEv+0xb0>
 1003d6c:	d8c00115 	stw	r3,4(sp)
 1003d70:	10094380 	call	1009438 <_Unwind_SjLj_Resume>
 1003d74:	00bfffc4 	movi	r2,-1
 1003d78:	d8800115 	stw	r2,4(sp)
 1003d7c:	10081380 	call	1008138 <__cxa_call_unexpected>

01003d80 <_ZNKSs15_M_check_lengthEmmPKc>:
 1003d80:	20800017 	ldw	r2,0(r4)
 1003d84:	deffff04 	addi	sp,sp,-4
 1003d88:	dfc00015 	stw	ra,0(sp)
 1003d8c:	10fffd17 	ldw	r3,-12(r2)
 1003d90:	00900034 	movhi	r2,16384
 1003d94:	10bfff04 	addi	r2,r2,-4
 1003d98:	1947c83a 	sub	r3,r3,r5
 1003d9c:	10c5c83a 	sub	r2,r2,r3
 1003da0:	11800336 	bltu	r2,r6,1003db0 <_ZNKSs15_M_check_lengthEmmPKc+0x30>
 1003da4:	dfc00017 	ldw	ra,0(sp)
 1003da8:	dec00104 	addi	sp,sp,4
 1003dac:	f800283a 	ret
 1003db0:	3809883a 	mov	r4,r7
 1003db4:	10025440 	call	1002544 <_ZSt20__throw_length_errorPKc>

01003db8 <_ZNKSs8_M_checkEmPKc>:
 1003db8:	20c00017 	ldw	r3,0(r4)
 1003dbc:	deffff04 	addi	sp,sp,-4
 1003dc0:	dfc00015 	stw	ra,0(sp)
 1003dc4:	18bffd17 	ldw	r2,-12(r3)
 1003dc8:	11400436 	bltu	r2,r5,1003ddc <_ZNKSs8_M_checkEmPKc+0x24>
 1003dcc:	2805883a 	mov	r2,r5
 1003dd0:	dfc00017 	ldw	ra,0(sp)
 1003dd4:	dec00104 	addi	sp,sp,4
 1003dd8:	f800283a 	ret
 1003ddc:	3009883a 	mov	r4,r6
 1003de0:	10023b40 	call	10023b4 <_ZSt20__throw_out_of_rangePKc>

01003de4 <_ZNSs9_M_assignEPcmc>:
 1003de4:	3011883a 	mov	r8,r6
 1003de8:	2807883a 	mov	r3,r5
 1003dec:	280d883a 	mov	r6,r5
 1003df0:	41403fcc 	andi	r5,r8,255
 1003df4:	2940201c 	xori	r5,r5,128
 1003df8:	01c00044 	movi	r7,1
 1003dfc:	297fe004 	addi	r5,r5,-128
 1003e00:	19c00126 	beq	r3,r7,1003e08 <_ZNSs9_M_assignEPcmc+0x24>
 1003e04:	100a10c1 	jmpi	100a10c <memset>
 1003e08:	22000005 	stb	r8,0(r4)
 1003e0c:	f800283a 	ret

01003e10 <_ZNSs7_M_moveEPcPKcm>:
 1003e10:	00800044 	movi	r2,1
 1003e14:	30800126 	beq	r6,r2,1003e1c <_ZNSs7_M_moveEPcPKcm+0xc>
 1003e18:	100a02c1 	jmpi	100a02c <memmove>
 1003e1c:	28800003 	ldbu	r2,0(r5)
 1003e20:	20800005 	stb	r2,0(r4)
 1003e24:	f800283a 	ret

01003e28 <_ZNSs7_M_copyEPcPKcm>:
 1003e28:	00800044 	movi	r2,1
 1003e2c:	30800126 	beq	r6,r2,1003e34 <_ZNSs7_M_copyEPcPKcm+0xc>
 1003e30:	1009f8c1 	jmpi	1009f8c <memcpy>
 1003e34:	28800003 	ldbu	r2,0(r5)
 1003e38:	20800005 	stb	r2,0(r4)
 1003e3c:	f800283a 	ret

01003e40 <_ZNKSs5c_strEv>:
 1003e40:	20800017 	ldw	r2,0(r4)
 1003e44:	f800283a 	ret

01003e48 <_ZNKSsixEm>:
 1003e48:	20800017 	ldw	r2,0(r4)
 1003e4c:	2885883a 	add	r2,r5,r2
 1003e50:	f800283a 	ret

01003e54 <_ZNKSs17find_first_not_ofEPKcmm>:
 1003e54:	20c00017 	ldw	r3,0(r4)
 1003e58:	defffb04 	addi	sp,sp,-20
 1003e5c:	dcc00315 	stw	r19,12(sp)
 1003e60:	18bffd17 	ldw	r2,-12(r3)
 1003e64:	dc800215 	stw	r18,8(sp)
 1003e68:	dc400115 	stw	r17,4(sp)
 1003e6c:	dc000015 	stw	r16,0(sp)
 1003e70:	dfc00415 	stw	ra,16(sp)
 1003e74:	2027883a 	mov	r19,r4
 1003e78:	3021883a 	mov	r16,r6
 1003e7c:	2825883a 	mov	r18,r5
 1003e80:	3823883a 	mov	r17,r7
 1003e84:	30800536 	bltu	r6,r2,1003e9c <_ZNKSs17find_first_not_ofEPKcmm+0x48>
 1003e88:	00001206 	br	1003ed4 <_ZNKSs17find_first_not_ofEPKcmm+0x80>
 1003e8c:	98c00017 	ldw	r3,0(r19)
 1003e90:	84000044 	addi	r16,r16,1
 1003e94:	18bffd17 	ldw	r2,-12(r3)
 1003e98:	80800e2e 	bgeu	r16,r2,1003ed4 <_ZNKSs17find_first_not_ofEPKcmm+0x80>
 1003e9c:	1c05883a 	add	r2,r3,r16
 1003ea0:	11400007 	ldb	r5,0(r2)
 1003ea4:	9009883a 	mov	r4,r18
 1003ea8:	880d883a 	mov	r6,r17
 1003eac:	1009e340 	call	1009e34 <memchr>
 1003eb0:	103ff61e 	bne	r2,zero,1003e8c <_ZNKSs17find_first_not_ofEPKcmm+0x38>
 1003eb4:	8005883a 	mov	r2,r16
 1003eb8:	dfc00417 	ldw	ra,16(sp)
 1003ebc:	dcc00317 	ldw	r19,12(sp)
 1003ec0:	dc800217 	ldw	r18,8(sp)
 1003ec4:	dc400117 	ldw	r17,4(sp)
 1003ec8:	dc000017 	ldw	r16,0(sp)
 1003ecc:	dec00504 	addi	sp,sp,20
 1003ed0:	f800283a 	ret
 1003ed4:	043fffc4 	movi	r16,-1
 1003ed8:	8005883a 	mov	r2,r16
 1003edc:	dfc00417 	ldw	ra,16(sp)
 1003ee0:	dcc00317 	ldw	r19,12(sp)
 1003ee4:	dc800217 	ldw	r18,8(sp)
 1003ee8:	dc400117 	ldw	r17,4(sp)
 1003eec:	dc000017 	ldw	r16,0(sp)
 1003ef0:	dec00504 	addi	sp,sp,20
 1003ef4:	f800283a 	ret

01003ef8 <_ZNKSs4findEPKcmm>:
 1003ef8:	defffb04 	addi	sp,sp,-20
 1003efc:	dc000115 	stw	r16,4(sp)
 1003f00:	24000017 	ldw	r16,0(r4)
 1003f04:	31c7883a 	add	r3,r6,r7
 1003f08:	dc800315 	stw	r18,12(sp)
 1003f0c:	823ffd17 	ldw	r8,-12(r16)
 1003f10:	8189883a 	add	r4,r16,r6
 1003f14:	280d883a 	mov	r6,r5
 1003f18:	8225883a 	add	r18,r16,r8
 1003f1c:	dc400215 	stw	r17,8(sp)
 1003f20:	dfc00415 	stw	ra,16(sp)
 1003f24:	3823883a 	mov	r17,r7
 1003f28:	900b883a 	mov	r5,r18
 1003f2c:	398f883a 	add	r7,r7,r6
 1003f30:	40c0082e 	bgeu	r8,r3,1003f54 <_ZNKSs4findEPKcmm+0x5c>
 1003f34:	00ffffc4 	movi	r3,-1
 1003f38:	1805883a 	mov	r2,r3
 1003f3c:	dfc00417 	ldw	ra,16(sp)
 1003f40:	dc800317 	ldw	r18,12(sp)
 1003f44:	dc400217 	ldw	r17,8(sp)
 1003f48:	dc000117 	ldw	r16,4(sp)
 1003f4c:	dec00504 	addi	sp,sp,20
 1003f50:	f800283a 	ret
 1003f54:	00804034 	movhi	r2,256
 1003f58:	108e8804 	addi	r2,r2,14880
 1003f5c:	d8800015 	stw	r2,0(sp)
 1003f60:	1003b600 	call	1003b60 <_ZSt6searchIPKcS1_PFbRS0_S2_EET_S5_S5_T0_S6_T1_>
 1003f64:	1407c83a 	sub	r3,r2,r16
 1003f68:	90bff31e 	bne	r18,r2,1003f38 <_ZNKSs4findEPKcmm+0x40>
 1003f6c:	883ff11e 	bne	r17,zero,1003f34 <_ZNKSs4findEPKcmm+0x3c>
 1003f70:	1805883a 	mov	r2,r3
 1003f74:	dfc00417 	ldw	ra,16(sp)
 1003f78:	dc800317 	ldw	r18,12(sp)
 1003f7c:	dc400217 	ldw	r17,8(sp)
 1003f80:	dc000117 	ldw	r16,4(sp)
 1003f84:	dec00504 	addi	sp,sp,20
 1003f88:	f800283a 	ret

01003f8c <_ZNKSs2atEm>:
 1003f8c:	21000017 	ldw	r4,0(r4)
 1003f90:	deffff04 	addi	sp,sp,-4
 1003f94:	dfc00015 	stw	ra,0(sp)
 1003f98:	20bffd17 	ldw	r2,-12(r4)
 1003f9c:	2880042e 	bgeu	r5,r2,1003fb0 <_ZNKSs2atEm+0x24>
 1003fa0:	2145883a 	add	r2,r4,r5
 1003fa4:	dfc00017 	ldw	ra,0(sp)
 1003fa8:	dec00104 	addi	sp,sp,4
 1003fac:	f800283a 	ret
 1003fb0:	010040b4 	movhi	r4,258
 1003fb4:	213c1404 	addi	r4,r4,-4016
 1003fb8:	10023b40 	call	10023b4 <_ZSt20__throw_out_of_rangePKc>

01003fbc <_ZNKSs5emptyEv>:
 1003fbc:	20c00017 	ldw	r3,0(r4)
 1003fc0:	18bffd17 	ldw	r2,-12(r3)
 1003fc4:	1005003a 	cmpeq	r2,r2,zero
 1003fc8:	f800283a 	ret

01003fcc <_ZNKSs6lengthEv>:
 1003fcc:	20c00017 	ldw	r3,0(r4)
 1003fd0:	18bffd17 	ldw	r2,-12(r3)
 1003fd4:	f800283a 	ret

01003fd8 <_ZNKSs4findERKSsm>:
 1003fd8:	29400017 	ldw	r5,0(r5)
 1003fdc:	29fffd17 	ldw	r7,-12(r5)
 1003fe0:	1003ef81 	jmpi	1003ef8 <_ZNKSs4findEPKcmm>

01003fe4 <_ZNKSs17find_first_not_ofERKSsm>:
 1003fe4:	29400017 	ldw	r5,0(r5)
 1003fe8:	29fffd17 	ldw	r7,-12(r5)
 1003fec:	1003e541 	jmpi	1003e54 <_ZNKSs17find_first_not_ofEPKcmm>

01003ff0 <_ZNKSs5rfindEPKcmm>:
 1003ff0:	defff804 	addi	sp,sp,-32
 1003ff4:	dc800415 	stw	r18,16(sp)
 1003ff8:	24800017 	ldw	r18,0(r4)
 1003ffc:	dcc00515 	stw	r19,20(sp)
 1004000:	dc400315 	stw	r17,12(sp)
 1004004:	90bffd17 	ldw	r2,-12(r18)
 1004008:	dfc00715 	stw	ra,28(sp)
 100400c:	dd000615 	stw	r20,24(sp)
 1004010:	dc000215 	stw	r16,8(sp)
 1004014:	3823883a 	mov	r17,r7
 1004018:	2827883a 	mov	r19,r5
 100401c:	d9800115 	stw	r6,4(sp)
 1004020:	11c01136 	bltu	r2,r7,1004068 <_ZNKSs5rfindEPKcmm+0x78>
 1004024:	11c5c83a 	sub	r2,r2,r7
 1004028:	d8800015 	stw	r2,0(sp)
 100402c:	3080182e 	bgeu	r6,r2,1004090 <_ZNKSs5rfindEPKcmm+0xa0>
 1004030:	d8800104 	addi	r2,sp,4
 1004034:	10800017 	ldw	r2,0(r2)
 1004038:	053fffc4 	movi	r20,-1
 100403c:	d8800115 	stw	r2,4(sp)
 1004040:	00000106 	br	1004048 <_ZNKSs5rfindEPKcmm+0x58>
 1004044:	d8c00115 	stw	r3,4(sp)
 1004048:	dc000117 	ldw	r16,4(sp)
 100404c:	980b883a 	mov	r5,r19
 1004050:	880d883a 	mov	r6,r17
 1004054:	9409883a 	add	r4,r18,r16
 1004058:	1009f180 	call	1009f18 <memcmp>
 100405c:	80ffffc4 	addi	r3,r16,-1
 1004060:	10000226 	beq	r2,zero,100406c <_ZNKSs5rfindEPKcmm+0x7c>
 1004064:	1d3ff71e 	bne	r3,r20,1004044 <_ZNKSs5rfindEPKcmm+0x54>
 1004068:	043fffc4 	movi	r16,-1
 100406c:	8005883a 	mov	r2,r16
 1004070:	dfc00717 	ldw	ra,28(sp)
 1004074:	dd000617 	ldw	r20,24(sp)
 1004078:	dcc00517 	ldw	r19,20(sp)
 100407c:	dc800417 	ldw	r18,16(sp)
 1004080:	dc400317 	ldw	r17,12(sp)
 1004084:	dc000217 	ldw	r16,8(sp)
 1004088:	dec00804 	addi	sp,sp,32
 100408c:	f800283a 	ret
 1004090:	d805883a 	mov	r2,sp
 1004094:	003fe706 	br	1004034 <_ZNKSs5rfindEPKcmm+0x44>

01004098 <_ZNKSs5rfindEPKcm>:
 1004098:	defffc04 	addi	sp,sp,-16
 100409c:	dd400215 	stw	r21,8(sp)
 10040a0:	dcc00115 	stw	r19,4(sp)
 10040a4:	dc400015 	stw	r17,0(sp)
 10040a8:	2027883a 	mov	r19,r4
 10040ac:	dfc00315 	stw	ra,12(sp)
 10040b0:	2809883a 	mov	r4,r5
 10040b4:	2823883a 	mov	r17,r5
 10040b8:	302b883a 	mov	r21,r6
 10040bc:	100a5dc0 	call	100a5dc <strlen>
 10040c0:	880b883a 	mov	r5,r17
 10040c4:	9809883a 	mov	r4,r19
 10040c8:	a80d883a 	mov	r6,r21
 10040cc:	100f883a 	mov	r7,r2
 10040d0:	dfc00317 	ldw	ra,12(sp)
 10040d4:	dd400217 	ldw	r21,8(sp)
 10040d8:	dcc00117 	ldw	r19,4(sp)
 10040dc:	dc400017 	ldw	r17,0(sp)
 10040e0:	dec00404 	addi	sp,sp,16
