
MCTest.elf:     file format elf32-littlenios2
MCTest.elf
architecture: nios2, flags 0x00000112:
EXEC_P, HAS_SYMS, D_PAGED
start address 0x010001c0

Program Header:
    LOAD off    0x00001000 vaddr 0x01000000 paddr 0x01000000 align 2**12
         filesz 0x00000020 memsz 0x00000020 flags r-x
    LOAD off    0x00001020 vaddr 0x01000020 paddr 0x01000020 align 2**12
         filesz 0x00021ba0 memsz 0x00021ba0 flags r-x
    LOAD off    0x00022bc0 vaddr 0x01021bc0 paddr 0x010237d4 align 2**12
         filesz 0x00001c14 memsz 0x00001c14 flags rw-
    LOAD off    0x000253e8 vaddr 0x010253e8 paddr 0x010253e8 align 2**12
         filesz 0x00000000 memsz 0x00007dc0 flags rw-

Sections:
Idx Name          Size      VMA       LMA       File off  Algn
  0 .entry        00000020  01000000  01000000  00001000  2**5
                  CONTENTS, ALLOC, LOAD, READONLY, CODE
  1 .exceptions   000001a0  01000020  01000020  00001020  2**2
                  CONTENTS, ALLOC, LOAD, READONLY, CODE
  2 .text         00020c40  010001c0  010001c0  000011c0  2**2
                  CONTENTS, ALLOC, LOAD, READONLY, CODE
  3 .rodata       00000dc0  01020e00  01020e00  00021e00  2**2
                  CONTENTS, ALLOC, LOAD, READONLY, DATA
  4 .rwdata       00001c14  01021bc0  010237d4  00022bc0  2**2
                  CONTENTS, ALLOC, LOAD, DATA, SMALL_DATA
  5 .bss          00007dc0  010253e8  010253e8  000253e8  2**2
                  ALLOC, SMALL_DATA
  6 .comment      00000026  00000000  00000000  000247d4  2**0
                  CONTENTS, READONLY
  7 .debug_aranges 00001920  00000000  00000000  00024800  2**3
                  CONTENTS, READONLY, DEBUGGING
  8 .debug_pubnames 000079a8  00000000  00000000  00026120  2**0
                  CONTENTS, READONLY, DEBUGGING
  9 .debug_info   00062f33  00000000  00000000  0002dac8  2**0
                  CONTENTS, READONLY, DEBUGGING
 10 .debug_abbrev 0000ff06  00000000  00000000  000909fb  2**0
                  CONTENTS, READONLY, DEBUGGING
 11 .debug_line   0002b262  00000000  00000000  000a0901  2**0
                  CONTENTS, READONLY, DEBUGGING
 12 .debug_frame  00004b78  00000000  00000000  000cbb64  2**2
                  CONTENTS, READONLY, DEBUGGING
 13 .debug_str    00009183  00000000  00000000  000d06dc  2**0
                  CONTENTS, READONLY, DEBUGGING
 14 .debug_loc    00016335  00000000  00000000  000d985f  2**0
                  CONTENTS, READONLY, DEBUGGING
 15 .debug_alt_sim_info 00000030  00000000  00000000  000efb94  2**2
                  CONTENTS, READONLY, DEBUGGING
 16 .debug_ranges 000032a8  00000000  00000000  000efbc8  2**3
                  CONTENTS, READONLY, DEBUGGING
 17 .thread_model 00000006  00000000  00000000  000fc68d  2**0
                  CONTENTS, READONLY
 18 .cpu          00000003  00000000  00000000  000fc693  2**0
                  CONTENTS, READONLY
 19 .qsys         00000001  00000000  00000000  000fc696  2**0
                  CONTENTS, READONLY
 20 .simulation_enabled 00000001  00000000  00000000  000fc697  2**0
                  CONTENTS, READONLY
 21 .sysid_hash   00000004  00000000  00000000  000fc698  2**0
                  CONTENTS, READONLY
 22 .sysid_base   00000004  00000000  00000000  000fc69c  2**0
                  CONTENTS, READONLY
 23 .sysid_time   00000004  00000000  00000000  000fc6a0  2**0
                  CONTENTS, READONLY
 24 .stderr_dev   0000000b  00000000  00000000  000fc6a4  2**0
                  CONTENTS, READONLY
 25 .stdin_dev    0000000b  00000000  00000000  000fc6af  2**0
                  CONTENTS, READONLY
 26 .stdout_dev   0000000b  00000000  00000000  000fc6ba  2**0
                  CONTENTS, READONLY
 27 .sopc_system_name 00000006  00000000  00000000  000fc6c5  2**0
                  CONTENTS, READONLY
 28 .quartus_project_dir 0000002e  00000000  00000000  000fc6cb  2**0
                  CONTENTS, READONLY
 29 .jdi          000046ad  00000000  00000000  000fc6f9  2**0
                  CONTENTS, READONLY
 30 .sopcinfo     0004f74a  00000000  00000000  00100da6  2**0
                  CONTENTS, READONLY
SYMBOL TABLE:
01000000 l    d  .entry	00000000 .entry
01000020 l    d  .exceptions	00000000 .exceptions
010001c0 l    d  .text	00000000 .text
01020e00 l    d  .rodata	00000000 .rodata
01021bc0 l    d  .rwdata	00000000 .rwdata
010253e8 l    d  .bss	00000000 .bss
00000000 l    d  .comment	00000000 .comment
00000000 l    d  .debug_aranges	00000000 .debug_aranges
00000000 l    d  .debug_pubnames	00000000 .debug_pubnames
00000000 l    d  .debug_info	00000000 .debug_info
00000000 l    d  .debug_abbrev	00000000 .debug_abbrev
00000000 l    d  .debug_line	00000000 .debug_line
00000000 l    d  .debug_frame	00000000 .debug_frame
00000000 l    d  .debug_str	00000000 .debug_str
00000000 l    d  .debug_loc	00000000 .debug_loc
00000000 l    d  .debug_alt_sim_info	00000000 .debug_alt_sim_info
00000000 l    d  .debug_ranges	00000000 .debug_ranges
01000208 l       .text	00000000 alt_after_alt_main
00000000 l    df *ABS*	00000000 alt_irq_handler.c
00000000 l    df *ABS*	00000000 MotorHandler.cpp
00000000 l    df *ABS*	00000000 main.cpp
01000a2c l     F .text	00000030 _GLOBAL__I_ir_task_stk
01000900 l     F .text	0000012c _Z41__static_initialization_and_destruction_0ii
00000000 l    df *ABS*	00000000 allocator-inst.cc
00000000 l    df *ABS*	00000000 string-inst.cc
00000000 l    df *ABS*	00000000 atomicity.cc
00000000 l    df *ABS*	00000000 class_type_info.cc
00000000 l    df *ABS*	00000000 eh_personality.cc
01006350 l     F .text	00000030 _Z12read_uleb128PKhPj
01006380 l     F .text	00000054 _Z12read_sleb128PKhPi
010063d4 l     F .text	0000009c _Z16get_adjusted_ptrPKSt9type_infoS1_PPv
01006470 l     F .text	000001d4 _Z28read_encoded_value_with_basehjPKhPj
01006644 l     F .text	00000090 _Z21base_of_encoded_valuehP15_Unwind_Context
010066d4 l     F .text	00000100 _Z17parse_lsda_headerP15_Unwind_ContextPKhP16lsda_header_info
010067d4 l     F .text	00000084 _Z15get_ttype_entryP16lsda_header_infoj
01006858 l     F .text	00000084 _Z20check_exception_specP16lsda_header_infoPKSt9type_infoPvi
00000000 l    df *ABS*	00000000 eh_terminate.cc
00000000 l    df *ABS*	00000000 eh_term_handler.cc
00000000 l    df *ABS*	00000000 eh_catch.cc
00000000 l    df *ABS*	00000000 del_op.cc
00000000 l    df *ABS*	00000000 eh_throw.cc
01007320 l     F .text	00000060 _Z23__gxx_exception_cleanup19_Unwind_Reason_CodeP17_Unwind_Exception
00000000 l    df *ABS*	00000000 si_class_type_info.cc
00000000 l    df *ABS*	00000000 tinfo.cc
00000000 l    df *ABS*	00000000 eh_alloc.cc
010294cc l     O .bss	00000800 emergency_buffer
01025400 l     O .bss	00000004 emergency_used
00000000 l    df *ABS*	00000000 new_op.cc
00000000 l    df *ABS*	00000000 functexcept.cc
00000000 l    df *ABS*	00000000 ios_failure.cc
00000000 l    df *ABS*	00000000 stdexcept.cc
00000000 l    df *ABS*	00000000 eh_exception.cc
00000000 l    df *ABS*	00000000 eh_call.cc
00000000 l    df *ABS*	00000000 new_handler.cc
00000000 l    df *ABS*	00000000 eh_globals.cc
01025408 l     O .bss	00000008 eh_globals
00000000 l    df *ABS*	00000000 eh_unex_handler.cc
00000000 l    df *ABS*	00000000 bad_typeid.cc
00000000 l    df *ABS*	00000000 bad_cast.cc
00000000 l    df *ABS*	00000000 unwind-sjlj.c
01025410 l     O .bss	00000004 fc_static
01009cdc l     F .text	00000100 _Unwind_ForcedUnwind_Phase2
01009df4 l     F .text	000000cc _Unwind_RaiseException_Phase2
01009ec0 l     F .text	00000028 uw_install_context
00000000 l    df *ABS*	00000000 abort.c
00000000 l    df *ABS*	00000000 malloc.c
00000000 l    df *ABS*	00000000 mallocr.c
00000000 l    df *ABS*	00000000 memchr.c
00000000 l    df *ABS*	00000000 memcmp.c
00000000 l    df *ABS*	00000000 memcpy.c
00000000 l    df *ABS*	00000000 memmove.c
00000000 l    df *ABS*	00000000 memset.c
00000000 l    df *ABS*	00000000 printf.c
00000000 l    df *ABS*	00000000 putchar.c
00000000 l    df *ABS*	00000000 puts.c
00000000 l    df *ABS*	00000000 sbrkr.c
00000000 l    df *ABS*	00000000 signal.c
00000000 l    df *ABS*	00000000 signalr.c
00000000 l    df *ABS*	00000000 strlen.c
00000000 l    df *ABS*	00000000 strtol.c
00000000 l    df *ABS*	00000000 vfprintf.c
0100b440 l     F .text	00000058 __sprint_r
0102152a l     O .rodata	00000010 blanks.3452
0102151a l     O .rodata	00000010 zeroes.3453
00000000 l    df *ABS*	00000000 wsetup.c
00000000 l    df *ABS*	00000000 ctype_.c
0102163b l     O .rodata	00000180 _ctype_b
00000000 l    df *ABS*	00000000 dtoa.c
0100d4a4 l     F .text	00000218 quorem
00000000 l    df *ABS*	00000000 fflush.c
00000000 l    df *ABS*	00000000 findfp.c
0100eea0 l     F .text	00000058 std
0100efac l     F .text	00000008 __fp_lock
0100efb4 l     F .text	00000008 __fp_unlock
00000000 l    df *ABS*	00000000 mallocr.c
00000000 l    df *ABS*	00000000 fvwrite.c
00000000 l    df *ABS*	00000000 fwalk.c
00000000 l    df *ABS*	00000000 impure.c
01021fc8 l     O .rwdata	00000400 impure_data
00000000 l    df *ABS*	00000000 int_errno.c
00000000 l    df *ABS*	00000000 locale.c
0102372c l     O .rwdata	00000004 charset
010217e0 l     O .rodata	00000030 lconv
00000000 l    df *ABS*	00000000 makebuf.c
00000000 l    df *ABS*	00000000 mprec.c
01021928 l     O .rodata	0000000c p05.2458
00000000 l    df *ABS*	00000000 putc.c
00000000 l    df *ABS*	00000000 mallocr.c
00000000 l    df *ABS*	00000000 s_isinfd.c
00000000 l    df *ABS*	00000000 s_isnand.c
00000000 l    df *ABS*	00000000 stdio.c
00000000 l    df *ABS*	00000000 strcmp.c
00000000 l    df *ABS*	00000000 wbuf.c
00000000 l    df *ABS*	00000000 writer.c
00000000 l    df *ABS*	00000000 mallocr.c
00000000 l    df *ABS*	00000000 closer.c
00000000 l    df *ABS*	00000000 fclose.c
00000000 l    df *ABS*	00000000 fstatr.c
00000000 l    df *ABS*	00000000 isattyr.c
00000000 l    df *ABS*	00000000 lseekr.c
00000000 l    df *ABS*	00000000 readr.c
00000000 l    df *ABS*	00000000 libgcc2.c
00000000 l    df *ABS*	00000000 libgcc2.c
00000000 l    df *ABS*	00000000 dp-bit.c
010129cc l     F .text	00000410 _fpadd_parts
00000000 l    df *ABS*	00000000 dp-bit.c
00000000 l    df *ABS*	00000000 dp-bit.c
00000000 l    df *ABS*	00000000 dp-bit.c
00000000 l    df *ABS*	00000000 dp-bit.c
00000000 l    df *ABS*	00000000 dp-bit.c
00000000 l    df *ABS*	00000000 dp-bit.c
00000000 l    df *ABS*	00000000 dp-bit.c
00000000 l    df *ABS*	00000000 dp-bit.c
00000000 l    df *ABS*	00000000 dp-bit.c
00000000 l    df *ABS*	00000000 dp-bit.c
00000000 l    df *ABS*	00000000 dp-bit.c
00000000 l    df *ABS*	00000000 lib2-divmod.c
01013af8 l     F .text	0000007c udivmodsi4
00000000 l    df *ABS*	00000000 libgcc2.c
00000000 l    df *ABS*	00000000 libgcc2.c
00000000 l    df *ABS*	00000000 libgcc2.c
00000000 l    df *ABS*	00000000 dp-bit.c
00000000 l    df *ABS*	00000000 dp-bit.c
00000000 l    df *ABS*	00000000 dp-bit.c
00000000 l    df *ABS*	00000000 alt_close.c
0101436c l     F .text	00000060 alt_get_errno
00000000 l    df *ABS*	00000000 alt_dev.c
010143cc l     F .text	0000002c alt_dev_null_write
00000000 l    df *ABS*	00000000 alt_errno.c
00000000 l    df *ABS*	00000000 alt_exit.c
010143f8 l     F .text	00000040 alt_sim_halt
00000000 l    df *ABS*	00000000 alt_fstat.c
01014538 l     F .text	00000060 alt_get_errno
00000000 l    df *ABS*	00000000 alt_getpid.c
00000000 l    df *ABS*	00000000 alt_isatty.c
01014678 l     F .text	00000060 alt_get_errno
00000000 l    df *ABS*	00000000 alt_kill.c
01014818 l     F .text	00000060 alt_get_errno
00000000 l    df *ABS*	00000000 alt_load.c
010148f8 l     F .text	0000006c alt_load_section
00000000 l    df *ABS*	00000000 alt_lseek.c
01014a54 l     F .text	00000060 alt_get_errno
00000000 l    df *ABS*	00000000 alt_main.c
00000000 l    df *ABS*	00000000 alt_read.c
01014c9c l     F .text	00000060 alt_get_errno
00000000 l    df *ABS*	00000000 alt_release_fd.c
00000000 l    df *ABS*	00000000 alt_sbrk.c
01023748 l     O .rwdata	00000004 heap_end
00000000 l    df *ABS*	00000000 alt_write.c
01014f38 l     F .text	00000060 alt_get_errno
00000000 l    df *ABS*	00000000 alt_env_lock.c
0102374c l     O .rwdata	00000004 lockid
01025440 l     O .bss	00000004 locks
00000000 l    df *ABS*	00000000 alt_malloc_lock.c
01023750 l     O .rwdata	00000004 lockid
01025448 l     O .bss	00000004 locks
00000000 l    df *ABS*	00000000 os_core.c
01016970 l     F .text	00000044 OS_InitMisc
010169b4 l     F .text	0000006c OS_InitRdyList
01016b18 l     F .text	000000e0 OS_InitTCBList
01016894 l     F .text	000000dc OS_InitEventList
01016a20 l     F .text	0000007c OS_InitTaskIdle
01016a9c l     F .text	0000007c OS_InitTaskStat
01016d8c l     F .text	00000070 OS_SchedNew
00000000 l    df *ABS*	00000000 os_dbg.c
00000000 l    df *ABS*	00000000 os_flag.c
01018cac l     F .text	00000110 OS_FlagTaskRdy
01018a04 l     F .text	000001c4 OS_FlagBlock
00000000 l    df *ABS*	00000000 os_mem.c
00000000 l    df *ABS*	00000000 os_q.c
00000000 l    df *ABS*	00000000 os_sem.c
00000000 l    df *ABS*	00000000 os_task.c
00000000 l    df *ABS*	00000000 os_time.c
00000000 l    df *ABS*	00000000 alt_sys_init.c
0102257c l     O .rwdata	0000106c jtag_uart_0
010235e8 l     O .rwdata	000000d0 uart_0
010236b8 l     O .rwdata	0000002c rs232_motor
0101d600 l     F .text	00000038 alt_dev_reg
00000000 l    df *ABS*	00000000 altera_avalon_jtag_uart_fd.c
00000000 l    df *ABS*	00000000 altera_avalon_jtag_uart_init.c
0101d8b0 l     F .text	000002c8 altera_avalon_jtag_uart_irq
0101db78 l     F .text	00000114 altera_avalon_jtag_uart_timeout
00000000 l    df *ABS*	00000000 altera_avalon_jtag_uart_ioctl.c
00000000 l    df *ABS*	00000000 altera_avalon_jtag_uart_read.c
00000000 l    df *ABS*	00000000 altera_avalon_jtag_uart_write.c
00000000 l    df *ABS*	00000000 altera_avalon_timer_sc.c
0101e390 l     F .text	00000074 alt_avalon_timer_sc_irq
00000000 l    df *ABS*	00000000 altera_avalon_uart_fd.c
00000000 l    df *ABS*	00000000 altera_avalon_uart_init.c
0101e700 l     F .text	000000a0 altera_avalon_uart_irq
0101e7a0 l     F .text	0000013c altera_avalon_uart_rxirq
0101e8dc l     F .text	000001c0 altera_avalon_uart_txirq
00000000 l    df *ABS*	00000000 altera_avalon_uart_read.c
0101edac l     F .text	00000060 alt_get_errno
00000000 l    df *ABS*	00000000 altera_avalon_uart_write.c
0101f054 l     F .text	00000060 alt_get_errno
00000000 l    df *ABS*	00000000 altera_up_avalon_rs232.c
00000000 l    df *ABS*	00000000 alt_alarm_start.c
00000000 l    df *ABS*	00000000 alt_dcache_flush_all.c
00000000 l    df *ABS*	00000000 alt_dev_llist_insert.c
0101f698 l     F .text	00000060 alt_get_errno
00000000 l    df *ABS*	00000000 alt_do_ctors.c
00000000 l    df *ABS*	00000000 alt_do_dtors.c
00000000 l    df *ABS*	00000000 alt_find_dev.c
00000000 l    df *ABS*	00000000 alt_icache_flush_all.c
00000000 l    df *ABS*	00000000 alt_io_redirect.c
0101f884 l     F .text	000000c4 alt_open_fd
00000000 l    df *ABS*	00000000 alt_irq_register.c
00000000 l    df *ABS*	00000000 alt_irq_vars.c
00000000 l    df *ABS*	00000000 alt_open.c
0101fb80 l     F .text	000000dc alt_file_locked
0101fde4 l     F .text	00000060 alt_get_errno
00000000 l    df *ABS*	00000000 alt_tick.c
00000000 l    df *ABS*	00000000 altera_nios2_qsys_irq.c
00000040 l       *ABS*	00000000 OSCtxSw_SWITCH_PC
00000000 l    df *ABS*	00000000 os_cpu_c.c
00000014 l       *ABS*	00000000 OSTCBNext_OFFSET
00000032 l       *ABS*	00000000 OSTCBPrio_OFFSET
00000000 l       *ABS*	00000000 OSTCBStkPtr_OFFSET
00000000 l    df *ABS*	00000000 alt_find_file.c
00000000 l    df *ABS*	00000000 alt_get_fd.c
00000000 l    df *ABS*	00000000 alt_icache_flush.c
00000000 l    df *ABS*	00000000 atexit.c
00000000 l    df *ABS*	00000000 exit.c
00000000 l    df *ABS*	00000000 __atexit.c
00000000 l    df *ABS*	00000000 __call_atexit.c
01020918 l     F .text	00000004 register_fini
01005694  w    F .text	0000005c _ZNSs2atEm
010075a0 g     F .text	00000040 __cxa_free_exception
01004030  w    F .text	00000034 _ZNSsC1IN9__gnu_cxx17__normal_iteratorIPcSsEEEET_S4_RKSaIcE
0100accc g     F .text	0000001c putchar
01007550 g     F .text	00000008 _ZNKSt9type_info15__is_function_pEv
01010220 g     F .text	00000094 _mprec_log10
01000810 g     F .text	00000050 _ZN12MotorHandlerD0Ev
01007030 g     F .text	00000018 _ZSt10unexpectedv
0102379e g     O .rwdata	00000002 OSTaskNameSize
01007814 g     F .text	00000034 _ZSt18__throw_bad_typeidv
0101030c g     F .text	00000088 __any_on
01011ce0 g     F .text	00000070 _isatty_r
010022a8  w    F .text	00000004 _ZNSaIwEC1Ev
01021900 g     O .rodata	00000028 __mprec_tinytens
010090b0 g     F .text	00000030 _ZNSt14overflow_errorC1ERKSs
01014ab4 g     F .text	000000c8 alt_main
0100026c g     F .text	0000006c _ZN12MotorHandler5resetEv
01003b54  w    F .text	00000040 _ZNKSs6substrEmm
0100acf0 g     F .text	000000a0 _puts_r
0102cf18 g     O .bss	00000100 alt_irq
010236ec  w    O .rwdata	00000004 _ZNSs4nposE
01011d50 g     F .text	00000078 _lseek_r
010195a0 g     F .text	000000d0 OS_MemInit
01009c8c g     F .text	00000014 _Unwind_GetIPInfo
010237d4 g       *ABS*	00000000 __flash_rwdata_start
0101d4e0 g     F .text	00000064 OSTimeSet
010134ec g     F .text	00000088 __eqdf2
01007238 g     F .text	00000074 __cxa_rethrow
01009c2c g     F .text	0000000c _Unwind_SjLj_Unregister
010031d8  w    F .text	00000018 _ZNKSs6rbeginEv
01006f50 g     F .text	00000014 _ZSt14set_unexpectedPFvvE
010154ec g     F .text	000006b4 OSEventPendMulti
01003f48  w    F .text	000000b4 _ZNSs12_S_constructIN9__gnu_cxx17__normal_iteratorIPcSsEEEES2_T_S4_RKSaIcESt20forward_iterator_tag
01003cb4  w    F .text	00000020 _ZNSs13_S_copy_charsEPcN9__gnu_cxx17__normal_iteratorIS_SsEES2_
010060c4  w    F .text	00000024 _ZNSs7replaceEmmRKSs
01009c7c g     F .text	00000010 _Unwind_GetIP
0102d1a8 g       *ABS*	00000000 __alt_heap_start
010203ec g     F .text	00000020 OSTaskCreateHook
01009330 g     F .text	00000030 _ZNSt12length_errorC1ERKSs
0100b0f0 g     F .text	00000074 _kill_r
01005770  w    F .text	00000038 _ZNSs5beginEv
01009b54 g     F .text	00000010 _ZNSt9bad_allocD2Ev
0100ac54 g     F .text	00000044 printf
01023776 g     O .rwdata	00000002 OSMboxEn
01015bf4 g     F .text	0000007c OSIntEnter
0100744c g     F .text	00000034 _ZNK10__cxxabiv120__si_class_type_info20__do_find_public_srcElPKvPKNS_17__class_type_infoES2_
0100b030 g     F .text	000000a0 _signal_r
0102120c  w    O .rodata	00000013 _ZTSSt14overflow_error
01011660 g     F .text	00000068 __sseek
0100ef08 g     F .text	000000a4 __sinit
01011860 g     F .text	00000130 __swbuf_r
01000a5c g     F .text	00000038 _Z10queue_initv
01023786 g     O .rwdata	00000002 OSQEn
01004e70  w    F .text	000000f8 _ZNSs6assignEPKcm
0100743c g     F .text	00000010 _ZN10__cxxabiv120__si_class_type_infoD2Ev
0100fbe0 g     F .text	00000084 _setlocale_r
01021168  w    O .rodata	00000025 _ZTSN10__cxxabiv120__si_class_type_infoE
0100f008 g     F .text	00000068 __sfmoreglue
010151a8 g     F .text	000000d0 __malloc_unlock
01020448 g     F .text	0000001c OSTaskStatHook
010026a8  w    F .text	00000018 _ZNSs7_M_moveEPcPKcm
0101f2e8 g     F .text	00000090 alt_up_rs232_read_fd
010236e4  w    O .rwdata	00000008 _ZTI12MotorHandler
01025450 g     O .bss	00000001 OSLockNesting
01006118  w    F .text	00000064 _ZNSs7replaceEN9__gnu_cxx17__normal_iteratorIPcSsEES2_PKc
01007050 g     F .text	00000020 _ZSt18uncaught_exceptionv
010211cc  w    O .rodata	0000000c _ZTISt15underflow_error
010237c4 g     O .rwdata	00000002 OSDataSize
01025451 g     O .bss	00000001 OSRunning
01004ae0  w    F .text	000000bc _ZNSsD2Ev
01004998  w    F .text	0000008c _ZNSspLEc
01004584  w    F .text	000000e0 _ZNSs6appendEmc
0100aadc g     F .text	000000e0 memmove
01020480 g     F .text	0000001c OSInitHookBegin
010237bc g     O .rwdata	00000002 OSTmrSize
01009a5c g     F .text	00000010 _ZNSt9exceptionD2Ev
0100eff8 g     F .text	00000010 _cleanup
01010394 g     F .text	000000bc _Balloc
01003f28  w    F .text	00000020 _ZNSs13_S_copy_charsEPcN9__gnu_cxx17__normal_iteratorIPKcSsEES4_
01000b14 g     F .text	00001774 _Z7mc_taskPv
01021270  w    O .rodata	00000011 _ZTSSt12out_of_range
010214ac  w    O .rodata	0000000c _ZTISt8bad_cast
010026c0  w    F .text	00000018 _ZNSs7_M_copyEPcPKcm
01025454 g     O .bss	00000004 OSIdleCtr
01004ff8  w    F .text	00000040 _ZNSsaSEPKc
0100617c g     F .text	00000014 _ZN9__gnu_cxx18__exchange_and_addEPVii
010078e4 g     F .text	00000108 _ZSt19__throw_ios_failurePKc
010135fc g     F .text	00000088 __gtdf2
010213d4  w    O .rodata	00000014 _ZTVSt13bad_exception
010200b8 g       .text	00000000 OSStartTsk
00000000  w      *UND*	00000000 __errno
010007a4 g     F .text	0000006c _ZN12MotorHandler4initEv
010170c0 g     F .text	000002e0 OS_TCBInit
01008840  w    F .text	00000034 _ZNSt14overflow_errorD0Ev
01000000 g     F .entry	0000001c __reset
010236f4  w    O .rwdata	00000001 _ZNSs4_Rep11_S_terminalE
01002e70  w    F .text	000000e0 _ZNKSs16find_last_not_ofEPKcmm
01009cbc g     F .text	00000008 _Unwind_GetRegionStart
010237c2 g     O .rwdata	00000002 OSTmrWheelTblSize
01000020 g       *ABS*	00000000 __flash_exceptions_start
01023762 g     O .rwdata	00000002 OSEventSize
01025458 g     O .bss	00000001 OSPrioHighRdy
01011c6c g     F .text	00000074 _fstat_r
0102040c g     F .text	00000020 OSTaskDelHook
01007714 g     F .text	00000100 _Znwm
01002c10  w    F .text	00000064 _ZNSs4_Rep10_M_disposeERKSaIcE
01025420 g     O .bss	00000004 errno
010032ec  w    F .text	0000003c _ZNSsC2EmcRKSaIcE
01020098 g       .text	00000000 OSStartHighRdy
01004064  w    F .text	000000fc _ZNSsC1ERKSs
0100300c  w    F .text	0000007c _ZNKSs7compareEPKc
0101bcb4 g     F .text	00000200 OSTaskCreateExt
01018520 g     F .text	00000068 OSFlagPendGetFlagsRdy
010237a2 g     O .rwdata	00000002 OSTaskStatStkSize
0100a08c g     F .text	00000080 _Unwind_Backtrace
010037e8  w    F .text	00000088 _ZNKSs4copyEPcmm
0101752c g     F .text	00000334 OSFlagAccept
01019cd8 g     F .text	000000c8 OSQFlush
01019670 g     F .text	00000154 OSQAccept
01025438 g     O .bss	00000004 alt_argv
0102b6e4 g       *ABS*	00000000 _gp
01009b74 g     F .text	00000034 _ZNSt10bad_typeidD0Ev
01008874  w    F .text	00000010 _ZNSt14overflow_errorD1Ev
0101bae0 g     F .text	000001d4 OSTaskCreate
0101b56c g     F .text	00000574 OSTaskChangePrio
01009bc8 g     F .text	00000034 _ZNSt8bad_castD0Ev
01002298  w    F .text	00000004 _ZNSaIwED1Ev
0102544c g     O .bss	00000004 alt_heapsem
01014598 g     F .text	00000020 getpid
0100522c  w    F .text	00000038 _ZNSs6assignEmc
010023b0  w    F .text	0000000c _ZNKSs4_Rep12_M_is_leakedEv
010173a0 g     F .text	0000018c OSDebugInit
010068dc g     F .text	00000180 __cxa_call_unexpected
0101beb4 g     F .text	0000040c OSTaskDel
01007048 g     F .text	00000008 __cxa_get_exception_ptr
010026e0  w    F .text	0000000c _ZNKSsixEm
010223fc g     O .rwdata	00000180 alt_fd_list
01029cf4 g     O .bss	00000370 OSFlagTbl
01021284  w    O .rodata	00000014 _ZTVSt12out_of_range
0100ace8 g     F .text	00000008 _putchar_r
0100a03c g     F .text	00000050 _Unwind_SjLj_ForcedUnwind
01016670 g     F .text	000000b8 OS_EventTaskRemove
01009c50 g     F .text	00000014 _Unwind_GetCFA
01006f3c g     F .text	00000014 _ZSt13set_terminatePFvvE
0101f7c0 g     F .text	00000094 alt_find_dev
0100aa3c g     F .text	000000a0 memcpy
0100298c  w    F .text	00000010 _ZNSsC2Ev
0100287c  w    F .text	0000000c _ZNKSs17find_first_not_ofERKSsm
0102378c g     O .rwdata	00000002 OSRdyTblSize
010026ec  w    F .text	000000a4 _ZNKSs17find_first_not_ofEPKcmm
01003e34  w    F .text	00000034 _ZNSsC1IPKcEET_S2_RKSaIcE
0100efec g     F .text	0000000c _cleanup_r
01013794 g     F .text	000000f8 __floatsidf
0101f948 g     F .text	00000078 alt_io_redirect
0101370c g     F .text	00000088 __ltdf2
01021250  w    O .rodata	00000014 _ZTVSt11range_error
0100960c g     F .text	00000104 _ZNSt13runtime_errorD2Ev
0100834c g     F .text	00000190 _ZSt21__throw_runtime_errorPKc
01020e00 g       *ABS*	00000000 __DTOR_END__
01002930  w    F .text	00000050 _ZNKSs5rfindEPKcm
01009220 g     F .text	000000b0 _ZNSt11logic_errorC2ERKSs
010212f0  w    O .rodata	00000014 _ZTVSt16invalid_argument
01006254 g     F .text	00000010 _ZN10__cxxabiv117__class_type_infoD1Ev
0101f274 g     F .text	00000074 alt_up_rs232_read_data
0100299c  w    F .text	00000010 _ZN9__gnu_cxxeqIPKcSsEEbRKNS_17__normal_iteratorIT_T0_EES8_
0100ad90 g     F .text	00000014 puts
010058c0  w    F .text	00000150 _ZStplIcSt11char_traitsIcESaIcEESbIT_T0_T1_EPKS3_RKS6_
010004a8 g     F .text	0000008c _ZN12MotorHandler18interpretDirectionESsi
0100228c  w    F .text	00000004 _ZNSaIcED2Ev
01015278 g     F .text	00000130 OSEventNameGet
01023770 g     O .rwdata	00000002 OSFlagMax
01009140 g     F .text	00000030 _ZNSt11range_errorC2ERKSs
01010170 g     F .text	000000b0 __ratio
01015c70 g     F .text	00000100 OSIntExit
010043d0  w    F .text	00000004 _ZNSsaSERKSs
01021264  w    O .rodata	0000000c _ZTISt12out_of_range
01002618  w    F .text	00000038 _ZNKSs15_M_check_lengthEmmPKc
010237aa g     O .rwdata	00000002 OSTCBSize
010031f0  w    F .text	000000c0 _ZNSs12_S_constructEmcRKSaIcE
01002288  w    F .text	00000004 _ZNSaIcEC1Ev
01025459 g     O .bss	00000001 OSPrioCur
0101ddf4 g     F .text	000002c0 altera_avalon_jtag_uart_read
0100a190 g     F .text	00000014 malloc
0100ac98 g     F .text	00000034 _printf_r
01013c34 g     F .text	00000008 __udivsi3
010145b8 g     F .text	000000c0 isatty
0100ae14 g     F .text	000000cc _raise_r
01023790 g     O .rwdata	00000002 OSStkWidth
01021810 g     O .rodata	000000c8 __mprec_tens
01004dd4  w    F .text	0000009c _ZNSs15_M_replace_safeEmmPKcm
01023784 g     O .rwdata	00000002 OSPtrSize
01007d0c g     F .text	00000190 _ZSt22__throw_overflow_errorPKc
01009300 g     F .text	00000030 _ZNSt12out_of_rangeC2ERKSs
0100fbbc g     F .text	00000008 __locale_charset
01023764 g     O .rwdata	00000002 OSEventTblSize
010043d4  w    F .text	00000128 _ZNSs7reserveEm
01003420  w    F .text	000000c8 _ZNKSs7compareEmmPKc
0102000c g       .text	00000000 OSCtxSw
01020708 g     F .text	00000090 alt_icache_flush
01002368  w    F .text	0000000c _ZNKSs4sizeEv
01025414 g     O .bss	00000004 __malloc_top_pad
01004b9c  w    F .text	00000238 _ZNSs9_M_mutateEmmm
01005ca4  w    F .text	000002e0 _ZNSs7replaceEmmPKcm
01002a20  w    F .text	00000058 _ZNKSs16find_last_not_ofEcm
0102545c g     O .bss	00000004 OSTCBList
0100b0ec g     F .text	00000004 _getpid_r
01025430 g     O .bss	00000004 alt_fd_list_lock
01005ff4  w    F .text	00000010 _ZNSs7replaceEN9__gnu_cxx17__normal_iteratorIPcSsEES2_PKcm
01023728 g     O .rwdata	00000004 __mb_cur_max
01004770  w    F .text	00000040 _ZNSs6appendEPKc
0100fbc4 g     F .text	0000000c _localeconv_r
01002a78  w    F .text	00000064 _ZNKSs17find_first_not_ofEcm
01010a8c g     F .text	0000003c __i2b
0100f5a0 g     F .text	0000049c __sfvwrite_r
01006274 g     F .text	00000060 _ZNK10__cxxabiv117__class_type_info10__do_catchEPKSt9type_infoPPvj
0100af68 g     F .text	000000b4 __sigtramp_r
010022e8  w    F .text	00000008 _ZNKSs9_M_ibeginEv
01008fa0 g     F .text	000000b0 _ZNSt13runtime_errorC2ERKSs
0102a064 g     O .bss	00000c30 OSMemTbl
01025460 g     O .bss	00000001 OSTickStepState
0100ada4 g     F .text	00000070 _sbrk_r
0102119c  w    O .rodata	00000020 _ZTVSt9type_info
010212d8  w    O .rodata	00000015 _ZTSSt16invalid_argument
0100787c g     F .text	00000034 _ZSt17__throw_bad_allocv
01023788 g     O .rwdata	00000002 OSQMax
0102ac94 g     O .bss	00000800 OSTaskStatStk
01019188 g     F .text	0000010c OSMemNameGet
010022b8  w    F .text	00000010 _ZNSt11char_traitsIcE2eqERKcS2_
010253f4 g     O .bss	00000004 ir_queue
01023768 g     O .rwdata	00000002 OSFlagEn
01011dc8 g     F .text	00000078 _read_r
01009a2c g     F .text	00000010 _ZNKSt9exception4whatEv
01002df8  w    F .text	00000068 _ZNKSs4findEcm
01002294  w    F .text	00000004 _ZNSaIwEC2Ev
010237ae g     O .rwdata	00000002 OSTimeTickHookEn
0101a23c g     F .text	00000180 OSQPost
01018dbc g     F .text	000000ac OS_FlagUnlink
010223c8 g     O .rwdata	0000000c __lc_ctype
01023740 g     O .rwdata	00000004 alt_max_fd
0101f1dc g     F .text	00000050 alt_up_rs232_check_parity
01003088  w    F .text	00000050 _ZNKSs16find_last_not_ofEPKcm
01016c4c g     F .text	0000006c OS_MemCopy
01016cb8 g     F .text	000000d4 OS_Sched
01014070 g     F .text	00000138 __unpack_d
01002fbc  w    F .text	00000050 _ZNKSs4findEPKcm
01011b48 g     F .text	00000110 _fclose_r
01003128  w    F .text	00000050 _ZNKSs12find_last_ofEPKcm
01019084 g     F .text	00000104 OSMemGet
01002888  w    F .text	000000a8 _ZNKSs5rfindEPKcmm
0101c5e8 g     F .text	000001c4 OSTaskNameSet
01021450  w    O .rodata	0000000c _ZTISt9bad_alloc
010022dc  w    F .text	0000000c _ZNKSs6_M_repEv
0100ee6c g     F .text	00000034 fflush
01025418 g     O .bss	00000004 __malloc_max_sbrked_mem
01025464 g     O .bss	00000004 OSCtxSwCtr
01020464 g     F .text	0000001c OSTimeTickHook
0101f9c0 g     F .text	000001c0 alt_irq_register
01005334  w    F .text	00000050 _ZNSs5eraseEN9__gnu_cxx17__normal_iteratorIPcSsEE
01023772 g     O .rwdata	00000002 OSFlagNameSize
010056f0  w    F .text	00000044 _ZNSsixEm
0100425c  w    F .text	00000174 _ZNSs6assignERKSs
01016728 g     F .text	00000104 OS_EventTaskRemoveMulti
01012e5c g     F .text	00000074 __adddf3
0102113c  w    O .rodata	0000002c _ZTVN10__cxxabiv120__si_class_type_infoE
0101651c g     F .text	00000154 OS_EventTaskWaitMulti
01004a24  w    F .text	000000bc _ZNSsD1Ev
01010050 g     F .text	00000120 __b2d
0102378a g     O .rwdata	00000002 OSQSize
01009bfc g     F .text	00000010 _ZNSt8bad_castD1Ev
0101241c g     F .text	000005b0 __umoddi3
01014964 g     F .text	000000f0 lseek
01005734  w    F .text	0000003c _ZNSs3endEv
0101ae18 g     F .text	0000027c OSSemPend
01021384  w    O .rodata	00000014 _ZTVSt11logic_error
010062d4 g     F .text	00000030 _ZNK10__cxxabiv117__class_type_info11__do_upcastEPKS0_PKvRNS0_15__upcast_resultE
0100722c g     F .text	0000000c _ZdlPv
0100890c  w    F .text	00000034 _ZNSt12length_errorD0Ev
01023724 g     O .rwdata	00000004 _global_impure_ptr
01010ff4 g     F .text	000005f4 _realloc_r
01023774 g     O .rwdata	00000002 OSLowestPrio
0102d1a8 g       *ABS*	00000000 __bss_end
010204d4 g     F .text	00000020 OSTCBInitHook
010237ba g     O .rwdata	00000002 OSTmrCfgTicksPerSec
0101fedc g     F .text	00000110 alt_tick
01009c1c g     F .text	00000010 _Unwind_SjLj_Register
01011e40 g     F .text	000005dc __udivdi3
01021220  w    O .rodata	00000014 _ZTVSt14overflow_error
0100866c g     F .text	00000190 _ZSt20__throw_length_errorPKc
0102375c g     O .rwdata	00000002 OSEventEn
010218d8 g     O .rodata	00000028 __mprec_bigtens
010254ac g     O .bss	00002000 ir_task_stk
01010ce8 g     F .text	00000120 __s2b
010237b6 g     O .rwdata	00000002 OSTmrCfgNameSize
0100a164 g     F .text	00000018 abort
01013964 g     F .text	00000194 __floatunsidf
0100255c  w    F .text	000000bc _ZNSs4_Rep10_M_refcopyEv
0100ff70 g     F .text	00000060 __mcmp
0101e584 g     F .text	0000017c altera_avalon_uart_init
0102371c g     O .rwdata	00000004 __ctype_ptr
01007070 g     F .text	000000a4 __cxa_end_catch
0100efd4 g     F .text	00000018 __fp_lock_all
01009ab0 g     F .text	00000010 _ZNSt13bad_exceptionD2Ev
010008b0 g     F .text	00000050 _ZN12MotorHandlerD2Ev
01018bc8 g     F .text	000000e4 OS_FlagInit
0101fe44 g     F .text	00000098 alt_alarm_stop
010023bc  w    F .text	0000000c _ZNKSs4_Rep12_M_is_sharedEv
0100b41c g     F .text	00000024 strtol
01023798 g     O .rwdata	00000002 OSTaskIdleStkSize
010022c8  w    F .text	00000008 _ZNKSs7_M_dataEv
01003a08  w    F .text	00000060 _ZNSsC2ERKSsmmRKSaIcE
010254a0 g     O .bss	00000004 alt_irq_active
0101a9a4 g     F .text	000000c0 OSSemAccept
01007008 g     F .text	00000018 _ZSt9terminatev
010193b4 g     F .text	000000f0 OSMemPut
010058b8  w    F .text	00000008 _ZNSs6resizeEm
01002290  w    F .text	00000004 _ZNSaIcEC2ERKS_
01018e68 g     F .text	0000021c OSMemCreate
01008830  w    F .text	00000010 _ZNSt15underflow_errorD1Ev
01025468 g     O .bss	00000004 OSIdleCtrMax
01007e9c g     F .text	00000190 _ZSt24__throw_invalid_argumentPKc
010000ec g     F .exceptions	000000d4 alt_irq_handler
01004f68  w    F .text	00000040 _ZNSs6assignEPKc
010223d4 g     O .rwdata	00000028 alt_dev_null
010036e4  w    F .text	00000104 _ZNSs4_Rep7_M_grabERKSaIcES2_
010055b4  w    F .text	00000050 _ZNSs6insertEmRKSsmm
010237ac g     O .rwdata	00000002 OSTicksPerSec
010089d8 g     F .text	00000008 _ZNKSt8ios_base7failure4whatEv
01009920 g     F .text	0000010c _ZNSt11logic_errorD0Ev
01003178  w    F .text	00000050 _ZNKSs13find_first_ofEPKcm
0102000c g       .text	00000000 OSIntCtxSw
0102110c  w    O .rodata	00000022 _ZTSN10__cxxabiv117__class_type_infoE
010047f0  w    F .text	000000e8 _ZNSs6appendERKSsmm
0101f5a0 g     F .text	00000044 alt_dcache_flush_all
0100fe3c g     F .text	00000070 __hi0bits
01023704  w    O .rwdata	00000008 _ZTISt9exception
0101388c g     F .text	000000d8 __fixdfsi
010031c8  w    F .text	00000010 _ZNKSs4rendEv
01002870  w    F .text	0000000c _ZNKSs4findERKSsm
01008d88 g     F .text	0000010c _ZNSt8ios_base7failureD0Ev
010023f8  w    F .text	0000014c _ZSt6searchIPKcS1_PFbRS0_S2_EET_S5_S5_T0_S6_T1_
01005604  w    F .text	0000000c _ZNSs6insertEmRKSs
01000534 g     F .text	00000064 _ZN12MotorHandler14interpretMotorESs
0102546c g     O .bss	00000004 OSTCBFreeList
010237d4 g       *ABS*	00000000 __ram_rwdata_end
0101b094 g     F .text	0000017c OSSemPendAbort
01007580 g     F .text	00000010 _ZNSt9type_infoD1Ev
01023738 g     O .rwdata	00000008 alt_dev_list
01025404 g     O .bss	00000004 __new_handler
01021310  w    O .rodata	00000011 _ZTSSt12domain_error
01014e18 g     F .text	00000120 write
010052ac  w    F .text	00000038 _ZNSs6insertEN9__gnu_cxx17__normal_iteratorIPcSsEEmc
01010f0c g     F .text	000000e8 _putc_r
01003dcc  w    F .text	00000034 _ZNSsC1EPKcmRKSaIcE
010237b0 g     O .rwdata	00000002 OSVersionNbr
010057a8  w    F .text	0000004c _ZNSs4rendEv
01007570 g     F .text	00000010 _ZNSt9type_infoD0Ev
01009508 g     F .text	00000104 _ZNSt13runtime_errorD1Ev
01021bc0 g       *ABS*	00000000 __ram_rodata_end
01014464 g     F .text	000000d4 fstat
0101f378 g     F .text	00000094 alt_up_rs232_write_fd
01002554  w    F .text	00000008 _ZNSs12_Alloc_hiderC2EPcRKSaIcE
010146d8 g     F .text	00000140 kill
010039a8  w    F .text	00000060 _ZNSsC1ERKSsmmRKSaIcE
01009420 g     F .text	00000030 _ZNSt12domain_errorC2ERKSs
010093f0 g     F .text	00000030 _ZNSt12domain_errorC1ERKSs
010089c8  w    F .text	00000010 _ZNSt12domain_errorD1Ev
01003974  w    F .text	00000034 _ZNSsC2IPcEET_S1_RKSaIcE
01023758 g     O .rwdata	00000004 OSEndiannessTest
01010bc8 g     F .text	00000120 __pow5mult
01005b58  w    F .text	0000014c _ZStplIcSt11char_traitsIcESaIcEESbIT_T0_T1_ES3_RKS6_
01025424 g     O .bss	00000004 __nlocale_changed
010087fc  w    F .text	00000034 _ZNSt15underflow_errorD0Ev
01013c3c g     F .text	00000008 __umodsi3
01007568 g     F .text	00000008 _ZNKSt9type_info11__do_upcastEPKN10__cxxabiv117__class_type_infoEPPv
01020f04  w    O .rodata	00000010 _ZTV12MotorHandler
01006004  w    F .text	00000064 _ZNSs7replaceEmmPKc
010022b4  w    F .text	00000004 _ZNSaIcED1Ev
0102376a g     O .rwdata	00000002 OSFlagGrpSize
0102d1a8 g       *ABS*	00000000 end
01006190 g     F .text	00000004 _ZN9__gnu_cxx12__atomic_addEPVii
010294ac g     O .bss	00000010 ir_messages
01009080 g     F .text	00000030 _ZNSt15underflow_errorC2ERKSs
01006068  w    F .text	0000005c _ZNSs7replaceEmmRKSsmm
01002824  w    F .text	00000030 _ZNKSs2atEm
01004fa8  w    F .text	00000050 _ZNSs6assignERKSsmm
01003c80  w    F .text	00000034 _ZNSsC1IPcEET_S1_RKSaIcE
010022f0  w    F .text	00000010 _ZNKSs7_M_iendEv
0101ee0c g     F .text	00000248 altera_avalon_uart_write
01009ddc g     F .text	00000018 _Unwind_DeleteException
0101d780 g     F .text	00000130 altera_avalon_jtag_uart_init
01016f30 g     F .text	000000c8 OS_TaskStat
01002350  w    F .text	00000008 _ZNKSs5beginEv
01020df8 g       *ABS*	00000000 __CTOR_LIST__
02000000 g       *ABS*	00000000 __alt_stack_pointer
01005104  w    F .text	00000018 _ZNSs7replaceEN9__gnu_cxx17__normal_iteratorIPcSsEES2_mc
010294bc  w    O .bss	00000010 _ZNSs4_Rep20_S_empty_rep_storageE
0101e404 g     F .text	00000088 alt_avalon_timer_sc_init
01008e94 g     F .text	00000008 _ZNKSt13runtime_error4whatEv
0101e4e4 g     F .text	00000058 altera_avalon_uart_write_fd
01013cdc g     F .text	00000080 __clzsi2
010213ac  w    O .rodata	0000000c _ZTISt13runtime_error
0101e53c g     F .text	00000048 altera_avalon_uart_close_fd
01006194 g     F .text	0000006c _ZNK10__cxxabiv117__class_type_info11__do_upcastEPKS0_PPv
0101e0b4 g     F .text	000002dc altera_avalon_jtag_uart_write
0100eef8 g     F .text	00000004 __sfp_lock_acquire
010213fc  w    O .rodata	00000012 _ZTSSt13bad_exception
0100a8e4 g     F .text	000000e4 memchr
01016bf8 g     F .text	00000054 OS_MemClr
0100b498 g     F .text	00001eac ___vfprintf_internal_r
010212b8  w    O .rodata	00000014 _ZTVSt12length_error
010200dc g     F .text	00000310 OSTaskStkInit
0100f28c g     F .text	00000314 _free_r
01005fa0  w    F .text	0000001c _ZNSs7replaceEN9__gnu_cxx17__normal_iteratorIPcSsEES2_S2_S2_
01003328  w    F .text	00000034 _ZNSsC1ERKSaIcE
01016278 g     F .text	00000194 OS_EventTaskRdy
0102091c g     F .text	000001b0 __call_exitprocs
010023d4  w    F .text	00000008 _ZNSs4_Rep15_M_set_sharableEv
01025470 g     O .bss	00000001 OSCPUUsage
010236f0  w    O .rwdata	00000004 _ZNSs4_Rep11_S_max_sizeE
01025428 g     O .bss	00000004 __mlocale_changed
01008940  w    F .text	00000010 _ZNSt12length_errorD1Ev
01023718 g     O .rwdata	00000004 __malloc_sbrk_base
010001c0 g     F .text	0000004c _start
010213c8  w    O .rodata	0000000c _ZTISt11logic_error
0100238c  w    F .text	00000008 _ZNKSs4dataEv
010254a4 g     O .bss	00000004 _alt_tick_rate
010022ac  w    F .text	00000004 _ZNSaIwED2Ev
01019da0 g     F .text	00000320 OSQPend
010211bc  w    O .rodata	0000000d _ZTSSt9type_info
01002380  w    F .text	0000000c _ZNKSs8capacityEv
010022d0  w    F .text	0000000c _ZNSs7_M_dataEPc
0101cfac g     F .text	0000014c OSTimeDly
01009050 g     F .text	00000030 _ZNSt15underflow_errorC1ERKSs
01010758 g     F .text	0000014c __lshift
01002300  w    F .text	00000018 _ZNKSs8_M_limitEmm
0102142c  w    O .rodata	00000014 _ZTVSt9bad_alloc
010254a8 g     O .bss	00000004 _alt_nticks
0100b0d0 g     F .text	0000001c signal
01014b7c g     F .text	00000120 read
01005038  w    F .text	000000cc _ZNSs14_M_replace_auxEmmmc
0101d578 g     F .text	00000088 alt_sys_init
01004160  w    F .text	000000fc _ZNSsC2ERKSs
01002394  w    F .text	00000008 _ZNKSs13get_allocatorEv
01021480  w    O .rodata	0000000c _ZTISt10bad_typeid
010207e4 g     F .text	00000134 __register_exitproc
01021440  w    O .rodata	0000000d _ZTSSt9bad_alloc
01025471 g     O .bss	00000001 OSTaskCtr
0101f19c g     F .text	00000040 alt_up_rs232_get_available_space_in_write_FIFO
01002790  w    F .text	00000094 _ZNKSs4findEPKcmm
010052e4  w    F .text	00000050 _ZNSs5eraseEN9__gnu_cxx17__normal_iteratorIPcSsEES2_
0101d0f8 g     F .text	00000174 OSTimeDlyHMSM
010108a4 g     F .text	000001e8 __multiply
0101dc8c g     F .text	00000074 altera_avalon_jtag_uart_close
01021bc0 g       *ABS*	00000000 __ram_rwdata_start
01009f44 g     F .text	000000f8 _Unwind_SjLj_RaiseException
01020e00 g       *ABS*	00000000 __ram_rodata_start
01002f5c  w    F .text	00000060 _ZNKSs7compareERKSs
01029ccc g     O .bss	00000028 __malloc_current_mallinfo
01009ee8 g     F .text	0000005c _Unwind_SjLj_Resume
0102375e g     O .rwdata	00000002 OSEventMax
01005680  w    F .text	00000014 _ZNSs7_M_leakEv
01010450 g     F .text	0000017c __d2b
0101b210 g     F .text	00000128 OSSemPost
01007590 g     F .text	00000010 _ZNSt9type_infoD2Ev
01015dfc g     F .text	000000e4 OSSchedUnlock
01007380 g     F .text	00000078 _ZNK10__cxxabiv120__si_class_type_info11__do_upcastEPKNS_17__class_type_infoEPKvRNS1_15__upcast_resultE
01008984  w    F .text	00000010 _ZNSt16invalid_argumentD1Ev
01002358  w    F .text	00000010 _ZNKSs3endEv
0100267c  w    F .text	0000002c _ZNSs9_M_assignEPcmc
0101d638 g     F .text	00000058 altera_avalon_jtag_uart_read_fd
01020614 g     F .text	000000f4 alt_get_fd
01025474 g     O .bss	00000004 OSMemFreeList
01015f50 g     F .text	000000ac OSStatInit
010029ac  w    F .text	00000064 _ZNKSs5rfindEcm
010022b0  w    F .text	00000004 _ZNSaIcEC2Ev
01018930 g     F .text	000000d4 OSFlagQuery
010141a8 g     F .text	000000c8 __fpcmp_parts_d
010211d8  w    O .rodata	00000014 _ZTSSt15underflow_error
01023794 g     O .rwdata	00000002 OSTaskCreateExtEn
01002e60  w    F .text	00000010 _ZNKSs13find_first_ofEcm
01011ad8 g     F .text	00000070 _close_r
0100043c g     F .text	0000006c _ZN12MotorHandler9configureEv
0100a9c8 g     F .text	00000074 memcmp
0101625c g     F .text	0000001c OS_Dummy
0101d6e8 g     F .text	00000048 altera_avalon_jtag_uart_close_fd
0102d1a8 g       *ABS*	00000000 __alt_stack_base
0101d730 g     F .text	00000050 altera_avalon_jtag_uart_ioctl_fd
01009b10 g     F .text	00000034 _ZNSt9bad_allocD0Ev
0100742c g     F .text	00000010 _ZN10__cxxabiv120__si_class_type_infoD1Ev
01020f14  w    O .rodata	0000000f _ZTS12MotorHandler
010088b8  w    F .text	00000010 _ZNSt11range_errorD1Ev
0100d368 g     F .text	0000013c __swsetup_r
01021240  w    O .rodata	00000010 _ZTSSt11range_error
0102b494 g     O .bss	000001e0 OSQTbl
0100a10c g     F .text	00000058 _Unwind_SjLj_Resume_or_Rethrow
01013294 g     F .text	00000258 __divdf3
0100f070 g     F .text	000000f0 __sfp
010102b4 g     F .text	00000058 __copybits
01021304  w    O .rodata	0000000c _ZTISt12domain_error
010214a0  w    O .rodata	0000000c _ZTSSt8bad_cast
01007548 g     F .text	00000008 _ZNKSt9type_info14__is_pointer_pEv
01005f84  w    F .text	0000001c _ZNSs7replaceEN9__gnu_cxx17__normal_iteratorIPcSsEES2_NS0_IPKcSsEES5_
01021200  w    O .rodata	0000000c _ZTISt14overflow_error
01021bc0 g     O .rwdata	00000408 __malloc_av_
0100ef04 g     F .text	00000004 __sinit_lock_release
01025478 g     O .bss	00000004 OSTCBHighRdy
01012ed0 g     F .text	000003c4 __muldf3
01011744 g     F .text	00000060 __sread
010213e8  w    O .rodata	00000014 _ZTVSt9exception
0102547c g     O .bss	00000004 OSQFreeList
0101f108 g     F .text	00000058 alt_up_rs232_disable_read_interrupt
010204f4 g     F .text	00000120 alt_find_file
010060e8  w    F .text	00000030 _ZNSs7replaceEN9__gnu_cxx17__normal_iteratorIPcSsEES2_RKSs
01006200 g     F .text	00000020 _ZNK10__cxxabiv117__class_type_info20__do_find_public_srcElPKvPKS0_S2_
01005610  w    F .text	00000014 _ZNSs5clearEv
0101f5e4 g     F .text	000000b4 alt_dev_llist_insert
010150a0 g     F .text	00000108 __malloc_lock
01014d5c g     F .text	000000bc sbrk
0100802c g     F .text	00000190 _ZSt20__throw_domain_errorPKc
010079ec g     F .text	00000190 _ZSt19__throw_logic_errorPKc
010210e0  w    O .rodata	0000002c _ZTVN10__cxxabiv117__class_type_infoE
010072ac g     F .text	00000074 __cxa_throw
010253ec g     O .bss	00000004 RS232Q
010274ac g     O .bss	00002000 mc_task_stk
010153a8 g     F .text	00000144 OSEventNameSet
0100ec70 g     F .text	000001fc _fflush_r
01009ca0 g     F .text	00000010 _Unwind_SetIP
01002d64  w    F .text	00000088 _ZNKSs13find_first_ofEPKcmm
01011a24 g     F .text	000000b4 _calloc_r
01025480 g     O .bss	00000001 OSRdyGrp
01021298  w    O .rodata	0000000c _ZTISt12length_error
01002a10  w    F .text	00000010 _ZNKSs12find_last_ofEcm
010023c8  w    F .text	0000000c _ZNSs4_Rep13_M_set_leakedEv
010081bc g     F .text	00000190 _ZSt19__throw_range_errorPKc
01003e00  w    F .text	00000034 _ZNSsC2EPKcmRKSaIcE
01009390 g     F .text	00000030 _ZNSt16invalid_argumentC1ERKSs
010253e8 g       *ABS*	00000000 __bss_start
01002dec  w    F .text	0000000c _ZNKSs13find_first_ofERKSsm
010035a8  w    F .text	000000a0 _ZNKSs7compareEmmRKSs
0100abbc g     F .text	00000098 memset
010253f0 g     O .bss	00000001 err
010023dc  w    F .text	00000014 _ZNSs4_Rep26_M_set_length_and_sharableEm
01002334  w    F .text	0000000c _ZNSs12_S_empty_repEv
01000a94 g     F .text	00000080 main
01021398  w    O .rodata	00000012 _ZTSSt13runtime_error
0102543c g     O .bss	00000004 alt_envp
0102541c g     O .bss	00000004 __malloc_max_total_mem
0102145c  w    O .rodata	00000014 _ZTVSt10bad_typeid
0101d690 g     F .text	00000058 altera_avalon_jtag_uart_write_fd
01011990 g     F .text	0000001c __swbuf
010078b0 g     F .text	00000034 _ZSt21__throw_bad_exceptionv
01009b64 g     F .text	00000008 __cxa_get_globals_fast
01021a68 g     O .rodata	00000100 OSUnMapTbl
0102378e g     O .rwdata	00000002 OSSemEn
0102134c  w    O .rodata	00000016 _ZTSNSt8ios_base7failureE
01018588 g     F .text	000003a8 OSFlagPost
0102148c  w    O .rodata	00000014 _ZTVSt8bad_cast
01011658 g     F .text	00000008 __sclose
02000000 g       *ABS*	00000000 __alt_heap_limit
01011c58 g     F .text	00000014 fclose
0101640c g     F .text	00000110 OS_EventTaskWait
0100b1d8 g     F .text	00000244 _strtol_r
01016ff8 g     F .text	000000c8 OS_TaskStatStkChk
0102d018 g     O .bss	00000190 _atexit0
0101c2c0 g     F .text	00000170 OSTaskDelReq
010088fc  w    F .text	00000010 _ZNSt12out_of_rangeD1Ev
0100d6bc g     F .text	000015b4 _dtoa_r
0100a1a4 g     F .text	00000740 _malloc_r
01003d98  w    F .text	00000034 _ZNSsC2IPKcEET_S2_RKSaIcE
0100335c  w    F .text	00000034 _ZNSsC2ERKSaIcE
01023744 g     O .rwdata	00000004 alt_errno
01005fd8  w    F .text	0000001c _ZNSs7replaceEN9__gnu_cxx17__normal_iteratorIPcSsEES2_S1_S1_
01015ee0 g     F .text	00000070 OSStart
010090e0 g     F .text	00000030 _ZNSt14overflow_errorC2ERKSs
01008884  w    F .text	00000034 _ZNSt11range_errorD0Ev
0100af58 g     F .text	00000010 _init_signal
01015044 g     F .text	0000005c __env_unlock
01021130  w    O .rodata	0000000c _ZTIN10__cxxabiv117__class_type_infoE
0100fb04 g     F .text	000000b8 _fwalk
0101c7ac g     F .text	00000218 OSTaskResume
010194a4 g     F .text	000000fc OSMemQuery
010237a0 g     O .rwdata	00000002 OSTaskStatEn
0102377a g     O .rwdata	00000002 OSMemMax
01002c74  w    F .text	000000e4 _ZNKSs12find_last_ofEPKcmm
0101a3bc g     F .text	00000188 OSQPostFront
01009aa0 g     F .text	00000010 _ZNSt13bad_exceptionD1Ev
01010e08 g     F .text	00000104 putc
01013b74 g     F .text	00000060 __divsi3
01000860 g     F .text	00000050 _ZN12MotorHandlerD1Ev
01025481 g     O .bss	00000003 OSRdyTbl
01023754 g     O .rwdata	00000002 OSDebugEn
01021934 g     O .rodata	00000014 __thenan_df
0100f160 g     F .text	0000012c _malloc_trim_r
01020e00 g       *ABS*	00000000 __CTOR_END__
0102376c g     O .rwdata	00000002 OSFlagNodeSize
010048d8  w    F .text	000000bc _ZNSs6appendERKSs
010237b4 g     O .rwdata	00000002 OSTmrCfgMax
010044fc  w    F .text	00000088 _ZNSs9push_backEc
010117a4 g     F .text	000000bc strcmp
01003870  w    F .text	00000020 _ZNSs13_S_copy_charsEPcPKcS1_
010197c4 g     F .text	00000214 OSQCreate
0101c430 g     F .text	000001b8 OSTaskNameGet
01020e00 g       *ABS*	00000000 __flash_rodata_start
0101a544 g     F .text	00000234 OSQPostOpt
01015ffc g     F .text	00000240 OSTimeTick
0102379c g     O .rwdata	00000002 OSTaskMax
01008c84 g     F .text	00000104 _ZNSt8ios_base7failureD2Ev
01020e00 g       *ABS*	00000000 __DTOR_LIST__
0101aa64 g     F .text	00000114 OSSemCreate
01008ae4 g     F .text	000000d0 _ZNSt8ios_base7failureC1ERKSs
010237c0 g     O .rwdata	00000002 OSTmrWheelSize
0101f40c g     F .text	00000040 alt_up_rs232_open_dev
01003e68  w    F .text	00000060 _ZNSsC1EPKcRKSaIcE
01013574 g     F .text	00000088 __nedf2
01009c0c g     F .text	00000010 _ZNSt8bad_castD2Ev
01023796 g     O .rwdata	00000002 OSTaskDelEn
010092d0 g     F .text	00000030 _ZNSt12out_of_rangeC1ERKSs
0101b338 g     F .text	00000130 OSSemQuery
010199d8 g     F .text	00000300 OSQDel
0101a0c0 g     F .text	0000017c OSQPendAbort
0101d544 g     F .text	00000034 alt_irq_init
010038b0  w    F .text	000000c4 _ZNSs12_S_constructIPcEES0_T_S1_RKSaIcESt20forward_iterator_tag
01014cfc g     F .text	00000060 alt_release_fd
010073f8 g     F .text	00000034 _ZN10__cxxabiv120__si_class_type_infoD0Ev
01005564  w    F .text	00000050 _ZNSs6insertEmPKc
01021948 g     O .rodata	00000100 __clz_tab
0100981c g     F .text	00000104 _ZNSt11logic_errorD2Ev
01005624  w    F .text	0000005c _ZNSs12_M_leak_hardEv
0102542c g     O .bss	00000004 _PathLocale
010213b8  w    O .rodata	00000010 _ZTSSt11logic_error
01008e9c g     F .text	00000104 _ZNSt11logic_errorD1Ev
01020798 g     F .text	00000014 atexit
01021234  w    O .rodata	0000000c _ZTISt11range_error
01009110 g     F .text	00000030 _ZNSt11range_errorC1ERKSs
010119ac g     F .text	00000078 _write_r
01015d70 g     F .text	0000008c OSSchedLock
0100fc64 g     F .text	0000001c setlocale
010088c8  w    F .text	00000034 _ZNSt12out_of_rangeD0Ev
01009cd4 g     F .text	00000008 _Unwind_GetTextRelBase
01009ac0 g     F .text	00000044 __cxa_call_terminate
01017860 g     F .text	0000013c OSFlagCreate
01023720 g     O .rwdata	00000004 _impure_ptr
01025434 g     O .bss	00000004 alt_argc
0101f75c g     F .text	00000064 _do_dtors
01023766 g     O .rwdata	00000002 OSEventMultiEn
01005a10  w    F .text	00000114 _ZStplIcSt11char_traitsIcESaIcEESbIT_T0_T1_ERKS6_S8_
0101799c g     F .text	000002a8 OSFlagDel
01025484 g     O .bss	00000004 OSEventFreeList
01000020 g       .exceptions	00000000 alt_irq_entry
01002650  w    F .text	0000002c _ZNKSs8_M_checkEmPKc
010030d8  w    F .text	00000050 _ZNKSs17find_first_not_ofEPKcm
0100020c g     F .text	00000030 _ZN12MotorHandlerC2Ev
01002854  w    F .text	00000010 _ZNKSs5emptyEv
0100ffd0 g     F .text	00000080 __ulp
010115e8 g     F .text	00000040 __isinfd
01009cc4 g     F .text	00000008 _Unwind_FindEnclosingFunction
01017edc g     F .text	00000644 OSFlagPend
010237b2 g     O .rwdata	00000002 OSTmrEn
01002544  w    F .text	00000010 _ZN9__gnu_cxxeqIPcSsEEbRKNS_17__normal_iteratorIT_T0_EES7_
0100efbc g     F .text	00000018 __fp_unlock_all
0100229c  w    F .text	00000004 _ZNSaIwEC1ERKS_
01005384  w    F .text	0000006c _ZNSs5eraseEmm
01023730 g     O .rwdata	00000008 alt_fs_list
01002980  w    F .text	0000000c _ZNKSs5rfindERKSsm
01003b94  w    F .text	000000ec _ZNSsC2ERKSsmm
01002f50  w    F .text	0000000c _ZNKSs16find_last_not_ofERKSsm
01016dfc g     F .text	00000080 OS_StrCopy
0101f0b4 g     F .text	00000054 alt_up_rs232_enable_read_interrupt
01009cb0 g     F .text	0000000c _Unwind_GetLanguageSpecificData
01008950  w    F .text	00000034 _ZNSt16invalid_argumentD0Ev
010003b4 g     F .text	00000088 _ZN12MotorHandler4moveEccPKc
0101f22c g     F .text	00000048 alt_up_rs232_write_data
01007114 g     F .text	00000118 __cxa_begin_catch
0102377c g     O .rwdata	00000002 OSMemNameSize
01006264 g     F .text	00000010 _ZN10__cxxabiv117__class_type_infoD2Ev
01007020 g     F .text	00000010 _ZN10__cxxabiv112__unexpectedEPFvvE
0102049c g     F .text	0000001c OSInitHookEnd
010212a4  w    O .rodata	00000011 _ZTSSt12length_error
01000020 g       *ABS*	00000000 __ram_exceptions_start
010237a8 g     O .rwdata	00000002 OSTCBPrioTblMax
0100fbd0 g     F .text	00000010 localeconv
010253f8 g     O .bss	00000004 motor
0100023c g     F .text	00000030 _ZN12MotorHandlerC1Ev
01007848 g     F .text	00000034 _ZSt16__throw_bad_castv
010237a4 g     O .rwdata	00000002 OSTaskStatStkChkEn
01009a6c g     F .text	00000034 _ZNSt13bad_exceptionD0Ev
010236f8 g     O .rwdata	00000004 _ZN10__cxxabiv119__terminate_handlerE
010211ec  w    O .rodata	00000014 _ZTVSt15underflow_error
01023778 g     O .rwdata	00000002 OSMemEn
010075e0 g     F .text	00000134 __cxa_allocate_exception
01023782 g     O .rwdata	00000002 OSMutexEn
01021190  w    O .rodata	0000000c _ZTIN10__cxxabiv120__si_class_type_infoE
01009b04 g     F .text	0000000c _ZSt15set_new_handlerPFvvE
01005264  w    F .text	00000048 _ZNSsaSEc
010237d4 g       *ABS*	00000000 _edata
0101e48c g     F .text	00000058 altera_avalon_uart_read_fd
0102d1a8 g       *ABS*	00000000 _end
0102370c g     O .rwdata	00000001 _ZSt7nothrow
01009710 g     F .text	0000010c _ZNSt13runtime_errorD0Ev
01025488 g     O .bss	00000001 OSIntNesting
01006a5c g     F .text	000004e0 __gxx_personality_sj0
01003648  w    F .text	0000009c _ZNSs4_Rep8_M_cloneERKSaIcEm
010002d8 g     F .text	000000dc _ZN12MotorHandler4sendEcPKc
010001c0 g       *ABS*	00000000 __ram_exceptions_end
0101dd00 g     F .text	000000f4 altera_avalon_jtag_uart_ioctl
0101d26c g     F .text	00000210 OSTimeDlyResume
01017d88 g     F .text	00000154 OSFlagNameSet
010022a4  w    F .text	00000004 _ZNSaIcEC1ERKS_
01006304 g     F .text	0000004c _ZNK10__cxxabiv117__class_type_info12__do_dyncastElNS0_10__sub_kindEPKS0_PKvS3_S5_RNS0_16__dyncast_resultE
01009a4c g     F .text	00000010 _ZNSt9exceptionD1Ev
0101c9c4 g     F .text	000001fc OSTaskStkChk
010253fc g     O .bss	00000004 _ZN14__gnu_internal12atomic_mutexE
0102377e g     O .rwdata	00000002 OSMemSize
01021364  w    O .rodata	0000000c _ZTINSt8ios_base7failureE
010116c8 g     F .text	0000007c __swrite
01023714 g     O .rwdata	00000004 __malloc_trim_threshold
0101ffec g     F .text	00000020 altera_nios2_qsys_irq_init
01002adc  w    F .text	00000130 _ZNSs4_Rep9_S_createEmmRKSaIcE
0102548c g     O .bss	00000004 OSTCBCur
010207ac g     F .text	00000038 exit
01009c64 g     F .text	00000018 _Unwind_SetGR
01004994  w    F .text	00000004 _ZNSspLERKSs
01023780 g     O .rwdata	00000002 OSMemTblSize
0100fa3c g     F .text	000000c8 _fwalk_reent
010253e8 g     O .bss	00000004 SWQ
01021324  w    O .rodata	00000014 _ZTVSt12domain_error
010105cc g     F .text	0000018c __mdiff
01006f64 g     F .text	000000a4 _ZN10__cxxabiv111__terminateEPFvvE
0100511c  w    F .text	00000068 _ZNSs7replaceEmmmc
01013bd4 g     F .text	00000060 __modsi3
01009b44 g     F .text	00000010 _ZNSt9bad_allocD1Ev
02000000 g       *ABS*	00000000 __alt_data_end
01000020 g     F .exceptions	00000000 alt_exception
0100eefc g     F .text	00000004 __sfp_lock_release
01007480 g     F .text	000000c8 _ZNK10__cxxabiv120__si_class_type_info12__do_dyncastElNS_17__class_type_info10__sub_kindEPKS1_PKvS4_S6_RNS1_16__dyncast_resultE
01015ba0 g     F .text	00000054 OSInit
01021410  w    O .rodata	0000000c _ZTISt13bad_exception
01000000 g       *ABS*	00000000 __alt_mem_sdram
0101cdec g     F .text	00000144 OSTaskQuery
0101a8f8 g     F .text	000000ac OS_QInit
01016e7c g     F .text	00000058 OS_StrLen
01019294 g     F .text	00000120 OSMemNameSet
0102153a g     O .rodata	00000101 _ctype_
01000598 g     F .text	0000020c _ZN12MotorHandler12motorCommandESsSsSs
01008994  w    F .text	00000034 _ZNSt12domain_errorD0Ev
0102379a g     O .rwdata	00000002 OSTaskProfileEn
01025490 g     O .bss	00000004 OSTime
010026d8  w    F .text	00000008 _ZNKSs5c_strEv
0101ea9c g     F .text	00000060 altera_avalon_uart_close
0102b674 g     O .bss	00000800 OSTaskIdleStk
01011628 g     F .text	00000030 __isnand
01014438 g     F .text	0000002c _exit
01008bb4 g     F .text	000000d0 _ZNSt8ios_base7failureC2ERKSs
0101f44c g     F .text	00000154 alt_alarm_start
01017c44 g     F .text	00000144 OSFlagNameGet
010084dc g     F .text	00000190 _ZSt20__throw_out_of_rangePKc
01003390  w    F .text	00000090 _ZNKSs7compareEmmPKcm
01005184  w    F .text	00000060 _ZNSs6insertEN9__gnu_cxx17__normal_iteratorIPcSsEEc
0101d47c g     F .text	00000064 OSTimeGet
01013c44 g     F .text	00000098 __muldi3
01009c38 g     F .text	00000018 _Unwind_GetGR
01009b6c g     F .text	00000008 __cxa_get_globals
0100fc80 g     F .text	00000194 __smakebuf_r
01023710 g     O .rwdata	00000004 _ZN10__cxxabiv120__unexpected_handlerE
010047b0  w    F .text	00000040 _ZNSspLEPKc
0100b164 g     F .text	00000074 strlen
01007b7c g     F .text	00000190 _ZSt23__throw_underflow_errorPKc
0100aef4 g     F .text	00000064 _init_signal_r
010236fc  w    O .rwdata	00000008 _ZTISt9type_info
0102042c g     F .text	0000001c OSTaskSwHook
0101fc5c g     F .text	00000188 open
010023a4  w    F .text	0000000c _ZNSs4_Rep12_S_empty_repEv
0100239c  w    F .text	00000008 _ZNSs12_Alloc_hiderC1EPcRKSaIcE
0102be74 g     O .bss	00000b40 OSEventTbl
01013684 g     F .text	00000088 __gedf2
0102141c  w    O .rodata	0000000d _ZTSSt9exception
0102c9b4 g     O .bss	00000510 OSTCBTbl
01021370  w    O .rodata	00000014 _ZTVSt13runtime_error
0101b468 g     F .text	00000104 OSSemSet
01021470  w    O .rodata	0000000f _ZTSSt10bad_typeid
01002864  w    F .text	0000000c _ZNKSs6lengthEv
01003890  w    F .text	00000020 _ZNSs13_S_copy_charsEPcS_S_
01009450 g     F .text	00000008 _ZNKSt11logic_error4whatEv
01003cd4  w    F .text	000000c4 _ZNSs12_S_constructIPKcEEPcT_S3_RKSaIcESt20forward_iterator_tag
01009a3c g     F .text	00000010 _ZNSt9exceptionD0Ev
01005848  w    F .text	00000070 _ZNSs6resizeEmc
0101f854 g     F .text	00000030 alt_icache_flush_all
01021338  w    O .rodata	00000014 _ZTVNSt8ios_base7failureE
01009ba8 g     F .text	00000010 _ZNSt10bad_typeidD1Ev
01009ccc g     F .text	00000008 _Unwind_GetDataRelBase
01005fbc  w    F .text	0000001c _ZNSs7replaceEN9__gnu_cxx17__normal_iteratorIPcSsEES2_PKcS4_
010237c8 g     O .rwdata	00000004 alt_priority_mask
010053f0  w    F .text	00000174 _ZNSs6insertEmPKcm
0101ab78 g     F .text	000002a0 OSSemDel
01025494 g     O .bss	00000004 OSFlagFreeList
01023760 g     O .rwdata	00000002 OSEventNameSize
010022a0  w    F .text	00000004 _ZNSaIwEC2ERKS_
0100d344 g     F .text	00000024 __vfprintf_internal
01002374  w    F .text	0000000c _ZNKSs8max_sizeEv
01025498 g     O .bss	00000001 OSStatRdy
0102cec4 g     O .bss	00000054 OSTCBPrioTbl
0101eafc g     F .text	000002b0 altera_avalon_uart_read
01014f98 g     F .text	000000ac __env_lock
010237a6 g     O .rwdata	00000002 OSTaskSwHookEn
010089e0 g     F .text	00000104 _ZNSt8ios_base7failureD1Ev
01009bb8 g     F .text	00000010 _ZNSt10bad_typeidD2Ev
01012ddc g     F .text	00000080 __subdf3
01002c0c  w    F .text	00000004 _ZNSs4_Rep10_M_destroyERKSaIcE
010034e8  w    F .text	000000c0 _ZNKSs7compareEmmRKSsmm
01002d58  w    F .text	0000000c _ZNKSs12find_last_ofERKSsm
01003ec8  w    F .text	00000060 _ZNSsC2EPKcRKSaIcE
010023f0  w    F .text	00000008 _ZNSs4_Rep10_M_refdataEv
0100feac g     F .text	000000c4 __lo0bits
010057f4  w    F .text	00000054 _ZNSs6rbeginEv
010051e4  w    F .text	00000048 _ZNSs6insertEmmc
010237cc g     O .rwdata	00000008 alt_alarm_list
0102376e g     O .rwdata	00000002 OSFlagWidth
0101f6f8 g     F .text	00000064 _do_ctors
0100b01c g     F .text	00000014 __sigtramp
010212cc  w    O .rodata	0000000c _ZTISt16invalid_argument
01003ffc  w    F .text	00000034 _ZNSsC2IN9__gnu_cxx17__normal_iteratorIPcSsEEEET_S4_RKSaIcE
0101f160 g     F .text	0000003c alt_up_rs232_get_used_space_in_read_FIFO
01002318  w    F .text	0000001c _ZNKSs11_M_disjunctEPKc
01014270 g     F .text	000000fc close
01005b24  w    F .text	00000034 _ZNSs4swapERSs
010032b0  w    F .text	0000003c _ZNSsC1EmcRKSaIcE
01025444 g     O .bss	00000004 alt_envsem
0102549c g     O .bss	00000004 OSIdleCtrRun
0101623c g     F .text	00000020 OSVersion
010237b8 g     O .rwdata	00000002 OSTmrCfgWheelSize
01009170 g     F .text	000000b0 _ZNSt11logic_errorC1ERKSs
01014878 g     F .text	00000080 alt_load
0101cf30 g     F .text	0000007c OS_TaskStkClr
01013d5c g     F .text	00000314 __pack_d
01023792 g     O .rwdata	00000002 OSTaskCreateEn
01002340  w    F .text	00000010 _ZNSsC1Ev
01007558 g     F .text	00000010 _ZNKSt9type_info10__do_catchEPKS_PPvj
0101682c g     F .text	00000068 OS_EventWaitListInit
0100aee0 g     F .text	00000014 raise
010204b8 g     F .text	0000001c OSTaskIdleHook
010093c0 g     F .text	00000030 _ZNSt16invalid_argumentC2ERKSs
0100a17c g     F .text	00000014 free
0100ef00 g     F .text	00000004 __sinit_lock_acquire
01009360 g     F .text	00000030 _ZNSt12length_errorC2ERKSs
01010ac8 g     F .text	00000100 __multadd
01006220 g     F .text	00000034 _ZN10__cxxabiv117__class_type_infoD0Ev
0101cbc0 g     F .text	0000022c OSTaskSuspend
0100fe14 g     F .text	00000028 _Bfree
01004664  w    F .text	0000010c _ZNSs6appendEPKcm
01016ed4 g     F .text	0000005c OS_TaskIdle
01009458 g     F .text	000000b0 _ZNSt13runtime_errorC1ERKSs
01003a68  w    F .text	000000ec _ZNSsC1ERKSsmm
010237be g     O .rwdata	00000002 OSTmrTblSize
0101a778 g     F .text	00000180 OSQQuery



Disassembly of section .entry:

01000000 <__reset>:
#if NIOS2_ICACHE_SIZE > 0 && defined(ALT_ALLOW_CODE_AT_RESET) && !defined(ALT_SIM_OPTIMIZE)
    /* Assume the instruction cache size is always a power of two. */
#if NIOS2_ICACHE_SIZE > 0x8000
    movhi r2, %hi(NIOS2_ICACHE_SIZE)
#else
    movui r2, NIOS2_ICACHE_SIZE
 1000000:	00880014 	movui	r2,8192
#endif

0:
    initi r2
 1000004:	1001483a 	initi	r2
    addi r2, r2, -NIOS2_ICACHE_LINE_SIZE
 1000008:	10bff804 	addi	r2,r2,-32
    bgt r2, zero, 0b
 100000c:	00bffd16 	blt	zero,r2,1000004 <__reset+0x4>
 * Jump to the _start entry point in the .text section if reset code
 * is allowed or if optimizing for RTL simulation.
 */
#if defined(ALT_ALLOW_CODE_AT_RESET) || defined(ALT_SIM_OPTIMIZE)
    /* Jump to the _start entry point in the .text section. */
    movhi r1, %hi(_start)
 1000010:	00404034 	movhi	at,256
    ori r1, r1, %lo(_start)
 1000014:	08407014 	ori	at,at,448
    jmp r1
 1000018:	0800683a 	jmp	at
 100001c:	00000000 	call	0 <OSTCBStkPtr_OFFSET>

Disassembly of section .exceptions:

01000020 <alt_exception>:
         * Process an exception.  For all exceptions we must preserve all
         * caller saved registers on the stack (See the Nios2 ABI
         * documentation for details).
         */

        addi  sp, sp, -76
 1000020:	deffed04 	addi	sp,sp,-76

#endif

#endif

        stw   ra,  0(sp)
 1000024:	dfc00015 	stw	ra,0(sp)
        /*
         * Leave a gap in the stack frame at 4(sp) for the muldiv handler to
         * store zero into.
         */

        stw   r1,   8(sp)
 1000028:	d8400215 	stw	at,8(sp)
        stw   r2,  12(sp)
 100002c:	d8800315 	stw	r2,12(sp)
        stw   r3,  16(sp)
 1000030:	d8c00415 	stw	r3,16(sp)
        stw   r4,  20(sp)
 1000034:	d9000515 	stw	r4,20(sp)
        stw   r5,  24(sp)
 1000038:	d9400615 	stw	r5,24(sp)
        stw   r6,  28(sp)
 100003c:	d9800715 	stw	r6,28(sp)
        stw   r7,  32(sp)
 1000040:	d9c00815 	stw	r7,32(sp)

        rdctl r5, estatus
 1000044:	000b307a 	rdctl	r5,estatus

        stw   r8,  36(sp)
 1000048:	da000915 	stw	r8,36(sp)
        stw   r9,  40(sp)
 100004c:	da400a15 	stw	r9,40(sp)
        stw   r10, 44(sp)
 1000050:	da800b15 	stw	r10,44(sp)
        stw   r11, 48(sp)
 1000054:	dac00c15 	stw	r11,48(sp)
        stw   r12, 52(sp)
 1000058:	db000d15 	stw	r12,52(sp)
        stw   r13, 56(sp)
 100005c:	db400e15 	stw	r13,56(sp)
        stw   r14, 60(sp)
 1000060:	db800f15 	stw	r14,60(sp)
        stw   r15, 64(sp)
 1000064:	dbc01015 	stw	r15,64(sp)
        /*
         * ea-4 contains the address of the instruction being executed
         * when the exception occured. For interrupt exceptions, we will
         * will be re-issue the isntruction. Store it in 72(sp)
         */
        stw   r5,  68(sp)  /* estatus */
 1000068:	d9401115 	stw	r5,68(sp)
        addi  r15, ea, -4  /* instruction that caused exception */
 100006c:	ebffff04 	addi	r15,ea,-4
        stw   r15,  72(sp)
 1000070:	dbc01215 	stw	r15,72(sp)
#else
        /*
         * Test to see if the exception was a software exception or caused 
         * by an external interrupt, and vector accordingly.
         */
        rdctl r4, ipending
 1000074:	0009313a 	rdctl	r4,ipending
        andi  r2, r5, 1
 1000078:	2880004c 	andi	r2,r5,1
        beq   r2, zero, .Lnot_irq
 100007c:	10000326 	beq	r2,zero,100008c <alt_exception+0x6c>
        beq   r4, zero, .Lnot_irq
 1000080:	20000226 	beq	r4,zero,100008c <alt_exception+0x6c>
        /*
         * Now that all necessary registers have been preserved, call 
         * alt_irq_handler() to process the interrupts.
         */

        call alt_irq_handler
 1000084:	10000ec0 	call	10000ec <alt_irq_handler>

        .section .exceptions.irqreturn, "xa"

        br    .Lexception_exit
 1000088:	00000306 	br	1000098 <alt_exception+0x78>
         * upon completion, so we write ea (address of instruction *after*
         * the one where the exception occured) into 72(sp). The actual
         * instruction that caused the exception is written in r2, which these
         * handlers will utilize.
         */
        stw   ea,  72(sp)  /* Don't re-issue */
 100008c:	df401215 	stw	ea,72(sp)
        ldw   r2, -4(ea)   /* Instruction that caused exception */
 1000090:	e8bfff17 	ldw	r2,-4(ea)
#ifdef NIOS2_HAS_DEBUG_STUB
       /*
        *  Either tell the user now (if there is a debugger attached) or go into
        *  the debug monitor which will loop until a debugger is attached.
        */
        break
 1000094:	003da03a 	break	0
        /* 
         * Restore the saved registers, so that all general purpose registers 
         * have been restored to their state at the time the interrupt occured.
         */

        ldw   r5,  68(sp)
 1000098:	d9401117 	ldw	r5,68(sp)
        ldw   ea,  72(sp)  /* This becomes the PC once eret is executed */
 100009c:	df401217 	ldw	ea,72(sp)
        ldw   ra,   0(sp)
 10000a0:	dfc00017 	ldw	ra,0(sp)

        wrctl estatus, r5
 10000a4:	2801707a 	wrctl	estatus,r5

        ldw   r1,   8(sp)
 10000a8:	d8400217 	ldw	at,8(sp)
        ldw   r2,  12(sp)
 10000ac:	d8800317 	ldw	r2,12(sp)
        ldw   r3,  16(sp)
 10000b0:	d8c00417 	ldw	r3,16(sp)
        ldw   r4,  20(sp)
 10000b4:	d9000517 	ldw	r4,20(sp)
        ldw   r5,  24(sp)
 10000b8:	d9400617 	ldw	r5,24(sp)
        ldw   r6,  28(sp)
 10000bc:	d9800717 	ldw	r6,28(sp)
        ldw   r7,  32(sp)
 10000c0:	d9c00817 	ldw	r7,32(sp)
#ifdef ALT_STACK_CHECK
        ldw   et, %gprel(alt_exception_old_stack_limit)(gp)
#endif
#endif

        ldw   r8,  36(sp)
 10000c4:	da000917 	ldw	r8,36(sp)
        ldw   r9,  40(sp)
 10000c8:	da400a17 	ldw	r9,40(sp)
        ldw   r10, 44(sp)
 10000cc:	da800b17 	ldw	r10,44(sp)
        ldw   r11, 48(sp)
 10000d0:	dac00c17 	ldw	r11,48(sp)
        ldw   r12, 52(sp)
 10000d4:	db000d17 	ldw	r12,52(sp)
        ldw   r13, 56(sp)
 10000d8:	db400e17 	ldw	r13,56(sp)
        ldw   r14, 60(sp)
 10000dc:	db800f17 	ldw	r14,60(sp)
        ldw   r15, 64(sp)
 10000e0:	dbc01017 	ldw	r15,64(sp)
#endif

        ldw   sp,  76(sp)

#else
        addi  sp, sp, 76
 10000e4:	dec01304 	addi	sp,sp,76

        /*
         * Return to the interrupted instruction.
         */

        eret
 10000e8:	ef80083a 	eret

010000ec <alt_irq_handler>:
 * instruction is present if the macro ALT_CI_INTERRUPT_VECTOR defined.
 */

void alt_irq_handler (void) __attribute__ ((section (".exceptions")));
void alt_irq_handler (void)
{
 10000ec:	defff904 	addi	sp,sp,-28
 10000f0:	dfc00615 	stw	ra,24(sp)
 10000f4:	df000515 	stw	fp,20(sp)
 10000f8:	df000504 	addi	fp,sp,20
  
  /*
   * Notify the operating system that we are at interrupt level.
   */ 
  
  ALT_OS_INT_ENTER();
 10000fc:	1015bf40 	call	1015bf4 <OSIntEnter>
#ifndef NIOS2_EIC_PRESENT
static ALT_INLINE alt_u32 ALT_ALWAYS_INLINE alt_irq_pending (void)
{
  alt_u32 active;

  NIOS2_READ_IPENDING (active);
 1000100:	0005313a 	rdctl	r2,ipending
 1000104:	e0bffc15 	stw	r2,-16(fp)

  return active;
 1000108:	e0bffc17 	ldw	r2,-16(fp)
   * Consider the case where the high priority interupt is asserted during
   * the interrupt entry sequence for a lower priority interrupt to see why
   * this is the case.
   */

  active = alt_irq_pending ();
 100010c:	e0bfff15 	stw	r2,-4(fp)

  do
  {
    i = 0;
 1000110:	e03ffd15 	stw	zero,-12(fp)
    mask = 1;
 1000114:	00800044 	movi	r2,1
 1000118:	e0bffe15 	stw	r2,-8(fp)
     * called to clear the interrupt condition.
     */

    do
    {
      if (active & mask)
 100011c:	e0ffff17 	ldw	r3,-4(fp)
 1000120:	e0bffe17 	ldw	r2,-8(fp)
 1000124:	1884703a 	and	r2,r3,r2
 1000128:	1005003a 	cmpeq	r2,r2,zero
 100012c:	1000171e 	bne	r2,zero,100018c <alt_irq_handler+0xa0>
      { 
#ifdef ALT_ENHANCED_INTERRUPT_API_PRESENT
        alt_irq[i].handler(alt_irq[i].context); 
#else
        alt_irq[i].handler(alt_irq[i].context, i); 
 1000130:	e0bffd17 	ldw	r2,-12(fp)
 1000134:	00c040f4 	movhi	r3,259
 1000138:	18f3c604 	addi	r3,r3,-12520
 100013c:	100490fa 	slli	r2,r2,3
 1000140:	10c5883a 	add	r2,r2,r3
 1000144:	11800017 	ldw	r6,0(r2)
 1000148:	e0bffd17 	ldw	r2,-12(fp)
 100014c:	00c040f4 	movhi	r3,259
 1000150:	18f3c604 	addi	r3,r3,-12520
 1000154:	100490fa 	slli	r2,r2,3
 1000158:	10c5883a 	add	r2,r2,r3
 100015c:	10800104 	addi	r2,r2,4
 1000160:	11000017 	ldw	r4,0(r2)
 1000164:	e17ffd17 	ldw	r5,-12(fp)
 1000168:	303ee83a 	callr	r6
#ifndef NIOS2_EIC_PRESENT
static ALT_INLINE alt_u32 ALT_ALWAYS_INLINE alt_irq_pending (void)
{
  alt_u32 active;

  NIOS2_READ_IPENDING (active);
 100016c:	0005313a 	rdctl	r2,ipending
 1000170:	e0bffb15 	stw	r2,-20(fp)

  return active;
 1000174:	e0bffb17 	ldw	r2,-20(fp)
      mask <<= 1;
      i++;

    } while (1);

    active = alt_irq_pending ();
 1000178:	e0bfff15 	stw	r2,-4(fp)
    
  } while (active);
 100017c:	e0bfff17 	ldw	r2,-4(fp)
 1000180:	1004c03a 	cmpne	r2,r2,zero
 1000184:	103fe21e 	bne	r2,zero,1000110 <alt_irq_handler+0x24>
 1000188:	00000706 	br	10001a8 <alt_irq_handler+0xbc>
#else
        alt_irq[i].handler(alt_irq[i].context, i); 
#endif
        break;
      }
      mask <<= 1;
 100018c:	e0bffe17 	ldw	r2,-8(fp)
 1000190:	1085883a 	add	r2,r2,r2
 1000194:	e0bffe15 	stw	r2,-8(fp)
      i++;
 1000198:	e0bffd17 	ldw	r2,-12(fp)
 100019c:	10800044 	addi	r2,r2,1
 10001a0:	e0bffd15 	stw	r2,-12(fp)

    } while (1);
 10001a4:	003fdd06 	br	100011c <alt_irq_handler+0x30>

  /*
   * Notify the operating system that interrupt processing is complete.
   */ 

  ALT_OS_INT_EXIT();
 10001a8:	1015c700 	call	1015c70 <OSIntExit>
}
 10001ac:	e037883a 	mov	sp,fp
 10001b0:	dfc00117 	ldw	ra,4(sp)
 10001b4:	df000017 	ldw	fp,0(sp)
 10001b8:	dec00204 	addi	sp,sp,8
 10001bc:	f800283a 	ret

Disassembly of section .text:

010001c0 <_start>:

    /* Assume the data cache size is always a power of two. */
#if NIOS2_DCACHE_SIZE > 0x8000
    movhi r2, %hi(NIOS2_DCACHE_SIZE)
#else
    movui r2, NIOS2_DCACHE_SIZE
 10001c0:	00840014 	movui	r2,4096
#endif

0:
    initd 0(r2)
 10001c4:	10000033 	initd	0(r2)
    addi r2, r2, -NIOS2_DCACHE_LINE_SIZE
 10001c8:	10bff804 	addi	r2,r2,-32
    bgt r2, zero, 0b
 10001cc:	00bffd16 	blt	zero,r2,10001c4 <_start+0x4>
#if (NIOS2_NUM_OF_SHADOW_REG_SETS == 0)    
    /*
     * Now that the caches are initialized, set up the stack pointer.
     * The value provided by the linker is assumed to be correctly aligned.
     */
    movhi sp, %hi(__alt_stack_pointer)
 10001d0:	06c08034 	movhi	sp,512
    ori sp, sp, %lo(__alt_stack_pointer)
 10001d4:	dec00014 	ori	sp,sp,0

    /* Set up the global pointer. */
    movhi gp, %hi(_gp)
 10001d8:	068040b4 	movhi	gp,258
    ori gp, gp, %lo(_gp)
 10001dc:	d6adb914 	ori	gp,gp,46820
 */
#ifndef ALT_SIM_OPTIMIZE
    /* Log that the BSS is about to be cleared. */
    ALT_LOG_PUTS(alt_log_msg_bss)

    movhi r2, %hi(__bss_start)
 10001e0:	008040b4 	movhi	r2,258
    ori r2, r2, %lo(__bss_start)
 10001e4:	1094fa14 	ori	r2,r2,21480

    movhi r3, %hi(__bss_end)
 10001e8:	00c040b4 	movhi	r3,258
    ori r3, r3, %lo(__bss_end)
 10001ec:	18f46a14 	ori	r3,r3,53672

    beq r2, r3, 1f
 10001f0:	10c00326 	beq	r2,r3,1000200 <_start+0x40>

0:
    stw zero, (r2)
 10001f4:	10000015 	stw	zero,0(r2)
    addi r2, r2, 4
 10001f8:	10800104 	addi	r2,r2,4
    bltu r2, r3, 0b
 10001fc:	10fffd36 	bltu	r2,r3,10001f4 <_start+0x34>
     * section aren't defined until alt_load() has been called).
     */
    mov   et, zero
#endif

    call alt_load
 1000200:	10148780 	call	1014878 <alt_load>

    /* Log that alt_main is about to be called. */
    ALT_LOG_PUTS(alt_log_msg_alt_main)

    /* Call the C entry point. It should never return. */
    call alt_main
 1000204:	1014ab40 	call	1014ab4 <alt_main>

01000208 <alt_after_alt_main>:

    /* Wait in infinite loop in case alt_main does return. */
alt_after_alt_main:
    br alt_after_alt_main
 1000208:	003fff06 	br	1000208 <alt_after_alt_main>

0100020c <_ZN12MotorHandlerC2Ev>:
#define WRITE_FIFO_EMPTY 0x80
#define MOTOR_ENABLE 	1
#define MOTOR_RESET		0

// ALLOCATION
MotorHandler::MotorHandler() {}
 100020c:	defffe04 	addi	sp,sp,-8
 1000210:	df000115 	stw	fp,4(sp)
 1000214:	df000104 	addi	fp,sp,4
 1000218:	e13fff15 	stw	r4,-4(fp)
 100021c:	00c040b4 	movhi	r3,258
 1000220:	18c3c304 	addi	r3,r3,3852
 1000224:	e0bfff17 	ldw	r2,-4(fp)
 1000228:	10c00015 	stw	r3,0(r2)
 100022c:	e037883a 	mov	sp,fp
 1000230:	df000017 	ldw	fp,0(sp)
 1000234:	dec00104 	addi	sp,sp,4
 1000238:	f800283a 	ret

0100023c <_ZN12MotorHandlerC1Ev>:
 100023c:	defffe04 	addi	sp,sp,-8
 1000240:	df000115 	stw	fp,4(sp)
 1000244:	df000104 	addi	fp,sp,4
 1000248:	e13fff15 	stw	r4,-4(fp)
 100024c:	00c040b4 	movhi	r3,258
 1000250:	18c3c304 	addi	r3,r3,3852
 1000254:	e0bfff17 	ldw	r2,-4(fp)
 1000258:	10c00015 	stw	r3,0(r2)
 100025c:	e037883a 	mov	sp,fp
 1000260:	df000017 	ldw	fp,0(sp)
 1000264:	dec00104 	addi	sp,sp,4
 1000268:	f800283a 	ret

0100026c <_ZN12MotorHandler5resetEv>:
		OSTimeDlyHMSM(0, 0, 0, 10);
		send(message, description);
	}
}

void MotorHandler::reset(){
 100026c:	defffd04 	addi	sp,sp,-12
 1000270:	dfc00215 	stw	ra,8(sp)
 1000274:	df000115 	stw	fp,4(sp)
 1000278:	df000104 	addi	fp,sp,4
 100027c:	e13fff15 	stw	r4,-4(fp)
	IOWR_ALTERA_AVALON_PIO_DATA(PIO_MOTOR_RST_BASE, 0);
 1000280:	00808034 	movhi	r2,512
 1000284:	10841804 	addi	r2,r2,4192
 1000288:	10000035 	stwio	zero,0(r2)
	OSTimeDlyHMSM(0, 0, 0,200 );
 100028c:	0009883a 	mov	r4,zero
 1000290:	000b883a 	mov	r5,zero
 1000294:	000d883a 	mov	r6,zero
 1000298:	01c03204 	movi	r7,200
 100029c:	101d0f80 	call	101d0f8 <OSTimeDlyHMSM>
	IOWR_ALTERA_AVALON_PIO_DATA(PIO_MOTOR_RST_BASE, 1);
 10002a0:	00c08034 	movhi	r3,512
 10002a4:	18c41804 	addi	r3,r3,4192
 10002a8:	00800044 	movi	r2,1
 10002ac:	18800035 	stwio	r2,0(r3)
	OSTimeDlyHMSM(0, 0, 0, 200);
 10002b0:	0009883a 	mov	r4,zero
 10002b4:	000b883a 	mov	r5,zero
 10002b8:	000d883a 	mov	r6,zero
 10002bc:	01c03204 	movi	r7,200
 10002c0:	101d0f80 	call	101d0f8 <OSTimeDlyHMSM>
}
 10002c4:	e037883a 	mov	sp,fp
 10002c8:	dfc00117 	ldw	ra,4(sp)
 10002cc:	df000017 	ldw	fp,0(sp)
 10002d0:	dec00204 	addi	sp,sp,8
 10002d4:	f800283a 	ret

010002d8 <_ZN12MotorHandler4sendEcPKc>:
/*
 * Sends a byte-length message to the motor controller.
 * @param message - the message to send
 * @param description - the string description of the message, for debugging
 */
void MotorHandler::send(char message, const char *description) {
 10002d8:	defff904 	addi	sp,sp,-28
 10002dc:	dfc00615 	stw	ra,24(sp)
 10002e0:	df000515 	stw	fp,20(sp)
 10002e4:	df000504 	addi	fp,sp,20
 10002e8:	e13ffd15 	stw	r4,-12(fp)
 10002ec:	e1bfff15 	stw	r6,-4(fp)
 10002f0:	e17ffe05 	stb	r5,-8(fp)
	alt_u32 write_space;
	// Check for write space.
	write_space = alt_up_rs232_get_available_space_in_write_FIFO(motor_dev);
 10002f4:	e0bffd17 	ldw	r2,-12(fp)
 10002f8:	11000117 	ldw	r4,4(r2)
 10002fc:	101f19c0 	call	101f19c <alt_up_rs232_get_available_space_in_write_FIFO>
 1000300:	e0bffc15 	stw	r2,-16(fp)
	if (write_space >= WRITE_FIFO_EMPTY) {
 1000304:	e0bffc17 	ldw	r2,-16(fp)
 1000308:	10802030 	cmpltui	r2,r2,128
 100030c:	1000161e 	bne	r2,zero,1000368 <_ZN12MotorHandler4sendEcPKc+0x90>
		// If space, write.
		int status = alt_up_rs232_write_data(motor_dev, message);
 1000310:	e0bffd17 	ldw	r2,-12(fp)
 1000314:	11000117 	ldw	r4,4(r2)
 1000318:	e0bffe03 	ldbu	r2,-8(fp)
 100031c:	11403fcc 	andi	r5,r2,255
 1000320:	101f22c0 	call	101f22c <alt_up_rs232_write_data>
 1000324:	e0bffb15 	stw	r2,-20(fp)
		printf("MotorHandler [message: 0x%02x, description: %s", message, description);
 1000328:	e17ffe07 	ldb	r5,-8(fp)
 100032c:	010040b4 	movhi	r4,258
 1000330:	21038004 	addi	r4,r4,3584
 1000334:	e1bfff17 	ldw	r6,-4(fp)
 1000338:	100ac540 	call	100ac54 <printf>
		// Log errors.
		if (status == OK) {
 100033c:	e0bffb17 	ldw	r2,-20(fp)
 1000340:	1004c03a 	cmpne	r2,r2,zero
 1000344:	1000041e 	bne	r2,zero,1000358 <_ZN12MotorHandler4sendEcPKc+0x80>
			printf("]\n");
 1000348:	010040b4 	movhi	r4,258
 100034c:	21038c04 	addi	r4,r4,3632
 1000350:	100ad900 	call	100ad90 <puts>
 1000354:	00001206 	br	10003a0 <_ZN12MotorHandler4sendEcPKc+0xc8>
		} else {
			printf(", error: cannot write]\n");
 1000358:	010040b4 	movhi	r4,258
 100035c:	21038d04 	addi	r4,r4,3636
 1000360:	100ad900 	call	100ad90 <puts>
 1000364:	00000e06 	br	10003a0 <_ZN12MotorHandler4sendEcPKc+0xc8>
		}
	} else {
		// If no space, wait and retry.
		printf("MotorHandler [message: 0x%02x, description: %s, error: no write space; retrying]\n", message, description);
 1000368:	e17ffe07 	ldb	r5,-8(fp)
 100036c:	010040b4 	movhi	r4,258
 1000370:	21039304 	addi	r4,r4,3660
 1000374:	e1bfff17 	ldw	r6,-4(fp)
 1000378:	100ac540 	call	100ac54 <printf>
		OSTimeDlyHMSM(0, 0, 0, 10);
 100037c:	0009883a 	mov	r4,zero
 1000380:	000b883a 	mov	r5,zero
 1000384:	000d883a 	mov	r6,zero
 1000388:	01c00284 	movi	r7,10
 100038c:	101d0f80 	call	101d0f8 <OSTimeDlyHMSM>
		send(message, description);
 1000390:	e17ffe07 	ldb	r5,-8(fp)
 1000394:	e13ffd17 	ldw	r4,-12(fp)
 1000398:	e1bfff17 	ldw	r6,-4(fp)
 100039c:	10002d80 	call	10002d8 <_ZN12MotorHandler4sendEcPKc>
	}
}
 10003a0:	e037883a 	mov	sp,fp
 10003a4:	dfc00117 	ldw	ra,4(sp)
 10003a8:	df000017 	ldw	fp,0(sp)
 10003ac:	dec00204 	addi	sp,sp,8
 10003b0:	f800283a 	ret

010003b4 <_ZN12MotorHandler4moveEccPKc>:
 * @param MotorDirection Motor and direction to move
 * @param Speed the speed to move at
 * @param string description of motor movement
 */

void MotorHandler::move(char motorDirection, char speed,const char *description){
 10003b4:	defffa04 	addi	sp,sp,-24
 10003b8:	dfc00515 	stw	ra,20(sp)
 10003bc:	df000415 	stw	fp,16(sp)
 10003c0:	df000404 	addi	fp,sp,16
 10003c4:	e13ffc15 	stw	r4,-16(fp)
 10003c8:	e1ffff15 	stw	r7,-4(fp)
 10003cc:	e17ffd05 	stb	r5,-12(fp)
 10003d0:	e1bffe05 	stb	r6,-8(fp)
		send(MOTOR_START_BYTE, "start");
 10003d4:	e13ffc17 	ldw	r4,-16(fp)
 10003d8:	017fe004 	movi	r5,-128
 10003dc:	018040b4 	movhi	r6,258
 10003e0:	3183a804 	addi	r6,r6,3744
 10003e4:	10002d80 	call	10002d8 <_ZN12MotorHandler4sendEcPKc>
		send(MOTOR_DEVICE_TYPE, "device");
 10003e8:	e13ffc17 	ldw	r4,-16(fp)
 10003ec:	000b883a 	mov	r5,zero
 10003f0:	018040b4 	movhi	r6,258
 10003f4:	3183aa04 	addi	r6,r6,3752
 10003f8:	10002d80 	call	10002d8 <_ZN12MotorHandler4sendEcPKc>
		send(motorDirection, description);
 10003fc:	e17ffd07 	ldb	r5,-12(fp)
 1000400:	e13ffc17 	ldw	r4,-16(fp)
 1000404:	e1bfff17 	ldw	r6,-4(fp)
 1000408:	10002d80 	call	10002d8 <_ZN12MotorHandler4sendEcPKc>
		send(speed, "speed");
 100040c:	e17ffe07 	ldb	r5,-8(fp)
 1000410:	e13ffc17 	ldw	r4,-16(fp)
 1000414:	018040b4 	movhi	r6,258
 1000418:	3183ac04 	addi	r6,r6,3760
 100041c:	10002d80 	call	10002d8 <_ZN12MotorHandler4sendEcPKc>
		printf("\n");
 1000420:	01000284 	movi	r4,10
 1000424:	100accc0 	call	100accc <putchar>
}
 1000428:	e037883a 	mov	sp,fp
 100042c:	dfc00117 	ldw	ra,4(sp)
 1000430:	df000017 	ldw	fp,0(sp)
 1000434:	dec00204 	addi	sp,sp,8
 1000438:	f800283a 	ret

0100043c <_ZN12MotorHandler9configureEv>:
	} else {
		return OK;
	}
}

void MotorHandler::configure(){
 100043c:	defffd04 	addi	sp,sp,-12
 1000440:	dfc00215 	stw	ra,8(sp)
 1000444:	df000115 	stw	fp,4(sp)
 1000448:	df000104 	addi	fp,sp,4
 100044c:	e13fff15 	stw	r4,-4(fp)
	send(MOTOR_START_BYTE, "start");
 1000450:	e13fff17 	ldw	r4,-4(fp)
 1000454:	017fe004 	movi	r5,-128
 1000458:	018040b4 	movhi	r6,258
 100045c:	3183a804 	addi	r6,r6,3744
 1000460:	10002d80 	call	10002d8 <_ZN12MotorHandler4sendEcPKc>
	send(MOTOR_CHANGE_CONFIGURATION, "change configuration");
 1000464:	e13fff17 	ldw	r4,-4(fp)
 1000468:	01400084 	movi	r5,2
 100046c:	018040b4 	movhi	r6,258
 1000470:	3183ae04 	addi	r6,r6,3768
 1000474:	10002d80 	call	10002d8 <_ZN12MotorHandler4sendEcPKc>
	send(0X01, "2 MOTOR CONFIG");
 1000478:	e13fff17 	ldw	r4,-4(fp)
 100047c:	01400044 	movi	r5,1
 1000480:	018040b4 	movhi	r6,258
 1000484:	3183b404 	addi	r6,r6,3792
 1000488:	10002d80 	call	10002d8 <_ZN12MotorHandler4sendEcPKc>
	printf("\n");
 100048c:	01000284 	movi	r4,10
 1000490:	100accc0 	call	100accc <putchar>
}
 1000494:	e037883a 	mov	sp,fp
 1000498:	dfc00117 	ldw	ra,4(sp)
 100049c:	df000017 	ldw	fp,0(sp)
 10004a0:	dec00204 	addi	sp,sp,8
 10004a4:	f800283a 	ret

010004a8 <_ZN12MotorHandler18interpretDirectionESsi>:
	else{
		return MOTOR_RIGHT_CHAR;
	}
}

char MotorHandler::interpretDirection(string direction, int motor){
 10004a8:	defffa04 	addi	sp,sp,-24
 10004ac:	dfc00515 	stw	ra,20(sp)
 10004b0:	df000415 	stw	fp,16(sp)
 10004b4:	df000404 	addi	fp,sp,16
 10004b8:	e13ffc15 	stw	r4,-16(fp)
 10004bc:	e17ffd15 	stw	r5,-12(fp)
 10004c0:	e1bffe15 	stw	r6,-8(fp)
	if(direction.compare(MOTOR_FORWARD) == 0){
 10004c4:	e13ffd17 	ldw	r4,-12(fp)
 10004c8:	014040b4 	movhi	r5,258
 10004cc:	2943b804 	addi	r5,r5,3808
 10004d0:	100300c0 	call	100300c <_ZNKSs7compareEPKc>
 10004d4:	1005003a 	cmpeq	r2,r2,zero
 10004d8:	10803fcc 	andi	r2,r2,255
 10004dc:	1005003a 	cmpeq	r2,r2,zero
 10004e0:	1000081e 	bne	r2,zero,1000504 <_ZN12MotorHandler18interpretDirectionESsi+0x5c>
		return (char) (motor*2 + 1);
 10004e4:	e0bffe17 	ldw	r2,-8(fp)
 10004e8:	1085883a 	add	r2,r2,r2
 10004ec:	10800044 	addi	r2,r2,1
 10004f0:	10803fcc 	andi	r2,r2,255
 10004f4:	1080201c 	xori	r2,r2,128
 10004f8:	10bfe004 	addi	r2,r2,-128
 10004fc:	e0bfff15 	stw	r2,-4(fp)
 1000500:	00000606 	br	100051c <_ZN12MotorHandler18interpretDirectionESsi+0x74>
	}
	else{
		return (char) (motor*2);
 1000504:	e0bffe17 	ldw	r2,-8(fp)
 1000508:	1085883a 	add	r2,r2,r2
 100050c:	10803fcc 	andi	r2,r2,255
 1000510:	1080201c 	xori	r2,r2,128
 1000514:	10bfe004 	addi	r2,r2,-128
 1000518:	e0bfff15 	stw	r2,-4(fp)
 100051c:	e0bfff17 	ldw	r2,-4(fp)
	}
}
 1000520:	e037883a 	mov	sp,fp
 1000524:	dfc00117 	ldw	ra,4(sp)
 1000528:	df000017 	ldw	fp,0(sp)
 100052c:	dec00204 	addi	sp,sp,8
 1000530:	f800283a 	ret

01000534 <_ZN12MotorHandler14interpretMotorESs>:
	int speedByte = strtol(speed.c_str(), NULL, 0);
	move(directionByte, speedByte, (motor.append(motorDirection)).c_str());
}


char MotorHandler::interpretMotor(string motor){
 1000534:	defffb04 	addi	sp,sp,-20
 1000538:	dfc00415 	stw	ra,16(sp)
 100053c:	df000315 	stw	fp,12(sp)
 1000540:	df000304 	addi	fp,sp,12
 1000544:	e13ffd15 	stw	r4,-12(fp)
 1000548:	e17ffe15 	stw	r5,-8(fp)
	if(motor.compare(MOTOR_LEFT) == 0){
 100054c:	e13ffe17 	ldw	r4,-8(fp)
 1000550:	014040b4 	movhi	r5,258
 1000554:	2943ba04 	addi	r5,r5,3816
 1000558:	100300c0 	call	100300c <_ZNKSs7compareEPKc>
 100055c:	1005003a 	cmpeq	r2,r2,zero
 1000560:	10803fcc 	andi	r2,r2,255
 1000564:	1005003a 	cmpeq	r2,r2,zero
 1000568:	1000031e 	bne	r2,zero,1000578 <_ZN12MotorHandler14interpretMotorESs+0x44>
		return MOTOR_LEFT_CHAR;
 100056c:	00800084 	movi	r2,2
 1000570:	e0bfff15 	stw	r2,-4(fp)
 1000574:	00000206 	br	1000580 <_ZN12MotorHandler14interpretMotorESs+0x4c>
	}
	else{
		return MOTOR_RIGHT_CHAR;
 1000578:	008000c4 	movi	r2,3
 100057c:	e0bfff15 	stw	r2,-4(fp)
 1000580:	e0bfff17 	ldw	r2,-4(fp)
	}
}
 1000584:	e037883a 	mov	sp,fp
 1000588:	dfc00117 	ldw	ra,4(sp)
 100058c:	df000017 	ldw	fp,0(sp)
 1000590:	dec00204 	addi	sp,sp,8
 1000594:	f800283a 	ret

01000598 <_ZN12MotorHandler12motorCommandESsSsSs>:
 * Interprets the command from the network handler and sends move commands
 * @param motor The motor to move eg. Left or Right
 * @param motorDirection The direction of the given motor to move
 * @param speed The speed the motor is to move
 */
void MotorHandler::motorCommand(string motor, string motorDirection, string speed){
 1000598:	deffdb04 	addi	sp,sp,-148
 100059c:	dfc02415 	stw	ra,144(sp)
 10005a0:	df002315 	stw	fp,140(sp)
 10005a4:	ddc02215 	stw	r23,136(sp)
 10005a8:	dd802115 	stw	r22,132(sp)
 10005ac:	dd402015 	stw	r21,128(sp)
 10005b0:	dd001f15 	stw	r20,124(sp)
 10005b4:	dcc01e15 	stw	r19,120(sp)
 10005b8:	dc801d15 	stw	r18,116(sp)
 10005bc:	dc401c15 	stw	r17,112(sp)
 10005c0:	dc001b15 	stw	r16,108(sp)
 10005c4:	df001b04 	addi	fp,sp,108
 10005c8:	e13fe915 	stw	r4,-92(fp)
 10005cc:	e17fea15 	stw	r5,-88(fp)
 10005d0:	e1bfeb15 	stw	r6,-84(fp)
 10005d4:	e1ffec15 	stw	r7,-80(fp)
 10005d8:	00804034 	movhi	r2,256
 10005dc:	109a9704 	addi	r2,r2,27228
 10005e0:	e0bff315 	stw	r2,-52(fp)
 10005e4:	008040b4 	movhi	r2,258
 10005e8:	1082b304 	addi	r2,r2,2764
 10005ec:	e0bff415 	stw	r2,-48(fp)
 10005f0:	e0bff504 	addi	r2,fp,-44
 10005f4:	e0ffe504 	addi	r3,fp,-108
 10005f8:	10c00015 	stw	r3,0(r2)
 10005fc:	00c04034 	movhi	r3,256
 1000600:	18c1c904 	addi	r3,r3,1828
 1000604:	10c00115 	stw	r3,4(r2)
 1000608:	16c00215 	stw	sp,8(r2)
 100060c:	e13fed04 	addi	r4,fp,-76
 1000610:	1009c1c0 	call	1009c1c <_Unwind_SjLj_Register>
	char motorID = interpretMotor(motor);
 1000614:	e13fe804 	addi	r4,fp,-96
 1000618:	00bfffc4 	movi	r2,-1
 100061c:	e0bfee15 	stw	r2,-72(fp)
 1000620:	e17fea17 	ldw	r5,-88(fp)
 1000624:	10040640 	call	1004064 <_ZNSsC1ERKSs>
 1000628:	e17fe804 	addi	r5,fp,-96
 100062c:	00800084 	movi	r2,2
 1000630:	e0bfee15 	stw	r2,-72(fp)
 1000634:	e13fe917 	ldw	r4,-92(fp)
 1000638:	10005340 	call	1000534 <_ZN12MotorHandler14interpretMotorESs>
 100063c:	e0bfe645 	stb	r2,-103(fp)
 1000640:	e13fe804 	addi	r4,fp,-96
 1000644:	00bfffc4 	movi	r2,-1
 1000648:	e0bfee15 	stw	r2,-72(fp)
 100064c:	1004a240 	call	1004a24 <_ZNSsD1Ev>
	char directionByte = interpretDirection(motorDirection, int(motorID));
 1000650:	e13fe704 	addi	r4,fp,-100
 1000654:	e17feb17 	ldw	r5,-84(fp)
 1000658:	10040640 	call	1004064 <_ZNSsC1ERKSs>
 100065c:	e1bfe647 	ldb	r6,-103(fp)
 1000660:	e17fe704 	addi	r5,fp,-100
 1000664:	00800044 	movi	r2,1
 1000668:	e0bfee15 	stw	r2,-72(fp)
 100066c:	e13fe917 	ldw	r4,-92(fp)
 1000670:	10004a80 	call	10004a8 <_ZN12MotorHandler18interpretDirectionESsi>
 1000674:	e0bffe05 	stb	r2,-8(fp)
 1000678:	00000b06 	br	10006a8 <_ZN12MotorHandler12motorCommandESsSsSs+0x110>
 100067c:	e0bfff17 	ldw	r2,-4(fp)
 1000680:	e0bffb15 	stw	r2,-20(fp)
 * @param motor The motor to move eg. Left or Right
 * @param motorDirection The direction of the given motor to move
 * @param speed The speed the motor is to move
 */
void MotorHandler::motorCommand(string motor, string motorDirection, string speed){
	char motorID = interpretMotor(motor);
 1000684:	e13fe804 	addi	r4,fp,-96
 1000688:	e03fee15 	stw	zero,-72(fp)
 100068c:	1004a240 	call	1004a24 <_ZNSsD1Ev>
 1000690:	e0fffb17 	ldw	r3,-20(fp)
 1000694:	e0ffff15 	stw	r3,-4(fp)
 1000698:	00bfffc4 	movi	r2,-1
 100069c:	e0bfee15 	stw	r2,-72(fp)
 10006a0:	e13fff17 	ldw	r4,-4(fp)
 10006a4:	1009ee80 	call	1009ee8 <_Unwind_SjLj_Resume>
	char directionByte = interpretDirection(motorDirection, int(motorID));
 10006a8:	e0bffe03 	ldbu	r2,-8(fp)
 10006ac:	e0bfe605 	stb	r2,-104(fp)
 10006b0:	e13fe704 	addi	r4,fp,-100
 10006b4:	00bfffc4 	movi	r2,-1
 10006b8:	e0bfee15 	stw	r2,-72(fp)
 10006bc:	1004a240 	call	1004a24 <_ZNSsD1Ev>
	int speedByte = strtol(speed.c_str(), NULL, 0);
 10006c0:	e13fec17 	ldw	r4,-80(fp)
 10006c4:	10026d80 	call	10026d8 <_ZNKSs5c_strEv>
 10006c8:	1009883a 	mov	r4,r2
 10006cc:	000b883a 	mov	r5,zero
 10006d0:	000d883a 	mov	r6,zero
 10006d4:	100b41c0 	call	100b41c <strtol>
 10006d8:	e0bfe515 	stw	r2,-108(fp)
	move(directionByte, speedByte, (motor.append(motorDirection)).c_str());
 10006dc:	e0ffe607 	ldb	r3,-104(fp)
 10006e0:	e0fffd15 	stw	r3,-12(fp)
 10006e4:	e0bfe517 	ldw	r2,-108(fp)
 10006e8:	10803fcc 	andi	r2,r2,255
 10006ec:	1080201c 	xori	r2,r2,128
 10006f0:	10bfe004 	addi	r2,r2,-128
 10006f4:	e0bffc15 	stw	r2,-16(fp)
 10006f8:	e13fea17 	ldw	r4,-88(fp)
 10006fc:	e17feb17 	ldw	r5,-84(fp)
 1000700:	10048d80 	call	10048d8 <_ZNSs6appendERKSs>
 1000704:	1009883a 	mov	r4,r2
 1000708:	10026d80 	call	10026d8 <_ZNKSs5c_strEv>
 100070c:	100f883a 	mov	r7,r2
 1000710:	e13fe917 	ldw	r4,-92(fp)
 1000714:	e17ffd17 	ldw	r5,-12(fp)
 1000718:	e1bffc17 	ldw	r6,-16(fp)
 100071c:	10003b40 	call	10003b4 <_ZN12MotorHandler4moveEccPKc>
}
 1000720:	00001106 	br	1000768 <_ZN12MotorHandler12motorCommandESsSsSs+0x1d0>
 1000724:	e7001b04 	addi	fp,fp,108
 1000728:	e0bfee17 	ldw	r2,-72(fp)
 100072c:	e0ffef17 	ldw	r3,-68(fp)
 1000730:	e0ffff15 	stw	r3,-4(fp)
 1000734:	10800060 	cmpeqi	r2,r2,1
 1000738:	103fd01e 	bne	r2,zero,100067c <_ZN12MotorHandler12motorCommandESsSsSs+0xe4>
 100073c:	e0bfff17 	ldw	r2,-4(fp)
 1000740:	e0bffa15 	stw	r2,-24(fp)
 * @param motorDirection The direction of the given motor to move
 * @param speed The speed the motor is to move
 */
void MotorHandler::motorCommand(string motor, string motorDirection, string speed){
	char motorID = interpretMotor(motor);
	char directionByte = interpretDirection(motorDirection, int(motorID));
 1000744:	e13fe704 	addi	r4,fp,-100
 1000748:	e03fee15 	stw	zero,-72(fp)
 100074c:	1004a240 	call	1004a24 <_ZNSsD1Ev>
 1000750:	e0fffa17 	ldw	r3,-24(fp)
 1000754:	e0ffff15 	stw	r3,-4(fp)
 1000758:	00bfffc4 	movi	r2,-1
 100075c:	e0bfee15 	stw	r2,-72(fp)
 1000760:	e13fff17 	ldw	r4,-4(fp)
 1000764:	1009ee80 	call	1009ee8 <_Unwind_SjLj_Resume>
 1000768:	e13fed04 	addi	r4,fp,-76
 100076c:	1009c2c0 	call	1009c2c <_Unwind_SjLj_Unregister>
	int speedByte = strtol(speed.c_str(), NULL, 0);
	move(directionByte, speedByte, (motor.append(motorDirection)).c_str());
}
 1000770:	e037883a 	mov	sp,fp
 1000774:	dfc00917 	ldw	ra,36(sp)
 1000778:	df000817 	ldw	fp,32(sp)
 100077c:	ddc00717 	ldw	r23,28(sp)
 1000780:	dd800617 	ldw	r22,24(sp)
 1000784:	dd400517 	ldw	r21,20(sp)
 1000788:	dd000417 	ldw	r20,16(sp)
 100078c:	dcc00317 	ldw	r19,12(sp)
 1000790:	dc800217 	ldw	r18,8(sp)
 1000794:	dc400117 	ldw	r17,4(sp)
 1000798:	dc000017 	ldw	r16,0(sp)
 100079c:	dec00a04 	addi	sp,sp,40
 10007a0:	f800283a 	ret

010007a4 <_ZN12MotorHandler4initEv>:

/*
 * Initializes this handler.
 * @return OK if the handler was initialized without error
 */
Status MotorHandler::init() {
 10007a4:	defffc04 	addi	sp,sp,-16
 10007a8:	dfc00315 	stw	ra,12(sp)
 10007ac:	df000215 	stw	fp,8(sp)
 10007b0:	df000204 	addi	fp,sp,8
 10007b4:	e13ffe15 	stw	r4,-8(fp)
	// Enable the motor controller.
	reset();
 10007b8:	e13ffe17 	ldw	r4,-8(fp)
 10007bc:	100026c0 	call	100026c <_ZN12MotorHandler5resetEv>
	// Open the serial device to send commands to the motor controller.
	motor_dev = alt_up_rs232_open_dev(RS232_MOTOR_NAME);
 10007c0:	010040b4 	movhi	r4,258
 10007c4:	2103bc04 	addi	r4,r4,3824
 10007c8:	101f40c0 	call	101f40c <alt_up_rs232_open_dev>
 10007cc:	1007883a 	mov	r3,r2
 10007d0:	e0bffe17 	ldw	r2,-8(fp)
 10007d4:	10c00115 	stw	r3,4(r2)
	//printf("%d", motor_dev);
	if (motor_dev == NULL) {
 10007d8:	e0bffe17 	ldw	r2,-8(fp)
 10007dc:	10800117 	ldw	r2,4(r2)
 10007e0:	1004c03a 	cmpne	r2,r2,zero
 10007e4:	1000031e 	bne	r2,zero,10007f4 <_ZN12MotorHandler4initEv+0x50>
		return ERR_MOTOR_OPEN;
 10007e8:	00800044 	movi	r2,1
 10007ec:	e0bfff15 	stw	r2,-4(fp)
 10007f0:	00000106 	br	10007f8 <_ZN12MotorHandler4initEv+0x54>
	} else {
		return OK;
 10007f4:	e03fff15 	stw	zero,-4(fp)
 10007f8:	e0bfff17 	ldw	r2,-4(fp)
	}
}
 10007fc:	e037883a 	mov	sp,fp
 1000800:	dfc00117 	ldw	ra,4(sp)
 1000804:	df000017 	ldw	fp,0(sp)
 1000808:	dec00204 	addi	sp,sp,8
 100080c:	f800283a 	ret

01000810 <_ZN12MotorHandlerD0Ev>:
#define MOTOR_ENABLE 	1
#define MOTOR_RESET		0

// ALLOCATION
MotorHandler::MotorHandler() {}
MotorHandler::~MotorHandler() {}
 1000810:	defffd04 	addi	sp,sp,-12
 1000814:	dfc00215 	stw	ra,8(sp)
 1000818:	df000115 	stw	fp,4(sp)
 100081c:	df000104 	addi	fp,sp,4
 1000820:	e13fff15 	stw	r4,-4(fp)
 1000824:	00c040b4 	movhi	r3,258
 1000828:	18c3c304 	addi	r3,r3,3852
 100082c:	e0bfff17 	ldw	r2,-4(fp)
 1000830:	10c00015 	stw	r3,0(r2)
 1000834:	00800044 	movi	r2,1
 1000838:	10803fcc 	andi	r2,r2,255
 100083c:	1005003a 	cmpeq	r2,r2,zero
 1000840:	1000021e 	bne	r2,zero,100084c <_ZN12MotorHandlerD0Ev+0x3c>
 1000844:	e13fff17 	ldw	r4,-4(fp)
 1000848:	100722c0 	call	100722c <_ZdlPv>
 100084c:	e037883a 	mov	sp,fp
 1000850:	dfc00117 	ldw	ra,4(sp)
 1000854:	df000017 	ldw	fp,0(sp)
 1000858:	dec00204 	addi	sp,sp,8
 100085c:	f800283a 	ret

01000860 <_ZN12MotorHandlerD1Ev>:
 1000860:	defffd04 	addi	sp,sp,-12
 1000864:	dfc00215 	stw	ra,8(sp)
 1000868:	df000115 	stw	fp,4(sp)
 100086c:	df000104 	addi	fp,sp,4
 1000870:	e13fff15 	stw	r4,-4(fp)
 1000874:	00c040b4 	movhi	r3,258
 1000878:	18c3c304 	addi	r3,r3,3852
 100087c:	e0bfff17 	ldw	r2,-4(fp)
 1000880:	10c00015 	stw	r3,0(r2)
 1000884:	0005883a 	mov	r2,zero
 1000888:	10803fcc 	andi	r2,r2,255
 100088c:	1005003a 	cmpeq	r2,r2,zero
 1000890:	1000021e 	bne	r2,zero,100089c <_ZN12MotorHandlerD1Ev+0x3c>
 1000894:	e13fff17 	ldw	r4,-4(fp)
 1000898:	100722c0 	call	100722c <_ZdlPv>
 100089c:	e037883a 	mov	sp,fp
 10008a0:	dfc00117 	ldw	ra,4(sp)
 10008a4:	df000017 	ldw	fp,0(sp)
 10008a8:	dec00204 	addi	sp,sp,8
 10008ac:	f800283a 	ret

010008b0 <_ZN12MotorHandlerD2Ev>:
 10008b0:	defffd04 	addi	sp,sp,-12
 10008b4:	dfc00215 	stw	ra,8(sp)
 10008b8:	df000115 	stw	fp,4(sp)
 10008bc:	df000104 	addi	fp,sp,4
 10008c0:	e13fff15 	stw	r4,-4(fp)
 10008c4:	00c040b4 	movhi	r3,258
 10008c8:	18c3c304 	addi	r3,r3,3852
 10008cc:	e0bfff17 	ldw	r2,-4(fp)
 10008d0:	10c00015 	stw	r3,0(r2)
 10008d4:	0005883a 	mov	r2,zero
 10008d8:	10803fcc 	andi	r2,r2,255
 10008dc:	1005003a 	cmpeq	r2,r2,zero
 10008e0:	1000021e 	bne	r2,zero,10008ec <_ZN12MotorHandlerD2Ev+0x3c>
 10008e4:	e13fff17 	ldw	r4,-4(fp)
 10008e8:	100722c0 	call	100722c <_ZdlPv>
 10008ec:	e037883a 	mov	sp,fp
 10008f0:	dfc00117 	ldw	ra,4(sp)
 10008f4:	df000017 	ldw	fp,0(sp)
 10008f8:	dec00204 	addi	sp,sp,8
 10008fc:	f800283a 	ret

01000900 <_Z41__static_initialization_and_destruction_0ii>:
	if (status == OK) {
		OSStart();
	}

	return 0;
}
 1000900:	deffe404 	addi	sp,sp,-112
 1000904:	dfc01b15 	stw	ra,108(sp)
 1000908:	df001a15 	stw	fp,104(sp)
 100090c:	ddc01915 	stw	r23,100(sp)
 1000910:	dd801815 	stw	r22,96(sp)
 1000914:	dd401715 	stw	r21,92(sp)
 1000918:	dd001615 	stw	r20,88(sp)
 100091c:	dcc01515 	stw	r19,84(sp)
 1000920:	dc801415 	stw	r18,80(sp)
 1000924:	dc401315 	stw	r17,76(sp)
 1000928:	dc001215 	stw	r16,72(sp)
 100092c:	df001204 	addi	fp,sp,72
 1000930:	e13fee15 	stw	r4,-72(fp)
 1000934:	e17fef15 	stw	r5,-68(fp)
 1000938:	00804034 	movhi	r2,256
 100093c:	109a9704 	addi	r2,r2,27228
 1000940:	e0bff615 	stw	r2,-40(fp)
 1000944:	008040b4 	movhi	r2,258
 1000948:	1082b504 	addi	r2,r2,2772
 100094c:	e0bff715 	stw	r2,-36(fp)
 1000950:	e0bff804 	addi	r2,fp,-32
 1000954:	e0ffee04 	addi	r3,fp,-72
 1000958:	10c00015 	stw	r3,0(r2)
 100095c:	00c04034 	movhi	r3,256
 1000960:	18c26f04 	addi	r3,r3,2492
 1000964:	10c00115 	stw	r3,4(r2)
 1000968:	16c00215 	stw	sp,8(r2)
 100096c:	e13ff004 	addi	r4,fp,-64
 1000970:	1009c1c0 	call	1009c1c <_Unwind_SjLj_Register>
 1000974:	e0bfee17 	ldw	r2,-72(fp)
 1000978:	10800058 	cmpnei	r2,r2,1
 100097c:	10001c1e 	bne	r2,zero,10009f0 <_Z41__static_initialization_and_destruction_0ii+0xf0>
 1000980:	e0ffef17 	ldw	r3,-68(fp)
 1000984:	00bfffd4 	movui	r2,65535
 1000988:	1880191e 	bne	r3,r2,10009f0 <_Z41__static_initialization_and_destruction_0ii+0xf0>
// and invert pushbutton input (since the pushbutton returns 0 when it is pushed down).
#define IR_QUEUE_SEND_BASE	1		// Use: IR_QUEUE_SEND_BASE + IORD
#define IR_QUEUE_RECEIVE_BASE 2		// Use: IR_QUEUE_RECEIVE_BASE - OSQPend


MotorHandler *motor= new MotorHandler();
 100098c:	00bfffc4 	movi	r2,-1
 1000990:	e0bff115 	stw	r2,-60(fp)
 1000994:	01000204 	movi	r4,8
 1000998:	10077140 	call	1007714 <_Znwm>
 100099c:	e0bffe15 	stw	r2,-8(fp)
 10009a0:	00800044 	movi	r2,1
 10009a4:	e0bff115 	stw	r2,-60(fp)
 10009a8:	e13ffe17 	ldw	r4,-8(fp)
 10009ac:	100023c0 	call	100023c <_ZN12MotorHandlerC1Ev>
 10009b0:	e0bffe17 	ldw	r2,-8(fp)
 10009b4:	d0a74515 	stw	r2,-25324(gp)
 10009b8:	00000d06 	br	10009f0 <_Z41__static_initialization_and_destruction_0ii+0xf0>
 10009bc:	e7001204 	addi	fp,fp,72
 10009c0:	e0fff217 	ldw	r3,-56(fp)
 10009c4:	e0ffff15 	stw	r3,-4(fp)
 10009c8:	e0bfff17 	ldw	r2,-4(fp)
 10009cc:	e0bffd15 	stw	r2,-12(fp)
 10009d0:	e13ffe17 	ldw	r4,-8(fp)
 10009d4:	100722c0 	call	100722c <_ZdlPv>
 10009d8:	e0fffd17 	ldw	r3,-12(fp)
 10009dc:	e0ffff15 	stw	r3,-4(fp)
 10009e0:	00bfffc4 	movi	r2,-1
 10009e4:	e0bff115 	stw	r2,-60(fp)
 10009e8:	e13fff17 	ldw	r4,-4(fp)
 10009ec:	1009ee80 	call	1009ee8 <_Unwind_SjLj_Resume>
 10009f0:	e13ff004 	addi	r4,fp,-64
 10009f4:	1009c2c0 	call	1009c2c <_Unwind_SjLj_Unregister>
	if (status == OK) {
		OSStart();
	}

	return 0;
}
 10009f8:	e037883a 	mov	sp,fp
 10009fc:	dfc00917 	ldw	ra,36(sp)
 1000a00:	df000817 	ldw	fp,32(sp)
 1000a04:	ddc00717 	ldw	r23,28(sp)
 1000a08:	dd800617 	ldw	r22,24(sp)
 1000a0c:	dd400517 	ldw	r21,20(sp)
 1000a10:	dd000417 	ldw	r20,16(sp)
 1000a14:	dcc00317 	ldw	r19,12(sp)
 1000a18:	dc800217 	ldw	r18,8(sp)
 1000a1c:	dc400117 	ldw	r17,4(sp)
 1000a20:	dc000017 	ldw	r16,0(sp)
 1000a24:	dec00a04 	addi	sp,sp,40
 1000a28:	f800283a 	ret

01000a2c <_GLOBAL__I_ir_task_stk>:

 1000a2c:	defffe04 	addi	sp,sp,-8
 1000a30:	dfc00115 	stw	ra,4(sp)
 1000a34:	df000015 	stw	fp,0(sp)
 1000a38:	d839883a 	mov	fp,sp
 1000a3c:	01000044 	movi	r4,1
 1000a40:	017fffd4 	movui	r5,65535
 1000a44:	10009000 	call	1000900 <_Z41__static_initialization_and_destruction_0ii>
 1000a48:	e037883a 	mov	sp,fp
 1000a4c:	dfc00117 	ldw	ra,4(sp)
 1000a50:	df000017 	ldw	fp,0(sp)
 1000a54:	dec00204 	addi	sp,sp,8
 1000a58:	f800283a 	ret

01000a5c <_Z10queue_initv>:



// ==== GENERAL

void queue_init() {
 1000a5c:	defffe04 	addi	sp,sp,-8
 1000a60:	dfc00115 	stw	ra,4(sp)
 1000a64:	df000015 	stw	fp,0(sp)
 1000a68:	d839883a 	mov	fp,sp
	ir_queue = OSQCreate((void**)&ir_messages, IR_MAX_MESSAGES);
 1000a6c:	010040f4 	movhi	r4,259
 1000a70:	21252b04 	addi	r4,r4,-27476
 1000a74:	01400104 	movi	r5,4
 1000a78:	10197c40 	call	10197c4 <OSQCreate>
 1000a7c:	d0a74415 	stw	r2,-25328(gp)
}
 1000a80:	e037883a 	mov	sp,fp
 1000a84:	dfc00117 	ldw	ra,4(sp)
 1000a88:	df000017 	ldw	fp,0(sp)
 1000a8c:	dec00204 	addi	sp,sp,8
 1000a90:	f800283a 	ret

01000a94 <main>:

/* The main function creates the LCD task, registers the edge counter polling interrupt,
 * and starts the OS. */
int main(void)
 1000a94:	defff804 	addi	sp,sp,-32
 1000a98:	dfc00715 	stw	ra,28(sp)
 1000a9c:	df000615 	stw	fp,24(sp)
 1000aa0:	df000604 	addi	fp,sp,24
{
	int status = OK;
 1000aa4:	e03fff15 	stw	zero,-4(fp)
	// Initialize components.
	queue_init();
 1000aa8:	1000a5c0 	call	1000a5c <_Z10queue_initv>
			MC_TASK_PRIORITY,
			MC_TASK_PRIORITY,
			mc_task_stk,
			TASK_STACKSIZE,
			NULL,
			0);
 1000aac:	00800044 	movi	r2,1
 1000ab0:	d8800015 	stw	r2,0(sp)
 1000ab4:	008040b4 	movhi	r2,258
 1000ab8:	109d2b04 	addi	r2,r2,29868
 1000abc:	d8800115 	stw	r2,4(sp)
 1000ac0:	00820004 	movi	r2,2048
 1000ac4:	d8800215 	stw	r2,8(sp)
 1000ac8:	d8000315 	stw	zero,12(sp)
 1000acc:	d8000415 	stw	zero,16(sp)
 1000ad0:	01004034 	movhi	r4,256
 1000ad4:	2102c504 	addi	r4,r4,2836
 1000ad8:	000b883a 	mov	r5,zero
 1000adc:	018040f4 	movhi	r6,259
 1000ae0:	31a52a04 	addi	r6,r6,-27480
 1000ae4:	01c00044 	movi	r7,1
 1000ae8:	101bcb40 	call	101bcb4 <OSTaskCreateExt>

	if (status == OK) {
 1000aec:	e0bfff17 	ldw	r2,-4(fp)
 1000af0:	1004c03a 	cmpne	r2,r2,zero
 1000af4:	1000011e 	bne	r2,zero,1000afc <main+0x68>
		OSStart();
 1000af8:	1015ee00 	call	1015ee0 <OSStart>
	}

	return 0;
 1000afc:	0005883a 	mov	r2,zero
}
 1000b00:	e037883a 	mov	sp,fp
 1000b04:	dfc00117 	ldw	ra,4(sp)
 1000b08:	df000017 	ldw	fp,0(sp)
 1000b0c:	dec00204 	addi	sp,sp,8
 1000b10:	f800283a 	ret

01000b14 <_Z7mc_taskPv>:

// ==== mc

#define mc_GUARD_TIME 1

void mc_task(void *pdata)
 1000b14:	deff4a04 	addi	sp,sp,-728
 1000b18:	dfc0b515 	stw	ra,724(sp)
 1000b1c:	df00b415 	stw	fp,720(sp)
 1000b20:	ddc0b315 	stw	r23,716(sp)
 1000b24:	dd80b215 	stw	r22,712(sp)
 1000b28:	dd40b115 	stw	r21,708(sp)
 1000b2c:	dd00b015 	stw	r20,704(sp)
 1000b30:	dcc0af15 	stw	r19,700(sp)
 1000b34:	dc80ae15 	stw	r18,696(sp)
 1000b38:	dc40ad15 	stw	r17,692(sp)
 1000b3c:	dc00ac15 	stw	r16,688(sp)
 1000b40:	df00ac04 	addi	fp,sp,688
 1000b44:	e13f9c15 	stw	r4,-400(fp)
 1000b48:	00804034 	movhi	r2,256
 1000b4c:	109a9704 	addi	r2,r2,27228
 1000b50:	e0bfa315 	stw	r2,-372(fp)
 1000b54:	008040b4 	movhi	r2,258
 1000b58:	1082b684 	addi	r2,r2,2778
 1000b5c:	e0bfa415 	stw	r2,-368(fp)
 1000b60:	e0bfa504 	addi	r2,fp,-364
 1000b64:	e0ff5404 	addi	r3,fp,-688
 1000b68:	10c00015 	stw	r3,0(r2)
 1000b6c:	00c04034 	movhi	r3,256
 1000b70:	18c7ca04 	addi	r3,r3,7976
 1000b74:	10c00115 	stw	r3,4(r2)
 1000b78:	16c00215 	stw	sp,8(r2)
 1000b7c:	e13f9d04 	addi	r4,fp,-396
 1000b80:	1009c1c0 	call	1009c1c <_Unwind_SjLj_Register>
{
	printf("mc task\n");
 1000b84:	00bfffc4 	movi	r2,-1
 1000b88:	e0bf9e15 	stw	r2,-392(fp)
 1000b8c:	010040b4 	movhi	r4,258
 1000b90:	2103c904 	addi	r4,r4,3876
 1000b94:	100ad900 	call	100ad90 <puts>
	printf("MotorHandler [init");
 1000b98:	010040b4 	movhi	r4,258
 1000b9c:	2103cb04 	addi	r4,r4,3884
 1000ba0:	100ac540 	call	100ac54 <printf>
		if (motor->init() == OK) {
 1000ba4:	d1274517 	ldw	r4,-25324(gp)
 1000ba8:	10007a40 	call	10007a4 <_ZN12MotorHandler4initEv>
 1000bac:	1005003a 	cmpeq	r2,r2,zero
 1000bb0:	10803fcc 	andi	r2,r2,255
 1000bb4:	1005003a 	cmpeq	r2,r2,zero
 1000bb8:	1000041e 	bne	r2,zero,1000bcc <_Z7mc_taskPv+0xb8>
			printf("]\n\n");
 1000bbc:	010040b4 	movhi	r4,258
 1000bc0:	2103d004 	addi	r4,r4,3904
 1000bc4:	100ad900 	call	100ad90 <puts>
 1000bc8:	00000506 	br	1000be0 <_Z7mc_taskPv+0xcc>
		} else {
			printf( ", error]\n");
 1000bcc:	00bfffc4 	movi	r2,-1
 1000bd0:	e0bf9e15 	stw	r2,-392(fp)
 1000bd4:	010040b4 	movhi	r4,258
 1000bd8:	2103d104 	addi	r4,r4,3908
 1000bdc:	100ad900 	call	100ad90 <puts>
		}
		while(1){
			motor->motorCommand("left", "forward", "120");
 1000be0:	d0a74517 	ldw	r2,-25324(gp)
 1000be4:	e0bffd15 	stw	r2,-12(fp)
 1000be8:	e13f9a04 	addi	r4,fp,-408
 1000bec:	10022880 	call	1002288 <_ZNSaIcEC1Ev>
 1000bf0:	e13f9b04 	addi	r4,fp,-404
 1000bf4:	e1bf9a04 	addi	r6,fp,-408
 1000bf8:	00800c04 	movi	r2,48
 1000bfc:	e0bf9e15 	stw	r2,-392(fp)
 1000c00:	014040b4 	movhi	r5,258
 1000c04:	2943d404 	addi	r5,r5,3920
 1000c08:	1003e680 	call	1003e68 <_ZNSsC1EPKcRKSaIcE>
 1000c0c:	e13f9804 	addi	r4,fp,-416
 1000c10:	10022880 	call	1002288 <_ZNSaIcEC1Ev>
 1000c14:	e13f9904 	addi	r4,fp,-412
 1000c18:	e1bf9804 	addi	r6,fp,-416
 1000c1c:	00800bc4 	movi	r2,47
 1000c20:	e0bf9e15 	stw	r2,-392(fp)
 1000c24:	014040b4 	movhi	r5,258
 1000c28:	2943d604 	addi	r5,r5,3928
 1000c2c:	1003e680 	call	1003e68 <_ZNSsC1EPKcRKSaIcE>
 1000c30:	e13f9604 	addi	r4,fp,-424
 1000c34:	10022880 	call	1002288 <_ZNSaIcEC1Ev>
 1000c38:	e13f9704 	addi	r4,fp,-420
 1000c3c:	e1bf9604 	addi	r6,fp,-424
 1000c40:	00800b84 	movi	r2,46
 1000c44:	e0bf9e15 	stw	r2,-392(fp)
 1000c48:	014040b4 	movhi	r5,258
 1000c4c:	2943d804 	addi	r5,r5,3936
 1000c50:	1003e680 	call	1003e68 <_ZNSsC1EPKcRKSaIcE>
 1000c54:	e17f9b04 	addi	r5,fp,-404
 1000c58:	e1bf9904 	addi	r6,fp,-412
 1000c5c:	e1ff9704 	addi	r7,fp,-420
 1000c60:	00800b44 	movi	r2,45
 1000c64:	e0bf9e15 	stw	r2,-392(fp)
 1000c68:	e13ffd17 	ldw	r4,-12(fp)
 1000c6c:	10005980 	call	1000598 <_ZN12MotorHandler12motorCommandESsSsSs>
 1000c70:	e13f9704 	addi	r4,fp,-420
 1000c74:	00800b84 	movi	r2,46
 1000c78:	e0bf9e15 	stw	r2,-392(fp)
 1000c7c:	1004a240 	call	1004a24 <_ZNSsD1Ev>
 1000c80:	00000806 	br	1000ca4 <_Z7mc_taskPv+0x190>
 1000c84:	e0fffe17 	ldw	r3,-8(fp)
 1000c88:	e0fff115 	stw	r3,-60(fp)
 1000c8c:	e13f9704 	addi	r4,fp,-420
 1000c90:	e03f9e15 	stw	zero,-392(fp)
 1000c94:	1004a240 	call	1004a24 <_ZNSsD1Ev>
 1000c98:	e0bff117 	ldw	r2,-60(fp)
 1000c9c:	e0bffe15 	stw	r2,-8(fp)
 1000ca0:	00000706 	br	1000cc0 <_Z7mc_taskPv+0x1ac>
 1000ca4:	e13f9604 	addi	r4,fp,-424
 1000ca8:	10022b40 	call	10022b4 <_ZNSaIcED1Ev>
 1000cac:	e13f9904 	addi	r4,fp,-412
 1000cb0:	00800bc4 	movi	r2,47
 1000cb4:	e0bf9e15 	stw	r2,-392(fp)
 1000cb8:	1004a240 	call	1004a24 <_ZNSsD1Ev>
 1000cbc:	00000e06 	br	1000cf8 <_Z7mc_taskPv+0x1e4>
 1000cc0:	e0fffe17 	ldw	r3,-8(fp)
 1000cc4:	e0fff015 	stw	r3,-64(fp)
 1000cc8:	e13f9604 	addi	r4,fp,-424
 1000ccc:	10022b40 	call	10022b4 <_ZNSaIcED1Ev>
 1000cd0:	e0bff017 	ldw	r2,-64(fp)
 1000cd4:	e0bffe15 	stw	r2,-8(fp)
 1000cd8:	e0fffe17 	ldw	r3,-8(fp)
 1000cdc:	e0ffef15 	stw	r3,-68(fp)
 1000ce0:	e13f9904 	addi	r4,fp,-412
 1000ce4:	e03f9e15 	stw	zero,-392(fp)
 1000ce8:	1004a240 	call	1004a24 <_ZNSsD1Ev>
 1000cec:	e0bfef17 	ldw	r2,-68(fp)
 1000cf0:	e0bffe15 	stw	r2,-8(fp)
 1000cf4:	00000706 	br	1000d14 <_Z7mc_taskPv+0x200>
 1000cf8:	e13f9804 	addi	r4,fp,-416
 1000cfc:	10022b40 	call	10022b4 <_ZNSaIcED1Ev>
 1000d00:	e13f9b04 	addi	r4,fp,-404
 1000d04:	00800c04 	movi	r2,48
 1000d08:	e0bf9e15 	stw	r2,-392(fp)
 1000d0c:	1004a240 	call	1004a24 <_ZNSsD1Ev>
 1000d10:	00000e06 	br	1000d4c <_Z7mc_taskPv+0x238>
 1000d14:	e0fffe17 	ldw	r3,-8(fp)
 1000d18:	e0ffee15 	stw	r3,-72(fp)
 1000d1c:	e13f9804 	addi	r4,fp,-416
 1000d20:	10022b40 	call	10022b4 <_ZNSaIcED1Ev>
 1000d24:	e0bfee17 	ldw	r2,-72(fp)
 1000d28:	e0bffe15 	stw	r2,-8(fp)
 1000d2c:	e0fffe17 	ldw	r3,-8(fp)
 1000d30:	e0ffed15 	stw	r3,-76(fp)
 1000d34:	e13f9b04 	addi	r4,fp,-404
 1000d38:	e03f9e15 	stw	zero,-392(fp)
 1000d3c:	1004a240 	call	1004a24 <_ZNSsD1Ev>
 1000d40:	e0bfed17 	ldw	r2,-76(fp)
 1000d44:	e0bffe15 	stw	r2,-8(fp)
 1000d48:	00000e06 	br	1000d84 <_Z7mc_taskPv+0x270>
 1000d4c:	e13f9a04 	addi	r4,fp,-408
 1000d50:	10022b40 	call	10022b4 <_ZNSaIcED1Ev>
			motor->motorCommand("right","forward", "120");
 1000d54:	d0e74517 	ldw	r3,-25324(gp)
 1000d58:	e0fffc15 	stw	r3,-16(fp)
 1000d5c:	e13f9404 	addi	r4,fp,-432
 1000d60:	10022880 	call	1002288 <_ZNSaIcEC1Ev>
 1000d64:	e13f9504 	addi	r4,fp,-428
 1000d68:	e1bf9404 	addi	r6,fp,-432
 1000d6c:	00800b04 	movi	r2,44
 1000d70:	e0bf9e15 	stw	r2,-392(fp)
 1000d74:	014040b4 	movhi	r5,258
 1000d78:	2943d904 	addi	r5,r5,3940
 1000d7c:	1003e680 	call	1003e68 <_ZNSsC1EPKcRKSaIcE>
 1000d80:	00000a06 	br	1000dac <_Z7mc_taskPv+0x298>
 1000d84:	e0bffe17 	ldw	r2,-8(fp)
 1000d88:	e0bfec15 	stw	r2,-80(fp)
			printf("]\n\n");
		} else {
			printf( ", error]\n");
		}
		while(1){
			motor->motorCommand("left", "forward", "120");
 1000d8c:	e13f9a04 	addi	r4,fp,-408
 1000d90:	10022b40 	call	10022b4 <_ZNSaIcED1Ev>
 1000d94:	e0ffec17 	ldw	r3,-80(fp)
 1000d98:	e0fffe15 	stw	r3,-8(fp)
 1000d9c:	00bfffc4 	movi	r2,-1
 1000da0:	e0bf9e15 	stw	r2,-392(fp)
 1000da4:	e13ffe17 	ldw	r4,-8(fp)
 1000da8:	1009ee80 	call	1009ee8 <_Unwind_SjLj_Resume>
			motor->motorCommand("right","forward", "120");
 1000dac:	e13f9204 	addi	r4,fp,-440
 1000db0:	10022880 	call	1002288 <_ZNSaIcEC1Ev>
 1000db4:	e13f9304 	addi	r4,fp,-436
 1000db8:	e1bf9204 	addi	r6,fp,-440
 1000dbc:	00800ac4 	movi	r2,43
 1000dc0:	e0bf9e15 	stw	r2,-392(fp)
 1000dc4:	014040b4 	movhi	r5,258
 1000dc8:	2943d604 	addi	r5,r5,3928
 1000dcc:	1003e680 	call	1003e68 <_ZNSsC1EPKcRKSaIcE>
 1000dd0:	e13f9004 	addi	r4,fp,-448
 1000dd4:	10022880 	call	1002288 <_ZNSaIcEC1Ev>
 1000dd8:	e13f9104 	addi	r4,fp,-444
 1000ddc:	e1bf9004 	addi	r6,fp,-448
 1000de0:	00800a84 	movi	r2,42
 1000de4:	e0bf9e15 	stw	r2,-392(fp)
 1000de8:	014040b4 	movhi	r5,258
 1000dec:	2943d804 	addi	r5,r5,3936
 1000df0:	1003e680 	call	1003e68 <_ZNSsC1EPKcRKSaIcE>
 1000df4:	e17f9504 	addi	r5,fp,-428
 1000df8:	e1bf9304 	addi	r6,fp,-436
 1000dfc:	e1ff9104 	addi	r7,fp,-444
 1000e00:	00800a44 	movi	r2,41
 1000e04:	e0bf9e15 	stw	r2,-392(fp)
 1000e08:	e13ffc17 	ldw	r4,-16(fp)
 1000e0c:	10005980 	call	1000598 <_ZN12MotorHandler12motorCommandESsSsSs>
 1000e10:	e13f9104 	addi	r4,fp,-444
 1000e14:	00800a84 	movi	r2,42
 1000e18:	e0bf9e15 	stw	r2,-392(fp)
 1000e1c:	1004a240 	call	1004a24 <_ZNSsD1Ev>
 1000e20:	00000806 	br	1000e44 <_Z7mc_taskPv+0x330>
 1000e24:	e0bffe17 	ldw	r2,-8(fp)
 1000e28:	e0bfeb15 	stw	r2,-84(fp)
 1000e2c:	e13f9104 	addi	r4,fp,-444
 1000e30:	e03f9e15 	stw	zero,-392(fp)
 1000e34:	1004a240 	call	1004a24 <_ZNSsD1Ev>
 1000e38:	e0ffeb17 	ldw	r3,-84(fp)
 1000e3c:	e0fffe15 	stw	r3,-8(fp)
 1000e40:	00000706 	br	1000e60 <_Z7mc_taskPv+0x34c>
 1000e44:	e13f9004 	addi	r4,fp,-448
 1000e48:	10022b40 	call	10022b4 <_ZNSaIcED1Ev>
 1000e4c:	e13f9304 	addi	r4,fp,-436
 1000e50:	00800ac4 	movi	r2,43
 1000e54:	e0bf9e15 	stw	r2,-392(fp)
 1000e58:	1004a240 	call	1004a24 <_ZNSsD1Ev>
 1000e5c:	00000e06 	br	1000e98 <_Z7mc_taskPv+0x384>
 1000e60:	e0bffe17 	ldw	r2,-8(fp)
 1000e64:	e0bfea15 	stw	r2,-88(fp)
 1000e68:	e13f9004 	addi	r4,fp,-448
 1000e6c:	10022b40 	call	10022b4 <_ZNSaIcED1Ev>
 1000e70:	e0ffea17 	ldw	r3,-88(fp)
 1000e74:	e0fffe15 	stw	r3,-8(fp)
 1000e78:	e0bffe17 	ldw	r2,-8(fp)
 1000e7c:	e0bfe915 	stw	r2,-92(fp)
 1000e80:	e13f9304 	addi	r4,fp,-436
 1000e84:	e03f9e15 	stw	zero,-392(fp)
 1000e88:	1004a240 	call	1004a24 <_ZNSsD1Ev>
 1000e8c:	e0ffe917 	ldw	r3,-92(fp)
 1000e90:	e0fffe15 	stw	r3,-8(fp)
 1000e94:	00000706 	br	1000eb4 <_Z7mc_taskPv+0x3a0>
 1000e98:	e13f9204 	addi	r4,fp,-440
 1000e9c:	10022b40 	call	10022b4 <_ZNSaIcED1Ev>
 1000ea0:	e13f9504 	addi	r4,fp,-428
 1000ea4:	00800b04 	movi	r2,44
 1000ea8:	e0bf9e15 	stw	r2,-392(fp)
 1000eac:	1004a240 	call	1004a24 <_ZNSsD1Ev>
 1000eb0:	00000e06 	br	1000eec <_Z7mc_taskPv+0x3d8>
 1000eb4:	e0bffe17 	ldw	r2,-8(fp)
 1000eb8:	e0bfe815 	stw	r2,-96(fp)
 1000ebc:	e13f9204 	addi	r4,fp,-440
 1000ec0:	10022b40 	call	10022b4 <_ZNSaIcED1Ev>
 1000ec4:	e0ffe817 	ldw	r3,-96(fp)
 1000ec8:	e0fffe15 	stw	r3,-8(fp)
 1000ecc:	e0bffe17 	ldw	r2,-8(fp)
 1000ed0:	e0bfe715 	stw	r2,-100(fp)
 1000ed4:	e13f9504 	addi	r4,fp,-428
 1000ed8:	e03f9e15 	stw	zero,-392(fp)
 1000edc:	1004a240 	call	1004a24 <_ZNSsD1Ev>
 1000ee0:	e0ffe717 	ldw	r3,-100(fp)
 1000ee4:	e0fffe15 	stw	r3,-8(fp)
 1000ee8:	00001506 	br	1000f40 <_Z7mc_taskPv+0x42c>
 1000eec:	e13f9404 	addi	r4,fp,-432
 1000ef0:	10022b40 	call	10022b4 <_ZNSaIcED1Ev>
			OSTimeDlyHMSM(0, 0, 5, 0);
 1000ef4:	00bfffc4 	movi	r2,-1
 1000ef8:	e0bf9e15 	stw	r2,-392(fp)
 1000efc:	0009883a 	mov	r4,zero
 1000f00:	000b883a 	mov	r5,zero
 1000f04:	01800144 	movi	r6,5
 1000f08:	000f883a 	mov	r7,zero
 1000f0c:	101d0f80 	call	101d0f8 <OSTimeDlyHMSM>
			motor->motorCommand("left", "forward", "0");
 1000f10:	d0a74517 	ldw	r2,-25324(gp)
 1000f14:	e0bffb15 	stw	r2,-20(fp)
 1000f18:	e13f8e04 	addi	r4,fp,-456
 1000f1c:	10022880 	call	1002288 <_ZNSaIcEC1Ev>
 1000f20:	e13f8f04 	addi	r4,fp,-452
 1000f24:	e1bf8e04 	addi	r6,fp,-456
 1000f28:	00800a04 	movi	r2,40
 1000f2c:	e0bf9e15 	stw	r2,-392(fp)
 1000f30:	014040b4 	movhi	r5,258
 1000f34:	2943d404 	addi	r5,r5,3920
 1000f38:	1003e680 	call	1003e68 <_ZNSsC1EPKcRKSaIcE>
 1000f3c:	00000a06 	br	1000f68 <_Z7mc_taskPv+0x454>
 1000f40:	e0fffe17 	ldw	r3,-8(fp)
 1000f44:	e0ffe615 	stw	r3,-104(fp)
		} else {
			printf( ", error]\n");
		}
		while(1){
			motor->motorCommand("left", "forward", "120");
			motor->motorCommand("right","forward", "120");
 1000f48:	e13f9404 	addi	r4,fp,-432
 1000f4c:	10022b40 	call	10022b4 <_ZNSaIcED1Ev>
 1000f50:	e0bfe617 	ldw	r2,-104(fp)
 1000f54:	e0bffe15 	stw	r2,-8(fp)
 1000f58:	00bfffc4 	movi	r2,-1
 1000f5c:	e0bf9e15 	stw	r2,-392(fp)
 1000f60:	e13ffe17 	ldw	r4,-8(fp)
 1000f64:	1009ee80 	call	1009ee8 <_Unwind_SjLj_Resume>
			OSTimeDlyHMSM(0, 0, 5, 0);
			motor->motorCommand("left", "forward", "0");
 1000f68:	e13f8c04 	addi	r4,fp,-464
 1000f6c:	10022880 	call	1002288 <_ZNSaIcEC1Ev>
 1000f70:	e13f8d04 	addi	r4,fp,-460
 1000f74:	e1bf8c04 	addi	r6,fp,-464
 1000f78:	008009c4 	movi	r2,39
 1000f7c:	e0bf9e15 	stw	r2,-392(fp)
 1000f80:	014040b4 	movhi	r5,258
 1000f84:	2943d604 	addi	r5,r5,3928
 1000f88:	1003e680 	call	1003e68 <_ZNSsC1EPKcRKSaIcE>
 1000f8c:	e13f8a04 	addi	r4,fp,-472
 1000f90:	10022880 	call	1002288 <_ZNSaIcEC1Ev>
 1000f94:	e13f8b04 	addi	r4,fp,-468
 1000f98:	e1bf8a04 	addi	r6,fp,-472
 1000f9c:	00800984 	movi	r2,38
 1000fa0:	e0bf9e15 	stw	r2,-392(fp)
 1000fa4:	014040b4 	movhi	r5,258
 1000fa8:	2943db04 	addi	r5,r5,3948
 1000fac:	1003e680 	call	1003e68 <_ZNSsC1EPKcRKSaIcE>
 1000fb0:	e17f8f04 	addi	r5,fp,-452
 1000fb4:	e1bf8d04 	addi	r6,fp,-460
 1000fb8:	e1ff8b04 	addi	r7,fp,-468
 1000fbc:	00800944 	movi	r2,37
 1000fc0:	e0bf9e15 	stw	r2,-392(fp)
 1000fc4:	e13ffb17 	ldw	r4,-20(fp)
 1000fc8:	10005980 	call	1000598 <_ZN12MotorHandler12motorCommandESsSsSs>
 1000fcc:	e13f8b04 	addi	r4,fp,-468
 1000fd0:	00800984 	movi	r2,38
 1000fd4:	e0bf9e15 	stw	r2,-392(fp)
 1000fd8:	1004a240 	call	1004a24 <_ZNSsD1Ev>
 1000fdc:	00000806 	br	1001000 <_Z7mc_taskPv+0x4ec>
 1000fe0:	e0fffe17 	ldw	r3,-8(fp)
 1000fe4:	e0ffe515 	stw	r3,-108(fp)
 1000fe8:	e13f8b04 	addi	r4,fp,-468
 1000fec:	e03f9e15 	stw	zero,-392(fp)
 1000ff0:	1004a240 	call	1004a24 <_ZNSsD1Ev>
 1000ff4:	e0bfe517 	ldw	r2,-108(fp)
 1000ff8:	e0bffe15 	stw	r2,-8(fp)
 1000ffc:	00000706 	br	100101c <_Z7mc_taskPv+0x508>
 1001000:	e13f8a04 	addi	r4,fp,-472
 1001004:	10022b40 	call	10022b4 <_ZNSaIcED1Ev>
 1001008:	e13f8d04 	addi	r4,fp,-460
 100100c:	008009c4 	movi	r2,39
 1001010:	e0bf9e15 	stw	r2,-392(fp)
 1001014:	1004a240 	call	1004a24 <_ZNSsD1Ev>
 1001018:	00000e06 	br	1001054 <_Z7mc_taskPv+0x540>
 100101c:	e0fffe17 	ldw	r3,-8(fp)
 1001020:	e0ffe415 	stw	r3,-112(fp)
 1001024:	e13f8a04 	addi	r4,fp,-472
 1001028:	10022b40 	call	10022b4 <_ZNSaIcED1Ev>
 100102c:	e0bfe417 	ldw	r2,-112(fp)
 1001030:	e0bffe15 	stw	r2,-8(fp)
 1001034:	e0fffe17 	ldw	r3,-8(fp)
 1001038:	e0ffe315 	stw	r3,-116(fp)
 100103c:	e13f8d04 	addi	r4,fp,-460
 1001040:	e03f9e15 	stw	zero,-392(fp)
 1001044:	1004a240 	call	1004a24 <_ZNSsD1Ev>
 1001048:	e0bfe317 	ldw	r2,-116(fp)
 100104c:	e0bffe15 	stw	r2,-8(fp)
 1001050:	00000706 	br	1001070 <_Z7mc_taskPv+0x55c>
 1001054:	e13f8c04 	addi	r4,fp,-464
 1001058:	10022b40 	call	10022b4 <_ZNSaIcED1Ev>
 100105c:	e13f8f04 	addi	r4,fp,-452
 1001060:	00800a04 	movi	r2,40
 1001064:	e0bf9e15 	stw	r2,-392(fp)
 1001068:	1004a240 	call	1004a24 <_ZNSsD1Ev>
 100106c:	00000e06 	br	10010a8 <_Z7mc_taskPv+0x594>
 1001070:	e0fffe17 	ldw	r3,-8(fp)
 1001074:	e0ffe215 	stw	r3,-120(fp)
 1001078:	e13f8c04 	addi	r4,fp,-464
 100107c:	10022b40 	call	10022b4 <_ZNSaIcED1Ev>
 1001080:	e0bfe217 	ldw	r2,-120(fp)
 1001084:	e0bffe15 	stw	r2,-8(fp)
 1001088:	e0fffe17 	ldw	r3,-8(fp)
 100108c:	e0ffe115 	stw	r3,-124(fp)
 1001090:	e13f8f04 	addi	r4,fp,-452
 1001094:	e03f9e15 	stw	zero,-392(fp)
 1001098:	1004a240 	call	1004a24 <_ZNSsD1Ev>
 100109c:	e0bfe117 	ldw	r2,-124(fp)
 10010a0:	e0bffe15 	stw	r2,-8(fp)
 10010a4:	00000e06 	br	10010e0 <_Z7mc_taskPv+0x5cc>
 10010a8:	e13f8e04 	addi	r4,fp,-456
 10010ac:	10022b40 	call	10022b4 <_ZNSaIcED1Ev>
			motor->motorCommand("right","forward", "0");
 10010b0:	d0e74517 	ldw	r3,-25324(gp)
 10010b4:	e0fffa15 	stw	r3,-24(fp)
 10010b8:	e13f8804 	addi	r4,fp,-480
 10010bc:	10022880 	call	1002288 <_ZNSaIcEC1Ev>
 10010c0:	e13f8904 	addi	r4,fp,-476
 10010c4:	e1bf8804 	addi	r6,fp,-480
 10010c8:	00800904 	movi	r2,36
 10010cc:	e0bf9e15 	stw	r2,-392(fp)
 10010d0:	014040b4 	movhi	r5,258
 10010d4:	2943d904 	addi	r5,r5,3940
 10010d8:	1003e680 	call	1003e68 <_ZNSsC1EPKcRKSaIcE>
 10010dc:	00000a06 	br	1001108 <_Z7mc_taskPv+0x5f4>
 10010e0:	e0bffe17 	ldw	r2,-8(fp)
 10010e4:	e0bfe015 	stw	r2,-128(fp)
		}
		while(1){
			motor->motorCommand("left", "forward", "120");
			motor->motorCommand("right","forward", "120");
			OSTimeDlyHMSM(0, 0, 5, 0);
			motor->motorCommand("left", "forward", "0");
 10010e8:	e13f8e04 	addi	r4,fp,-456
 10010ec:	10022b40 	call	10022b4 <_ZNSaIcED1Ev>
 10010f0:	e0ffe017 	ldw	r3,-128(fp)
 10010f4:	e0fffe15 	stw	r3,-8(fp)
 10010f8:	00bfffc4 	movi	r2,-1
 10010fc:	e0bf9e15 	stw	r2,-392(fp)
 1001100:	e13ffe17 	ldw	r4,-8(fp)
 1001104:	1009ee80 	call	1009ee8 <_Unwind_SjLj_Resume>
			motor->motorCommand("right","forward", "0");
 1001108:	e13f8604 	addi	r4,fp,-488
 100110c:	10022880 	call	1002288 <_ZNSaIcEC1Ev>
 1001110:	e13f8704 	addi	r4,fp,-484
 1001114:	e1bf8604 	addi	r6,fp,-488
 1001118:	008008c4 	movi	r2,35
 100111c:	e0bf9e15 	stw	r2,-392(fp)
 1001120:	014040b4 	movhi	r5,258
 1001124:	2943d604 	addi	r5,r5,3928
 1001128:	1003e680 	call	1003e68 <_ZNSsC1EPKcRKSaIcE>
 100112c:	e13f8404 	addi	r4,fp,-496
 1001130:	10022880 	call	1002288 <_ZNSaIcEC1Ev>
 1001134:	e13f8504 	addi	r4,fp,-492
 1001138:	e1bf8404 	addi	r6,fp,-496
 100113c:	00800884 	movi	r2,34
 1001140:	e0bf9e15 	stw	r2,-392(fp)
 1001144:	014040b4 	movhi	r5,258
 1001148:	2943db04 	addi	r5,r5,3948
 100114c:	1003e680 	call	1003e68 <_ZNSsC1EPKcRKSaIcE>
 1001150:	e17f8904 	addi	r5,fp,-476
 1001154:	e1bf8704 	addi	r6,fp,-484
 1001158:	e1ff8504 	addi	r7,fp,-492
 100115c:	00800844 	movi	r2,33
 1001160:	e0bf9e15 	stw	r2,-392(fp)
 1001164:	e13ffa17 	ldw	r4,-24(fp)
 1001168:	10005980 	call	1000598 <_ZN12MotorHandler12motorCommandESsSsSs>
 100116c:	e13f8504 	addi	r4,fp,-492
 1001170:	00800884 	movi	r2,34
 1001174:	e0bf9e15 	stw	r2,-392(fp)
 1001178:	1004a240 	call	1004a24 <_ZNSsD1Ev>
 100117c:	00000806 	br	10011a0 <_Z7mc_taskPv+0x68c>
 1001180:	e0bffe17 	ldw	r2,-8(fp)
 1001184:	e0bfdf15 	stw	r2,-132(fp)
 1001188:	e13f8504 	addi	r4,fp,-492
 100118c:	e03f9e15 	stw	zero,-392(fp)
 1001190:	1004a240 	call	1004a24 <_ZNSsD1Ev>
 1001194:	e0ffdf17 	ldw	r3,-132(fp)
 1001198:	e0fffe15 	stw	r3,-8(fp)
 100119c:	00000706 	br	10011bc <_Z7mc_taskPv+0x6a8>
 10011a0:	e13f8404 	addi	r4,fp,-496
 10011a4:	10022b40 	call	10022b4 <_ZNSaIcED1Ev>
 10011a8:	e13f8704 	addi	r4,fp,-484
 10011ac:	008008c4 	movi	r2,35
 10011b0:	e0bf9e15 	stw	r2,-392(fp)
 10011b4:	1004a240 	call	1004a24 <_ZNSsD1Ev>
 10011b8:	00000e06 	br	10011f4 <_Z7mc_taskPv+0x6e0>
 10011bc:	e0bffe17 	ldw	r2,-8(fp)
 10011c0:	e0bfde15 	stw	r2,-136(fp)
 10011c4:	e13f8404 	addi	r4,fp,-496
 10011c8:	10022b40 	call	10022b4 <_ZNSaIcED1Ev>
 10011cc:	e0ffde17 	ldw	r3,-136(fp)
 10011d0:	e0fffe15 	stw	r3,-8(fp)
 10011d4:	e0bffe17 	ldw	r2,-8(fp)
 10011d8:	e0bfdd15 	stw	r2,-140(fp)
 10011dc:	e13f8704 	addi	r4,fp,-484
 10011e0:	e03f9e15 	stw	zero,-392(fp)
 10011e4:	1004a240 	call	1004a24 <_ZNSsD1Ev>
 10011e8:	e0ffdd17 	ldw	r3,-140(fp)
 10011ec:	e0fffe15 	stw	r3,-8(fp)
 10011f0:	00000706 	br	1001210 <_Z7mc_taskPv+0x6fc>
 10011f4:	e13f8604 	addi	r4,fp,-488
 10011f8:	10022b40 	call	10022b4 <_ZNSaIcED1Ev>
 10011fc:	e13f8904 	addi	r4,fp,-476
 1001200:	00800904 	movi	r2,36
 1001204:	e0bf9e15 	stw	r2,-392(fp)
 1001208:	1004a240 	call	1004a24 <_ZNSsD1Ev>
 100120c:	00000e06 	br	1001248 <_Z7mc_taskPv+0x734>
 1001210:	e0bffe17 	ldw	r2,-8(fp)
 1001214:	e0bfdc15 	stw	r2,-144(fp)
 1001218:	e13f8604 	addi	r4,fp,-488
 100121c:	10022b40 	call	10022b4 <_ZNSaIcED1Ev>
 1001220:	e0ffdc17 	ldw	r3,-144(fp)
 1001224:	e0fffe15 	stw	r3,-8(fp)
 1001228:	e0bffe17 	ldw	r2,-8(fp)
 100122c:	e0bfdb15 	stw	r2,-148(fp)
 1001230:	e13f8904 	addi	r4,fp,-476
 1001234:	e03f9e15 	stw	zero,-392(fp)
 1001238:	1004a240 	call	1004a24 <_ZNSsD1Ev>
 100123c:	e0ffdb17 	ldw	r3,-148(fp)
 1001240:	e0fffe15 	stw	r3,-8(fp)
 1001244:	00001506 	br	100129c <_Z7mc_taskPv+0x788>
 1001248:	e13f8804 	addi	r4,fp,-480
 100124c:	10022b40 	call	10022b4 <_ZNSaIcED1Ev>
			OSTimeDlyHMSM(0, 0, 5, 0);
 1001250:	00bfffc4 	movi	r2,-1
 1001254:	e0bf9e15 	stw	r2,-392(fp)
 1001258:	0009883a 	mov	r4,zero
 100125c:	000b883a 	mov	r5,zero
 1001260:	01800144 	movi	r6,5
 1001264:	000f883a 	mov	r7,zero
 1001268:	101d0f80 	call	101d0f8 <OSTimeDlyHMSM>
			motor->motorCommand("left", "backward", "120");
 100126c:	d0a74517 	ldw	r2,-25324(gp)
 1001270:	e0bff915 	stw	r2,-28(fp)
 1001274:	e13f8204 	addi	r4,fp,-504
 1001278:	10022880 	call	1002288 <_ZNSaIcEC1Ev>
 100127c:	e13f8304 	addi	r4,fp,-500
 1001280:	e1bf8204 	addi	r6,fp,-504
 1001284:	00800804 	movi	r2,32
 1001288:	e0bf9e15 	stw	r2,-392(fp)
 100128c:	014040b4 	movhi	r5,258
 1001290:	2943d404 	addi	r5,r5,3920
 1001294:	1003e680 	call	1003e68 <_ZNSsC1EPKcRKSaIcE>
 1001298:	00000a06 	br	10012c4 <_Z7mc_taskPv+0x7b0>
 100129c:	e0fffe17 	ldw	r3,-8(fp)
 10012a0:	e0ffda15 	stw	r3,-152(fp)
		while(1){
			motor->motorCommand("left", "forward", "120");
			motor->motorCommand("right","forward", "120");
			OSTimeDlyHMSM(0, 0, 5, 0);
			motor->motorCommand("left", "forward", "0");
			motor->motorCommand("right","forward", "0");
 10012a4:	e13f8804 	addi	r4,fp,-480
 10012a8:	10022b40 	call	10022b4 <_ZNSaIcED1Ev>
 10012ac:	e0bfda17 	ldw	r2,-152(fp)
 10012b0:	e0bffe15 	stw	r2,-8(fp)
 10012b4:	00bfffc4 	movi	r2,-1
 10012b8:	e0bf9e15 	stw	r2,-392(fp)
 10012bc:	e13ffe17 	ldw	r4,-8(fp)
 10012c0:	1009ee80 	call	1009ee8 <_Unwind_SjLj_Resume>
			OSTimeDlyHMSM(0, 0, 5, 0);
			motor->motorCommand("left", "backward", "120");
 10012c4:	e13f8004 	addi	r4,fp,-512
 10012c8:	10022880 	call	1002288 <_ZNSaIcEC1Ev>
 10012cc:	e13f8104 	addi	r4,fp,-508
 10012d0:	e1bf8004 	addi	r6,fp,-512
 10012d4:	008007c4 	movi	r2,31
 10012d8:	e0bf9e15 	stw	r2,-392(fp)
 10012dc:	014040b4 	movhi	r5,258
 10012e0:	2943dc04 	addi	r5,r5,3952
 10012e4:	1003e680 	call	1003e68 <_ZNSsC1EPKcRKSaIcE>
 10012e8:	e13f7e04 	addi	r4,fp,-520
 10012ec:	10022880 	call	1002288 <_ZNSaIcEC1Ev>
 10012f0:	e13f7f04 	addi	r4,fp,-516
 10012f4:	e1bf7e04 	addi	r6,fp,-520
 10012f8:	00800784 	movi	r2,30
 10012fc:	e0bf9e15 	stw	r2,-392(fp)
 1001300:	014040b4 	movhi	r5,258
 1001304:	2943d804 	addi	r5,r5,3936
 1001308:	1003e680 	call	1003e68 <_ZNSsC1EPKcRKSaIcE>
 100130c:	e17f8304 	addi	r5,fp,-500
 1001310:	e1bf8104 	addi	r6,fp,-508
 1001314:	e1ff7f04 	addi	r7,fp,-516
 1001318:	00800744 	movi	r2,29
 100131c:	e0bf9e15 	stw	r2,-392(fp)
 1001320:	e13ff917 	ldw	r4,-28(fp)
 1001324:	10005980 	call	1000598 <_ZN12MotorHandler12motorCommandESsSsSs>
 1001328:	e13f7f04 	addi	r4,fp,-516
 100132c:	00800784 	movi	r2,30
 1001330:	e0bf9e15 	stw	r2,-392(fp)
 1001334:	1004a240 	call	1004a24 <_ZNSsD1Ev>
 1001338:	00000806 	br	100135c <_Z7mc_taskPv+0x848>
 100133c:	e0fffe17 	ldw	r3,-8(fp)
 1001340:	e0ffd915 	stw	r3,-156(fp)
 1001344:	e13f7f04 	addi	r4,fp,-516
 1001348:	e03f9e15 	stw	zero,-392(fp)
 100134c:	1004a240 	call	1004a24 <_ZNSsD1Ev>
 1001350:	e0bfd917 	ldw	r2,-156(fp)
 1001354:	e0bffe15 	stw	r2,-8(fp)
 1001358:	00000706 	br	1001378 <_Z7mc_taskPv+0x864>
 100135c:	e13f7e04 	addi	r4,fp,-520
 1001360:	10022b40 	call	10022b4 <_ZNSaIcED1Ev>
 1001364:	e13f8104 	addi	r4,fp,-508
 1001368:	008007c4 	movi	r2,31
 100136c:	e0bf9e15 	stw	r2,-392(fp)
 1001370:	1004a240 	call	1004a24 <_ZNSsD1Ev>
 1001374:	00000e06 	br	10013b0 <_Z7mc_taskPv+0x89c>
 1001378:	e0fffe17 	ldw	r3,-8(fp)
 100137c:	e0ffd815 	stw	r3,-160(fp)
 1001380:	e13f7e04 	addi	r4,fp,-520
 1001384:	10022b40 	call	10022b4 <_ZNSaIcED1Ev>
 1001388:	e0bfd817 	ldw	r2,-160(fp)
 100138c:	e0bffe15 	stw	r2,-8(fp)
 1001390:	e0fffe17 	ldw	r3,-8(fp)
 1001394:	e0ffd715 	stw	r3,-164(fp)
 1001398:	e13f8104 	addi	r4,fp,-508
 100139c:	e03f9e15 	stw	zero,-392(fp)
 10013a0:	1004a240 	call	1004a24 <_ZNSsD1Ev>
 10013a4:	e0bfd717 	ldw	r2,-164(fp)
 10013a8:	e0bffe15 	stw	r2,-8(fp)
 10013ac:	00000706 	br	10013cc <_Z7mc_taskPv+0x8b8>
 10013b0:	e13f8004 	addi	r4,fp,-512
 10013b4:	10022b40 	call	10022b4 <_ZNSaIcED1Ev>
 10013b8:	e13f8304 	addi	r4,fp,-500
 10013bc:	00800804 	movi	r2,32
 10013c0:	e0bf9e15 	stw	r2,-392(fp)
 10013c4:	1004a240 	call	1004a24 <_ZNSsD1Ev>
 10013c8:	00000e06 	br	1001404 <_Z7mc_taskPv+0x8f0>
 10013cc:	e0fffe17 	ldw	r3,-8(fp)
 10013d0:	e0ffd615 	stw	r3,-168(fp)
 10013d4:	e13f8004 	addi	r4,fp,-512
 10013d8:	10022b40 	call	10022b4 <_ZNSaIcED1Ev>
 10013dc:	e0bfd617 	ldw	r2,-168(fp)
 10013e0:	e0bffe15 	stw	r2,-8(fp)
 10013e4:	e0fffe17 	ldw	r3,-8(fp)
 10013e8:	e0ffd515 	stw	r3,-172(fp)
 10013ec:	e13f8304 	addi	r4,fp,-500
 10013f0:	e03f9e15 	stw	zero,-392(fp)
 10013f4:	1004a240 	call	1004a24 <_ZNSsD1Ev>
 10013f8:	e0bfd517 	ldw	r2,-172(fp)
 10013fc:	e0bffe15 	stw	r2,-8(fp)
 1001400:	00000e06 	br	100143c <_Z7mc_taskPv+0x928>
 1001404:	e13f8204 	addi	r4,fp,-504
 1001408:	10022b40 	call	10022b4 <_ZNSaIcED1Ev>
			motor->motorCommand("right","backward", "120");
 100140c:	d0e74517 	ldw	r3,-25324(gp)
 1001410:	e0fff815 	stw	r3,-32(fp)
 1001414:	e13f7c04 	addi	r4,fp,-528
 1001418:	10022880 	call	1002288 <_ZNSaIcEC1Ev>
 100141c:	e13f7d04 	addi	r4,fp,-524
 1001420:	e1bf7c04 	addi	r6,fp,-528
 1001424:	00800704 	movi	r2,28
 1001428:	e0bf9e15 	stw	r2,-392(fp)
 100142c:	014040b4 	movhi	r5,258
 1001430:	2943d904 	addi	r5,r5,3940
 1001434:	1003e680 	call	1003e68 <_ZNSsC1EPKcRKSaIcE>
 1001438:	00000a06 	br	1001464 <_Z7mc_taskPv+0x950>
 100143c:	e0bffe17 	ldw	r2,-8(fp)
 1001440:	e0bfd415 	stw	r2,-176(fp)
			motor->motorCommand("right","forward", "120");
			OSTimeDlyHMSM(0, 0, 5, 0);
			motor->motorCommand("left", "forward", "0");
			motor->motorCommand("right","forward", "0");
			OSTimeDlyHMSM(0, 0, 5, 0);
			motor->motorCommand("left", "backward", "120");
 1001444:	e13f8204 	addi	r4,fp,-504
 1001448:	10022b40 	call	10022b4 <_ZNSaIcED1Ev>
 100144c:	e0ffd417 	ldw	r3,-176(fp)
 1001450:	e0fffe15 	stw	r3,-8(fp)
 1001454:	00bfffc4 	movi	r2,-1
 1001458:	e0bf9e15 	stw	r2,-392(fp)
 100145c:	e13ffe17 	ldw	r4,-8(fp)
 1001460:	1009ee80 	call	1009ee8 <_Unwind_SjLj_Resume>
			motor->motorCommand("right","backward", "120");
 1001464:	e13f7a04 	addi	r4,fp,-536
 1001468:	10022880 	call	1002288 <_ZNSaIcEC1Ev>
 100146c:	e13f7b04 	addi	r4,fp,-532
 1001470:	e1bf7a04 	addi	r6,fp,-536
 1001474:	008006c4 	movi	r2,27
 1001478:	e0bf9e15 	stw	r2,-392(fp)
 100147c:	014040b4 	movhi	r5,258
 1001480:	2943dc04 	addi	r5,r5,3952
 1001484:	1003e680 	call	1003e68 <_ZNSsC1EPKcRKSaIcE>
 1001488:	e13f7804 	addi	r4,fp,-544
 100148c:	10022880 	call	1002288 <_ZNSaIcEC1Ev>
 1001490:	e13f7904 	addi	r4,fp,-540
 1001494:	e1bf7804 	addi	r6,fp,-544
 1001498:	00800684 	movi	r2,26
 100149c:	e0bf9e15 	stw	r2,-392(fp)
 10014a0:	014040b4 	movhi	r5,258
 10014a4:	2943d804 	addi	r5,r5,3936
 10014a8:	1003e680 	call	1003e68 <_ZNSsC1EPKcRKSaIcE>
 10014ac:	e17f7d04 	addi	r5,fp,-524
 10014b0:	e1bf7b04 	addi	r6,fp,-532
 10014b4:	e1ff7904 	addi	r7,fp,-540
 10014b8:	00800644 	movi	r2,25
 10014bc:	e0bf9e15 	stw	r2,-392(fp)
 10014c0:	e13ff817 	ldw	r4,-32(fp)
 10014c4:	10005980 	call	1000598 <_ZN12MotorHandler12motorCommandESsSsSs>
 10014c8:	e13f7904 	addi	r4,fp,-540
 10014cc:	00800684 	movi	r2,26
 10014d0:	e0bf9e15 	stw	r2,-392(fp)
 10014d4:	1004a240 	call	1004a24 <_ZNSsD1Ev>
 10014d8:	00000806 	br	10014fc <_Z7mc_taskPv+0x9e8>
 10014dc:	e0bffe17 	ldw	r2,-8(fp)
 10014e0:	e0bfd315 	stw	r2,-180(fp)
 10014e4:	e13f7904 	addi	r4,fp,-540
 10014e8:	e03f9e15 	stw	zero,-392(fp)
 10014ec:	1004a240 	call	1004a24 <_ZNSsD1Ev>
 10014f0:	e0ffd317 	ldw	r3,-180(fp)
 10014f4:	e0fffe15 	stw	r3,-8(fp)
 10014f8:	00000706 	br	1001518 <_Z7mc_taskPv+0xa04>
 10014fc:	e13f7804 	addi	r4,fp,-544
 1001500:	10022b40 	call	10022b4 <_ZNSaIcED1Ev>
 1001504:	e13f7b04 	addi	r4,fp,-532
 1001508:	008006c4 	movi	r2,27
 100150c:	e0bf9e15 	stw	r2,-392(fp)
 1001510:	1004a240 	call	1004a24 <_ZNSsD1Ev>
 1001514:	00000e06 	br	1001550 <_Z7mc_taskPv+0xa3c>
 1001518:	e0bffe17 	ldw	r2,-8(fp)
 100151c:	e0bfd215 	stw	r2,-184(fp)
 1001520:	e13f7804 	addi	r4,fp,-544
 1001524:	10022b40 	call	10022b4 <_ZNSaIcED1Ev>
 1001528:	e0ffd217 	ldw	r3,-184(fp)
 100152c:	e0fffe15 	stw	r3,-8(fp)
 1001530:	e0bffe17 	ldw	r2,-8(fp)
 1001534:	e0bfd115 	stw	r2,-188(fp)
 1001538:	e13f7b04 	addi	r4,fp,-532
 100153c:	e03f9e15 	stw	zero,-392(fp)
 1001540:	1004a240 	call	1004a24 <_ZNSsD1Ev>
 1001544:	e0ffd117 	ldw	r3,-188(fp)
 1001548:	e0fffe15 	stw	r3,-8(fp)
 100154c:	00000706 	br	100156c <_Z7mc_taskPv+0xa58>
 1001550:	e13f7a04 	addi	r4,fp,-536
 1001554:	10022b40 	call	10022b4 <_ZNSaIcED1Ev>
 1001558:	e13f7d04 	addi	r4,fp,-524
 100155c:	00800704 	movi	r2,28
 1001560:	e0bf9e15 	stw	r2,-392(fp)
 1001564:	1004a240 	call	1004a24 <_ZNSsD1Ev>
 1001568:	00000e06 	br	10015a4 <_Z7mc_taskPv+0xa90>
 100156c:	e0bffe17 	ldw	r2,-8(fp)
 1001570:	e0bfd015 	stw	r2,-192(fp)
 1001574:	e13f7a04 	addi	r4,fp,-536
 1001578:	10022b40 	call	10022b4 <_ZNSaIcED1Ev>
 100157c:	e0ffd017 	ldw	r3,-192(fp)
 1001580:	e0fffe15 	stw	r3,-8(fp)
 1001584:	e0bffe17 	ldw	r2,-8(fp)
 1001588:	e0bfcf15 	stw	r2,-196(fp)
 100158c:	e13f7d04 	addi	r4,fp,-524
 1001590:	e03f9e15 	stw	zero,-392(fp)
 1001594:	1004a240 	call	1004a24 <_ZNSsD1Ev>
 1001598:	e0ffcf17 	ldw	r3,-196(fp)
 100159c:	e0fffe15 	stw	r3,-8(fp)
 10015a0:	00001506 	br	10015f8 <_Z7mc_taskPv+0xae4>
 10015a4:	e13f7c04 	addi	r4,fp,-528
 10015a8:	10022b40 	call	10022b4 <_ZNSaIcED1Ev>
			OSTimeDlyHMSM(0, 0, 5, 0);
 10015ac:	00bfffc4 	movi	r2,-1
 10015b0:	e0bf9e15 	stw	r2,-392(fp)
 10015b4:	0009883a 	mov	r4,zero
 10015b8:	000b883a 	mov	r5,zero
 10015bc:	01800144 	movi	r6,5
 10015c0:	000f883a 	mov	r7,zero
 10015c4:	101d0f80 	call	101d0f8 <OSTimeDlyHMSM>
			motor->motorCommand("left", "forward", "0");
 10015c8:	d0a74517 	ldw	r2,-25324(gp)
 10015cc:	e0bff715 	stw	r2,-36(fp)
 10015d0:	e13f7604 	addi	r4,fp,-552
 10015d4:	10022880 	call	1002288 <_ZNSaIcEC1Ev>
 10015d8:	e13f7704 	addi	r4,fp,-548
 10015dc:	e1bf7604 	addi	r6,fp,-552
 10015e0:	00800604 	movi	r2,24
 10015e4:	e0bf9e15 	stw	r2,-392(fp)
 10015e8:	014040b4 	movhi	r5,258
 10015ec:	2943d404 	addi	r5,r5,3920
 10015f0:	1003e680 	call	1003e68 <_ZNSsC1EPKcRKSaIcE>
 10015f4:	00000a06 	br	1001620 <_Z7mc_taskPv+0xb0c>
 10015f8:	e0fffe17 	ldw	r3,-8(fp)
 10015fc:	e0ffce15 	stw	r3,-200(fp)
			OSTimeDlyHMSM(0, 0, 5, 0);
			motor->motorCommand("left", "forward", "0");
			motor->motorCommand("right","forward", "0");
			OSTimeDlyHMSM(0, 0, 5, 0);
			motor->motorCommand("left", "backward", "120");
			motor->motorCommand("right","backward", "120");
 1001600:	e13f7c04 	addi	r4,fp,-528
 1001604:	10022b40 	call	10022b4 <_ZNSaIcED1Ev>
 1001608:	e0bfce17 	ldw	r2,-200(fp)
 100160c:	e0bffe15 	stw	r2,-8(fp)
 1001610:	00bfffc4 	movi	r2,-1
 1001614:	e0bf9e15 	stw	r2,-392(fp)
 1001618:	e13ffe17 	ldw	r4,-8(fp)
 100161c:	1009ee80 	call	1009ee8 <_Unwind_SjLj_Resume>
			OSTimeDlyHMSM(0, 0, 5, 0);
			motor->motorCommand("left", "forward", "0");
 1001620:	e13f7404 	addi	r4,fp,-560
 1001624:	10022880 	call	1002288 <_ZNSaIcEC1Ev>
 1001628:	e13f7504 	addi	r4,fp,-556
 100162c:	e1bf7404 	addi	r6,fp,-560
 1001630:	008005c4 	movi	r2,23
 1001634:	e0bf9e15 	stw	r2,-392(fp)
 1001638:	014040b4 	movhi	r5,258
 100163c:	2943d604 	addi	r5,r5,3928
 1001640:	1003e680 	call	1003e68 <_ZNSsC1EPKcRKSaIcE>
 1001644:	e13f7204 	addi	r4,fp,-568
 1001648:	10022880 	call	1002288 <_ZNSaIcEC1Ev>
 100164c:	e13f7304 	addi	r4,fp,-564
 1001650:	e1bf7204 	addi	r6,fp,-568
 1001654:	00800584 	movi	r2,22
 1001658:	e0bf9e15 	stw	r2,-392(fp)
 100165c:	014040b4 	movhi	r5,258
 1001660:	2943db04 	addi	r5,r5,3948
 1001664:	1003e680 	call	1003e68 <_ZNSsC1EPKcRKSaIcE>
 1001668:	e17f7704 	addi	r5,fp,-548
 100166c:	e1bf7504 	addi	r6,fp,-556
 1001670:	e1ff7304 	addi	r7,fp,-564
 1001674:	00800544 	movi	r2,21
 1001678:	e0bf9e15 	stw	r2,-392(fp)
 100167c:	e13ff717 	ldw	r4,-36(fp)
 1001680:	10005980 	call	1000598 <_ZN12MotorHandler12motorCommandESsSsSs>
 1001684:	e13f7304 	addi	r4,fp,-564
 1001688:	00800584 	movi	r2,22
 100168c:	e0bf9e15 	stw	r2,-392(fp)
 1001690:	1004a240 	call	1004a24 <_ZNSsD1Ev>
 1001694:	00000806 	br	10016b8 <_Z7mc_taskPv+0xba4>
 1001698:	e0fffe17 	ldw	r3,-8(fp)
 100169c:	e0ffcd15 	stw	r3,-204(fp)
 10016a0:	e13f7304 	addi	r4,fp,-564
 10016a4:	e03f9e15 	stw	zero,-392(fp)
 10016a8:	1004a240 	call	1004a24 <_ZNSsD1Ev>
 10016ac:	e0bfcd17 	ldw	r2,-204(fp)
 10016b0:	e0bffe15 	stw	r2,-8(fp)
 10016b4:	00000706 	br	10016d4 <_Z7mc_taskPv+0xbc0>
 10016b8:	e13f7204 	addi	r4,fp,-568
 10016bc:	10022b40 	call	10022b4 <_ZNSaIcED1Ev>
 10016c0:	e13f7504 	addi	r4,fp,-556
 10016c4:	008005c4 	movi	r2,23
 10016c8:	e0bf9e15 	stw	r2,-392(fp)
 10016cc:	1004a240 	call	1004a24 <_ZNSsD1Ev>
 10016d0:	00000e06 	br	100170c <_Z7mc_taskPv+0xbf8>
 10016d4:	e0fffe17 	ldw	r3,-8(fp)
 10016d8:	e0ffcc15 	stw	r3,-208(fp)
 10016dc:	e13f7204 	addi	r4,fp,-568
 10016e0:	10022b40 	call	10022b4 <_ZNSaIcED1Ev>
 10016e4:	e0bfcc17 	ldw	r2,-208(fp)
 10016e8:	e0bffe15 	stw	r2,-8(fp)
 10016ec:	e0fffe17 	ldw	r3,-8(fp)
 10016f0:	e0ffcb15 	stw	r3,-212(fp)
 10016f4:	e13f7504 	addi	r4,fp,-556
 10016f8:	e03f9e15 	stw	zero,-392(fp)
 10016fc:	1004a240 	call	1004a24 <_ZNSsD1Ev>
 1001700:	e0bfcb17 	ldw	r2,-212(fp)
 1001704:	e0bffe15 	stw	r2,-8(fp)
 1001708:	00000706 	br	1001728 <_Z7mc_taskPv+0xc14>
 100170c:	e13f7404 	addi	r4,fp,-560
 1001710:	10022b40 	call	10022b4 <_ZNSaIcED1Ev>
 1001714:	e13f7704 	addi	r4,fp,-548
 1001718:	00800604 	movi	r2,24
 100171c:	e0bf9e15 	stw	r2,-392(fp)
 1001720:	1004a240 	call	1004a24 <_ZNSsD1Ev>
 1001724:	00000e06 	br	1001760 <_Z7mc_taskPv+0xc4c>
 1001728:	e0fffe17 	ldw	r3,-8(fp)
 100172c:	e0ffca15 	stw	r3,-216(fp)
 1001730:	e13f7404 	addi	r4,fp,-560
 1001734:	10022b40 	call	10022b4 <_ZNSaIcED1Ev>
 1001738:	e0bfca17 	ldw	r2,-216(fp)
 100173c:	e0bffe15 	stw	r2,-8(fp)
 1001740:	e0fffe17 	ldw	r3,-8(fp)
 1001744:	e0ffc915 	stw	r3,-220(fp)
 1001748:	e13f7704 	addi	r4,fp,-548
 100174c:	e03f9e15 	stw	zero,-392(fp)
 1001750:	1004a240 	call	1004a24 <_ZNSsD1Ev>
 1001754:	e0bfc917 	ldw	r2,-220(fp)
 1001758:	e0bffe15 	stw	r2,-8(fp)
 100175c:	00000e06 	br	1001798 <_Z7mc_taskPv+0xc84>
 1001760:	e13f7604 	addi	r4,fp,-552
 1001764:	10022b40 	call	10022b4 <_ZNSaIcED1Ev>
			motor->motorCommand("right","forward", "0");
 1001768:	d0e74517 	ldw	r3,-25324(gp)
 100176c:	e0fff615 	stw	r3,-40(fp)
 1001770:	e13f7004 	addi	r4,fp,-576
 1001774:	10022880 	call	1002288 <_ZNSaIcEC1Ev>
 1001778:	e13f7104 	addi	r4,fp,-572
 100177c:	e1bf7004 	addi	r6,fp,-576
 1001780:	00800504 	movi	r2,20
 1001784:	e0bf9e15 	stw	r2,-392(fp)
 1001788:	014040b4 	movhi	r5,258
 100178c:	2943d904 	addi	r5,r5,3940
 1001790:	1003e680 	call	1003e68 <_ZNSsC1EPKcRKSaIcE>
 1001794:	00000a06 	br	10017c0 <_Z7mc_taskPv+0xcac>
 1001798:	e0bffe17 	ldw	r2,-8(fp)
 100179c:	e0bfc815 	stw	r2,-224(fp)
			motor->motorCommand("right","forward", "0");
			OSTimeDlyHMSM(0, 0, 5, 0);
			motor->motorCommand("left", "backward", "120");
			motor->motorCommand("right","backward", "120");
			OSTimeDlyHMSM(0, 0, 5, 0);
			motor->motorCommand("left", "forward", "0");
 10017a0:	e13f7604 	addi	r4,fp,-552
 10017a4:	10022b40 	call	10022b4 <_ZNSaIcED1Ev>
 10017a8:	e0ffc817 	ldw	r3,-224(fp)
 10017ac:	e0fffe15 	stw	r3,-8(fp)
 10017b0:	00bfffc4 	movi	r2,-1
 10017b4:	e0bf9e15 	stw	r2,-392(fp)
 10017b8:	e13ffe17 	ldw	r4,-8(fp)
 10017bc:	1009ee80 	call	1009ee8 <_Unwind_SjLj_Resume>
			motor->motorCommand("right","forward", "0");
 10017c0:	e13f6e04 	addi	r4,fp,-584
 10017c4:	10022880 	call	1002288 <_ZNSaIcEC1Ev>
 10017c8:	e13f6f04 	addi	r4,fp,-580
 10017cc:	e1bf6e04 	addi	r6,fp,-584
 10017d0:	008004c4 	movi	r2,19
 10017d4:	e0bf9e15 	stw	r2,-392(fp)
 10017d8:	014040b4 	movhi	r5,258
 10017dc:	2943d604 	addi	r5,r5,3928
 10017e0:	1003e680 	call	1003e68 <_ZNSsC1EPKcRKSaIcE>
 10017e4:	e13f6c04 	addi	r4,fp,-592
 10017e8:	10022880 	call	1002288 <_ZNSaIcEC1Ev>
 10017ec:	e13f6d04 	addi	r4,fp,-588
 10017f0:	e1bf6c04 	addi	r6,fp,-592
 10017f4:	00800484 	movi	r2,18
 10017f8:	e0bf9e15 	stw	r2,-392(fp)
 10017fc:	014040b4 	movhi	r5,258
 1001800:	2943db04 	addi	r5,r5,3948
 1001804:	1003e680 	call	1003e68 <_ZNSsC1EPKcRKSaIcE>
 1001808:	e17f7104 	addi	r5,fp,-572
 100180c:	e1bf6f04 	addi	r6,fp,-580
 1001810:	e1ff6d04 	addi	r7,fp,-588
 1001814:	00800444 	movi	r2,17
 1001818:	e0bf9e15 	stw	r2,-392(fp)
 100181c:	e13ff617 	ldw	r4,-40(fp)
 1001820:	10005980 	call	1000598 <_ZN12MotorHandler12motorCommandESsSsSs>
 1001824:	e13f6d04 	addi	r4,fp,-588
 1001828:	00800484 	movi	r2,18
 100182c:	e0bf9e15 	stw	r2,-392(fp)
 1001830:	1004a240 	call	1004a24 <_ZNSsD1Ev>
 1001834:	00000806 	br	1001858 <_Z7mc_taskPv+0xd44>
 1001838:	e0bffe17 	ldw	r2,-8(fp)
 100183c:	e0bfc715 	stw	r2,-228(fp)
 1001840:	e13f6d04 	addi	r4,fp,-588
 1001844:	e03f9e15 	stw	zero,-392(fp)
 1001848:	1004a240 	call	1004a24 <_ZNSsD1Ev>
 100184c:	e0ffc717 	ldw	r3,-228(fp)
 1001850:	e0fffe15 	stw	r3,-8(fp)
 1001854:	00000706 	br	1001874 <_Z7mc_taskPv+0xd60>
 1001858:	e13f6c04 	addi	r4,fp,-592
 100185c:	10022b40 	call	10022b4 <_ZNSaIcED1Ev>
 1001860:	e13f6f04 	addi	r4,fp,-580
 1001864:	008004c4 	movi	r2,19
 1001868:	e0bf9e15 	stw	r2,-392(fp)
 100186c:	1004a240 	call	1004a24 <_ZNSsD1Ev>
 1001870:	00000e06 	br	10018ac <_Z7mc_taskPv+0xd98>
 1001874:	e0bffe17 	ldw	r2,-8(fp)
 1001878:	e0bfc615 	stw	r2,-232(fp)
 100187c:	e13f6c04 	addi	r4,fp,-592
 1001880:	10022b40 	call	10022b4 <_ZNSaIcED1Ev>
 1001884:	e0ffc617 	ldw	r3,-232(fp)
 1001888:	e0fffe15 	stw	r3,-8(fp)
 100188c:	e0bffe17 	ldw	r2,-8(fp)
 1001890:	e0bfc515 	stw	r2,-236(fp)
 1001894:	e13f6f04 	addi	r4,fp,-580
 1001898:	e03f9e15 	stw	zero,-392(fp)
 100189c:	1004a240 	call	1004a24 <_ZNSsD1Ev>
 10018a0:	e0ffc517 	ldw	r3,-236(fp)
 10018a4:	e0fffe15 	stw	r3,-8(fp)
 10018a8:	00000706 	br	10018c8 <_Z7mc_taskPv+0xdb4>
 10018ac:	e13f6e04 	addi	r4,fp,-584
 10018b0:	10022b40 	call	10022b4 <_ZNSaIcED1Ev>
 10018b4:	e13f7104 	addi	r4,fp,-572
 10018b8:	00800504 	movi	r2,20
 10018bc:	e0bf9e15 	stw	r2,-392(fp)
 10018c0:	1004a240 	call	1004a24 <_ZNSsD1Ev>
 10018c4:	00000e06 	br	1001900 <_Z7mc_taskPv+0xdec>
 10018c8:	e0bffe17 	ldw	r2,-8(fp)
 10018cc:	e0bfc415 	stw	r2,-240(fp)
 10018d0:	e13f6e04 	addi	r4,fp,-584
 10018d4:	10022b40 	call	10022b4 <_ZNSaIcED1Ev>
 10018d8:	e0ffc417 	ldw	r3,-240(fp)
 10018dc:	e0fffe15 	stw	r3,-8(fp)
 10018e0:	e0bffe17 	ldw	r2,-8(fp)
 10018e4:	e0bfc315 	stw	r2,-244(fp)
 10018e8:	e13f7104 	addi	r4,fp,-572
 10018ec:	e03f9e15 	stw	zero,-392(fp)
 10018f0:	1004a240 	call	1004a24 <_ZNSsD1Ev>
 10018f4:	e0ffc317 	ldw	r3,-244(fp)
 10018f8:	e0fffe15 	stw	r3,-8(fp)
 10018fc:	00001506 	br	1001954 <_Z7mc_taskPv+0xe40>
 1001900:	e13f7004 	addi	r4,fp,-576
 1001904:	10022b40 	call	10022b4 <_ZNSaIcED1Ev>
			OSTimeDlyHMSM(0, 0, 5, 0);
 1001908:	00bfffc4 	movi	r2,-1
 100190c:	e0bf9e15 	stw	r2,-392(fp)
 1001910:	0009883a 	mov	r4,zero
 1001914:	000b883a 	mov	r5,zero
 1001918:	01800144 	movi	r6,5
 100191c:	000f883a 	mov	r7,zero
 1001920:	101d0f80 	call	101d0f8 <OSTimeDlyHMSM>
			motor->motorCommand("right","forward", "120");
 1001924:	d0a74517 	ldw	r2,-25324(gp)
 1001928:	e0bff515 	stw	r2,-44(fp)
 100192c:	e13f6a04 	addi	r4,fp,-600
 1001930:	10022880 	call	1002288 <_ZNSaIcEC1Ev>
 1001934:	e13f6b04 	addi	r4,fp,-596
 1001938:	e1bf6a04 	addi	r6,fp,-600
 100193c:	00800404 	movi	r2,16
 1001940:	e0bf9e15 	stw	r2,-392(fp)
 1001944:	014040b4 	movhi	r5,258
 1001948:	2943d904 	addi	r5,r5,3940
 100194c:	1003e680 	call	1003e68 <_ZNSsC1EPKcRKSaIcE>
 1001950:	00000a06 	br	100197c <_Z7mc_taskPv+0xe68>
 1001954:	e0fffe17 	ldw	r3,-8(fp)
 1001958:	e0ffc215 	stw	r3,-248(fp)
			OSTimeDlyHMSM(0, 0, 5, 0);
			motor->motorCommand("left", "backward", "120");
			motor->motorCommand("right","backward", "120");
			OSTimeDlyHMSM(0, 0, 5, 0);
			motor->motorCommand("left", "forward", "0");
			motor->motorCommand("right","forward", "0");
 100195c:	e13f7004 	addi	r4,fp,-576
 1001960:	10022b40 	call	10022b4 <_ZNSaIcED1Ev>
 1001964:	e0bfc217 	ldw	r2,-248(fp)
 1001968:	e0bffe15 	stw	r2,-8(fp)
 100196c:	00bfffc4 	movi	r2,-1
 1001970:	e0bf9e15 	stw	r2,-392(fp)
 1001974:	e13ffe17 	ldw	r4,-8(fp)
 1001978:	1009ee80 	call	1009ee8 <_Unwind_SjLj_Resume>
			OSTimeDlyHMSM(0, 0, 5, 0);
			motor->motorCommand("right","forward", "120");
 100197c:	e13f6804 	addi	r4,fp,-608
 1001980:	10022880 	call	1002288 <_ZNSaIcEC1Ev>
 1001984:	e13f6904 	addi	r4,fp,-604
 1001988:	e1bf6804 	addi	r6,fp,-608
 100198c:	008003c4 	movi	r2,15
 1001990:	e0bf9e15 	stw	r2,-392(fp)
 1001994:	014040b4 	movhi	r5,258
 1001998:	2943d604 	addi	r5,r5,3928
 100199c:	1003e680 	call	1003e68 <_ZNSsC1EPKcRKSaIcE>
 10019a0:	e13f6604 	addi	r4,fp,-616
 10019a4:	10022880 	call	1002288 <_ZNSaIcEC1Ev>
 10019a8:	e13f6704 	addi	r4,fp,-612
 10019ac:	e1bf6604 	addi	r6,fp,-616
 10019b0:	00800384 	movi	r2,14
 10019b4:	e0bf9e15 	stw	r2,-392(fp)
 10019b8:	014040b4 	movhi	r5,258
 10019bc:	2943d804 	addi	r5,r5,3936
 10019c0:	1003e680 	call	1003e68 <_ZNSsC1EPKcRKSaIcE>
 10019c4:	e17f6b04 	addi	r5,fp,-596
 10019c8:	e1bf6904 	addi	r6,fp,-604
 10019cc:	e1ff6704 	addi	r7,fp,-612
 10019d0:	00800344 	movi	r2,13
 10019d4:	e0bf9e15 	stw	r2,-392(fp)
 10019d8:	e13ff517 	ldw	r4,-44(fp)
 10019dc:	10005980 	call	1000598 <_ZN12MotorHandler12motorCommandESsSsSs>
 10019e0:	e13f6704 	addi	r4,fp,-612
 10019e4:	00800384 	movi	r2,14
 10019e8:	e0bf9e15 	stw	r2,-392(fp)
 10019ec:	1004a240 	call	1004a24 <_ZNSsD1Ev>
 10019f0:	00000806 	br	1001a14 <_Z7mc_taskPv+0xf00>
 10019f4:	e0fffe17 	ldw	r3,-8(fp)
 10019f8:	e0ffc115 	stw	r3,-252(fp)
 10019fc:	e13f6704 	addi	r4,fp,-612
 1001a00:	e03f9e15 	stw	zero,-392(fp)
 1001a04:	1004a240 	call	1004a24 <_ZNSsD1Ev>
 1001a08:	e0bfc117 	ldw	r2,-252(fp)
 1001a0c:	e0bffe15 	stw	r2,-8(fp)
 1001a10:	00000706 	br	1001a30 <_Z7mc_taskPv+0xf1c>
 1001a14:	e13f6604 	addi	r4,fp,-616
 1001a18:	10022b40 	call	10022b4 <_ZNSaIcED1Ev>
 1001a1c:	e13f6904 	addi	r4,fp,-604
 1001a20:	008003c4 	movi	r2,15
 1001a24:	e0bf9e15 	stw	r2,-392(fp)
 1001a28:	1004a240 	call	1004a24 <_ZNSsD1Ev>
 1001a2c:	00000e06 	br	1001a68 <_Z7mc_taskPv+0xf54>
 1001a30:	e0fffe17 	ldw	r3,-8(fp)
 1001a34:	e0ffc015 	stw	r3,-256(fp)
 1001a38:	e13f6604 	addi	r4,fp,-616
 1001a3c:	10022b40 	call	10022b4 <_ZNSaIcED1Ev>
 1001a40:	e0bfc017 	ldw	r2,-256(fp)
 1001a44:	e0bffe15 	stw	r2,-8(fp)
 1001a48:	e0fffe17 	ldw	r3,-8(fp)
 1001a4c:	e0ffbf15 	stw	r3,-260(fp)
 1001a50:	e13f6904 	addi	r4,fp,-604
 1001a54:	e03f9e15 	stw	zero,-392(fp)
 1001a58:	1004a240 	call	1004a24 <_ZNSsD1Ev>
 1001a5c:	e0bfbf17 	ldw	r2,-260(fp)
 1001a60:	e0bffe15 	stw	r2,-8(fp)
 1001a64:	00000706 	br	1001a84 <_Z7mc_taskPv+0xf70>
 1001a68:	e13f6804 	addi	r4,fp,-608
 1001a6c:	10022b40 	call	10022b4 <_ZNSaIcED1Ev>
 1001a70:	e13f6b04 	addi	r4,fp,-596
 1001a74:	00800404 	movi	r2,16
 1001a78:	e0bf9e15 	stw	r2,-392(fp)
 1001a7c:	1004a240 	call	1004a24 <_ZNSsD1Ev>
 1001a80:	00000e06 	br	1001abc <_Z7mc_taskPv+0xfa8>
 1001a84:	e0fffe17 	ldw	r3,-8(fp)
 1001a88:	e0ffbe15 	stw	r3,-264(fp)
 1001a8c:	e13f6804 	addi	r4,fp,-608
 1001a90:	10022b40 	call	10022b4 <_ZNSaIcED1Ev>
 1001a94:	e0bfbe17 	ldw	r2,-264(fp)
 1001a98:	e0bffe15 	stw	r2,-8(fp)
 1001a9c:	e0fffe17 	ldw	r3,-8(fp)
 1001aa0:	e0ffbd15 	stw	r3,-268(fp)
 1001aa4:	e13f6b04 	addi	r4,fp,-596
 1001aa8:	e03f9e15 	stw	zero,-392(fp)
 1001aac:	1004a240 	call	1004a24 <_ZNSsD1Ev>
 1001ab0:	e0bfbd17 	ldw	r2,-268(fp)
 1001ab4:	e0bffe15 	stw	r2,-8(fp)
 1001ab8:	00001506 	br	1001b10 <_Z7mc_taskPv+0xffc>
 1001abc:	e13f6a04 	addi	r4,fp,-600
 1001ac0:	10022b40 	call	10022b4 <_ZNSaIcED1Ev>
			OSTimeDlyHMSM(0, 0, 5, 0);
 1001ac4:	00bfffc4 	movi	r2,-1
 1001ac8:	e0bf9e15 	stw	r2,-392(fp)
 1001acc:	0009883a 	mov	r4,zero
 1001ad0:	000b883a 	mov	r5,zero
 1001ad4:	01800144 	movi	r6,5
 1001ad8:	000f883a 	mov	r7,zero
 1001adc:	101d0f80 	call	101d0f8 <OSTimeDlyHMSM>
			motor->motorCommand("right","forward", "0");
 1001ae0:	d0e74517 	ldw	r3,-25324(gp)
 1001ae4:	e0fff415 	stw	r3,-48(fp)
 1001ae8:	e13f6404 	addi	r4,fp,-624
 1001aec:	10022880 	call	1002288 <_ZNSaIcEC1Ev>
 1001af0:	e13f6504 	addi	r4,fp,-620
 1001af4:	e1bf6404 	addi	r6,fp,-624
 1001af8:	00800304 	movi	r2,12
 1001afc:	e0bf9e15 	stw	r2,-392(fp)
 1001b00:	014040b4 	movhi	r5,258
 1001b04:	2943d904 	addi	r5,r5,3940
 1001b08:	1003e680 	call	1003e68 <_ZNSsC1EPKcRKSaIcE>
 1001b0c:	00000a06 	br	1001b38 <_Z7mc_taskPv+0x1024>
 1001b10:	e0bffe17 	ldw	r2,-8(fp)
 1001b14:	e0bfbc15 	stw	r2,-272(fp)
			motor->motorCommand("right","backward", "120");
			OSTimeDlyHMSM(0, 0, 5, 0);
			motor->motorCommand("left", "forward", "0");
			motor->motorCommand("right","forward", "0");
			OSTimeDlyHMSM(0, 0, 5, 0);
			motor->motorCommand("right","forward", "120");
 1001b18:	e13f6a04 	addi	r4,fp,-600
 1001b1c:	10022b40 	call	10022b4 <_ZNSaIcED1Ev>
 1001b20:	e0ffbc17 	ldw	r3,-272(fp)
 1001b24:	e0fffe15 	stw	r3,-8(fp)
 1001b28:	00bfffc4 	movi	r2,-1
 1001b2c:	e0bf9e15 	stw	r2,-392(fp)
 1001b30:	e13ffe17 	ldw	r4,-8(fp)
 1001b34:	1009ee80 	call	1009ee8 <_Unwind_SjLj_Resume>
			OSTimeDlyHMSM(0, 0, 5, 0);
			motor->motorCommand("right","forward", "0");
 1001b38:	e13f6204 	addi	r4,fp,-632
 1001b3c:	10022880 	call	1002288 <_ZNSaIcEC1Ev>
 1001b40:	e13f6304 	addi	r4,fp,-628
 1001b44:	e1bf6204 	addi	r6,fp,-632
 1001b48:	008002c4 	movi	r2,11
 1001b4c:	e0bf9e15 	stw	r2,-392(fp)
 1001b50:	014040b4 	movhi	r5,258
 1001b54:	2943d604 	addi	r5,r5,3928
 1001b58:	1003e680 	call	1003e68 <_ZNSsC1EPKcRKSaIcE>
 1001b5c:	e13f6004 	addi	r4,fp,-640
 1001b60:	10022880 	call	1002288 <_ZNSaIcEC1Ev>
 1001b64:	e13f6104 	addi	r4,fp,-636
 1001b68:	e1bf6004 	addi	r6,fp,-640
 1001b6c:	00800284 	movi	r2,10
 1001b70:	e0bf9e15 	stw	r2,-392(fp)
 1001b74:	014040b4 	movhi	r5,258
 1001b78:	2943db04 	addi	r5,r5,3948
 1001b7c:	1003e680 	call	1003e68 <_ZNSsC1EPKcRKSaIcE>
 1001b80:	e17f6504 	addi	r5,fp,-620
 1001b84:	e1bf6304 	addi	r6,fp,-628
 1001b88:	e1ff6104 	addi	r7,fp,-636
 1001b8c:	00800244 	movi	r2,9
 1001b90:	e0bf9e15 	stw	r2,-392(fp)
 1001b94:	e13ff417 	ldw	r4,-48(fp)
 1001b98:	10005980 	call	1000598 <_ZN12MotorHandler12motorCommandESsSsSs>
 1001b9c:	e13f6104 	addi	r4,fp,-636
 1001ba0:	00800284 	movi	r2,10
 1001ba4:	e0bf9e15 	stw	r2,-392(fp)
 1001ba8:	1004a240 	call	1004a24 <_ZNSsD1Ev>
 1001bac:	00000806 	br	1001bd0 <_Z7mc_taskPv+0x10bc>
 1001bb0:	e0bffe17 	ldw	r2,-8(fp)
 1001bb4:	e0bfbb15 	stw	r2,-276(fp)
 1001bb8:	e13f6104 	addi	r4,fp,-636
 1001bbc:	e03f9e15 	stw	zero,-392(fp)
 1001bc0:	1004a240 	call	1004a24 <_ZNSsD1Ev>
 1001bc4:	e0ffbb17 	ldw	r3,-276(fp)
 1001bc8:	e0fffe15 	stw	r3,-8(fp)
 1001bcc:	00000706 	br	1001bec <_Z7mc_taskPv+0x10d8>
 1001bd0:	e13f6004 	addi	r4,fp,-640
 1001bd4:	10022b40 	call	10022b4 <_ZNSaIcED1Ev>
 1001bd8:	e13f6304 	addi	r4,fp,-628
 1001bdc:	008002c4 	movi	r2,11
 1001be0:	e0bf9e15 	stw	r2,-392(fp)
 1001be4:	1004a240 	call	1004a24 <_ZNSsD1Ev>
 1001be8:	00000e06 	br	1001c24 <_Z7mc_taskPv+0x1110>
 1001bec:	e0bffe17 	ldw	r2,-8(fp)
 1001bf0:	e0bfba15 	stw	r2,-280(fp)
 1001bf4:	e13f6004 	addi	r4,fp,-640
 1001bf8:	10022b40 	call	10022b4 <_ZNSaIcED1Ev>
 1001bfc:	e0ffba17 	ldw	r3,-280(fp)
 1001c00:	e0fffe15 	stw	r3,-8(fp)
 1001c04:	e0bffe17 	ldw	r2,-8(fp)
 1001c08:	e0bfb915 	stw	r2,-284(fp)
 1001c0c:	e13f6304 	addi	r4,fp,-628
 1001c10:	e03f9e15 	stw	zero,-392(fp)
 1001c14:	1004a240 	call	1004a24 <_ZNSsD1Ev>
 1001c18:	e0ffb917 	ldw	r3,-284(fp)
 1001c1c:	e0fffe15 	stw	r3,-8(fp)
 1001c20:	00000706 	br	1001c40 <_Z7mc_taskPv+0x112c>
 1001c24:	e13f6204 	addi	r4,fp,-632
 1001c28:	10022b40 	call	10022b4 <_ZNSaIcED1Ev>
 1001c2c:	e13f6504 	addi	r4,fp,-620
 1001c30:	00800304 	movi	r2,12
 1001c34:	e0bf9e15 	stw	r2,-392(fp)
 1001c38:	1004a240 	call	1004a24 <_ZNSsD1Ev>
 1001c3c:	00000e06 	br	1001c78 <_Z7mc_taskPv+0x1164>
 1001c40:	e0bffe17 	ldw	r2,-8(fp)
 1001c44:	e0bfb815 	stw	r2,-288(fp)
 1001c48:	e13f6204 	addi	r4,fp,-632
 1001c4c:	10022b40 	call	10022b4 <_ZNSaIcED1Ev>
 1001c50:	e0ffb817 	ldw	r3,-288(fp)
 1001c54:	e0fffe15 	stw	r3,-8(fp)
 1001c58:	e0bffe17 	ldw	r2,-8(fp)
 1001c5c:	e0bfb715 	stw	r2,-292(fp)
 1001c60:	e13f6504 	addi	r4,fp,-620
 1001c64:	e03f9e15 	stw	zero,-392(fp)
 1001c68:	1004a240 	call	1004a24 <_ZNSsD1Ev>
 1001c6c:	e0ffb717 	ldw	r3,-292(fp)
 1001c70:	e0fffe15 	stw	r3,-8(fp)
 1001c74:	00001506 	br	1001ccc <_Z7mc_taskPv+0x11b8>
 1001c78:	e13f6404 	addi	r4,fp,-624
 1001c7c:	10022b40 	call	10022b4 <_ZNSaIcED1Ev>
			OSTimeDlyHMSM(0, 0, 5, 0);
 1001c80:	00bfffc4 	movi	r2,-1
 1001c84:	e0bf9e15 	stw	r2,-392(fp)
 1001c88:	0009883a 	mov	r4,zero
 1001c8c:	000b883a 	mov	r5,zero
 1001c90:	01800144 	movi	r6,5
 1001c94:	000f883a 	mov	r7,zero
 1001c98:	101d0f80 	call	101d0f8 <OSTimeDlyHMSM>
			motor->motorCommand("left","forward", "120");
 1001c9c:	d0a74517 	ldw	r2,-25324(gp)
 1001ca0:	e0bff315 	stw	r2,-52(fp)
 1001ca4:	e13f5e04 	addi	r4,fp,-648
 1001ca8:	10022880 	call	1002288 <_ZNSaIcEC1Ev>
 1001cac:	e13f5f04 	addi	r4,fp,-644
 1001cb0:	e1bf5e04 	addi	r6,fp,-648
 1001cb4:	00800204 	movi	r2,8
 1001cb8:	e0bf9e15 	stw	r2,-392(fp)
 1001cbc:	014040b4 	movhi	r5,258
 1001cc0:	2943d404 	addi	r5,r5,3920
 1001cc4:	1003e680 	call	1003e68 <_ZNSsC1EPKcRKSaIcE>
 1001cc8:	00000a06 	br	1001cf4 <_Z7mc_taskPv+0x11e0>
 1001ccc:	e0fffe17 	ldw	r3,-8(fp)
 1001cd0:	e0ffb615 	stw	r3,-296(fp)
			motor->motorCommand("left", "forward", "0");
			motor->motorCommand("right","forward", "0");
			OSTimeDlyHMSM(0, 0, 5, 0);
			motor->motorCommand("right","forward", "120");
			OSTimeDlyHMSM(0, 0, 5, 0);
			motor->motorCommand("right","forward", "0");
 1001cd4:	e13f6404 	addi	r4,fp,-624
 1001cd8:	10022b40 	call	10022b4 <_ZNSaIcED1Ev>
 1001cdc:	e0bfb617 	ldw	r2,-296(fp)
 1001ce0:	e0bffe15 	stw	r2,-8(fp)
 1001ce4:	00bfffc4 	movi	r2,-1
 1001ce8:	e0bf9e15 	stw	r2,-392(fp)
 1001cec:	e13ffe17 	ldw	r4,-8(fp)
 1001cf0:	1009ee80 	call	1009ee8 <_Unwind_SjLj_Resume>
			OSTimeDlyHMSM(0, 0, 5, 0);
			motor->motorCommand("left","forward", "120");
 1001cf4:	e13f5c04 	addi	r4,fp,-656
 1001cf8:	10022880 	call	1002288 <_ZNSaIcEC1Ev>
 1001cfc:	e13f5d04 	addi	r4,fp,-652
 1001d00:	e1bf5c04 	addi	r6,fp,-656
 1001d04:	008001c4 	movi	r2,7
 1001d08:	e0bf9e15 	stw	r2,-392(fp)
 1001d0c:	014040b4 	movhi	r5,258
 1001d10:	2943d604 	addi	r5,r5,3928
 1001d14:	1003e680 	call	1003e68 <_ZNSsC1EPKcRKSaIcE>
 1001d18:	e13f5a04 	addi	r4,fp,-664
 1001d1c:	10022880 	call	1002288 <_ZNSaIcEC1Ev>
 1001d20:	e13f5b04 	addi	r4,fp,-660
 1001d24:	e1bf5a04 	addi	r6,fp,-664
 1001d28:	00800184 	movi	r2,6
 1001d2c:	e0bf9e15 	stw	r2,-392(fp)
 1001d30:	014040b4 	movhi	r5,258
 1001d34:	2943d804 	addi	r5,r5,3936
 1001d38:	1003e680 	call	1003e68 <_ZNSsC1EPKcRKSaIcE>
 1001d3c:	e17f5f04 	addi	r5,fp,-644
 1001d40:	e1bf5d04 	addi	r6,fp,-652
 1001d44:	e1ff5b04 	addi	r7,fp,-660
 1001d48:	00800144 	movi	r2,5
 1001d4c:	e0bf9e15 	stw	r2,-392(fp)
 1001d50:	e13ff317 	ldw	r4,-52(fp)
 1001d54:	10005980 	call	1000598 <_ZN12MotorHandler12motorCommandESsSsSs>
 1001d58:	e13f5b04 	addi	r4,fp,-660
 1001d5c:	00800184 	movi	r2,6
 1001d60:	e0bf9e15 	stw	r2,-392(fp)
 1001d64:	1004a240 	call	1004a24 <_ZNSsD1Ev>
 1001d68:	00000806 	br	1001d8c <_Z7mc_taskPv+0x1278>
 1001d6c:	e0fffe17 	ldw	r3,-8(fp)
 1001d70:	e0ffb515 	stw	r3,-300(fp)
 1001d74:	e13f5b04 	addi	r4,fp,-660
 1001d78:	e03f9e15 	stw	zero,-392(fp)
 1001d7c:	1004a240 	call	1004a24 <_ZNSsD1Ev>
 1001d80:	e0bfb517 	ldw	r2,-300(fp)
 1001d84:	e0bffe15 	stw	r2,-8(fp)
 1001d88:	00000706 	br	1001da8 <_Z7mc_taskPv+0x1294>
 1001d8c:	e13f5a04 	addi	r4,fp,-664
 1001d90:	10022b40 	call	10022b4 <_ZNSaIcED1Ev>
 1001d94:	e13f5d04 	addi	r4,fp,-652
 1001d98:	008001c4 	movi	r2,7
 1001d9c:	e0bf9e15 	stw	r2,-392(fp)
 1001da0:	1004a240 	call	1004a24 <_ZNSsD1Ev>
 1001da4:	00000e06 	br	1001de0 <_Z7mc_taskPv+0x12cc>
 1001da8:	e0fffe17 	ldw	r3,-8(fp)
 1001dac:	e0ffb415 	stw	r3,-304(fp)
 1001db0:	e13f5a04 	addi	r4,fp,-664
 1001db4:	10022b40 	call	10022b4 <_ZNSaIcED1Ev>
 1001db8:	e0bfb417 	ldw	r2,-304(fp)
 1001dbc:	e0bffe15 	stw	r2,-8(fp)
 1001dc0:	e0fffe17 	ldw	r3,-8(fp)
 1001dc4:	e0ffb315 	stw	r3,-308(fp)
 1001dc8:	e13f5d04 	addi	r4,fp,-652
 1001dcc:	e03f9e15 	stw	zero,-392(fp)
 1001dd0:	1004a240 	call	1004a24 <_ZNSsD1Ev>
 1001dd4:	e0bfb317 	ldw	r2,-308(fp)
 1001dd8:	e0bffe15 	stw	r2,-8(fp)
 1001ddc:	00000706 	br	1001dfc <_Z7mc_taskPv+0x12e8>
 1001de0:	e13f5c04 	addi	r4,fp,-656
 1001de4:	10022b40 	call	10022b4 <_ZNSaIcED1Ev>
 1001de8:	e13f5f04 	addi	r4,fp,-644
 1001dec:	00800204 	movi	r2,8
 1001df0:	e0bf9e15 	stw	r2,-392(fp)
 1001df4:	1004a240 	call	1004a24 <_ZNSsD1Ev>
 1001df8:	00000e06 	br	1001e34 <_Z7mc_taskPv+0x1320>
 1001dfc:	e0fffe17 	ldw	r3,-8(fp)
 1001e00:	e0ffb215 	stw	r3,-312(fp)
 1001e04:	e13f5c04 	addi	r4,fp,-656
 1001e08:	10022b40 	call	10022b4 <_ZNSaIcED1Ev>
 1001e0c:	e0bfb217 	ldw	r2,-312(fp)
 1001e10:	e0bffe15 	stw	r2,-8(fp)
 1001e14:	e0fffe17 	ldw	r3,-8(fp)
 1001e18:	e0ffb115 	stw	r3,-316(fp)
 1001e1c:	e13f5f04 	addi	r4,fp,-644
 1001e20:	e03f9e15 	stw	zero,-392(fp)
 1001e24:	1004a240 	call	1004a24 <_ZNSsD1Ev>
 1001e28:	e0bfb117 	ldw	r2,-316(fp)
 1001e2c:	e0bffe15 	stw	r2,-8(fp)
 1001e30:	00001506 	br	1001e88 <_Z7mc_taskPv+0x1374>
 1001e34:	e13f5e04 	addi	r4,fp,-648
 1001e38:	10022b40 	call	10022b4 <_ZNSaIcED1Ev>
			OSTimeDlyHMSM(0, 0, 5, 0);
 1001e3c:	00bfffc4 	movi	r2,-1
 1001e40:	e0bf9e15 	stw	r2,-392(fp)
 1001e44:	0009883a 	mov	r4,zero
 1001e48:	000b883a 	mov	r5,zero
 1001e4c:	01800144 	movi	r6,5
 1001e50:	000f883a 	mov	r7,zero
 1001e54:	101d0f80 	call	101d0f8 <OSTimeDlyHMSM>
			motor->motorCommand("left","forward", "0");
 1001e58:	d0e74517 	ldw	r3,-25324(gp)
 1001e5c:	e0fff215 	stw	r3,-56(fp)
 1001e60:	e13f5804 	addi	r4,fp,-672
 1001e64:	10022880 	call	1002288 <_ZNSaIcEC1Ev>
 1001e68:	e13f5904 	addi	r4,fp,-668
 1001e6c:	e1bf5804 	addi	r6,fp,-672
 1001e70:	00800104 	movi	r2,4
 1001e74:	e0bf9e15 	stw	r2,-392(fp)
 1001e78:	014040b4 	movhi	r5,258
 1001e7c:	2943d404 	addi	r5,r5,3920
 1001e80:	1003e680 	call	1003e68 <_ZNSsC1EPKcRKSaIcE>
 1001e84:	00000a06 	br	1001eb0 <_Z7mc_taskPv+0x139c>
 1001e88:	e0bffe17 	ldw	r2,-8(fp)
 1001e8c:	e0bfb015 	stw	r2,-320(fp)
			OSTimeDlyHMSM(0, 0, 5, 0);
			motor->motorCommand("right","forward", "120");
			OSTimeDlyHMSM(0, 0, 5, 0);
			motor->motorCommand("right","forward", "0");
			OSTimeDlyHMSM(0, 0, 5, 0);
			motor->motorCommand("left","forward", "120");
 1001e90:	e13f5e04 	addi	r4,fp,-648
 1001e94:	10022b40 	call	10022b4 <_ZNSaIcED1Ev>
 1001e98:	e0ffb017 	ldw	r3,-320(fp)
 1001e9c:	e0fffe15 	stw	r3,-8(fp)
 1001ea0:	00bfffc4 	movi	r2,-1
 1001ea4:	e0bf9e15 	stw	r2,-392(fp)
 1001ea8:	e13ffe17 	ldw	r4,-8(fp)
 1001eac:	1009ee80 	call	1009ee8 <_Unwind_SjLj_Resume>
			OSTimeDlyHMSM(0, 0, 5, 0);
			motor->motorCommand("left","forward", "0");
 1001eb0:	e13f5604 	addi	r4,fp,-680
 1001eb4:	10022880 	call	1002288 <_ZNSaIcEC1Ev>
 1001eb8:	e13f5704 	addi	r4,fp,-676
 1001ebc:	e1bf5604 	addi	r6,fp,-680
 1001ec0:	008000c4 	movi	r2,3
 1001ec4:	e0bf9e15 	stw	r2,-392(fp)
 1001ec8:	014040b4 	movhi	r5,258
 1001ecc:	2943d604 	addi	r5,r5,3928
 1001ed0:	1003e680 	call	1003e68 <_ZNSsC1EPKcRKSaIcE>
 1001ed4:	e13f5404 	addi	r4,fp,-688
 1001ed8:	10022880 	call	1002288 <_ZNSaIcEC1Ev>
 1001edc:	e13f5504 	addi	r4,fp,-684
 1001ee0:	00800084 	movi	r2,2
 1001ee4:	e0bf9e15 	stw	r2,-392(fp)
 1001ee8:	014040b4 	movhi	r5,258
 1001eec:	2943db04 	addi	r5,r5,3948
 1001ef0:	e1bf5404 	addi	r6,fp,-688
 1001ef4:	1003e680 	call	1003e68 <_ZNSsC1EPKcRKSaIcE>
 1001ef8:	e17f5904 	addi	r5,fp,-668
 1001efc:	e1bf5704 	addi	r6,fp,-676
 1001f00:	e1ff5504 	addi	r7,fp,-684
 1001f04:	00800044 	movi	r2,1
 1001f08:	e0bf9e15 	stw	r2,-392(fp)
 1001f0c:	e13ff217 	ldw	r4,-56(fp)
 1001f10:	10005980 	call	1000598 <_ZN12MotorHandler12motorCommandESsSsSs>
 1001f14:	e13f5504 	addi	r4,fp,-684
 1001f18:	00800084 	movi	r2,2
 1001f1c:	e0bf9e15 	stw	r2,-392(fp)
 1001f20:	1004a240 	call	1004a24 <_ZNSsD1Ev>
 1001f24:	00009a06 	br	1002190 <_Z7mc_taskPv+0x167c>
 1001f28:	e700ac04 	addi	fp,fp,688
 1001f2c:	e0bf9e17 	ldw	r2,-392(fp)
 1001f30:	e0bfff15 	stw	r2,-4(fp)
 1001f34:	e0ff9f17 	ldw	r3,-388(fp)
 1001f38:	e0fffe15 	stw	r3,-8(fp)
 1001f3c:	e0ffff17 	ldw	r3,-4(fp)
 1001f40:	18800060 	cmpeqi	r2,r3,1
 1001f44:	1000991e 	bne	r2,zero,10021ac <_Z7mc_taskPv+0x1698>
 1001f48:	e0ffff17 	ldw	r3,-4(fp)
 1001f4c:	188000a0 	cmpeqi	r2,r3,2
 1001f50:	1000ab1e 	bne	r2,zero,1002200 <_Z7mc_taskPv+0x16ec>
 1001f54:	e0ffff17 	ldw	r3,-4(fp)
 1001f58:	188000e0 	cmpeqi	r2,r3,3
 1001f5c:	1000c01e 	bne	r2,zero,1002260 <_Z7mc_taskPv+0x174c>
 1001f60:	e0ffff17 	ldw	r3,-4(fp)
 1001f64:	18800120 	cmpeqi	r2,r3,4
 1001f68:	103f801e 	bne	r2,zero,1001d6c <_Z7mc_taskPv+0x1258>
 1001f6c:	e0ffff17 	ldw	r3,-4(fp)
 1001f70:	18800160 	cmpeqi	r2,r3,5
 1001f74:	103f8c1e 	bne	r2,zero,1001da8 <_Z7mc_taskPv+0x1294>
 1001f78:	e0ffff17 	ldw	r3,-4(fp)
 1001f7c:	188001a0 	cmpeqi	r2,r3,6
 1001f80:	103f9e1e 	bne	r2,zero,1001dfc <_Z7mc_taskPv+0x12e8>
 1001f84:	e0ffff17 	ldw	r3,-4(fp)
 1001f88:	188001e0 	cmpeqi	r2,r3,7
 1001f8c:	103fbe1e 	bne	r2,zero,1001e88 <_Z7mc_taskPv+0x1374>
 1001f90:	e0ffff17 	ldw	r3,-4(fp)
 1001f94:	18800220 	cmpeqi	r2,r3,8
 1001f98:	103f051e 	bne	r2,zero,1001bb0 <_Z7mc_taskPv+0x109c>
 1001f9c:	e0ffff17 	ldw	r3,-4(fp)
 1001fa0:	18800260 	cmpeqi	r2,r3,9
 1001fa4:	103f111e 	bne	r2,zero,1001bec <_Z7mc_taskPv+0x10d8>
 1001fa8:	e0ffff17 	ldw	r3,-4(fp)
 1001fac:	188002a0 	cmpeqi	r2,r3,10
 1001fb0:	103f231e 	bne	r2,zero,1001c40 <_Z7mc_taskPv+0x112c>
 1001fb4:	e0ffff17 	ldw	r3,-4(fp)
 1001fb8:	188002e0 	cmpeqi	r2,r3,11
 1001fbc:	103f431e 	bne	r2,zero,1001ccc <_Z7mc_taskPv+0x11b8>
 1001fc0:	e0ffff17 	ldw	r3,-4(fp)
 1001fc4:	18800320 	cmpeqi	r2,r3,12
 1001fc8:	103e8a1e 	bne	r2,zero,10019f4 <_Z7mc_taskPv+0xee0>
 1001fcc:	e0ffff17 	ldw	r3,-4(fp)
 1001fd0:	18800360 	cmpeqi	r2,r3,13
 1001fd4:	103e961e 	bne	r2,zero,1001a30 <_Z7mc_taskPv+0xf1c>
 1001fd8:	e0ffff17 	ldw	r3,-4(fp)
 1001fdc:	188003a0 	cmpeqi	r2,r3,14
 1001fe0:	103ea81e 	bne	r2,zero,1001a84 <_Z7mc_taskPv+0xf70>
 1001fe4:	e0ffff17 	ldw	r3,-4(fp)
 1001fe8:	188003e0 	cmpeqi	r2,r3,15
 1001fec:	103ec81e 	bne	r2,zero,1001b10 <_Z7mc_taskPv+0xffc>
 1001ff0:	e0ffff17 	ldw	r3,-4(fp)
 1001ff4:	18800420 	cmpeqi	r2,r3,16
 1001ff8:	103e0f1e 	bne	r2,zero,1001838 <_Z7mc_taskPv+0xd24>
 1001ffc:	e0ffff17 	ldw	r3,-4(fp)
 1002000:	18800460 	cmpeqi	r2,r3,17
 1002004:	103e1b1e 	bne	r2,zero,1001874 <_Z7mc_taskPv+0xd60>
 1002008:	e0ffff17 	ldw	r3,-4(fp)
 100200c:	188004a0 	cmpeqi	r2,r3,18
 1002010:	103e2d1e 	bne	r2,zero,10018c8 <_Z7mc_taskPv+0xdb4>
 1002014:	e0ffff17 	ldw	r3,-4(fp)
 1002018:	188004e0 	cmpeqi	r2,r3,19
 100201c:	103e4d1e 	bne	r2,zero,1001954 <_Z7mc_taskPv+0xe40>
 1002020:	e0ffff17 	ldw	r3,-4(fp)
 1002024:	18800520 	cmpeqi	r2,r3,20
 1002028:	103d9b1e 	bne	r2,zero,1001698 <_Z7mc_taskPv+0xb84>
 100202c:	e0ffff17 	ldw	r3,-4(fp)
 1002030:	18800560 	cmpeqi	r2,r3,21
 1002034:	103da71e 	bne	r2,zero,10016d4 <_Z7mc_taskPv+0xbc0>
 1002038:	e0ffff17 	ldw	r3,-4(fp)
 100203c:	188005a0 	cmpeqi	r2,r3,22
 1002040:	103db91e 	bne	r2,zero,1001728 <_Z7mc_taskPv+0xc14>
 1002044:	e0ffff17 	ldw	r3,-4(fp)
 1002048:	188005e0 	cmpeqi	r2,r3,23
 100204c:	103dd21e 	bne	r2,zero,1001798 <_Z7mc_taskPv+0xc84>
 1002050:	e0ffff17 	ldw	r3,-4(fp)
 1002054:	18800620 	cmpeqi	r2,r3,24
 1002058:	103d201e 	bne	r2,zero,10014dc <_Z7mc_taskPv+0x9c8>
 100205c:	e0ffff17 	ldw	r3,-4(fp)
 1002060:	18800660 	cmpeqi	r2,r3,25
 1002064:	103d2c1e 	bne	r2,zero,1001518 <_Z7mc_taskPv+0xa04>
 1002068:	e0ffff17 	ldw	r3,-4(fp)
 100206c:	188006a0 	cmpeqi	r2,r3,26
 1002070:	103d3e1e 	bne	r2,zero,100156c <_Z7mc_taskPv+0xa58>
 1002074:	e0ffff17 	ldw	r3,-4(fp)
 1002078:	188006e0 	cmpeqi	r2,r3,27
 100207c:	103d5e1e 	bne	r2,zero,10015f8 <_Z7mc_taskPv+0xae4>
 1002080:	e0ffff17 	ldw	r3,-4(fp)
 1002084:	18800720 	cmpeqi	r2,r3,28
 1002088:	103cac1e 	bne	r2,zero,100133c <_Z7mc_taskPv+0x828>
 100208c:	e0ffff17 	ldw	r3,-4(fp)
 1002090:	18800760 	cmpeqi	r2,r3,29
 1002094:	103cb81e 	bne	r2,zero,1001378 <_Z7mc_taskPv+0x864>
 1002098:	e0ffff17 	ldw	r3,-4(fp)
 100209c:	188007a0 	cmpeqi	r2,r3,30
 10020a0:	103cca1e 	bne	r2,zero,10013cc <_Z7mc_taskPv+0x8b8>
 10020a4:	e0ffff17 	ldw	r3,-4(fp)
 10020a8:	188007e0 	cmpeqi	r2,r3,31
 10020ac:	103ce31e 	bne	r2,zero,100143c <_Z7mc_taskPv+0x928>
 10020b0:	e0ffff17 	ldw	r3,-4(fp)
 10020b4:	18800820 	cmpeqi	r2,r3,32
 10020b8:	103c311e 	bne	r2,zero,1001180 <_Z7mc_taskPv+0x66c>
 10020bc:	e0ffff17 	ldw	r3,-4(fp)
 10020c0:	18800860 	cmpeqi	r2,r3,33
 10020c4:	103c3d1e 	bne	r2,zero,10011bc <_Z7mc_taskPv+0x6a8>
 10020c8:	e0ffff17 	ldw	r3,-4(fp)
 10020cc:	188008a0 	cmpeqi	r2,r3,34
 10020d0:	103c4f1e 	bne	r2,zero,1001210 <_Z7mc_taskPv+0x6fc>
 10020d4:	e0ffff17 	ldw	r3,-4(fp)
 10020d8:	188008e0 	cmpeqi	r2,r3,35
 10020dc:	103c6f1e 	bne	r2,zero,100129c <_Z7mc_taskPv+0x788>
 10020e0:	e0ffff17 	ldw	r3,-4(fp)
 10020e4:	18800920 	cmpeqi	r2,r3,36
 10020e8:	103bbd1e 	bne	r2,zero,1000fe0 <_Z7mc_taskPv+0x4cc>
 10020ec:	e0ffff17 	ldw	r3,-4(fp)
 10020f0:	18800960 	cmpeqi	r2,r3,37
 10020f4:	103bc91e 	bne	r2,zero,100101c <_Z7mc_taskPv+0x508>
 10020f8:	e0ffff17 	ldw	r3,-4(fp)
 10020fc:	188009a0 	cmpeqi	r2,r3,38
 1002100:	103bdb1e 	bne	r2,zero,1001070 <_Z7mc_taskPv+0x55c>
 1002104:	e0ffff17 	ldw	r3,-4(fp)
 1002108:	188009e0 	cmpeqi	r2,r3,39
 100210c:	103bf41e 	bne	r2,zero,10010e0 <_Z7mc_taskPv+0x5cc>
 1002110:	e0ffff17 	ldw	r3,-4(fp)
 1002114:	18800a20 	cmpeqi	r2,r3,40
 1002118:	103b421e 	bne	r2,zero,1000e24 <_Z7mc_taskPv+0x310>
 100211c:	e0ffff17 	ldw	r3,-4(fp)
 1002120:	18800a60 	cmpeqi	r2,r3,41
 1002124:	103b4e1e 	bne	r2,zero,1000e60 <_Z7mc_taskPv+0x34c>
 1002128:	e0ffff17 	ldw	r3,-4(fp)
 100212c:	18800aa0 	cmpeqi	r2,r3,42
 1002130:	103b601e 	bne	r2,zero,1000eb4 <_Z7mc_taskPv+0x3a0>
 1002134:	e0ffff17 	ldw	r3,-4(fp)
 1002138:	18800ae0 	cmpeqi	r2,r3,43
 100213c:	103b801e 	bne	r2,zero,1000f40 <_Z7mc_taskPv+0x42c>
 1002140:	e0ffff17 	ldw	r3,-4(fp)
 1002144:	18800b20 	cmpeqi	r2,r3,44
 1002148:	103ace1e 	bne	r2,zero,1000c84 <_Z7mc_taskPv+0x170>
 100214c:	e0ffff17 	ldw	r3,-4(fp)
 1002150:	18800b60 	cmpeqi	r2,r3,45
 1002154:	103ada1e 	bne	r2,zero,1000cc0 <_Z7mc_taskPv+0x1ac>
 1002158:	e0ffff17 	ldw	r3,-4(fp)
 100215c:	18800ba0 	cmpeqi	r2,r3,46
 1002160:	103aec1e 	bne	r2,zero,1000d14 <_Z7mc_taskPv+0x200>
 1002164:	e0ffff17 	ldw	r3,-4(fp)
 1002168:	18800be0 	cmpeqi	r2,r3,47
 100216c:	103b051e 	bne	r2,zero,1000d84 <_Z7mc_taskPv+0x270>
 1002170:	e0bffe17 	ldw	r2,-8(fp)
 1002174:	e0bfaf15 	stw	r2,-324(fp)
 1002178:	e13f5504 	addi	r4,fp,-684
 100217c:	e03f9e15 	stw	zero,-392(fp)
 1002180:	1004a240 	call	1004a24 <_ZNSsD1Ev>
 1002184:	e0ffaf17 	ldw	r3,-324(fp)
 1002188:	e0fffe15 	stw	r3,-8(fp)
 100218c:	00000706 	br	10021ac <_Z7mc_taskPv+0x1698>
 1002190:	e13f5404 	addi	r4,fp,-688
 1002194:	10022b40 	call	10022b4 <_ZNSaIcED1Ev>
 1002198:	e13f5704 	addi	r4,fp,-676
 100219c:	008000c4 	movi	r2,3
 10021a0:	e0bf9e15 	stw	r2,-392(fp)
 10021a4:	1004a240 	call	1004a24 <_ZNSsD1Ev>
 10021a8:	00000e06 	br	10021e4 <_Z7mc_taskPv+0x16d0>
 10021ac:	e0bffe17 	ldw	r2,-8(fp)
 10021b0:	e0bfae15 	stw	r2,-328(fp)
 10021b4:	e13f5404 	addi	r4,fp,-688
 10021b8:	10022b40 	call	10022b4 <_ZNSaIcED1Ev>
 10021bc:	e0ffae17 	ldw	r3,-328(fp)
 10021c0:	e0fffe15 	stw	r3,-8(fp)
 10021c4:	e0bffe17 	ldw	r2,-8(fp)
 10021c8:	e0bfad15 	stw	r2,-332(fp)
 10021cc:	e13f5704 	addi	r4,fp,-676
 10021d0:	e03f9e15 	stw	zero,-392(fp)
 10021d4:	1004a240 	call	1004a24 <_ZNSsD1Ev>
 10021d8:	e0ffad17 	ldw	r3,-332(fp)
 10021dc:	e0fffe15 	stw	r3,-8(fp)
 10021e0:	00000706 	br	1002200 <_Z7mc_taskPv+0x16ec>
 10021e4:	e13f5604 	addi	r4,fp,-680
 10021e8:	10022b40 	call	10022b4 <_ZNSaIcED1Ev>
 10021ec:	e13f5904 	addi	r4,fp,-668
 10021f0:	00800104 	movi	r2,4
 10021f4:	e0bf9e15 	stw	r2,-392(fp)
 10021f8:	1004a240 	call	1004a24 <_ZNSsD1Ev>
 10021fc:	00000e06 	br	1002238 <_Z7mc_taskPv+0x1724>
 1002200:	e0bffe17 	ldw	r2,-8(fp)
 1002204:	e0bfac15 	stw	r2,-336(fp)
 1002208:	e13f5604 	addi	r4,fp,-680
 100220c:	10022b40 	call	10022b4 <_ZNSaIcED1Ev>
 1002210:	e0ffac17 	ldw	r3,-336(fp)
 1002214:	e0fffe15 	stw	r3,-8(fp)
 1002218:	e0bffe17 	ldw	r2,-8(fp)
 100221c:	e0bfab15 	stw	r2,-340(fp)
 1002220:	e13f5904 	addi	r4,fp,-668
 1002224:	e03f9e15 	stw	zero,-392(fp)
 1002228:	1004a240 	call	1004a24 <_ZNSsD1Ev>
 100222c:	e0ffab17 	ldw	r3,-340(fp)
 1002230:	e0fffe15 	stw	r3,-8(fp)
 1002234:	00000a06 	br	1002260 <_Z7mc_taskPv+0x174c>
 1002238:	e13f5804 	addi	r4,fp,-672
 100223c:	10022b40 	call	10022b4 <_ZNSaIcED1Ev>
			OSTimeDlyHMSM(0, 0, 5, 0);
 1002240:	00bfffc4 	movi	r2,-1
 1002244:	e0bf9e15 	stw	r2,-392(fp)
 1002248:	0009883a 	mov	r4,zero
 100224c:	000b883a 	mov	r5,zero
 1002250:	01800144 	movi	r6,5
 1002254:	000f883a 	mov	r7,zero
 1002258:	101d0f80 	call	101d0f8 <OSTimeDlyHMSM>
		if (motor->init() == OK) {
			printf("]\n\n");
		} else {
			printf( ", error]\n");
		}
		while(1){
 100225c:	003a6006 	br	1000be0 <_Z7mc_taskPv+0xcc>
 1002260:	e0bffe17 	ldw	r2,-8(fp)
 1002264:	e0bfaa15 	stw	r2,-344(fp)
			OSTimeDlyHMSM(0, 0, 5, 0);
			motor->motorCommand("right","forward", "0");
			OSTimeDlyHMSM(0, 0, 5, 0);
			motor->motorCommand("left","forward", "120");
			OSTimeDlyHMSM(0, 0, 5, 0);
			motor->motorCommand("left","forward", "0");
 1002268:	e13f5804 	addi	r4,fp,-672
 100226c:	10022b40 	call	10022b4 <_ZNSaIcED1Ev>
 1002270:	e0ffaa17 	ldw	r3,-344(fp)
 1002274:	e0fffe15 	stw	r3,-8(fp)
 1002278:	00bfffc4 	movi	r2,-1
 100227c:	e0bf9e15 	stw	r2,-392(fp)
 1002280:	e13ffe17 	ldw	r4,-8(fp)
 1002284:	1009ee80 	call	1009ee8 <_Unwind_SjLj_Resume>

01002288 <_ZNSaIcEC1Ev>:
 1002288:	f800283a 	ret

0100228c <_ZNSaIcED2Ev>:
 100228c:	f800283a 	ret

01002290 <_ZNSaIcEC2ERKS_>:
 1002290:	f800283a 	ret

01002294 <_ZNSaIwEC2Ev>:
 1002294:	f800283a 	ret

01002298 <_ZNSaIwED1Ev>:
 1002298:	f800283a 	ret

0100229c <_ZNSaIwEC1ERKS_>:
 100229c:	f800283a 	ret

010022a0 <_ZNSaIwEC2ERKS_>:
 10022a0:	f800283a 	ret

010022a4 <_ZNSaIcEC1ERKS_>:
 10022a4:	f800283a 	ret

010022a8 <_ZNSaIwEC1Ev>:
 10022a8:	f800283a 	ret

010022ac <_ZNSaIwED2Ev>:
 10022ac:	f800283a 	ret

010022b0 <_ZNSaIcEC2Ev>:
 10022b0:	f800283a 	ret

010022b4 <_ZNSaIcED1Ev>:
 10022b4:	f800283a 	ret

010022b8 <_ZNSt11char_traitsIcE2eqERKcS2_>:
 10022b8:	20c00007 	ldb	r3,0(r4)
 10022bc:	28800007 	ldb	r2,0(r5)
 10022c0:	1885003a 	cmpeq	r2,r3,r2
 10022c4:	f800283a 	ret

010022c8 <_ZNKSs7_M_dataEv>:
 10022c8:	20800017 	ldw	r2,0(r4)
 10022cc:	f800283a 	ret

010022d0 <_ZNSs7_M_dataEPc>:
 10022d0:	2805883a 	mov	r2,r5
 10022d4:	21400015 	stw	r5,0(r4)
 10022d8:	f800283a 	ret

010022dc <_ZNKSs6_M_repEv>:
 10022dc:	20800017 	ldw	r2,0(r4)
 10022e0:	10bffd04 	addi	r2,r2,-12
 10022e4:	f800283a 	ret

010022e8 <_ZNKSs9_M_ibeginEv>:
 10022e8:	20800017 	ldw	r2,0(r4)
 10022ec:	f800283a 	ret

010022f0 <_ZNKSs7_M_iendEv>:
 10022f0:	20c00017 	ldw	r3,0(r4)
 10022f4:	18bffd17 	ldw	r2,-12(r3)
 10022f8:	1885883a 	add	r2,r3,r2
 10022fc:	f800283a 	ret

01002300 <_ZNKSs8_M_limitEmm>:
 1002300:	20c00017 	ldw	r3,0(r4)
 1002304:	18bffd17 	ldw	r2,-12(r3)
 1002308:	1145c83a 	sub	r2,r2,r5
 100230c:	3080012e 	bgeu	r6,r2,1002314 <_ZNKSs8_M_limitEmm+0x14>
 1002310:	3005883a 	mov	r2,r6
 1002314:	f800283a 	ret

01002318 <_ZNKSs11_M_disjunctEPKc>:
 1002318:	21000017 	ldw	r4,0(r4)
 100231c:	00800044 	movi	r2,1
 1002320:	29000336 	bltu	r5,r4,1002330 <_ZNKSs11_M_disjunctEPKc+0x18>
 1002324:	20bffd17 	ldw	r2,-12(r4)
 1002328:	2085883a 	add	r2,r4,r2
 100232c:	1145803a 	cmpltu	r2,r2,r5
 1002330:	f800283a 	ret

01002334 <_ZNSs12_S_empty_repEv>:
 1002334:	008040f4 	movhi	r2,259
 1002338:	10a52f04 	addi	r2,r2,-27460
 100233c:	f800283a 	ret

01002340 <_ZNSsC1Ev>:
 1002340:	008040f4 	movhi	r2,259
 1002344:	10a53204 	addi	r2,r2,-27448
 1002348:	20800015 	stw	r2,0(r4)
 100234c:	f800283a 	ret

01002350 <_ZNKSs5beginEv>:
 1002350:	20800017 	ldw	r2,0(r4)
 1002354:	f800283a 	ret

01002358 <_ZNKSs3endEv>:
 1002358:	20c00017 	ldw	r3,0(r4)
 100235c:	18bffd17 	ldw	r2,-12(r3)
 1002360:	1885883a 	add	r2,r3,r2
 1002364:	f800283a 	ret

01002368 <_ZNKSs4sizeEv>:
 1002368:	20c00017 	ldw	r3,0(r4)
 100236c:	18bffd17 	ldw	r2,-12(r3)
 1002370:	f800283a 	ret

01002374 <_ZNKSs8max_sizeEv>:
 1002374:	00900034 	movhi	r2,16384
 1002378:	10bfff04 	addi	r2,r2,-4
 100237c:	f800283a 	ret

01002380 <_ZNKSs8capacityEv>:
 1002380:	20c00017 	ldw	r3,0(r4)
 1002384:	18bffe17 	ldw	r2,-8(r3)
 1002388:	f800283a 	ret

0100238c <_ZNKSs4dataEv>:
 100238c:	20800017 	ldw	r2,0(r4)
 1002390:	f800283a 	ret

01002394 <_ZNKSs13get_allocatorEv>:
 1002394:	2005883a 	mov	r2,r4
 1002398:	f800283a 	ret

0100239c <_ZNSs12_Alloc_hiderC1EPcRKSaIcE>:
 100239c:	21400015 	stw	r5,0(r4)
 10023a0:	f800283a 	ret

010023a4 <_ZNSs4_Rep12_S_empty_repEv>:
 10023a4:	008040f4 	movhi	r2,259
 10023a8:	10a52f04 	addi	r2,r2,-27460
 10023ac:	f800283a 	ret

010023b0 <_ZNKSs4_Rep12_M_is_leakedEv>:
 10023b0:	20800217 	ldw	r2,8(r4)
 10023b4:	1004d7fa 	srli	r2,r2,31
 10023b8:	f800283a 	ret

010023bc <_ZNKSs4_Rep12_M_is_sharedEv>:
 10023bc:	20800217 	ldw	r2,8(r4)
 10023c0:	0084803a 	cmplt	r2,zero,r2
 10023c4:	f800283a 	ret

010023c8 <_ZNSs4_Rep13_M_set_leakedEv>:
 10023c8:	00bfffc4 	movi	r2,-1
 10023cc:	20800215 	stw	r2,8(r4)
 10023d0:	f800283a 	ret

010023d4 <_ZNSs4_Rep15_M_set_sharableEv>:
 10023d4:	20000215 	stw	zero,8(r4)
 10023d8:	f800283a 	ret

010023dc <_ZNSs4_Rep26_M_set_length_and_sharableEm>:
 10023dc:	2145883a 	add	r2,r4,r5
 10023e0:	20000215 	stw	zero,8(r4)
 10023e4:	21400015 	stw	r5,0(r4)
 10023e8:	10000305 	stb	zero,12(r2)
 10023ec:	f800283a 	ret

010023f0 <_ZNSs4_Rep10_M_refdataEv>:
 10023f0:	20800304 	addi	r2,r4,12
 10023f4:	f800283a 	ret

010023f8 <_ZSt6searchIPKcS1_PFbRS0_S2_EET_S5_S5_T0_S6_T1_>:
 10023f8:	defff504 	addi	sp,sp,-44
 10023fc:	dd400615 	stw	r21,24(sp)
 1002400:	dd000515 	stw	r20,20(sp)
 1002404:	dcc00415 	stw	r19,16(sp)
 1002408:	dc800315 	stw	r18,12(sp)
 100240c:	dc400215 	stw	r17,8(sp)
 1002410:	dfc00a15 	stw	ra,40(sp)
 1002414:	df000915 	stw	fp,36(sp)
 1002418:	ddc00815 	stw	r23,32(sp)
 100241c:	dd800715 	stw	r22,28(sp)
 1002420:	dc000115 	stw	r16,4(sp)
 1002424:	2025883a 	mov	r18,r4
 1002428:	2823883a 	mov	r17,r5
 100242c:	3027883a 	mov	r19,r6
 1002430:	382b883a 	mov	r21,r7
 1002434:	dd000b17 	ldw	r20,44(sp)
 1002438:	21400d26 	beq	r4,r5,1002470 <_ZSt6searchIPKcS1_PFbRS0_S2_EET_S5_S5_T0_S6_T1_+0x78>
 100243c:	31c00c26 	beq	r6,r7,1002470 <_ZSt6searchIPKcS1_PFbRS0_S2_EET_S5_S5_T0_S6_T1_+0x78>
 1002440:	30800044 	addi	r2,r6,1
 1002444:	d8800015 	stw	r2,0(sp)
 1002448:	38803226 	beq	r7,r2,1002514 <_ZSt6searchIPKcS1_PFbRS0_S2_EET_S5_S5_T0_S6_T1_+0x11c>
 100244c:	9021883a 	mov	r16,r18
 1002450:	8009883a 	mov	r4,r16
 1002454:	980b883a 	mov	r5,r19
 1002458:	a03ee83a 	callr	r20
 100245c:	10803fcc 	andi	r2,r2,255
 1002460:	1000101e 	bne	r2,zero,10024a4 <_ZSt6searchIPKcS1_PFbRS0_S2_EET_S5_S5_T0_S6_T1_+0xac>
 1002464:	84000044 	addi	r16,r16,1
 1002468:	847ff91e 	bne	r16,r17,1002450 <_ZSt6searchIPKcS1_PFbRS0_S2_EET_S5_S5_T0_S6_T1_+0x58>
 100246c:	8825883a 	mov	r18,r17
 1002470:	9005883a 	mov	r2,r18
 1002474:	dfc00a17 	ldw	ra,40(sp)
 1002478:	df000917 	ldw	fp,36(sp)
 100247c:	ddc00817 	ldw	r23,32(sp)
 1002480:	dd800717 	ldw	r22,28(sp)
 1002484:	dd400617 	ldw	r21,24(sp)
 1002488:	dd000517 	ldw	r20,20(sp)
 100248c:	dcc00417 	ldw	r19,16(sp)
 1002490:	dc800317 	ldw	r18,12(sp)
 1002494:	dc400217 	ldw	r17,8(sp)
 1002498:	dc000117 	ldw	r16,4(sp)
 100249c:	dec00b04 	addi	sp,sp,44
 10024a0:	f800283a 	ret
 10024a4:	8c3ff126 	beq	r17,r16,100246c <_ZSt6searchIPKcS1_PFbRS0_S2_EET_S5_S5_T0_S6_T1_+0x74>
 10024a8:	8825883a 	mov	r18,r17
 10024ac:	00000206 	br	10024b8 <_ZSt6searchIPKcS1_PFbRS0_S2_EET_S5_S5_T0_S6_T1_+0xc0>
 10024b0:	84000044 	addi	r16,r16,1
 10024b4:	84bfed26 	beq	r16,r18,100246c <_ZSt6searchIPKcS1_PFbRS0_S2_EET_S5_S5_T0_S6_T1_+0x74>
 10024b8:	8009883a 	mov	r4,r16
 10024bc:	980b883a 	mov	r5,r19
 10024c0:	a03ee83a 	callr	r20
 10024c4:	10803fcc 	andi	r2,r2,255
 10024c8:	103ff926 	beq	r2,zero,10024b0 <_ZSt6searchIPKcS1_PFbRS0_S2_EET_S5_S5_T0_S6_T1_+0xb8>
 10024cc:	87000044 	addi	fp,r16,1
 10024d0:	8f001a26 	beq	r17,fp,100253c <_ZSt6searchIPKcS1_PFbRS0_S2_EET_S5_S5_T0_S6_T1_+0x144>
 10024d4:	dd800017 	ldw	r22,0(sp)
 10024d8:	e02f883a 	mov	r23,fp
 10024dc:	b809883a 	mov	r4,r23
 10024e0:	b00b883a 	mov	r5,r22
 10024e4:	a03ee83a 	callr	r20
 10024e8:	8c07c83a 	sub	r3,r17,r16
 10024ec:	10803fcc 	andi	r2,r2,255
 10024f0:	98c7883a 	add	r3,r19,r3
 10024f4:	b5800044 	addi	r22,r22,1
 10024f8:	bdc00044 	addi	r23,r23,1
 10024fc:	e025883a 	mov	r18,fp
 1002500:	103fd226 	beq	r2,zero,100244c <_ZSt6searchIPKcS1_PFbRS0_S2_EET_S5_S5_T0_S6_T1_+0x54>
 1002504:	ad800b26 	beq	r21,r22,1002534 <_ZSt6searchIPKcS1_PFbRS0_S2_EET_S5_S5_T0_S6_T1_+0x13c>
 1002508:	b0fff41e 	bne	r22,r3,10024dc <_ZSt6searchIPKcS1_PFbRS0_S2_EET_S5_S5_T0_S6_T1_+0xe4>
 100250c:	b825883a 	mov	r18,r23
 1002510:	003fd706 	br	1002470 <_ZSt6searchIPKcS1_PFbRS0_S2_EET_S5_S5_T0_S6_T1_+0x78>
 1002514:	2021883a 	mov	r16,r4
 1002518:	8009883a 	mov	r4,r16
 100251c:	980b883a 	mov	r5,r19
 1002520:	a03ee83a 	callr	r20
 1002524:	10803fcc 	andi	r2,r2,255
 1002528:	1000021e 	bne	r2,zero,1002534 <_ZSt6searchIPKcS1_PFbRS0_S2_EET_S5_S5_T0_S6_T1_+0x13c>
 100252c:	84000044 	addi	r16,r16,1
 1002530:	8c3ff91e 	bne	r17,r16,1002518 <_ZSt6searchIPKcS1_PFbRS0_S2_EET_S5_S5_T0_S6_T1_+0x120>
 1002534:	8025883a 	mov	r18,r16
 1002538:	003fcd06 	br	1002470 <_ZSt6searchIPKcS1_PFbRS0_S2_EET_S5_S5_T0_S6_T1_+0x78>
 100253c:	e025883a 	mov	r18,fp
 1002540:	003fcb06 	br	1002470 <_ZSt6searchIPKcS1_PFbRS0_S2_EET_S5_S5_T0_S6_T1_+0x78>

01002544 <_ZN9__gnu_cxxeqIPcSsEEbRKNS_17__normal_iteratorIT_T0_EES7_>:
 1002544:	20c00017 	ldw	r3,0(r4)
 1002548:	28800017 	ldw	r2,0(r5)
 100254c:	1885003a 	cmpeq	r2,r3,r2
 1002550:	f800283a 	ret

01002554 <_ZNSs12_Alloc_hiderC2EPcRKSaIcE>:
 1002554:	21400015 	stw	r5,0(r4)
 1002558:	f800283a 	ret

0100255c <_ZNSs4_Rep10_M_refcopyEv>:
 100255c:	deffee04 	addi	sp,sp,-72
 1002560:	00804034 	movhi	r2,256
 1002564:	109a9704 	addi	r2,r2,27228
 1002568:	00c040b4 	movhi	r3,258
 100256c:	18c2d004 	addi	r3,r3,2880
 1002570:	d8800615 	stw	r2,24(sp)
 1002574:	d9000d15 	stw	r4,52(sp)
 1002578:	00804034 	movhi	r2,256
 100257c:	10897d04 	addi	r2,r2,9716
 1002580:	d809883a 	mov	r4,sp
 1002584:	d8c00715 	stw	r3,28(sp)
 1002588:	d8800915 	stw	r2,36(sp)
 100258c:	dfc01115 	stw	ra,68(sp)
 1002590:	df001015 	stw	fp,64(sp)
 1002594:	ddc00f15 	stw	r23,60(sp)
 1002598:	dec00815 	stw	sp,32(sp)
 100259c:	dec00a15 	stw	sp,40(sp)
 10025a0:	1009c1c0 	call	1009c1c <_Unwind_SjLj_Register>
 10025a4:	d8c00d17 	ldw	r3,52(sp)
 10025a8:	008040f4 	movhi	r2,259
 10025ac:	10a52f04 	addi	r2,r2,-27460
 10025b0:	18800b1e 	bne	r3,r2,10025e0 <_ZNSs4_Rep10_M_refcopyEv+0x84>
 10025b4:	d8800d17 	ldw	r2,52(sp)
 10025b8:	d809883a 	mov	r4,sp
 10025bc:	10800304 	addi	r2,r2,12
 10025c0:	d8800e15 	stw	r2,56(sp)
 10025c4:	1009c2c0 	call	1009c2c <_Unwind_SjLj_Unregister>
 10025c8:	d8800e17 	ldw	r2,56(sp)
 10025cc:	dfc01117 	ldw	ra,68(sp)
 10025d0:	df001017 	ldw	fp,64(sp)
 10025d4:	ddc00f17 	ldw	r23,60(sp)
 10025d8:	dec01204 	addi	sp,sp,72
 10025dc:	f800283a 	ret
 10025e0:	01400044 	movi	r5,1
 10025e4:	d9400115 	stw	r5,4(sp)
 10025e8:	19000204 	addi	r4,r3,8
 10025ec:	10061900 	call	1006190 <_ZN9__gnu_cxx12__atomic_addEPVii>
 10025f0:	003ff006 	br	10025b4 <_ZNSs4_Rep10_M_refcopyEv+0x58>
 10025f4:	d8800317 	ldw	r2,12(sp)
 10025f8:	00ffffc4 	movi	r3,-1
 10025fc:	d9000217 	ldw	r4,8(sp)
 1002600:	10c00226 	beq	r2,r3,100260c <_ZNSs4_Rep10_M_refcopyEv+0xb0>
 1002604:	d8c00115 	stw	r3,4(sp)
 1002608:	1009ee80 	call	1009ee8 <_Unwind_SjLj_Resume>
 100260c:	00bfffc4 	movi	r2,-1
 1002610:	d8800115 	stw	r2,4(sp)
 1002614:	10068dc0 	call	10068dc <__cxa_call_unexpected>

01002618 <_ZNKSs15_M_check_lengthEmmPKc>:
 1002618:	20800017 	ldw	r2,0(r4)
 100261c:	deffff04 	addi	sp,sp,-4
 1002620:	dfc00015 	stw	ra,0(sp)
 1002624:	10fffd17 	ldw	r3,-12(r2)
 1002628:	00900034 	movhi	r2,16384
 100262c:	10bfff04 	addi	r2,r2,-4
 1002630:	1947c83a 	sub	r3,r3,r5
 1002634:	10c5c83a 	sub	r2,r2,r3
 1002638:	11800336 	bltu	r2,r6,1002648 <_ZNKSs15_M_check_lengthEmmPKc+0x30>
 100263c:	dfc00017 	ldw	ra,0(sp)
 1002640:	dec00104 	addi	sp,sp,4
 1002644:	f800283a 	ret
 1002648:	3809883a 	mov	r4,r7
 100264c:	100866c0 	call	100866c <_ZSt20__throw_length_errorPKc>

01002650 <_ZNKSs8_M_checkEmPKc>:
 1002650:	20c00017 	ldw	r3,0(r4)
 1002654:	deffff04 	addi	sp,sp,-4
 1002658:	dfc00015 	stw	ra,0(sp)
 100265c:	18bffd17 	ldw	r2,-12(r3)
 1002660:	11400436 	bltu	r2,r5,1002674 <_ZNKSs8_M_checkEmPKc+0x24>
 1002664:	2805883a 	mov	r2,r5
 1002668:	dfc00017 	ldw	ra,0(sp)
 100266c:	dec00104 	addi	sp,sp,4
 1002670:	f800283a 	ret
 1002674:	3009883a 	mov	r4,r6
 1002678:	10084dc0 	call	10084dc <_ZSt20__throw_out_of_rangePKc>

0100267c <_ZNSs9_M_assignEPcmc>:
 100267c:	3011883a 	mov	r8,r6
 1002680:	2807883a 	mov	r3,r5
 1002684:	280d883a 	mov	r6,r5
 1002688:	41403fcc 	andi	r5,r8,255
 100268c:	2940201c 	xori	r5,r5,128
 1002690:	01c00044 	movi	r7,1
 1002694:	297fe004 	addi	r5,r5,-128
 1002698:	19c00126 	beq	r3,r7,10026a0 <_ZNSs9_M_assignEPcmc+0x24>
 100269c:	100abbc1 	jmpi	100abbc <memset>
 10026a0:	22000005 	stb	r8,0(r4)
 10026a4:	f800283a 	ret

010026a8 <_ZNSs7_M_moveEPcPKcm>:
 10026a8:	00800044 	movi	r2,1
 10026ac:	30800126 	beq	r6,r2,10026b4 <_ZNSs7_M_moveEPcPKcm+0xc>
 10026b0:	100aadc1 	jmpi	100aadc <memmove>
 10026b4:	28800003 	ldbu	r2,0(r5)
 10026b8:	20800005 	stb	r2,0(r4)
 10026bc:	f800283a 	ret

010026c0 <_ZNSs7_M_copyEPcPKcm>:
 10026c0:	00800044 	movi	r2,1
 10026c4:	30800126 	beq	r6,r2,10026cc <_ZNSs7_M_copyEPcPKcm+0xc>
 10026c8:	100aa3c1 	jmpi	100aa3c <memcpy>
 10026cc:	28800003 	ldbu	r2,0(r5)
 10026d0:	20800005 	stb	r2,0(r4)
 10026d4:	f800283a 	ret

010026d8 <_ZNKSs5c_strEv>:
 10026d8:	20800017 	ldw	r2,0(r4)
 10026dc:	f800283a 	ret

010026e0 <_ZNKSsixEm>:
 10026e0:	20800017 	ldw	r2,0(r4)
 10026e4:	2885883a 	add	r2,r5,r2
 10026e8:	f800283a 	ret

010026ec <_ZNKSs17find_first_not_ofEPKcmm>:
 10026ec:	20c00017 	ldw	r3,0(r4)
 10026f0:	defffb04 	addi	sp,sp,-20
 10026f4:	dcc00315 	stw	r19,12(sp)
 10026f8:	18bffd17 	ldw	r2,-12(r3)
 10026fc:	dc800215 	stw	r18,8(sp)
 1002700:	dc400115 	stw	r17,4(sp)
 1002704:	dc000015 	stw	r16,0(sp)
 1002708:	dfc00415 	stw	ra,16(sp)
 100270c:	2027883a 	mov	r19,r4
 1002710:	3021883a 	mov	r16,r6
 1002714:	2825883a 	mov	r18,r5
 1002718:	3823883a 	mov	r17,r7
 100271c:	30800536 	bltu	r6,r2,1002734 <_ZNKSs17find_first_not_ofEPKcmm+0x48>
 1002720:	00001206 	br	100276c <_ZNKSs17find_first_not_ofEPKcmm+0x80>
 1002724:	98c00017 	ldw	r3,0(r19)
 1002728:	84000044 	addi	r16,r16,1
 100272c:	18bffd17 	ldw	r2,-12(r3)
 1002730:	80800e2e 	bgeu	r16,r2,100276c <_ZNKSs17find_first_not_ofEPKcmm+0x80>
 1002734:	1c05883a 	add	r2,r3,r16
 1002738:	11400007 	ldb	r5,0(r2)
 100273c:	9009883a 	mov	r4,r18
 1002740:	880d883a 	mov	r6,r17
 1002744:	100a8e40 	call	100a8e4 <memchr>
 1002748:	103ff61e 	bne	r2,zero,1002724 <_ZNKSs17find_first_not_ofEPKcmm+0x38>
 100274c:	8005883a 	mov	r2,r16
 1002750:	dfc00417 	ldw	ra,16(sp)
 1002754:	dcc00317 	ldw	r19,12(sp)
 1002758:	dc800217 	ldw	r18,8(sp)
 100275c:	dc400117 	ldw	r17,4(sp)
 1002760:	dc000017 	ldw	r16,0(sp)
 1002764:	dec00504 	addi	sp,sp,20
 1002768:	f800283a 	ret
 100276c:	043fffc4 	movi	r16,-1
 1002770:	8005883a 	mov	r2,r16
 1002774:	dfc00417 	ldw	ra,16(sp)
 1002778:	dcc00317 	ldw	r19,12(sp)
 100277c:	dc800217 	ldw	r18,8(sp)
 1002780:	dc400117 	ldw	r17,4(sp)
 1002784:	dc000017 	ldw	r16,0(sp)
 1002788:	dec00504 	addi	sp,sp,20
 100278c:	f800283a 	ret

01002790 <_ZNKSs4findEPKcmm>:
 1002790:	defffb04 	addi	sp,sp,-20
 1002794:	dc000115 	stw	r16,4(sp)
 1002798:	24000017 	ldw	r16,0(r4)
 100279c:	31c7883a 	add	r3,r6,r7
 10027a0:	dc800315 	stw	r18,12(sp)
 10027a4:	823ffd17 	ldw	r8,-12(r16)
 10027a8:	8189883a 	add	r4,r16,r6
 10027ac:	280d883a 	mov	r6,r5
 10027b0:	8225883a 	add	r18,r16,r8
 10027b4:	dc400215 	stw	r17,8(sp)
 10027b8:	dfc00415 	stw	ra,16(sp)
 10027bc:	3823883a 	mov	r17,r7
 10027c0:	900b883a 	mov	r5,r18
 10027c4:	398f883a 	add	r7,r7,r6
 10027c8:	40c0082e 	bgeu	r8,r3,10027ec <_ZNKSs4findEPKcmm+0x5c>
 10027cc:	00ffffc4 	movi	r3,-1
 10027d0:	1805883a 	mov	r2,r3
 10027d4:	dfc00417 	ldw	ra,16(sp)
 10027d8:	dc800317 	ldw	r18,12(sp)
 10027dc:	dc400217 	ldw	r17,8(sp)
 10027e0:	dc000117 	ldw	r16,4(sp)
 10027e4:	dec00504 	addi	sp,sp,20
 10027e8:	f800283a 	ret
 10027ec:	00804034 	movhi	r2,256
 10027f0:	1088ae04 	addi	r2,r2,8888
 10027f4:	d8800015 	stw	r2,0(sp)
 10027f8:	10023f80 	call	10023f8 <_ZSt6searchIPKcS1_PFbRS0_S2_EET_S5_S5_T0_S6_T1_>
 10027fc:	1407c83a 	sub	r3,r2,r16
 1002800:	90bff31e 	bne	r18,r2,10027d0 <_ZNKSs4findEPKcmm+0x40>
 1002804:	883ff11e 	bne	r17,zero,10027cc <_ZNKSs4findEPKcmm+0x3c>
 1002808:	1805883a 	mov	r2,r3
 100280c:	dfc00417 	ldw	ra,16(sp)
 1002810:	dc800317 	ldw	r18,12(sp)
 1002814:	dc400217 	ldw	r17,8(sp)
 1002818:	dc000117 	ldw	r16,4(sp)
 100281c:	dec00504 	addi	sp,sp,20
 1002820:	f800283a 	ret

01002824 <_ZNKSs2atEm>:
 1002824:	21000017 	ldw	r4,0(r4)
 1002828:	deffff04 	addi	sp,sp,-4
 100282c:	dfc00015 	stw	ra,0(sp)
 1002830:	20bffd17 	ldw	r2,-12(r4)
 1002834:	2880042e 	bgeu	r5,r2,1002848 <_ZNKSs2atEm+0x24>
 1002838:	2145883a 	add	r2,r4,r5
 100283c:	dfc00017 	ldw	ra,0(sp)
 1002840:	dec00104 	addi	sp,sp,4
 1002844:	f800283a 	ret
 1002848:	010040b4 	movhi	r4,258
 100284c:	2103df04 	addi	r4,r4,3964
 1002850:	10084dc0 	call	10084dc <_ZSt20__throw_out_of_rangePKc>

01002854 <_ZNKSs5emptyEv>:
 1002854:	20c00017 	ldw	r3,0(r4)
 1002858:	18bffd17 	ldw	r2,-12(r3)
 100285c:	1005003a 	cmpeq	r2,r2,zero
 1002860:	f800283a 	ret

01002864 <_ZNKSs6lengthEv>:
 1002864:	20c00017 	ldw	r3,0(r4)
 1002868:	18bffd17 	ldw	r2,-12(r3)
 100286c:	f800283a 	ret

01002870 <_ZNKSs4findERKSsm>:
 1002870:	29400017 	ldw	r5,0(r5)
 1002874:	29fffd17 	ldw	r7,-12(r5)
 1002878:	10027901 	jmpi	1002790 <_ZNKSs4findEPKcmm>

0100287c <_ZNKSs17find_first_not_ofERKSsm>:
 100287c:	29400017 	ldw	r5,0(r5)
 1002880:	29fffd17 	ldw	r7,-12(r5)
 1002884:	10026ec1 	jmpi	10026ec <_ZNKSs17find_first_not_ofEPKcmm>

01002888 <_ZNKSs5rfindEPKcmm>:
 1002888:	defff804 	addi	sp,sp,-32
 100288c:	dc800415 	stw	r18,16(sp)
 1002890:	24800017 	ldw	r18,0(r4)
 1002894:	dcc00515 	stw	r19,20(sp)
 1002898:	dc400315 	stw	r17,12(sp)
 100289c:	90bffd17 	ldw	r2,-12(r18)
 10028a0:	dfc00715 	stw	ra,28(sp)
 10028a4:	dd000615 	stw	r20,24(sp)
 10028a8:	dc000215 	stw	r16,8(sp)
 10028ac:	3823883a 	mov	r17,r7
 10028b0:	2827883a 	mov	r19,r5
 10028b4:	d9800115 	stw	r6,4(sp)
 10028b8:	11c01136 	bltu	r2,r7,1002900 <_ZNKSs5rfindEPKcmm+0x78>
 10028bc:	11c5c83a 	sub	r2,r2,r7
 10028c0:	d8800015 	stw	r2,0(sp)
 10028c4:	3080182e 	bgeu	r6,r2,1002928 <_ZNKSs5rfindEPKcmm+0xa0>
 10028c8:	d8800104 	addi	r2,sp,4
 10028cc:	10800017 	ldw	r2,0(r2)
 10028d0:	053fffc4 	movi	r20,-1
 10028d4:	d8800115 	stw	r2,4(sp)
 10028d8:	00000106 	br	10028e0 <_ZNKSs5rfindEPKcmm+0x58>
 10028dc:	d8c00115 	stw	r3,4(sp)
 10028e0:	dc000117 	ldw	r16,4(sp)
 10028e4:	980b883a 	mov	r5,r19
 10028e8:	880d883a 	mov	r6,r17
 10028ec:	9409883a 	add	r4,r18,r16
 10028f0:	100a9c80 	call	100a9c8 <memcmp>
 10028f4:	80ffffc4 	addi	r3,r16,-1
 10028f8:	10000226 	beq	r2,zero,1002904 <_ZNKSs5rfindEPKcmm+0x7c>
 10028fc:	1d3ff71e 	bne	r3,r20,10028dc <_ZNKSs5rfindEPKcmm+0x54>
 1002900:	043fffc4 	movi	r16,-1
 1002904:	8005883a 	mov	r2,r16
 1002908:	dfc00717 	ldw	ra,28(sp)
 100290c:	dd000617 	ldw	r20,24(sp)
 1002910:	dcc00517 	ldw	r19,20(sp)
 1002914:	dc800417 	ldw	r18,16(sp)
 1002918:	dc400317 	ldw	r17,12(sp)
 100291c:	dc000217 	ldw	r16,8(sp)
 1002920:	dec00804 	addi	sp,sp,32
 1002924:	f800283a 	ret
 1002928:	d805883a 	mov	r2,sp
 100292c:	003fe706 	br	10028cc <_ZNKSs5rfindEPKcmm+0x44>

01002930 <_ZNKSs5rfindEPKcm>:
 1002930:	defffc04 	addi	sp,sp,-16
 1002934:	dd400215 	stw	r21,8(sp)
 1002938:	dcc00115 	stw	r19,4(sp)
 100293c:	dc400015 	stw	r17,0(sp)
 1002940:	2027883a 	mov	r19,r4
 1002944:	dfc00315 	stw	ra,12(sp)
 1002948:	2809883a 	mov	r4,r5
 100294c:	2823883a 	mov	r17,r5
 1002950:	302b883a 	mov	r21,r6
 1002954:	100b1640 	call	100b164 <strlen>
 1002958:	880b883a 	mov	r5,r17
 100295c:	9809883a 	mov	r4,r19
 1002960:	a80d883a 	mov	r6,r21
 1002964:	100f883a 	mov	r7,r2
 1002968:	dfc00317 	ldw	ra,12(sp)
 100296c:	dd400217 	ldw	r21,8(sp)
 1002970:	dcc00117 	ldw	r19,4(sp)
 1002974:	dc400017 	ldw	r17,0(sp)
 1002978:	dec00404 	addi	sp,sp,16
 100297c:	10028881 	jmpi	1002888 <_ZNKSs5rfindEPKcmm>

01002980 <_ZNKSs5rfindERKSsm>:
 1002980:	29400017 	ldw	r5,0(r5)
 1002984:	29fffd17 	ldw	r7,-12(r5)
 1002988:	10028881 	jmpi	1002888 <_ZNKSs5rfindEPKcmm>

0100298c <_ZNSsC2Ev>:
 100298c:	008040f4 	movhi	r2,259
 1002990:	10a53204 	addi	r2,r2,-27448
 1002994:	20800015 	stw	r2,0(r4)
 1002998:	f800283a 	ret

0100299c <_ZN9__gnu_cxxeqIPKcSsEEbRKNS_17__normal_iteratorIT_T0_EES8_>:
 100299c:	20c00017 	ldw	r3,0(r4)
 10029a0:	28800017 	ldw	r2,0(r5)
 10029a4:	1885003a 	cmpeq	r2,r3,r2
 10029a8:	f800283a 	ret

010029ac <_ZNKSs5rfindEcm>:
 10029ac:	21000017 	ldw	r4,0(r4)
 10029b0:	3007883a 	mov	r3,r6
 10029b4:	20bffd17 	ldw	r2,-12(r4)
 10029b8:	10001226 	beq	r2,zero,1002a04 <_ZNKSs5rfindEcm+0x58>
 10029bc:	11bfffc4 	addi	r6,r2,-1
 10029c0:	19800e36 	bltu	r3,r6,10029fc <_ZNKSs5rfindEcm+0x50>
 10029c4:	29403fcc 	andi	r5,r5,255
 10029c8:	2940201c 	xori	r5,r5,128
 10029cc:	2189883a 	add	r4,r4,r6
 10029d0:	297fe004 	addi	r5,r5,-128
 10029d4:	0007883a 	mov	r3,zero
 10029d8:	32000044 	addi	r8,r6,1
 10029dc:	30cfc83a 	sub	r7,r6,r3
 10029e0:	40c00826 	beq	r8,r3,1002a04 <_ZNKSs5rfindEcm+0x58>
 10029e4:	20800007 	ldb	r2,0(r4)
 10029e8:	18c00044 	addi	r3,r3,1
 10029ec:	213fffc4 	addi	r4,r4,-1
 10029f0:	117ffa1e 	bne	r2,r5,10029dc <_ZNKSs5rfindEcm+0x30>
 10029f4:	3805883a 	mov	r2,r7
 10029f8:	f800283a 	ret
 10029fc:	180d883a 	mov	r6,r3
 1002a00:	003ff006 	br	10029c4 <_ZNKSs5rfindEcm+0x18>
 1002a04:	01ffffc4 	movi	r7,-1
 1002a08:	3805883a 	mov	r2,r7
 1002a0c:	f800283a 	ret

01002a10 <_ZNKSs12find_last_ofEcm>:
 1002a10:	29403fcc 	andi	r5,r5,255
 1002a14:	2940201c 	xori	r5,r5,128
 1002a18:	297fe004 	addi	r5,r5,-128
 1002a1c:	10029ac1 	jmpi	10029ac <_ZNKSs5rfindEcm>

01002a20 <_ZNKSs16find_last_not_ofEcm>:
 1002a20:	21000017 	ldw	r4,0(r4)
 1002a24:	20bffd17 	ldw	r2,-12(r4)
 1002a28:	10001026 	beq	r2,zero,1002a6c <_ZNKSs16find_last_not_ofEcm+0x4c>
 1002a2c:	10ffffc4 	addi	r3,r2,-1
 1002a30:	30c00c36 	bltu	r6,r3,1002a64 <_ZNKSs16find_last_not_ofEcm+0x44>
 1002a34:	29403fcc 	andi	r5,r5,255
 1002a38:	2940201c 	xori	r5,r5,128
 1002a3c:	20c9883a 	add	r4,r4,r3
 1002a40:	297fe004 	addi	r5,r5,-128
 1002a44:	01bfffc4 	movi	r6,-1
 1002a48:	20800007 	ldb	r2,0(r4)
 1002a4c:	213fffc4 	addi	r4,r4,-1
 1002a50:	1140021e 	bne	r2,r5,1002a5c <_ZNKSs16find_last_not_ofEcm+0x3c>
 1002a54:	18ffffc4 	addi	r3,r3,-1
 1002a58:	19bffb1e 	bne	r3,r6,1002a48 <_ZNKSs16find_last_not_ofEcm+0x28>
 1002a5c:	1805883a 	mov	r2,r3
 1002a60:	f800283a 	ret
 1002a64:	3007883a 	mov	r3,r6
 1002a68:	003ff206 	br	1002a34 <_ZNKSs16find_last_not_ofEcm+0x14>
 1002a6c:	00ffffc4 	movi	r3,-1
 1002a70:	1805883a 	mov	r2,r3
 1002a74:	f800283a 	ret

01002a78 <_ZNKSs17find_first_not_ofEcm>:
 1002a78:	21000017 	ldw	r4,0(r4)
 1002a7c:	3007883a 	mov	r3,r6
 1002a80:	21bffd17 	ldw	r6,-12(r4)
 1002a84:	19800f2e 	bgeu	r3,r6,1002ac4 <_ZNKSs17find_first_not_ofEcm+0x4c>
 1002a88:	20c9883a 	add	r4,r4,r3
 1002a8c:	29403fcc 	andi	r5,r5,255
 1002a90:	20800007 	ldb	r2,0(r4)
 1002a94:	2940201c 	xori	r5,r5,128
 1002a98:	297fe004 	addi	r5,r5,-128
 1002a9c:	28800a1e 	bne	r5,r2,1002ac8 <_ZNKSs17find_first_not_ofEcm+0x50>
 1002aa0:	30cfc83a 	sub	r7,r6,r3
 1002aa4:	180d883a 	mov	r6,r3
 1002aa8:	00000306 	br	1002ab8 <_ZNKSs17find_first_not_ofEcm+0x40>
 1002aac:	20800047 	ldb	r2,1(r4)
 1002ab0:	21000044 	addi	r4,r4,1
 1002ab4:	1140061e 	bne	r2,r5,1002ad0 <_ZNKSs17find_first_not_ofEcm+0x58>
 1002ab8:	31800044 	addi	r6,r6,1
 1002abc:	19c5883a 	add	r2,r3,r7
 1002ac0:	11bffa1e 	bne	r2,r6,1002aac <_ZNKSs17find_first_not_ofEcm+0x34>
 1002ac4:	00ffffc4 	movi	r3,-1
 1002ac8:	1805883a 	mov	r2,r3
 1002acc:	f800283a 	ret
 1002ad0:	3007883a 	mov	r3,r6
 1002ad4:	1805883a 	mov	r2,r3
 1002ad8:	f800283a 	ret

01002adc <_ZNSs4_Rep9_S_createEmmRKSaIcE>:
 1002adc:	deffed04 	addi	sp,sp,-76
 1002ae0:	00804034 	movhi	r2,256
 1002ae4:	109a9704 	addi	r2,r2,27228
 1002ae8:	00c040b4 	movhi	r3,258
 1002aec:	18c2d344 	addi	r3,r3,2893
 1002af0:	d8800615 	stw	r2,24(sp)
 1002af4:	d9000e15 	stw	r4,56(sp)
 1002af8:	00804034 	movhi	r2,256
 1002afc:	108aff04 	addi	r2,r2,11260
 1002b00:	d809883a 	mov	r4,sp
 1002b04:	d8c00715 	stw	r3,28(sp)
 1002b08:	d8800915 	stw	r2,36(sp)
 1002b0c:	dfc01215 	stw	ra,72(sp)
 1002b10:	df001115 	stw	fp,68(sp)
 1002b14:	ddc01015 	stw	r23,64(sp)
 1002b18:	dec00815 	stw	sp,32(sp)
 1002b1c:	dec00a15 	stw	sp,40(sp)
 1002b20:	d9400f15 	stw	r5,60(sp)
 1002b24:	1009c1c0 	call	1009c1c <_Unwind_SjLj_Register>
 1002b28:	d8c00e17 	ldw	r3,56(sp)
 1002b2c:	00900034 	movhi	r2,16384
 1002b30:	10bfff04 	addi	r2,r2,-4
 1002b34:	10c02c36 	bltu	r2,r3,1002be8 <_ZNSs4_Rep9_S_createEmmRKSaIcE+0x10c>
 1002b38:	d9800f17 	ldw	r6,60(sp)
 1002b3c:	d9c00e17 	ldw	r7,56(sp)
 1002b40:	31c0032e 	bgeu	r6,r7,1002b50 <_ZNSs4_Rep9_S_createEmmRKSaIcE+0x74>
 1002b44:	3189883a 	add	r4,r6,r6
 1002b48:	3900012e 	bgeu	r7,r4,1002b50 <_ZNSs4_Rep9_S_createEmmRKSaIcE+0x74>
 1002b4c:	d9000e15 	stw	r4,56(sp)
 1002b50:	d8800e17 	ldw	r2,56(sp)
 1002b54:	01400344 	movi	r5,13
 1002b58:	00c40004 	movi	r3,4096
 1002b5c:	1149883a 	add	r4,r2,r5
 1002b60:	20800404 	addi	r2,r4,16
 1002b64:	18800f36 	bltu	r3,r2,1002ba4 <_ZNSs4_Rep9_S_createEmmRKSaIcE+0xc8>
 1002b68:	00800044 	movi	r2,1
 1002b6c:	d8800115 	stw	r2,4(sp)
 1002b70:	10077140 	call	1007714 <_Znwm>
 1002b74:	d8c00e17 	ldw	r3,56(sp)
 1002b78:	10000215 	stw	zero,8(r2)
 1002b7c:	d809883a 	mov	r4,sp
 1002b80:	10c00115 	stw	r3,4(r2)
 1002b84:	d8800d15 	stw	r2,52(sp)
 1002b88:	1009c2c0 	call	1009c2c <_Unwind_SjLj_Unregister>
 1002b8c:	d8800d17 	ldw	r2,52(sp)
 1002b90:	dfc01217 	ldw	ra,72(sp)
 1002b94:	df001117 	ldw	fp,68(sp)
 1002b98:	ddc01017 	ldw	r23,64(sp)
 1002b9c:	dec01304 	addi	sp,sp,76
 1002ba0:	f800283a 	ret
 1002ba4:	d9800f17 	ldw	r6,60(sp)
 1002ba8:	d9c00e17 	ldw	r7,56(sp)
 1002bac:	31ffee2e 	bgeu	r6,r7,1002b68 <_ZNSs4_Rep9_S_createEmmRKSaIcE+0x8c>
 1002bb0:	1083ffcc 	andi	r2,r2,4095
 1002bb4:	1885c83a 	sub	r2,r3,r2
 1002bb8:	388f883a 	add	r7,r7,r2
 1002bbc:	01100034 	movhi	r4,16384
 1002bc0:	213fff04 	addi	r4,r4,-4
 1002bc4:	d9c00e15 	stw	r7,56(sp)
 1002bc8:	21c00336 	bltu	r4,r7,1002bd8 <_ZNSs4_Rep9_S_createEmmRKSaIcE+0xfc>
 1002bcc:	d8800e17 	ldw	r2,56(sp)
 1002bd0:	1149883a 	add	r4,r2,r5
 1002bd4:	003fe406 	br	1002b68 <_ZNSs4_Rep9_S_createEmmRKSaIcE+0x8c>
 1002bd8:	d9000e15 	stw	r4,56(sp)
 1002bdc:	d8800e17 	ldw	r2,56(sp)
 1002be0:	1149883a 	add	r4,r2,r5
 1002be4:	003fe006 	br	1002b68 <_ZNSs4_Rep9_S_createEmmRKSaIcE+0x8c>
 1002be8:	00bfffc4 	movi	r2,-1
 1002bec:	010040b4 	movhi	r4,258
 1002bf0:	2103e404 	addi	r4,r4,3984
 1002bf4:	d8800115 	stw	r2,4(sp)
 1002bf8:	100866c0 	call	100866c <_ZSt20__throw_length_errorPKc>
 1002bfc:	d9000217 	ldw	r4,8(sp)
 1002c00:	00bfffc4 	movi	r2,-1
 1002c04:	d8800115 	stw	r2,4(sp)
 1002c08:	1009ee80 	call	1009ee8 <_Unwind_SjLj_Resume>

01002c0c <_ZNSs4_Rep10_M_destroyERKSaIcE>:
 1002c0c:	100722c1 	jmpi	100722c <_ZdlPv>

01002c10 <_ZNSs4_Rep10_M_disposeERKSaIcE>:
 1002c10:	defffd04 	addi	sp,sp,-12
 1002c14:	dc000015 	stw	r16,0(sp)
 1002c18:	008040f4 	movhi	r2,259
 1002c1c:	10a52f04 	addi	r2,r2,-27460
 1002c20:	2021883a 	mov	r16,r4
 1002c24:	dc400115 	stw	r17,4(sp)
 1002c28:	dfc00215 	stw	ra,8(sp)
 1002c2c:	2823883a 	mov	r17,r5
 1002c30:	21000204 	addi	r4,r4,8
 1002c34:	017fffc4 	movi	r5,-1
 1002c38:	8080051e 	bne	r16,r2,1002c50 <_ZNSs4_Rep10_M_disposeERKSaIcE+0x40>
 1002c3c:	dfc00217 	ldw	ra,8(sp)
 1002c40:	dc400117 	ldw	r17,4(sp)
 1002c44:	dc000017 	ldw	r16,0(sp)
 1002c48:	dec00304 	addi	sp,sp,12
 1002c4c:	f800283a 	ret
 1002c50:	100617c0 	call	100617c <_ZN9__gnu_cxx18__exchange_and_addEPVii>
 1002c54:	8009883a 	mov	r4,r16
 1002c58:	880b883a 	mov	r5,r17
 1002c5c:	00bff716 	blt	zero,r2,1002c3c <_ZNSs4_Rep10_M_disposeERKSaIcE+0x2c>
 1002c60:	dfc00217 	ldw	ra,8(sp)
 1002c64:	dc400117 	ldw	r17,4(sp)
 1002c68:	dc000017 	ldw	r16,0(sp)
 1002c6c:	dec00304 	addi	sp,sp,12
 1002c70:	1002c0c1 	jmpi	1002c0c <_ZNSs4_Rep10_M_destroyERKSaIcE>

01002c74 <_ZNKSs12find_last_ofEPKcmm>:
 1002c74:	20800017 	ldw	r2,0(r4)
 1002c78:	defffb04 	addi	sp,sp,-20
 1002c7c:	dcc00315 	stw	r19,12(sp)
 1002c80:	10fffd17 	ldw	r3,-12(r2)
 1002c84:	dc800215 	stw	r18,8(sp)
 1002c88:	dc400115 	stw	r17,4(sp)
 1002c8c:	dfc00415 	stw	ra,16(sp)
 1002c90:	dc000015 	stw	r16,0(sp)
 1002c94:	2027883a 	mov	r19,r4
 1002c98:	2825883a 	mov	r18,r5
 1002c9c:	3823883a 	mov	r17,r7
 1002ca0:	18002426 	beq	r3,zero,1002d34 <_ZNKSs12find_last_ofEPKcmm+0xc0>
 1002ca4:	38002326 	beq	r7,zero,1002d34 <_ZNKSs12find_last_ofEPKcmm+0xc0>
 1002ca8:	1c3fffc4 	addi	r16,r3,-1
 1002cac:	3400102e 	bgeu	r6,r16,1002cf0 <_ZNKSs12find_last_ofEPKcmm+0x7c>
 1002cb0:	3021883a 	mov	r16,r6
 1002cb4:	1405883a 	add	r2,r2,r16
 1002cb8:	11400007 	ldb	r5,0(r2)
 1002cbc:	9009883a 	mov	r4,r18
 1002cc0:	880d883a 	mov	r6,r17
 1002cc4:	100a8e40 	call	100a8e4 <memchr>
 1002cc8:	10000f26 	beq	r2,zero,1002d08 <_ZNKSs12find_last_ofEPKcmm+0x94>
 1002ccc:	8005883a 	mov	r2,r16
 1002cd0:	dfc00417 	ldw	ra,16(sp)
 1002cd4:	dcc00317 	ldw	r19,12(sp)
 1002cd8:	dc800217 	ldw	r18,8(sp)
 1002cdc:	dc400117 	ldw	r17,4(sp)
 1002ce0:	dc000017 	ldw	r16,0(sp)
 1002ce4:	dec00504 	addi	sp,sp,20
 1002ce8:	f800283a 	ret
 1002cec:	98800017 	ldw	r2,0(r19)
 1002cf0:	1405883a 	add	r2,r2,r16
 1002cf4:	11400007 	ldb	r5,0(r2)
 1002cf8:	9009883a 	mov	r4,r18
 1002cfc:	880d883a 	mov	r6,r17
 1002d00:	100a8e40 	call	100a8e4 <memchr>
 1002d04:	103ff11e 	bne	r2,zero,1002ccc <_ZNKSs12find_last_ofEPKcmm+0x58>
 1002d08:	843fffc4 	addi	r16,r16,-1
 1002d0c:	00bfffc4 	movi	r2,-1
 1002d10:	80bff61e 	bne	r16,r2,1002cec <_ZNKSs12find_last_ofEPKcmm+0x78>
 1002d14:	8005883a 	mov	r2,r16
 1002d18:	dfc00417 	ldw	ra,16(sp)
 1002d1c:	dcc00317 	ldw	r19,12(sp)
 1002d20:	dc800217 	ldw	r18,8(sp)
 1002d24:	dc400117 	ldw	r17,4(sp)
 1002d28:	dc000017 	ldw	r16,0(sp)
 1002d2c:	dec00504 	addi	sp,sp,20
 1002d30:	f800283a 	ret
 1002d34:	043fffc4 	movi	r16,-1
 1002d38:	8005883a 	mov	r2,r16
 1002d3c:	dfc00417 	ldw	ra,16(sp)
 1002d40:	dcc00317 	ldw	r19,12(sp)
 1002d44:	dc800217 	ldw	r18,8(sp)
 1002d48:	dc400117 	ldw	r17,4(sp)
 1002d4c:	dc000017 	ldw	r16,0(sp)
 1002d50:	dec00504 	addi	sp,sp,20
 1002d54:	f800283a 	ret

01002d58 <_ZNKSs12find_last_ofERKSsm>:
 1002d58:	29400017 	ldw	r5,0(r5)
 1002d5c:	29fffd17 	ldw	r7,-12(r5)
 1002d60:	1002c741 	jmpi	1002c74 <_ZNKSs12find_last_ofEPKcmm>

01002d64 <_ZNKSs13find_first_ofEPKcmm>:
 1002d64:	defffb04 	addi	sp,sp,-20
 1002d68:	dcc00315 	stw	r19,12(sp)
 1002d6c:	dc800215 	stw	r18,8(sp)
 1002d70:	dc400115 	stw	r17,4(sp)
 1002d74:	dc000015 	stw	r16,0(sp)
 1002d78:	dfc00415 	stw	ra,16(sp)
 1002d7c:	3823883a 	mov	r17,r7
 1002d80:	2027883a 	mov	r19,r4
 1002d84:	2825883a 	mov	r18,r5
 1002d88:	3021883a 	mov	r16,r6
 1002d8c:	3800091e 	bne	r7,zero,1002db4 <_ZNKSs13find_first_ofEPKcmm+0x50>
 1002d90:	043fffc4 	movi	r16,-1
 1002d94:	8005883a 	mov	r2,r16
 1002d98:	dfc00417 	ldw	ra,16(sp)
 1002d9c:	dcc00317 	ldw	r19,12(sp)
 1002da0:	dc800217 	ldw	r18,8(sp)
 1002da4:	dc400117 	ldw	r17,4(sp)
 1002da8:	dc000017 	ldw	r16,0(sp)
 1002dac:	dec00504 	addi	sp,sp,20
 1002db0:	f800283a 	ret
 1002db4:	20c00017 	ldw	r3,0(r4)
 1002db8:	18bffd17 	ldw	r2,-12(r3)
 1002dbc:	30bff42e 	bgeu	r6,r2,1002d90 <_ZNKSs13find_first_ofEPKcmm+0x2c>
 1002dc0:	80c5883a 	add	r2,r16,r3
 1002dc4:	11400007 	ldb	r5,0(r2)
 1002dc8:	9009883a 	mov	r4,r18
 1002dcc:	880d883a 	mov	r6,r17
 1002dd0:	100a8e40 	call	100a8e4 <memchr>
 1002dd4:	103fef1e 	bne	r2,zero,1002d94 <_ZNKSs13find_first_ofEPKcmm+0x30>
 1002dd8:	98c00017 	ldw	r3,0(r19)
 1002ddc:	84000044 	addi	r16,r16,1
 1002de0:	18bffd17 	ldw	r2,-12(r3)
 1002de4:	80bff636 	bltu	r16,r2,1002dc0 <_ZNKSs13find_first_ofEPKcmm+0x5c>
 1002de8:	003fe906 	br	1002d90 <_ZNKSs13find_first_ofEPKcmm+0x2c>

01002dec <_ZNKSs13find_first_ofERKSsm>:
 1002dec:	29400017 	ldw	r5,0(r5)
 1002df0:	29fffd17 	ldw	r7,-12(r5)
 1002df4:	1002d641 	jmpi	1002d64 <_ZNKSs13find_first_ofEPKcmm>

01002df8 <_ZNKSs4findEcm>:
 1002df8:	defffe04 	addi	sp,sp,-8
 1002dfc:	dc000015 	stw	r16,0(sp)
 1002e00:	24000017 	ldw	r16,0(r4)
 1002e04:	29403fcc 	andi	r5,r5,255
 1002e08:	3007883a 	mov	r3,r6
 1002e0c:	81fffd17 	ldw	r7,-12(r16)
 1002e10:	2940201c 	xori	r5,r5,128
 1002e14:	8189883a 	add	r4,r16,r6
 1002e18:	dfc00115 	stw	ra,4(sp)
 1002e1c:	297fe004 	addi	r5,r5,-128
 1002e20:	398dc83a 	sub	r6,r7,r6
 1002e24:	19c0082e 	bgeu	r3,r7,1002e48 <_ZNKSs4findEcm+0x50>
 1002e28:	100a8e40 	call	100a8e4 <memchr>
 1002e2c:	1407c83a 	sub	r3,r2,r16
 1002e30:	10000526 	beq	r2,zero,1002e48 <_ZNKSs4findEcm+0x50>
 1002e34:	1805883a 	mov	r2,r3
 1002e38:	dfc00117 	ldw	ra,4(sp)
 1002e3c:	dc000017 	ldw	r16,0(sp)
 1002e40:	dec00204 	addi	sp,sp,8
 1002e44:	f800283a 	ret
 1002e48:	00ffffc4 	movi	r3,-1
 1002e4c:	1805883a 	mov	r2,r3
 1002e50:	dfc00117 	ldw	ra,4(sp)
 1002e54:	dc000017 	ldw	r16,0(sp)
 1002e58:	dec00204 	addi	sp,sp,8
 1002e5c:	f800283a 	ret

01002e60 <_ZNKSs13find_first_ofEcm>:
 1002e60:	29403fcc 	andi	r5,r5,255
 1002e64:	2940201c 	xori	r5,r5,128
 1002e68:	297fe004 	addi	r5,r5,-128
 1002e6c:	1002df81 	jmpi	1002df8 <_ZNKSs4findEcm>

01002e70 <_ZNKSs16find_last_not_ofEPKcmm>:
 1002e70:	20800017 	ldw	r2,0(r4)
 1002e74:	defffb04 	addi	sp,sp,-20
 1002e78:	dcc00315 	stw	r19,12(sp)
 1002e7c:	10fffd17 	ldw	r3,-12(r2)
 1002e80:	dc800215 	stw	r18,8(sp)
 1002e84:	dc400115 	stw	r17,4(sp)
 1002e88:	dfc00415 	stw	ra,16(sp)
 1002e8c:	dc000015 	stw	r16,0(sp)
 1002e90:	2027883a 	mov	r19,r4
 1002e94:	2825883a 	mov	r18,r5
 1002e98:	3823883a 	mov	r17,r7
 1002e9c:	18002326 	beq	r3,zero,1002f2c <_ZNKSs16find_last_not_ofEPKcmm+0xbc>
 1002ea0:	1c3fffc4 	addi	r16,r3,-1
 1002ea4:	3400102e 	bgeu	r6,r16,1002ee8 <_ZNKSs16find_last_not_ofEPKcmm+0x78>
 1002ea8:	3021883a 	mov	r16,r6
 1002eac:	1405883a 	add	r2,r2,r16
 1002eb0:	11400007 	ldb	r5,0(r2)
 1002eb4:	9009883a 	mov	r4,r18
 1002eb8:	880d883a 	mov	r6,r17
 1002ebc:	100a8e40 	call	100a8e4 <memchr>
 1002ec0:	10000f1e 	bne	r2,zero,1002f00 <_ZNKSs16find_last_not_ofEPKcmm+0x90>
 1002ec4:	8005883a 	mov	r2,r16
 1002ec8:	dfc00417 	ldw	ra,16(sp)
 1002ecc:	dcc00317 	ldw	r19,12(sp)
 1002ed0:	dc800217 	ldw	r18,8(sp)
 1002ed4:	dc400117 	ldw	r17,4(sp)
 1002ed8:	dc000017 	ldw	r16,0(sp)
 1002edc:	dec00504 	addi	sp,sp,20
 1002ee0:	f800283a 	ret
 1002ee4:	98800017 	ldw	r2,0(r19)
 1002ee8:	1405883a 	add	r2,r2,r16
 1002eec:	11400007 	ldb	r5,0(r2)
 1002ef0:	9009883a 	mov	r4,r18
 1002ef4:	880d883a 	mov	r6,r17
 1002ef8:	100a8e40 	call	100a8e4 <memchr>
 1002efc:	103ff126 	beq	r2,zero,1002ec4 <_ZNKSs16find_last_not_ofEPKcmm+0x54>
 1002f00:	843fffc4 	addi	r16,r16,-1
 1002f04:	00bfffc4 	movi	r2,-1
 1002f08:	80bff61e 	bne	r16,r2,1002ee4 <_ZNKSs16find_last_not_ofEPKcmm+0x74>
 1002f0c:	8005883a 	mov	r2,r16
 1002f10:	dfc00417 	ldw	ra,16(sp)
 1002f14:	dcc00317 	ldw	r19,12(sp)
 1002f18:	dc800217 	ldw	r18,8(sp)
 1002f1c:	dc400117 	ldw	r17,4(sp)
 1002f20:	dc000017 	ldw	r16,0(sp)
 1002f24:	dec00504 	addi	sp,sp,20
 1002f28:	f800283a 	ret
 1002f2c:	043fffc4 	movi	r16,-1
 1002f30:	8005883a 	mov	r2,r16
 1002f34:	dfc00417 	ldw	ra,16(sp)
 1002f38:	dcc00317 	ldw	r19,12(sp)
 1002f3c:	dc800217 	ldw	r18,8(sp)
 1002f40:	dc400117 	ldw	r17,4(sp)
 1002f44:	dc000017 	ldw	r16,0(sp)
 1002f48:	dec00504 	addi	sp,sp,20
 1002f4c:	f800283a 	ret

01002f50 <_ZNKSs16find_last_not_ofERKSsm>:
 1002f50:	29400017 	ldw	r5,0(r5)
 1002f54:	29fffd17 	ldw	r7,-12(r5)
 1002f58:	1002e701 	jmpi	1002e70 <_ZNKSs16find_last_not_ofEPKcmm>

01002f5c <_ZNKSs7compareERKSs>:
 1002f5c:	20800017 	ldw	r2,0(r4)
 1002f60:	28c00017 	ldw	r3,0(r5)
 1002f64:	defffb04 	addi	sp,sp,-20
 1002f68:	dc400315 	stw	r17,12(sp)
 1002f6c:	dc000215 	stw	r16,8(sp)
 1002f70:	147ffd17 	ldw	r17,-12(r2)
 1002f74:	1c3ffd17 	ldw	r16,-12(r3)
 1002f78:	dfc00415 	stw	ra,16(sp)
 1002f7c:	d80d883a 	mov	r6,sp
 1002f80:	dc400015 	stw	r17,0(sp)
 1002f84:	dc000115 	stw	r16,4(sp)
 1002f88:	8440012e 	bgeu	r16,r17,1002f90 <_ZNKSs7compareERKSs+0x34>
 1002f8c:	d9800104 	addi	r6,sp,4
 1002f90:	21000017 	ldw	r4,0(r4)
 1002f94:	29400017 	ldw	r5,0(r5)
 1002f98:	31800017 	ldw	r6,0(r6)
 1002f9c:	100a9c80 	call	100a9c8 <memcmp>
 1002fa0:	1000011e 	bne	r2,zero,1002fa8 <_ZNKSs7compareERKSs+0x4c>
 1002fa4:	8c05c83a 	sub	r2,r17,r16
 1002fa8:	dfc00417 	ldw	ra,16(sp)
 1002fac:	dc400317 	ldw	r17,12(sp)
 1002fb0:	dc000217 	ldw	r16,8(sp)
 1002fb4:	dec00504 	addi	sp,sp,20
 1002fb8:	f800283a 	ret

01002fbc <_ZNKSs4findEPKcm>:
 1002fbc:	defffc04 	addi	sp,sp,-16
 1002fc0:	dd400215 	stw	r21,8(sp)
 1002fc4:	dcc00115 	stw	r19,4(sp)
 1002fc8:	dc400015 	stw	r17,0(sp)
 1002fcc:	2027883a 	mov	r19,r4
 1002fd0:	dfc00315 	stw	ra,12(sp)
 1002fd4:	2809883a 	mov	r4,r5
 1002fd8:	2823883a 	mov	r17,r5
 1002fdc:	302b883a 	mov	r21,r6
 1002fe0:	100b1640 	call	100b164 <strlen>
 1002fe4:	880b883a 	mov	r5,r17
 1002fe8:	9809883a 	mov	r4,r19
 1002fec:	a80d883a 	mov	r6,r21
 1002ff0:	100f883a 	mov	r7,r2
 1002ff4:	dfc00317 	ldw	ra,12(sp)
 1002ff8:	dd400217 	ldw	r21,8(sp)
 1002ffc:	dcc00117 	ldw	r19,4(sp)
 1003000:	dc400017 	ldw	r17,0(sp)
 1003004:	dec00404 	addi	sp,sp,16
 1003008:	10027901 	jmpi	1002790 <_ZNKSs4findEPKcmm>

0100300c <_ZNKSs7compareEPKc>:
 100300c:	20800017 	ldw	r2,0(r4)
 1003010:	defff904 	addi	sp,sp,-28
 1003014:	dc400315 	stw	r17,12(sp)
 1003018:	147ffd17 	ldw	r17,-12(r2)
 100301c:	dcc00515 	stw	r19,20(sp)
 1003020:	dc800415 	stw	r18,16(sp)
 1003024:	dc000215 	stw	r16,8(sp)
 1003028:	dfc00615 	stw	ra,24(sp)
 100302c:	2025883a 	mov	r18,r4
 1003030:	dc400015 	stw	r17,0(sp)
 1003034:	2809883a 	mov	r4,r5
 1003038:	2827883a 	mov	r19,r5
 100303c:	100b1640 	call	100b164 <strlen>
 1003040:	1021883a 	mov	r16,r2
 1003044:	d80d883a 	mov	r6,sp
 1003048:	d8800115 	stw	r2,4(sp)
 100304c:	1440012e 	bgeu	r2,r17,1003054 <_ZNKSs7compareEPKc+0x48>
 1003050:	d9800104 	addi	r6,sp,4
 1003054:	91000017 	ldw	r4,0(r18)
 1003058:	31800017 	ldw	r6,0(r6)
 100305c:	980b883a 	mov	r5,r19
 1003060:	100a9c80 	call	100a9c8 <memcmp>
 1003064:	1000011e 	bne	r2,zero,100306c <_ZNKSs7compareEPKc+0x60>
 1003068:	8c05c83a 	sub	r2,r17,r16
 100306c:	dfc00617 	ldw	ra,24(sp)
 1003070:	dcc00517 	ldw	r19,20(sp)
 1003074:	dc800417 	ldw	r18,16(sp)
 1003078:	dc400317 	ldw	r17,12(sp)
 100307c:	dc000217 	ldw	r16,8(sp)
 1003080:	dec00704 	addi	sp,sp,28
 1003084:	f800283a 	ret

01003088 <_ZNKSs16find_last_not_ofEPKcm>:
 1003088:	defffc04 	addi	sp,sp,-16
 100308c:	dd400215 	stw	r21,8(sp)
 1003090:	dcc00115 	stw	r19,4(sp)
 1003094:	dc400015 	stw	r17,0(sp)
 1003098:	2027883a 	mov	r19,r4
 100309c:	dfc00315 	stw	ra,12(sp)
 10030a0:	2809883a 	mov	r4,r5
 10030a4:	2823883a 	mov	r17,r5
 10030a8:	302b883a 	mov	r21,r6
 10030ac:	100b1640 	call	100b164 <strlen>
 10030b0:	880b883a 	mov	r5,r17
 10030b4:	9809883a 	mov	r4,r19
 10030b8:	a80d883a 	mov	r6,r21
 10030bc:	100f883a 	mov	r7,r2
 10030c0:	dfc00317 	ldw	ra,12(sp)
 10030c4:	dd400217 	ldw	r21,8(sp)
 10030c8:	dcc00117 	ldw	r19,4(sp)
 10030cc:	dc400017 	ldw	r17,0(sp)
 10030d0:	dec00404 	addi	sp,sp,16
 10030d4:	1002e701 	jmpi	1002e70 <_ZNKSs16find_last_not_ofEPKcmm>

010030d8 <_ZNKSs17find_first_not_ofEPKcm>:
 10030d8:	defffc04 	addi	sp,sp,-16
 10030dc:	dd400215 	stw	r21,8(sp)
 10030e0:	dcc00115 	stw	r19,4(sp)
 10030e4:	dc400015 	stw	r17,0(sp)
 10030e8:	2027883a 	mov	r19,r4
 10030ec:	dfc00315 	stw	ra,12(sp)
 10030f0:	2809883a 	mov	r4,r5
 10030f4:	2823883a 	mov	r17,r5
 10030f8:	302b883a 	mov	r21,r6
 10030fc:	100b1640 	call	100b164 <strlen>
 1003100:	880b883a 	mov	r5,r17
 1003104:	9809883a 	mov	r4,r19
 1003108:	a80d883a 	mov	r6,r21
 100310c:	100f883a 	mov	r7,r2
 1003110:	dfc00317 	ldw	ra,12(sp)
 1003114:	dd400217 	ldw	r21,8(sp)
 1003118:	dcc00117 	ldw	r19,4(sp)
 100311c:	dc400017 	ldw	r17,0(sp)
 1003120:	dec00404 	addi	sp,sp,16
 1003124:	10026ec1 	jmpi	10026ec <_ZNKSs17find_first_not_ofEPKcmm>

01003128 <_ZNKSs12find_last_ofEPKcm>:
 1003128:	defffc04 	addi	sp,sp,-16
 100312c:	dd400215 	stw	r21,8(sp)
 1003130:	dcc00115 	stw	r19,4(sp)
 1003134:	dc400015 	stw	r17,0(sp)
 1003138:	2027883a 	mov	r19,r4
 100313c:	dfc00315 	stw	ra,12(sp)
 1003140:	2809883a 	mov	r4,r5
 1003144:	2823883a 	mov	r17,r5
 1003148:	302b883a 	mov	r21,r6
 100314c:	100b1640 	call	100b164 <strlen>
 1003150:	880b883a 	mov	r5,r17
 1003154:	9809883a 	mov	r4,r19
 1003158:	a80d883a 	mov	r6,r21
 100315c:	100f883a 	mov	r7,r2
 1003160:	dfc00317 	ldw	ra,12(sp)
 1003164:	dd400217 	ldw	r21,8(sp)
 1003168:	dcc00117 	ldw	r19,4(sp)
 100316c:	dc400017 	ldw	r17,0(sp)
 1003170:	dec00404 	addi	sp,sp,16
 1003174:	1002c741 	jmpi	1002c74 <_ZNKSs12find_last_ofEPKcmm>

01003178 <_ZNKSs13find_first_ofEPKcm>:
 1003178:	defffc04 	addi	sp,sp,-16
 100317c:	dd400215 	stw	r21,8(sp)
 1003180:	dcc00115 	stw	r19,4(sp)
 1003184:	dc400015 	stw	r17,0(sp)
 1003188:	2027883a 	mov	r19,r4
 100318c:	dfc00315 	stw	ra,12(sp)
 1003190:	2809883a 	mov	r4,r5
 1003194:	2823883a 	mov	r17,r5
 1003198:	302b883a 	mov	r21,r6
 100319c:	100b1640 	call	100b164 <strlen>
 10031a0:	880b883a 	mov	r5,r17
 10031a4:	9809883a 	mov	r4,r19
 10031a8:	a80d883a 	mov	r6,r21
 10031ac:	100f883a 	mov	r7,r2
 10031b0:	dfc00317 	ldw	ra,12(sp)
 10031b4:	dd400217 	ldw	r21,8(sp)
 10031b8:	dcc00117 	ldw	r19,4(sp)
 10031bc:	dc400017 	ldw	r17,0(sp)
 10031c0:	dec00404 	addi	sp,sp,16
 10031c4:	1002d641 	jmpi	1002d64 <_ZNKSs13find_first_ofEPKcmm>

010031c8 <_ZNKSs4rendEv>:
 10031c8:	28c00017 	ldw	r3,0(r5)
 10031cc:	2005883a 	mov	r2,r4
 10031d0:	20c00015 	stw	r3,0(r4)
 10031d4:	f800283a 	ret

010031d8 <_ZNKSs6rbeginEv>:
 10031d8:	28c00017 	ldw	r3,0(r5)
 10031dc:	2005883a 	mov	r2,r4
 10031e0:	197ffd17 	ldw	r5,-12(r3)
 10031e4:	1947883a 	add	r3,r3,r5
 10031e8:	20c00015 	stw	r3,0(r4)
 10031ec:	f800283a 	ret

010031f0 <_ZNSs12_S_constructEmcRKSaIcE>:
 10031f0:	defffb04 	addi	sp,sp,-20
 10031f4:	dcc00315 	stw	r19,12(sp)
 10031f8:	dc400115 	stw	r17,4(sp)
 10031fc:	dc000015 	stw	r16,0(sp)
 1003200:	2823883a 	mov	r17,r5
 1003204:	dfc00415 	stw	ra,16(sp)
 1003208:	dc800215 	stw	r18,8(sp)
 100320c:	2021883a 	mov	r16,r4
 1003210:	04c040f4 	movhi	r19,259
 1003214:	9ce53204 	addi	r19,r19,-27448
 1003218:	000b883a 	mov	r5,zero
 100321c:	2000081e 	bne	r4,zero,1003240 <_ZNSs12_S_constructEmcRKSaIcE+0x50>
 1003220:	9805883a 	mov	r2,r19
 1003224:	dfc00417 	ldw	ra,16(sp)
 1003228:	dcc00317 	ldw	r19,12(sp)
 100322c:	dc800217 	ldw	r18,8(sp)
 1003230:	dc400117 	ldw	r17,4(sp)
 1003234:	dc000017 	ldw	r16,0(sp)
 1003238:	dec00504 	addi	sp,sp,20
 100323c:	f800283a 	ret
 1003240:	1002adc0 	call	1002adc <_ZNSs4_Rep9_S_createEmmRKSaIcE>
 1003244:	88c03fcc 	andi	r3,r17,255
 1003248:	18c0201c 	xori	r3,r3,128
 100324c:	18ffe004 	addi	r3,r3,-128
 1003250:	19403fcc 	andi	r5,r3,255
 1003254:	14c00304 	addi	r19,r2,12
 1003258:	1025883a 	mov	r18,r2
 100325c:	2940201c 	xori	r5,r5,128
 1003260:	00800044 	movi	r2,1
 1003264:	800d883a 	mov	r6,r16
 1003268:	9809883a 	mov	r4,r19
 100326c:	297fe004 	addi	r5,r5,-128
 1003270:	80800d26 	beq	r16,r2,10032a8 <_ZNSs12_S_constructEmcRKSaIcE+0xb8>
 1003274:	100abbc0 	call	100abbc <memset>
 1003278:	84c5883a 	add	r2,r16,r19
 100327c:	94000015 	stw	r16,0(r18)
 1003280:	90000215 	stw	zero,8(r18)
 1003284:	10000005 	stb	zero,0(r2)
 1003288:	9805883a 	mov	r2,r19
 100328c:	dfc00417 	ldw	ra,16(sp)
 1003290:	dcc00317 	ldw	r19,12(sp)
 1003294:	dc800217 	ldw	r18,8(sp)
 1003298:	dc400117 	ldw	r17,4(sp)
 100329c:	dc000017 	ldw	r16,0(sp)
 10032a0:	dec00504 	addi	sp,sp,20
 10032a4:	f800283a 	ret
 10032a8:	98c00005 	stb	r3,0(r19)
 10032ac:	003ff206 	br	1003278 <_ZNSs12_S_constructEmcRKSaIcE+0x88>

010032b0 <_ZNSsC1EmcRKSaIcE>:
 10032b0:	defffe04 	addi	sp,sp,-8
 10032b4:	dc400015 	stw	r17,0(sp)
 10032b8:	2023883a 	mov	r17,r4
 10032bc:	2809883a 	mov	r4,r5
 10032c0:	31403fcc 	andi	r5,r6,255
 10032c4:	2940201c 	xori	r5,r5,128
 10032c8:	297fe004 	addi	r5,r5,-128
 10032cc:	380d883a 	mov	r6,r7
 10032d0:	dfc00115 	stw	ra,4(sp)
 10032d4:	10031f00 	call	10031f0 <_ZNSs12_S_constructEmcRKSaIcE>
 10032d8:	88800015 	stw	r2,0(r17)
 10032dc:	dfc00117 	ldw	ra,4(sp)
 10032e0:	dc400017 	ldw	r17,0(sp)
 10032e4:	dec00204 	addi	sp,sp,8
 10032e8:	f800283a 	ret

010032ec <_ZNSsC2EmcRKSaIcE>:
 10032ec:	defffe04 	addi	sp,sp,-8
 10032f0:	dc400015 	stw	r17,0(sp)
 10032f4:	2023883a 	mov	r17,r4
 10032f8:	2809883a 	mov	r4,r5
 10032fc:	31403fcc 	andi	r5,r6,255
 1003300:	2940201c 	xori	r5,r5,128
 1003304:	297fe004 	addi	r5,r5,-128
 1003308:	380d883a 	mov	r6,r7
 100330c:	dfc00115 	stw	ra,4(sp)
 1003310:	10031f00 	call	10031f0 <_ZNSs12_S_constructEmcRKSaIcE>
 1003314:	88800015 	stw	r2,0(r17)
 1003318:	dfc00117 	ldw	ra,4(sp)
 100331c:	dc400017 	ldw	r17,0(sp)
 1003320:	dec00204 	addi	sp,sp,8
 1003324:	f800283a 	ret

01003328 <_ZNSsC1ERKSaIcE>:
 1003328:	defffe04 	addi	sp,sp,-8
 100332c:	dc400015 	stw	r17,0(sp)
 1003330:	280d883a 	mov	r6,r5
 1003334:	2023883a 	mov	r17,r4
 1003338:	000b883a 	mov	r5,zero
 100333c:	0009883a 	mov	r4,zero
 1003340:	dfc00115 	stw	ra,4(sp)
 1003344:	10031f00 	call	10031f0 <_ZNSs12_S_constructEmcRKSaIcE>
 1003348:	88800015 	stw	r2,0(r17)
 100334c:	dfc00117 	ldw	ra,4(sp)
 1003350:	dc400017 	ldw	r17,0(sp)
 1003354:	dec00204 	addi	sp,sp,8
 1003358:	f800283a 	ret

0100335c <_ZNSsC2ERKSaIcE>:
 100335c:	defffe04 	addi	sp,sp,-8
 1003360:	dc400015 	stw	r17,0(sp)
 1003364:	280d883a 	mov	r6,r5
 1003368:	2023883a 	mov	r17,r4
 100336c:	000b883a 	mov	r5,zero
 1003370:	0009883a 	mov	r4,zero
 1003374:	dfc00115 	stw	ra,4(sp)
 1003378:	10031f00 	call	10031f0 <_ZNSs12_S_constructEmcRKSaIcE>
 100337c:	88800015 	stw	r2,0(r17)
 1003380:	dfc00117 	ldw	ra,4(sp)
 1003384:	dc400017 	ldw	r17,0(sp)
 1003388:	dec00204 	addi	sp,sp,8
 100338c:	f800283a 	ret

01003390 <_ZNKSs7compareEmmPKcm>:
 1003390:	21000017 	ldw	r4,0(r4)
 1003394:	defffc04 	addi	sp,sp,-16
 1003398:	d9800015 	stw	r6,0(sp)
 100339c:	20bffd17 	ldw	r2,-12(r4)
 10033a0:	dfc00315 	stw	ra,12(sp)
 10033a4:	dc400215 	stw	r17,8(sp)
 10033a8:	dc000115 	stw	r16,4(sp)
 10033ac:	11401936 	bltu	r2,r5,1003414 <_ZNKSs7compareEmmPKcm+0x84>
 10033b0:	dc000017 	ldw	r16,0(sp)
 10033b4:	1145c83a 	sub	r2,r2,r5
 10033b8:	14001136 	bltu	r2,r16,1003400 <_ZNKSs7compareEmmPKcm+0x70>
 10033bc:	dc400417 	ldw	r17,16(sp)
 10033c0:	dc000015 	stw	r16,0(sp)
 10033c4:	8c000c36 	bltu	r17,r16,10033f8 <_ZNKSs7compareEmmPKcm+0x68>
 10033c8:	d80d883a 	mov	r6,sp
 10033cc:	31800017 	ldw	r6,0(r6)
 10033d0:	2149883a 	add	r4,r4,r5
 10033d4:	380b883a 	mov	r5,r7
 10033d8:	100a9c80 	call	100a9c8 <memcmp>
 10033dc:	1000011e 	bne	r2,zero,10033e4 <_ZNKSs7compareEmmPKcm+0x54>
 10033e0:	8445c83a 	sub	r2,r16,r17
 10033e4:	dfc00317 	ldw	ra,12(sp)
 10033e8:	dc400217 	ldw	r17,8(sp)
 10033ec:	dc000117 	ldw	r16,4(sp)
 10033f0:	dec00404 	addi	sp,sp,16
 10033f4:	f800283a 	ret
 10033f8:	d9800404 	addi	r6,sp,16
 10033fc:	003ff306 	br	10033cc <_ZNKSs7compareEmmPKcm+0x3c>
 1003400:	dc400417 	ldw	r17,16(sp)
 1003404:	1021883a 	mov	r16,r2
 1003408:	dc000015 	stw	r16,0(sp)
 100340c:	8c3ffa36 	bltu	r17,r16,10033f8 <_ZNKSs7compareEmmPKcm+0x68>
 1003410:	003fed06 	br	10033c8 <_ZNKSs7compareEmmPKcm+0x38>
 1003414:	010040b4 	movhi	r4,258
 1003418:	2103ea04 	addi	r4,r4,4008
 100341c:	10084dc0 	call	10084dc <_ZSt20__throw_out_of_rangePKc>

01003420 <_ZNKSs7compareEmmPKc>:
 1003420:	defff804 	addi	sp,sp,-32
 1003424:	dd000615 	stw	r20,24(sp)
 1003428:	25000017 	ldw	r20,0(r4)
 100342c:	d9800115 	stw	r6,4(sp)
 1003430:	dcc00515 	stw	r19,20(sp)
 1003434:	a0bffd17 	ldw	r2,-12(r20)
 1003438:	dc800415 	stw	r18,16(sp)
 100343c:	dfc00715 	stw	ra,28(sp)
 1003440:	dc400315 	stw	r17,12(sp)
 1003444:	dc000215 	stw	r16,8(sp)
 1003448:	2825883a 	mov	r18,r5
 100344c:	3827883a 	mov	r19,r7
 1003450:	11402236 	bltu	r2,r5,10034dc <_ZNKSs7compareEmmPKc+0xbc>
 1003454:	1145c83a 	sub	r2,r2,r5
 1003458:	3023883a 	mov	r17,r6
 100345c:	11801736 	bltu	r2,r6,10034bc <_ZNKSs7compareEmmPKc+0x9c>
 1003460:	dc400115 	stw	r17,4(sp)
 1003464:	9809883a 	mov	r4,r19
 1003468:	100b1640 	call	100b164 <strlen>
 100346c:	1021883a 	mov	r16,r2
 1003470:	d8800015 	stw	r2,0(sp)
 1003474:	14400f36 	bltu	r2,r17,10034b4 <_ZNKSs7compareEmmPKc+0x94>
 1003478:	d9800104 	addi	r6,sp,4
 100347c:	31800017 	ldw	r6,0(r6)
 1003480:	a489883a 	add	r4,r20,r18
 1003484:	980b883a 	mov	r5,r19
 1003488:	100a9c80 	call	100a9c8 <memcmp>
 100348c:	1000011e 	bne	r2,zero,1003494 <_ZNKSs7compareEmmPKc+0x74>
 1003490:	8c05c83a 	sub	r2,r17,r16
 1003494:	dfc00717 	ldw	ra,28(sp)
 1003498:	dd000617 	ldw	r20,24(sp)
 100349c:	dcc00517 	ldw	r19,20(sp)
 10034a0:	dc800417 	ldw	r18,16(sp)
 10034a4:	dc400317 	ldw	r17,12(sp)
 10034a8:	dc000217 	ldw	r16,8(sp)
 10034ac:	dec00804 	addi	sp,sp,32
 10034b0:	f800283a 	ret
 10034b4:	d80d883a 	mov	r6,sp
 10034b8:	003ff006 	br	100347c <_ZNKSs7compareEmmPKc+0x5c>
 10034bc:	1023883a 	mov	r17,r2
 10034c0:	dc400115 	stw	r17,4(sp)
 10034c4:	9809883a 	mov	r4,r19
 10034c8:	100b1640 	call	100b164 <strlen>
 10034cc:	1021883a 	mov	r16,r2
 10034d0:	d8800015 	stw	r2,0(sp)
 10034d4:	147ff736 	bltu	r2,r17,10034b4 <_ZNKSs7compareEmmPKc+0x94>
 10034d8:	003fe706 	br	1003478 <_ZNKSs7compareEmmPKc+0x58>
 10034dc:	010040b4 	movhi	r4,258
 10034e0:	2103ea04 	addi	r4,r4,4008
 10034e4:	10084dc0 	call	10084dc <_ZSt20__throw_out_of_rangePKc>

010034e8 <_ZNKSs7compareEmmRKSsmm>:
 10034e8:	21000017 	ldw	r4,0(r4)
 10034ec:	defffc04 	addi	sp,sp,-16
 10034f0:	d9800015 	stw	r6,0(sp)
 10034f4:	20bffd17 	ldw	r2,-12(r4)
 10034f8:	dfc00315 	stw	ra,12(sp)
 10034fc:	dc400215 	stw	r17,8(sp)
 1003500:	dc000115 	stw	r16,4(sp)
 1003504:	da000417 	ldw	r8,16(sp)
 1003508:	11402436 	bltu	r2,r5,100359c <_ZNKSs7compareEmmRKSsmm+0xb4>
 100350c:	39c00017 	ldw	r7,0(r7)
 1003510:	38fffd17 	ldw	r3,-12(r7)
 1003514:	1a002136 	bltu	r3,r8,100359c <_ZNKSs7compareEmmRKSsmm+0xb4>
 1003518:	dc400017 	ldw	r17,0(sp)
 100351c:	1145c83a 	sub	r2,r2,r5
 1003520:	14401836 	bltu	r2,r17,1003584 <_ZNKSs7compareEmmRKSsmm+0x9c>
 1003524:	dc000517 	ldw	r16,20(sp)
 1003528:	1a05c83a 	sub	r2,r3,r8
 100352c:	dc400015 	stw	r17,0(sp)
 1003530:	14001036 	bltu	r2,r16,1003574 <_ZNKSs7compareEmmRKSsmm+0x8c>
 1003534:	dc000515 	stw	r16,20(sp)
 1003538:	84400c36 	bltu	r16,r17,100356c <_ZNKSs7compareEmmRKSsmm+0x84>
 100353c:	d80d883a 	mov	r6,sp
 1003540:	31800017 	ldw	r6,0(r6)
 1003544:	2149883a 	add	r4,r4,r5
 1003548:	3a0b883a 	add	r5,r7,r8
 100354c:	100a9c80 	call	100a9c8 <memcmp>
 1003550:	1000011e 	bne	r2,zero,1003558 <_ZNKSs7compareEmmRKSsmm+0x70>
 1003554:	8c05c83a 	sub	r2,r17,r16
 1003558:	dfc00317 	ldw	ra,12(sp)
 100355c:	dc400217 	ldw	r17,8(sp)
 1003560:	dc000117 	ldw	r16,4(sp)
 1003564:	dec00404 	addi	sp,sp,16
 1003568:	f800283a 	ret
 100356c:	d9800504 	addi	r6,sp,20
 1003570:	003ff306 	br	1003540 <_ZNKSs7compareEmmRKSsmm+0x58>
 1003574:	1021883a 	mov	r16,r2
 1003578:	dc000515 	stw	r16,20(sp)
 100357c:	847ffb36 	bltu	r16,r17,100356c <_ZNKSs7compareEmmRKSsmm+0x84>
 1003580:	003fee06 	br	100353c <_ZNKSs7compareEmmRKSsmm+0x54>
 1003584:	dc000517 	ldw	r16,20(sp)
 1003588:	1023883a 	mov	r17,r2
 100358c:	1a05c83a 	sub	r2,r3,r8
 1003590:	dc400015 	stw	r17,0(sp)
 1003594:	143fe72e 	bgeu	r2,r16,1003534 <_ZNKSs7compareEmmRKSsmm+0x4c>
 1003598:	003ff606 	br	1003574 <_ZNKSs7compareEmmRKSsmm+0x8c>
 100359c:	010040b4 	movhi	r4,258
 10035a0:	2103ea04 	addi	r4,r4,4008
 10035a4:	10084dc0 	call	10084dc <_ZSt20__throw_out_of_rangePKc>

010035a8 <_ZNKSs7compareEmmRKSs>:
 10035a8:	21000017 	ldw	r4,0(r4)
 10035ac:	defffb04 	addi	sp,sp,-20
 10035b0:	d9800115 	stw	r6,4(sp)
 10035b4:	20bffd17 	ldw	r2,-12(r4)
 10035b8:	dfc00415 	stw	ra,16(sp)
 10035bc:	dc400315 	stw	r17,12(sp)
 10035c0:	dc000215 	stw	r16,8(sp)
 10035c4:	11401d36 	bltu	r2,r5,100363c <_ZNKSs7compareEmmRKSs+0x94>
 10035c8:	1145c83a 	sub	r2,r2,r5
 10035cc:	3021883a 	mov	r16,r6
 10035d0:	11801336 	bltu	r2,r6,1003620 <_ZNKSs7compareEmmRKSs+0x78>
 10035d4:	38800017 	ldw	r2,0(r7)
 10035d8:	dc000115 	stw	r16,4(sp)
 10035dc:	147ffd17 	ldw	r17,-12(r2)
 10035e0:	dc400015 	stw	r17,0(sp)
 10035e4:	8c000c36 	bltu	r17,r16,1003618 <_ZNKSs7compareEmmRKSs+0x70>
 10035e8:	d9800104 	addi	r6,sp,4
 10035ec:	31800017 	ldw	r6,0(r6)
 10035f0:	2149883a 	add	r4,r4,r5
 10035f4:	100b883a 	mov	r5,r2
 10035f8:	100a9c80 	call	100a9c8 <memcmp>
 10035fc:	1000011e 	bne	r2,zero,1003604 <_ZNKSs7compareEmmRKSs+0x5c>
 1003600:	8445c83a 	sub	r2,r16,r17
 1003604:	dfc00417 	ldw	ra,16(sp)
 1003608:	dc400317 	ldw	r17,12(sp)
 100360c:	dc000217 	ldw	r16,8(sp)
 1003610:	dec00504 	addi	sp,sp,20
 1003614:	f800283a 	ret
 1003618:	d80d883a 	mov	r6,sp
 100361c:	003ff306 	br	10035ec <_ZNKSs7compareEmmRKSs+0x44>
 1003620:	1021883a 	mov	r16,r2
 1003624:	38800017 	ldw	r2,0(r7)
 1003628:	dc000115 	stw	r16,4(sp)
 100362c:	147ffd17 	ldw	r17,-12(r2)
 1003630:	dc400015 	stw	r17,0(sp)
 1003634:	8c3ff836 	bltu	r17,r16,1003618 <_ZNKSs7compareEmmRKSs+0x70>
 1003638:	003feb06 	br	10035e8 <_ZNKSs7compareEmmRKSs+0x40>
 100363c:	010040b4 	movhi	r4,258
 1003640:	2103ea04 	addi	r4,r4,4008
 1003644:	10084dc0 	call	10084dc <_ZSt20__throw_out_of_rangePKc>

01003648 <_ZNSs4_Rep8_M_cloneERKSaIcEm>:
 1003648:	defffc04 	addi	sp,sp,-16
 100364c:	dc000015 	stw	r16,0(sp)
 1003650:	2021883a 	mov	r16,r4
 1003654:	21000017 	ldw	r4,0(r4)
 1003658:	2807883a 	mov	r3,r5
 100365c:	81400117 	ldw	r5,4(r16)
 1003660:	3109883a 	add	r4,r6,r4
 1003664:	180d883a 	mov	r6,r3
 1003668:	dc800215 	stw	r18,8(sp)
 100366c:	dc400115 	stw	r17,4(sp)
 1003670:	dfc00315 	stw	ra,12(sp)
 1003674:	1002adc0 	call	1002adc <_ZNSs4_Rep9_S_createEmmRKSaIcE>
 1003678:	80c00017 	ldw	r3,0(r16)
 100367c:	1023883a 	mov	r17,r2
 1003680:	14800304 	addi	r18,r2,12
 1003684:	18000826 	beq	r3,zero,10036a8 <_ZNSs4_Rep8_M_cloneERKSaIcEm+0x60>
 1003688:	14800304 	addi	r18,r2,12
 100368c:	00800044 	movi	r2,1
 1003690:	180d883a 	mov	r6,r3
 1003694:	9009883a 	mov	r4,r18
 1003698:	81400304 	addi	r5,r16,12
 100369c:	18800d26 	beq	r3,r2,10036d4 <_ZNSs4_Rep8_M_cloneERKSaIcEm+0x8c>
 10036a0:	100aa3c0 	call	100aa3c <memcpy>
 10036a4:	80c00017 	ldw	r3,0(r16)
 10036a8:	88c00015 	stw	r3,0(r17)
 10036ac:	88000215 	stw	zero,8(r17)
 10036b0:	1c87883a 	add	r3,r3,r18
 10036b4:	9005883a 	mov	r2,r18
 10036b8:	18000005 	stb	zero,0(r3)
 10036bc:	dfc00317 	ldw	ra,12(sp)
 10036c0:	dc800217 	ldw	r18,8(sp)
 10036c4:	dc400117 	ldw	r17,4(sp)
 10036c8:	dc000017 	ldw	r16,0(sp)
 10036cc:	dec00404 	addi	sp,sp,16
 10036d0:	f800283a 	ret
 10036d4:	80800303 	ldbu	r2,12(r16)
 10036d8:	88800305 	stb	r2,12(r17)
 10036dc:	80c00017 	ldw	r3,0(r16)
 10036e0:	003ff106 	br	10036a8 <_ZNSs4_Rep8_M_cloneERKSaIcEm+0x60>

010036e4 <_ZNSs4_Rep7_M_grabERKSaIcES2_>:
 10036e4:	deffed04 	addi	sp,sp,-76
 10036e8:	00804034 	movhi	r2,256
 10036ec:	109a9704 	addi	r2,r2,27228
 10036f0:	00c040b4 	movhi	r3,258
 10036f4:	18c2d504 	addi	r3,r3,2900
 10036f8:	d8800615 	stw	r2,24(sp)
 10036fc:	d9000e15 	stw	r4,56(sp)
 1003700:	00804034 	movhi	r2,256
 1003704:	108df104 	addi	r2,r2,14276
 1003708:	d809883a 	mov	r4,sp
 100370c:	d8c00715 	stw	r3,28(sp)
 1003710:	d8800915 	stw	r2,36(sp)
 1003714:	dfc01215 	stw	ra,72(sp)
 1003718:	df001115 	stw	fp,68(sp)
 100371c:	ddc01015 	stw	r23,64(sp)
 1003720:	dec00815 	stw	sp,32(sp)
 1003724:	dec00a15 	stw	sp,40(sp)
 1003728:	d9400f15 	stw	r5,60(sp)
 100372c:	1009c1c0 	call	1009c1c <_Unwind_SjLj_Register>
 1003730:	d8c00e17 	ldw	r3,56(sp)
 1003734:	18800217 	ldw	r2,8(r3)
 1003738:	10000e16 	blt	r2,zero,1003774 <_ZNSs4_Rep7_M_grabERKSaIcES2_+0x90>
 100373c:	008040f4 	movhi	r2,259
 1003740:	10a52f04 	addi	r2,r2,-27460
 1003744:	18801a1e 	bne	r3,r2,10037b0 <_ZNSs4_Rep7_M_grabERKSaIcES2_+0xcc>
 1003748:	d8800e17 	ldw	r2,56(sp)
 100374c:	d809883a 	mov	r4,sp
 1003750:	10800304 	addi	r2,r2,12
 1003754:	d8800d15 	stw	r2,52(sp)
 1003758:	1009c2c0 	call	1009c2c <_Unwind_SjLj_Unregister>
 100375c:	d8800d17 	ldw	r2,52(sp)
 1003760:	dfc01217 	ldw	ra,72(sp)
 1003764:	df001117 	ldw	fp,68(sp)
 1003768:	ddc01017 	ldw	r23,64(sp)
 100376c:	dec01304 	addi	sp,sp,76
 1003770:	f800283a 	ret
 1003774:	d9000e17 	ldw	r4,56(sp)
 1003778:	d9400f17 	ldw	r5,60(sp)
 100377c:	000d883a 	mov	r6,zero
 1003780:	00bfffc4 	movi	r2,-1
 1003784:	d8800115 	stw	r2,4(sp)
 1003788:	10036480 	call	1003648 <_ZNSs4_Rep8_M_cloneERKSaIcEm>
 100378c:	d809883a 	mov	r4,sp
 1003790:	d8800d15 	stw	r2,52(sp)
 1003794:	1009c2c0 	call	1009c2c <_Unwind_SjLj_Unregister>
 1003798:	d8800d17 	ldw	r2,52(sp)
 100379c:	dfc01217 	ldw	ra,72(sp)
 10037a0:	df001117 	ldw	fp,68(sp)
 10037a4:	ddc01017 	ldw	r23,64(sp)
 10037a8:	dec01304 	addi	sp,sp,76
 10037ac:	f800283a 	ret
 10037b0:	01400044 	movi	r5,1
 10037b4:	d9400115 	stw	r5,4(sp)
 10037b8:	19000204 	addi	r4,r3,8
 10037bc:	10061900 	call	1006190 <_ZN9__gnu_cxx12__atomic_addEPVii>
 10037c0:	003fe106 	br	1003748 <_ZNSs4_Rep7_M_grabERKSaIcES2_+0x64>
 10037c4:	d8800317 	ldw	r2,12(sp)
 10037c8:	00ffffc4 	movi	r3,-1
 10037cc:	d9000217 	ldw	r4,8(sp)
 10037d0:	10c00226 	beq	r2,r3,10037dc <_ZNSs4_Rep7_M_grabERKSaIcES2_+0xf8>
 10037d4:	d8c00115 	stw	r3,4(sp)
 10037d8:	1009ee80 	call	1009ee8 <_Unwind_SjLj_Resume>
 10037dc:	00bfffc4 	movi	r2,-1
 10037e0:	d8800115 	stw	r2,4(sp)
 10037e4:	10068dc0 	call	10068dc <__cxa_call_unexpected>

010037e8 <_ZNKSs4copyEPcmm>:
 10037e8:	21000017 	ldw	r4,0(r4)
 10037ec:	defffe04 	addi	sp,sp,-8
 10037f0:	dfc00115 	stw	ra,4(sp)
 10037f4:	20fffd17 	ldw	r3,-12(r4)
 10037f8:	dc000015 	stw	r16,0(sp)
 10037fc:	2811883a 	mov	r8,r5
 1003800:	19c01836 	bltu	r3,r7,1003864 <_ZNKSs4copyEPcmm+0x7c>
 1003804:	19c5c83a 	sub	r2,r3,r7
 1003808:	3021883a 	mov	r16,r6
 100380c:	11800c36 	bltu	r2,r6,1003840 <_ZNKSs4copyEPcmm+0x58>
 1003810:	80000626 	beq	r16,zero,100382c <_ZNKSs4copyEPcmm+0x44>
 1003814:	00800044 	movi	r2,1
 1003818:	21cb883a 	add	r5,r4,r7
 100381c:	80800a26 	beq	r16,r2,1003848 <_ZNKSs4copyEPcmm+0x60>
 1003820:	4009883a 	mov	r4,r8
 1003824:	800d883a 	mov	r6,r16
 1003828:	100aa3c0 	call	100aa3c <memcpy>
 100382c:	8005883a 	mov	r2,r16
 1003830:	dfc00117 	ldw	ra,4(sp)
 1003834:	dc000017 	ldw	r16,0(sp)
 1003838:	dec00204 	addi	sp,sp,8
 100383c:	f800283a 	ret
 1003840:	1021883a 	mov	r16,r2
 1003844:	003ff206 	br	1003810 <_ZNKSs4copyEPcmm+0x28>
 1003848:	28800003 	ldbu	r2,0(r5)
 100384c:	40800005 	stb	r2,0(r8)
 1003850:	8005883a 	mov	r2,r16
 1003854:	dfc00117 	ldw	ra,4(sp)
 1003858:	dc000017 	ldw	r16,0(sp)
 100385c:	dec00204 	addi	sp,sp,8
 1003860:	f800283a 	ret
 1003864:	010040b4 	movhi	r4,258
 1003868:	2103f004 	addi	r4,r4,4032
 100386c:	10084dc0 	call	10084dc <_ZSt20__throw_out_of_rangePKc>

01003870 <_ZNSs13_S_copy_charsEPcPKcS1_>:
 1003870:	3147c83a 	sub	r3,r6,r5
 1003874:	00800044 	movi	r2,1
 1003878:	180d883a 	mov	r6,r3
 100387c:	18800126 	beq	r3,r2,1003884 <_ZNSs13_S_copy_charsEPcPKcS1_+0x14>
 1003880:	100aa3c1 	jmpi	100aa3c <memcpy>
 1003884:	28800003 	ldbu	r2,0(r5)
 1003888:	20800005 	stb	r2,0(r4)
 100388c:	f800283a 	ret

01003890 <_ZNSs13_S_copy_charsEPcS_S_>:
 1003890:	3147c83a 	sub	r3,r6,r5
 1003894:	00800044 	movi	r2,1
 1003898:	180d883a 	mov	r6,r3
 100389c:	18800126 	beq	r3,r2,10038a4 <_ZNSs13_S_copy_charsEPcS_S_+0x14>
 10038a0:	100aa3c1 	jmpi	100aa3c <memcpy>
 10038a4:	28800003 	ldbu	r2,0(r5)
 10038a8:	20800005 	stb	r2,0(r4)
 10038ac:	f800283a 	ret

010038b0 <_ZNSs12_S_constructIPcEES0_T_S1_RKSaIcESt20forward_iterator_tag>:
 10038b0:	defffb04 	addi	sp,sp,-20
 10038b4:	dc000015 	stw	r16,0(sp)
 10038b8:	dfc00415 	stw	ra,16(sp)
 10038bc:	dcc00315 	stw	r19,12(sp)
 10038c0:	dc800215 	stw	r18,8(sp)
 10038c4:	dc400115 	stw	r17,4(sp)
 10038c8:	2021883a 	mov	r16,r4
 10038cc:	21401c26 	beq	r4,r5,1003940 <_ZNSs12_S_constructIPcEES0_T_S1_RKSaIcESt20forward_iterator_tag+0x90>
 10038d0:	20002526 	beq	r4,zero,1003968 <_ZNSs12_S_constructIPcEES0_T_S1_RKSaIcESt20forward_iterator_tag+0xb8>
 10038d4:	2c25c83a 	sub	r18,r5,r16
 10038d8:	9009883a 	mov	r4,r18
 10038dc:	000b883a 	mov	r5,zero
 10038e0:	1002adc0 	call	1002adc <_ZNSs4_Rep9_S_createEmmRKSaIcE>
 10038e4:	1023883a 	mov	r17,r2
 10038e8:	14c00304 	addi	r19,r2,12
 10038ec:	00800044 	movi	r2,1
 10038f0:	90801026 	beq	r18,r2,1003934 <_ZNSs12_S_constructIPcEES0_T_S1_RKSaIcESt20forward_iterator_tag+0x84>
 10038f4:	800b883a 	mov	r5,r16
 10038f8:	9809883a 	mov	r4,r19
 10038fc:	900d883a 	mov	r6,r18
 1003900:	100aa3c0 	call	100aa3c <memcpy>
 1003904:	9c85883a 	add	r2,r19,r18
 1003908:	8c800015 	stw	r18,0(r17)
 100390c:	88000215 	stw	zero,8(r17)
 1003910:	10000005 	stb	zero,0(r2)
 1003914:	9805883a 	mov	r2,r19
 1003918:	dfc00417 	ldw	ra,16(sp)
 100391c:	dcc00317 	ldw	r19,12(sp)
 1003920:	dc800217 	ldw	r18,8(sp)
 1003924:	dc400117 	ldw	r17,4(sp)
 1003928:	dc000017 	ldw	r16,0(sp)
 100392c:	dec00504 	addi	sp,sp,20
 1003930:	f800283a 	ret
 1003934:	80800003 	ldbu	r2,0(r16)
 1003938:	88800305 	stb	r2,12(r17)
 100393c:	003ff106 	br	1003904 <_ZNSs12_S_constructIPcEES0_T_S1_RKSaIcESt20forward_iterator_tag+0x54>
 1003940:	04c040f4 	movhi	r19,259
 1003944:	9ce53204 	addi	r19,r19,-27448
 1003948:	9805883a 	mov	r2,r19
 100394c:	dfc00417 	ldw	ra,16(sp)
 1003950:	dcc00317 	ldw	r19,12(sp)
 1003954:	dc800217 	ldw	r18,8(sp)
 1003958:	dc400117 	ldw	r17,4(sp)
 100395c:	dc000017 	ldw	r16,0(sp)
 1003960:	dec00504 	addi	sp,sp,20
 1003964:	f800283a 	ret
 1003968:	010040b4 	movhi	r4,258
 100396c:	2103f504 	addi	r4,r4,4052
 1003970:	10079ec0 	call	10079ec <_ZSt19__throw_logic_errorPKc>

01003974 <_ZNSsC2IPcEET_S1_RKSaIcE>:
 1003974:	defffe04 	addi	sp,sp,-8
 1003978:	dc400015 	stw	r17,0(sp)
 100397c:	2023883a 	mov	r17,r4
 1003980:	2809883a 	mov	r4,r5
 1003984:	300b883a 	mov	r5,r6
 1003988:	380d883a 	mov	r6,r7
 100398c:	dfc00115 	stw	ra,4(sp)
 1003990:	10038b00 	call	10038b0 <_ZNSs12_S_constructIPcEES0_T_S1_RKSaIcESt20forward_iterator_tag>
 1003994:	88800015 	stw	r2,0(r17)
 1003998:	dfc00117 	ldw	ra,4(sp)
 100399c:	dc400017 	ldw	r17,0(sp)
 10039a0:	dec00204 	addi	sp,sp,8
 10039a4:	f800283a 	ret

010039a8 <_ZNSsC1ERKSsmmRKSaIcE>:
 10039a8:	29400017 	ldw	r5,0(r5)
 10039ac:	defffe04 	addi	sp,sp,-8
 10039b0:	dc000015 	stw	r16,0(sp)
 10039b4:	28bffd17 	ldw	r2,-12(r5)
 10039b8:	dfc00115 	stw	ra,4(sp)
 10039bc:	2021883a 	mov	r16,r4
 10039c0:	11800e36 	bltu	r2,r6,10039fc <_ZNSsC1ERKSsmmRKSaIcE+0x54>
 10039c4:	1185c83a 	sub	r2,r2,r6
 10039c8:	2989883a 	add	r4,r5,r6
 10039cc:	11c00936 	bltu	r2,r7,10039f4 <_ZNSsC1ERKSsmmRKSaIcE+0x4c>
 10039d0:	29cb883a 	add	r5,r5,r7
 10039d4:	314b883a 	add	r5,r6,r5
 10039d8:	d9800217 	ldw	r6,8(sp)
 10039dc:	10038b00 	call	10038b0 <_ZNSs12_S_constructIPcEES0_T_S1_RKSaIcESt20forward_iterator_tag>
 10039e0:	80800015 	stw	r2,0(r16)
 10039e4:	dfc00117 	ldw	ra,4(sp)
 10039e8:	dc000017 	ldw	r16,0(sp)
 10039ec:	dec00204 	addi	sp,sp,8
 10039f0:	f800283a 	ret
 10039f4:	100f883a 	mov	r7,r2
 10039f8:	003ff506 	br	10039d0 <_ZNSsC1ERKSsmmRKSaIcE+0x28>
 10039fc:	010040b4 	movhi	r4,258
 1003a00:	21040004 	addi	r4,r4,4096
 1003a04:	10084dc0 	call	10084dc <_ZSt20__throw_out_of_rangePKc>

01003a08 <_ZNSsC2ERKSsmmRKSaIcE>:
 1003a08:	29400017 	ldw	r5,0(r5)
 1003a0c:	defffe04 	addi	sp,sp,-8
 1003a10:	dc000015 	stw	r16,0(sp)
 1003a14:	28bffd17 	ldw	r2,-12(r5)
 1003a18:	dfc00115 	stw	ra,4(sp)
 1003a1c:	2021883a 	mov	r16,r4
 1003a20:	11800e36 	bltu	r2,r6,1003a5c <_ZNSsC2ERKSsmmRKSaIcE+0x54>
 1003a24:	1185c83a 	sub	r2,r2,r6
 1003a28:	2989883a 	add	r4,r5,r6
 1003a2c:	11c00936 	bltu	r2,r7,1003a54 <_ZNSsC2ERKSsmmRKSaIcE+0x4c>
 1003a30:	29cb883a 	add	r5,r5,r7
 1003a34:	314b883a 	add	r5,r6,r5
 1003a38:	d9800217 	ldw	r6,8(sp)
 1003a3c:	10038b00 	call	10038b0 <_ZNSs12_S_constructIPcEES0_T_S1_RKSaIcESt20forward_iterator_tag>
 1003a40:	80800015 	stw	r2,0(r16)
 1003a44:	dfc00117 	ldw	ra,4(sp)
 1003a48:	dc000017 	ldw	r16,0(sp)
 1003a4c:	dec00204 	addi	sp,sp,8
 1003a50:	f800283a 	ret
 1003a54:	100f883a 	mov	r7,r2
 1003a58:	003ff506 	br	1003a30 <_ZNSsC2ERKSsmmRKSaIcE+0x28>
 1003a5c:	010040b4 	movhi	r4,258
 1003a60:	21040004 	addi	r4,r4,4096
 1003a64:	10084dc0 	call	10084dc <_ZSt20__throw_out_of_rangePKc>

01003a68 <_ZNSsC1ERKSsmm>:
 1003a68:	deffea04 	addi	sp,sp,-88
 1003a6c:	00804034 	movhi	r2,256
 1003a70:	109a9704 	addi	r2,r2,27228
 1003a74:	00c040b4 	movhi	r3,258
 1003a78:	18c2d844 	addi	r3,r3,2913
 1003a7c:	d8800715 	stw	r2,28(sp)
 1003a80:	d9000f15 	stw	r4,60(sp)
 1003a84:	00804034 	movhi	r2,256
 1003a88:	108ed104 	addi	r2,r2,15172
 1003a8c:	d9000104 	addi	r4,sp,4
 1003a90:	d8c00815 	stw	r3,32(sp)
 1003a94:	d8800a15 	stw	r2,40(sp)
 1003a98:	d9401015 	stw	r5,64(sp)
 1003a9c:	dfc01515 	stw	ra,84(sp)
 1003aa0:	df001415 	stw	fp,80(sp)
 1003aa4:	ddc01315 	stw	r23,76(sp)
 1003aa8:	dec00915 	stw	sp,36(sp)
 1003aac:	dec00b15 	stw	sp,44(sp)
 1003ab0:	d9801115 	stw	r6,68(sp)
 1003ab4:	d9c01215 	stw	r7,72(sp)
 1003ab8:	1009c1c0 	call	1009c1c <_Unwind_SjLj_Register>
 1003abc:	d8801017 	ldw	r2,64(sp)
 1003ac0:	d8c01117 	ldw	r3,68(sp)
 1003ac4:	11400017 	ldw	r5,0(r2)
 1003ac8:	28bffd17 	ldw	r2,-12(r5)
 1003acc:	10c01836 	bltu	r2,r3,1003b30 <_ZNSsC1ERKSsmm+0xc8>
 1003ad0:	d8c01117 	ldw	r3,68(sp)
 1003ad4:	d9c01217 	ldw	r7,72(sp)
 1003ad8:	10c5c83a 	sub	r2,r2,r3
 1003adc:	28c9883a 	add	r4,r5,r3
 1003ae0:	11c01136 	bltu	r2,r7,1003b28 <_ZNSsC1ERKSsmm+0xc0>
 1003ae4:	00800044 	movi	r2,1
 1003ae8:	d8800215 	stw	r2,8(sp)
 1003aec:	d8801117 	ldw	r2,68(sp)
 1003af0:	29cb883a 	add	r5,r5,r7
 1003af4:	d80d883a 	mov	r6,sp
 1003af8:	114b883a 	add	r5,r2,r5
 1003afc:	d9c00e03 	ldbu	r7,56(sp)
 1003b00:	10038b00 	call	10038b0 <_ZNSs12_S_constructIPcEES0_T_S1_RKSaIcESt20forward_iterator_tag>
 1003b04:	d8c00f17 	ldw	r3,60(sp)
 1003b08:	d9000104 	addi	r4,sp,4
 1003b0c:	18800015 	stw	r2,0(r3)
 1003b10:	1009c2c0 	call	1009c2c <_Unwind_SjLj_Unregister>
 1003b14:	dfc01517 	ldw	ra,84(sp)
 1003b18:	df001417 	ldw	fp,80(sp)
 1003b1c:	ddc01317 	ldw	r23,76(sp)
 1003b20:	dec01604 	addi	sp,sp,88
 1003b24:	f800283a 	ret
 1003b28:	100f883a 	mov	r7,r2
 1003b2c:	003fed06 	br	1003ae4 <_ZNSsC1ERKSsmm+0x7c>
 1003b30:	00bfffc4 	movi	r2,-1
 1003b34:	010040b4 	movhi	r4,258
 1003b38:	21040004 	addi	r4,r4,4096
 1003b3c:	d8800215 	stw	r2,8(sp)
 1003b40:	10084dc0 	call	10084dc <_ZSt20__throw_out_of_rangePKc>
 1003b44:	d9000317 	ldw	r4,12(sp)
 1003b48:	00bfffc4 	movi	r2,-1
 1003b4c:	d8800215 	stw	r2,8(sp)
 1003b50:	1009ee80 	call	1009ee8 <_Unwind_SjLj_Resume>

01003b54 <_ZNKSs6substrEmm>:
 1003b54:	28c00017 	ldw	r3,0(r5)
 1003b58:	defffe04 	addi	sp,sp,-8
 1003b5c:	dc000015 	stw	r16,0(sp)
 1003b60:	18bffd17 	ldw	r2,-12(r3)
 1003b64:	dfc00115 	stw	ra,4(sp)
 1003b68:	2021883a 	mov	r16,r4
 1003b6c:	11800636 	bltu	r2,r6,1003b88 <_ZNKSs6substrEmm+0x34>
 1003b70:	1003a680 	call	1003a68 <_ZNSsC1ERKSsmm>
 1003b74:	8005883a 	mov	r2,r16
 1003b78:	dfc00117 	ldw	ra,4(sp)
 1003b7c:	dc000017 	ldw	r16,0(sp)
 1003b80:	dec00204 	addi	sp,sp,8
 1003b84:	f800283a 	ret
 1003b88:	010040b4 	movhi	r4,258
 1003b8c:	21040704 	addi	r4,r4,4124
 1003b90:	10084dc0 	call	10084dc <_ZSt20__throw_out_of_rangePKc>

01003b94 <_ZNSsC2ERKSsmm>:
 1003b94:	deffea04 	addi	sp,sp,-88
 1003b98:	00804034 	movhi	r2,256
 1003b9c:	109a9704 	addi	r2,r2,27228
 1003ba0:	00c040b4 	movhi	r3,258
 1003ba4:	18c2d9c4 	addi	r3,r3,2919
 1003ba8:	d8800715 	stw	r2,28(sp)
 1003bac:	d9000f15 	stw	r4,60(sp)
 1003bb0:	00804034 	movhi	r2,256
 1003bb4:	108f1c04 	addi	r2,r2,15472
 1003bb8:	d9000104 	addi	r4,sp,4
 1003bbc:	d8c00815 	stw	r3,32(sp)
 1003bc0:	d8800a15 	stw	r2,40(sp)
 1003bc4:	d9401015 	stw	r5,64(sp)
 1003bc8:	dfc01515 	stw	ra,84(sp)
 1003bcc:	df001415 	stw	fp,80(sp)
 1003bd0:	ddc01315 	stw	r23,76(sp)
 1003bd4:	dec00915 	stw	sp,36(sp)
 1003bd8:	dec00b15 	stw	sp,44(sp)
 1003bdc:	d9801115 	stw	r6,68(sp)
 1003be0:	d9c01215 	stw	r7,72(sp)
 1003be4:	1009c1c0 	call	1009c1c <_Unwind_SjLj_Register>
 1003be8:	d8801017 	ldw	r2,64(sp)
 1003bec:	d8c01117 	ldw	r3,68(sp)
 1003bf0:	11400017 	ldw	r5,0(r2)
 1003bf4:	28bffd17 	ldw	r2,-12(r5)
 1003bf8:	10c01836 	bltu	r2,r3,1003c5c <_ZNSsC2ERKSsmm+0xc8>
 1003bfc:	d8c01117 	ldw	r3,68(sp)
 1003c00:	d9c01217 	ldw	r7,72(sp)
 1003c04:	10c5c83a 	sub	r2,r2,r3
 1003c08:	28c9883a 	add	r4,r5,r3
 1003c0c:	11c01136 	bltu	r2,r7,1003c54 <_ZNSsC2ERKSsmm+0xc0>
 1003c10:	00800044 	movi	r2,1
 1003c14:	d8800215 	stw	r2,8(sp)
 1003c18:	d8801117 	ldw	r2,68(sp)
 1003c1c:	29cb883a 	add	r5,r5,r7
 1003c20:	d80d883a 	mov	r6,sp
 1003c24:	114b883a 	add	r5,r2,r5
 1003c28:	d9c00e03 	ldbu	r7,56(sp)
 1003c2c:	10038b00 	call	10038b0 <_ZNSs12_S_constructIPcEES0_T_S1_RKSaIcESt20forward_iterator_tag>
 1003c30:	d8c00f17 	ldw	r3,60(sp)
 1003c34:	d9000104 	addi	r4,sp,4
 1003c38:	18800015 	stw	r2,0(r3)
 1003c3c:	1009c2c0 	call	1009c2c <_Unwind_SjLj_Unregister>
 1003c40:	dfc01517 	ldw	ra,84(sp)
 1003c44:	df001417 	ldw	fp,80(sp)
 1003c48:	ddc01317 	ldw	r23,76(sp)
 1003c4c:	dec01604 	addi	sp,sp,88
 1003c50:	f800283a 	ret
 1003c54:	100f883a 	mov	r7,r2
 1003c58:	003fed06 	br	1003c10 <_ZNSsC2ERKSsmm+0x7c>
 1003c5c:	00bfffc4 	movi	r2,-1
 1003c60:	010040b4 	movhi	r4,258
 1003c64:	21040004 	addi	r4,r4,4096
 1003c68:	d8800215 	stw	r2,8(sp)
 1003c6c:	10084dc0 	call	10084dc <_ZSt20__throw_out_of_rangePKc>
 1003c70:	d9000317 	ldw	r4,12(sp)
 1003c74:	00bfffc4 	movi	r2,-1
 1003c78:	d8800215 	stw	r2,8(sp)
 1003c7c:	1009ee80 	call	1009ee8 <_Unwind_SjLj_Resume>

01003c80 <_ZNSsC1IPcEET_S1_RKSaIcE>:
 1003c80:	defffe04 	addi	sp,sp,-8
 1003c84:	dc400015 	stw	r17,0(sp)
 1003c88:	2023883a 	mov	r17,r4
 1003c8c:	2809883a 	mov	r4,r5
 1003c90:	300b883a 	mov	r5,r6
 1003c94:	380d883a 	mov	r6,r7
 1003c98:	dfc00115 	stw	ra,4(sp)
 1003c9c:	10038b00 	call	10038b0 <_ZNSs12_S_constructIPcEES0_T_S1_RKSaIcESt20forward_iterator_tag>
 1003ca0:	88800015 	stw	r2,0(r17)
 1003ca4:	dfc00117 	ldw	ra,4(sp)
 1003ca8:	dc400017 	ldw	r17,0(sp)
 1003cac:	dec00204 	addi	sp,sp,8
 1003cb0:	f800283a 	ret

01003cb4 <_ZNSs13_S_copy_charsEPcN9__gnu_cxx17__normal_iteratorIS_SsEES2_>:
 1003cb4:	3147c83a 	sub	r3,r6,r5
 1003cb8:	00800044 	movi	r2,1
 1003cbc:	180d883a 	mov	r6,r3
 1003cc0:	18800126 	beq	r3,r2,1003cc8 <_ZNSs13_S_copy_charsEPcN9__gnu_cxx17__normal_iteratorIS_SsEES2_+0x14>
 1003cc4:	100aa3c1 	jmpi	100aa3c <memcpy>
 1003cc8:	28800003 	ldbu	r2,0(r5)
 1003ccc:	20800005 	stb	r2,0(r4)
 1003cd0:	f800283a 	ret

01003cd4 <_ZNSs12_S_constructIPKcEEPcT_S3_RKSaIcESt20forward_iterator_tag>:
 1003cd4:	defffb04 	addi	sp,sp,-20
 1003cd8:	dc000015 	stw	r16,0(sp)
 1003cdc:	dfc00415 	stw	ra,16(sp)
 1003ce0:	dcc00315 	stw	r19,12(sp)
 1003ce4:	dc800215 	stw	r18,8(sp)
 1003ce8:	dc400115 	stw	r17,4(sp)
 1003cec:	2021883a 	mov	r16,r4
 1003cf0:	21401c26 	beq	r4,r5,1003d64 <_ZNSs12_S_constructIPKcEEPcT_S3_RKSaIcESt20forward_iterator_tag+0x90>
 1003cf4:	20002526 	beq	r4,zero,1003d8c <_ZNSs12_S_constructIPKcEEPcT_S3_RKSaIcESt20forward_iterator_tag+0xb8>
 1003cf8:	2c25c83a 	sub	r18,r5,r16
 1003cfc:	9009883a 	mov	r4,r18
 1003d00:	000b883a 	mov	r5,zero
 1003d04:	1002adc0 	call	1002adc <_ZNSs4_Rep9_S_createEmmRKSaIcE>
 1003d08:	1023883a 	mov	r17,r2
 1003d0c:	14c00304 	addi	r19,r2,12
 1003d10:	00800044 	movi	r2,1
 1003d14:	90801026 	beq	r18,r2,1003d58 <_ZNSs12_S_constructIPKcEEPcT_S3_RKSaIcESt20forward_iterator_tag+0x84>
 1003d18:	800b883a 	mov	r5,r16
 1003d1c:	9809883a 	mov	r4,r19
 1003d20:	900d883a 	mov	r6,r18
 1003d24:	100aa3c0 	call	100aa3c <memcpy>
 1003d28:	9c85883a 	add	r2,r19,r18
 1003d2c:	8c800015 	stw	r18,0(r17)
 1003d30:	88000215 	stw	zero,8(r17)
 1003d34:	10000005 	stb	zero,0(r2)
 1003d38:	9805883a 	mov	r2,r19
 1003d3c:	dfc00417 	ldw	ra,16(sp)
 1003d40:	dcc00317 	ldw	r19,12(sp)
 1003d44:	dc800217 	ldw	r18,8(sp)
 1003d48:	dc400117 	ldw	r17,4(sp)
 1003d4c:	dc000017 	ldw	r16,0(sp)
 1003d50:	dec00504 	addi	sp,sp,20
 1003d54:	f800283a 	ret
 1003d58:	80800003 	ldbu	r2,0(r16)
 1003d5c:	88800305 	stb	r2,12(r17)
 1003d60:	003ff106 	br	1003d28 <_ZNSs12_S_constructIPKcEEPcT_S3_RKSaIcESt20forward_iterator_tag+0x54>
 1003d64:	04c040f4 	movhi	r19,259
 1003d68:	9ce53204 	addi	r19,r19,-27448
 1003d6c:	9805883a 	mov	r2,r19
 1003d70:	dfc00417 	ldw	ra,16(sp)
 1003d74:	dcc00317 	ldw	r19,12(sp)
 1003d78:	dc800217 	ldw	r18,8(sp)
 1003d7c:	dc400117 	ldw	r17,4(sp)
 1003d80:	dc000017 	ldw	r16,0(sp)
 1003d84:	dec00504 	addi	sp,sp,20
 1003d88:	f800283a 	ret
 1003d8c:	010040b4 	movhi	r4,258
 1003d90:	2103f504 	addi	r4,r4,4052
 1003d94:	10079ec0 	call	10079ec <_ZSt19__throw_logic_errorPKc>

01003d98 <_ZNSsC2IPKcEET_S2_RKSaIcE>:
 1003d98:	defffe04 	addi	sp,sp,-8
 1003d9c:	dc400015 	stw	r17,0(sp)
 1003da0:	2023883a 	mov	r17,r4
 1003da4:	2809883a 	mov	r4,r5
 1003da8:	300b883a 	mov	r5,r6
 1003dac:	380d883a 	mov	r6,r7
 1003db0:	dfc00115 	stw	ra,4(sp)
 1003db4:	1003cd40 	call	1003cd4 <_ZNSs12_S_constructIPKcEEPcT_S3_RKSaIcESt20forward_iterator_tag>
 1003db8:	88800015 	stw	r2,0(r17)
 1003dbc:	dfc00117 	ldw	ra,4(sp)
 1003dc0:	dc400017 	ldw	r17,0(sp)
 1003dc4:	dec00204 	addi	sp,sp,8
 1003dc8:	f800283a 	ret

01003dcc <_ZNSsC1EPKcmRKSaIcE>:
 1003dcc:	defffe04 	addi	sp,sp,-8
 1003dd0:	dc400015 	stw	r17,0(sp)
 1003dd4:	2023883a 	mov	r17,r4
 1003dd8:	2809883a 	mov	r4,r5
 1003ddc:	314b883a 	add	r5,r6,r5
 1003de0:	380d883a 	mov	r6,r7
 1003de4:	dfc00115 	stw	ra,4(sp)
 1003de8:	1003cd40 	call	1003cd4 <_ZNSs12_S_constructIPKcEEPcT_S3_RKSaIcESt20forward_iterator_tag>
 1003dec:	88800015 	stw	r2,0(r17)
 1003df0:	dfc00117 	ldw	ra,4(sp)
 1003df4:	dc400017 	ldw	r17,0(sp)
 1003df8:	dec00204 	addi	sp,sp,8
 1003dfc:	f800283a 	ret

01003e00 <_ZNSsC2EPKcmRKSaIcE>:
 1003e00:	defffe04 	addi	sp,sp,-8
 1003e04:	dc400015 	stw	r17,0(sp)
 1003e08:	2023883a 	mov	r17,r4
 1003e0c:	2809883a 	mov	r4,r5
 1003e10:	314b883a 	add	r5,r6,r5
 1003e14:	380d883a 	mov	r6,r7
 1003e18:	dfc00115 	stw	ra,4(sp)
 1003e1c:	1003cd40 	call	1003cd4 <_ZNSs12_S_constructIPKcEEPcT_S3_RKSaIcESt20forward_iterator_tag>
 1003e20:	88800015 	stw	r2,0(r17)
 1003e24:	dfc00117 	ldw	ra,4(sp)
 1003e28:	dc400017 	ldw	r17,0(sp)
 1003e2c:	dec00204 	addi	sp,sp,8
 1003e30:	f800283a 	ret

01003e34 <_ZNSsC1IPKcEET_S2_RKSaIcE>:
 1003e34:	defffe04 	addi	sp,sp,-8
 1003e38:	dc400015 	stw	r17,0(sp)
 1003e3c:	2023883a 	mov	r17,r4
 1003e40:	2809883a 	mov	r4,r5
 1003e44:	300b883a 	mov	r5,r6
 1003e48:	380d883a 	mov	r6,r7
 1003e4c:	dfc00115 	stw	ra,4(sp)
 1003e50:	1003cd40 	call	1003cd4 <_ZNSs12_S_constructIPKcEEPcT_S3_RKSaIcESt20forward_iterator_tag>
 1003e54:	88800015 	stw	r2,0(r17)
 1003e58:	dfc00117 	ldw	ra,4(sp)
 1003e5c:	dc400017 	ldw	r17,0(sp)
 1003e60:	dec00204 	addi	sp,sp,8
 1003e64:	f800283a 	ret

01003e68 <_ZNSsC1EPKcRKSaIcE>:
 1003e68:	defffc04 	addi	sp,sp,-16
 1003e6c:	dc400215 	stw	r17,8(sp)
 1003e70:	dc000115 	stw	r16,4(sp)
 1003e74:	2023883a 	mov	r17,r4
 1003e78:	dfc00315 	stw	ra,12(sp)
 1003e7c:	00bfffc4 	movi	r2,-1
 1003e80:	2809883a 	mov	r4,r5
 1003e84:	3021883a 	mov	r16,r6
 1003e88:	28000426 	beq	r5,zero,1003e9c <_ZNSsC1EPKcRKSaIcE+0x34>
 1003e8c:	d9400015 	stw	r5,0(sp)
 1003e90:	100b1640 	call	100b164 <strlen>
 1003e94:	d9400017 	ldw	r5,0(sp)
 1003e98:	2885883a 	add	r2,r5,r2
 1003e9c:	2809883a 	mov	r4,r5
 1003ea0:	800d883a 	mov	r6,r16
 1003ea4:	100b883a 	mov	r5,r2
 1003ea8:	800f883a 	mov	r7,r16
 1003eac:	1003cd40 	call	1003cd4 <_ZNSs12_S_constructIPKcEEPcT_S3_RKSaIcESt20forward_iterator_tag>
 1003eb0:	88800015 	stw	r2,0(r17)
 1003eb4:	dfc00317 	ldw	ra,12(sp)
 1003eb8:	dc400217 	ldw	r17,8(sp)
 1003ebc:	dc000117 	ldw	r16,4(sp)
 1003ec0:	dec00404 	addi	sp,sp,16
 1003ec4:	f800283a 	ret

01003ec8 <_ZNSsC2EPKcRKSaIcE>:
 1003ec8:	defffc04 	addi	sp,sp,-16
 1003ecc:	dc400215 	stw	r17,8(sp)
 1003ed0:	dc000115 	stw	r16,4(sp)
 1003ed4:	2023883a 	mov	r17,r4
 1003ed8:	dfc00315 	stw	ra,12(sp)
 1003edc:	00bfffc4 	movi	r2,-1
 1003ee0:	2809883a 	mov	r4,r5
 1003ee4:	3021883a 	mov	r16,r6
 1003ee8:	28000426 	beq	r5,zero,1003efc <_ZNSsC2EPKcRKSaIcE+0x34>
 1003eec:	d9400015 	stw	r5,0(sp)
 1003ef0:	100b1640 	call	100b164 <strlen>
 1003ef4:	d9400017 	ldw	r5,0(sp)
 1003ef8:	2885883a 	add	r2,r5,r2
 1003efc:	2809883a 	mov	r4,r5
 1003f00:	800d883a 	mov	r6,r16
 1003f04:	100b883a 	mov	r5,r2
 1003f08:	800f883a 	mov	r7,r16
 1003f0c:	1003cd40 	call	1003cd4 <_ZNSs12_S_constructIPKcEEPcT_S3_RKSaIcESt20forward_iterator_tag>
 1003f10:	88800015 	stw	r2,0(r17)
 1003f14:	dfc00317 	ldw	ra,12(sp)
 1003f18:	dc400217 	ldw	r17,8(sp)
 1003f1c:	dc000117 	ldw	r16,4(sp)
 1003f20:	dec00404 	addi	sp,sp,16
 1003f24:	f800283a 	ret

01003f28 <_ZNSs13_S_copy_charsEPcN9__gnu_cxx17__normal_iteratorIPKcSsEES4_>:
 1003f28:	3147c83a 	sub	r3,r6,r5
 1003f2c:	00800044 	movi	r2,1
 1003f30:	180d883a 	mov	r6,r3
 1003f34:	18800126 	beq	r3,r2,1003f3c <_ZNSs13_S_copy_charsEPcN9__gnu_cxx17__normal_iteratorIPKcSsEES4_+0x14>
 1003f38:	100aa3c1 	jmpi	100aa3c <memcpy>
 1003f3c:	28800003 	ldbu	r2,0(r5)
 1003f40:	20800005 	stb	r2,0(r4)
 1003f44:	f800283a 	ret

01003f48 <_ZNSs12_S_constructIN9__gnu_cxx17__normal_iteratorIPcSsEEEES2_T_S4_RKSaIcESt20forward_iterator_tag>:
 1003f48:	defffb04 	addi	sp,sp,-20
 1003f4c:	dc000015 	stw	r16,0(sp)
 1003f50:	dfc00415 	stw	ra,16(sp)
 1003f54:	dcc00315 	stw	r19,12(sp)
 1003f58:	dc800215 	stw	r18,8(sp)
 1003f5c:	dc400115 	stw	r17,4(sp)
 1003f60:	2021883a 	mov	r16,r4
 1003f64:	29000a1e 	bne	r5,r4,1003f90 <_ZNSs12_S_constructIN9__gnu_cxx17__normal_iteratorIPcSsEEEES2_T_S4_RKSaIcESt20forward_iterator_tag+0x48>
 1003f68:	04c040f4 	movhi	r19,259
 1003f6c:	9ce53204 	addi	r19,r19,-27448
 1003f70:	9805883a 	mov	r2,r19
 1003f74:	dfc00417 	ldw	ra,16(sp)
 1003f78:	dcc00317 	ldw	r19,12(sp)
 1003f7c:	dc800217 	ldw	r18,8(sp)
 1003f80:	dc400117 	ldw	r17,4(sp)
 1003f84:	dc000017 	ldw	r16,0(sp)
 1003f88:	dec00504 	addi	sp,sp,20
 1003f8c:	f800283a 	ret
 1003f90:	2923c83a 	sub	r17,r5,r4
 1003f94:	8809883a 	mov	r4,r17
 1003f98:	000b883a 	mov	r5,zero
 1003f9c:	1002adc0 	call	1002adc <_ZNSs4_Rep9_S_createEmmRKSaIcE>
 1003fa0:	1025883a 	mov	r18,r2
 1003fa4:	14c00304 	addi	r19,r2,12
 1003fa8:	00800044 	movi	r2,1
 1003fac:	88801026 	beq	r17,r2,1003ff0 <_ZNSs12_S_constructIN9__gnu_cxx17__normal_iteratorIPcSsEEEES2_T_S4_RKSaIcESt20forward_iterator_tag+0xa8>
 1003fb0:	800b883a 	mov	r5,r16
 1003fb4:	9809883a 	mov	r4,r19
 1003fb8:	880d883a 	mov	r6,r17
 1003fbc:	100aa3c0 	call	100aa3c <memcpy>
 1003fc0:	9c45883a 	add	r2,r19,r17
 1003fc4:	94400015 	stw	r17,0(r18)
 1003fc8:	90000215 	stw	zero,8(r18)
 1003fcc:	10000005 	stb	zero,0(r2)
 1003fd0:	9805883a 	mov	r2,r19
 1003fd4:	dfc00417 	ldw	ra,16(sp)
 1003fd8:	dcc00317 	ldw	r19,12(sp)
 1003fdc:	dc800217 	ldw	r18,8(sp)
 1003fe0:	dc400117 	ldw	r17,4(sp)
 1003fe4:	dc000017 	ldw	r16,0(sp)
 1003fe8:	dec00504 	addi	sp,sp,20
 1003fec:	f800283a 	ret
 1003ff0:	80800003 	ldbu	r2,0(r16)
 1003ff4:	98800005 	stb	r2,0(r19)
 1003ff8:	003ff106 	br	1003fc0 <_ZNSs12_S_constructIN9__gnu_cxx17__normal_iteratorIPcSsEEEES2_T_S4_RKSaIcESt20forward_iterator_tag+0x78>

01003ffc <_ZNSsC2IN9__gnu_cxx17__normal_iteratorIPcSsEEEET_S4_RKSaIcE>:
 1003ffc:	defffe04 	addi	sp,sp,-8
 1004000:	dc400015 	stw	r17,0(sp)
 1004004:	2023883a 	mov	r17,r4
 1004008:	2809883a 	mov	r4,r5
 100400c:	300b883a 	mov	r5,r6
 1004010:	380d883a 	mov	r6,r7
 1004014:	dfc00115 	stw	ra,4(sp)
 1004018:	1003f480 	call	1003f48 <_ZNSs12_S_constructIN9__gnu_cxx17__normal_iteratorIPcSsEEEES2_T_S4_RKSaIcESt20forward_iterator_tag>
 100401c:	88800015 	stw	r2,0(r17)
 1004020:	dfc00117 	ldw	ra,4(sp)
 1004024:	dc400017 	ldw	r17,0(sp)
 1004028:	dec00204 	addi	sp,sp,8
 100402c:	f800283a 	ret

01004030 <_ZNSsC1IN9__gnu_cxx17__normal_iteratorIPcSsEEEET_S4_RKSaIcE>:
 1004030:	defffe04 	addi	sp,sp,-8
 1004034:	dc400015 	stw	r17,0(sp)
 1004038:	2023883a 	mov	r17,r4
 100403c:	2809883a 	mov	r4,r5
 1004040:	300b883a 	mov	r5,r6
 1004044:	380d883a 	mov	r6,r7
 1004048:	dfc00115 	stw	ra,4(sp)
 100404c:	1003f480 	call	1003f48 <_ZNSs12_S_constructIN9__gnu_cxx17__normal_iteratorIPcSsEEEES2_T_S4_RKSaIcESt20forward_iterator_tag>
 1004050:	88800015 	stw	r2,0(r17)
 1004054:	dfc00117 	ldw	ra,4(sp)
 1004058:	dc400017 	ldw	r17,0(sp)
 100405c:	dec00204 	addi	sp,sp,8
 1004060:	f800283a 	ret

01004064 <_ZNSsC1ERKSs>:
 1004064:	deffec04 	addi	sp,sp,-80
 1004068:	00804034 	movhi	r2,256
 100406c:	109a9704 	addi	r2,r2,27228
 1004070:	d8800715 	stw	r2,28(sp)
 1004074:	00c040b4 	movhi	r3,258
 1004078:	18c2dc04 	addi	r3,r3,2928
 100407c:	00804034 	movhi	r2,256
 1004080:	10904a04 	addi	r2,r2,16680
 1004084:	d9000e15 	stw	r4,56(sp)
 1004088:	d9000104 	addi	r4,sp,4
 100408c:	d8800a15 	stw	r2,40(sp)
 1004090:	dfc01315 	stw	ra,76(sp)
 1004094:	df001215 	stw	fp,72(sp)
 1004098:	ddc01115 	stw	r23,68(sp)
 100409c:	d8c00815 	stw	r3,32(sp)
 10040a0:	d9400f15 	stw	r5,60(sp)
 10040a4:	dec00915 	stw	sp,36(sp)
 10040a8:	dec00b15 	stw	sp,44(sp)
 10040ac:	1009c1c0 	call	1009c1c <_Unwind_SjLj_Register>
 10040b0:	d8800f17 	ldw	r2,60(sp)
 10040b4:	10800017 	ldw	r2,0(r2)
 10040b8:	113ffd04 	addi	r4,r2,-12
 10040bc:	d8801015 	stw	r2,64(sp)
 10040c0:	20800217 	ldw	r2,8(r4)
 10040c4:	10000d16 	blt	r2,zero,10040fc <_ZNSsC1ERKSs+0x98>
 10040c8:	008040f4 	movhi	r2,259
 10040cc:	10a52f04 	addi	r2,r2,-27460
 10040d0:	2080101e 	bne	r4,r2,1004114 <_ZNSsC1ERKSs+0xb0>
 10040d4:	d8801017 	ldw	r2,64(sp)
 10040d8:	d8c00e17 	ldw	r3,56(sp)
 10040dc:	d9000104 	addi	r4,sp,4
 10040e0:	18800015 	stw	r2,0(r3)
 10040e4:	1009c2c0 	call	1009c2c <_Unwind_SjLj_Unregister>
 10040e8:	dfc01317 	ldw	ra,76(sp)
 10040ec:	df001217 	ldw	fp,72(sp)
 10040f0:	ddc01117 	ldw	r23,68(sp)
 10040f4:	dec01404 	addi	sp,sp,80
 10040f8:	f800283a 	ret
 10040fc:	00800084 	movi	r2,2
 1004100:	d8800215 	stw	r2,8(sp)
 1004104:	d80b883a 	mov	r5,sp
 1004108:	000d883a 	mov	r6,zero
 100410c:	10036480 	call	1003648 <_ZNSs4_Rep8_M_cloneERKSaIcEm>
 1004110:	003ff106 	br	10040d8 <_ZNSsC1ERKSs+0x74>
 1004114:	01400044 	movi	r5,1
 1004118:	d9400215 	stw	r5,8(sp)
 100411c:	21000204 	addi	r4,r4,8
 1004120:	10061900 	call	1006190 <_ZN9__gnu_cxx12__atomic_addEPVii>
 1004124:	003feb06 	br	10040d4 <_ZNSsC1ERKSs+0x70>
 1004128:	d8c00217 	ldw	r3,8(sp)
 100412c:	00800044 	movi	r2,1
 1004130:	d9000317 	ldw	r4,12(sp)
 1004134:	d9400417 	ldw	r5,16(sp)
 1004138:	18800426 	beq	r3,r2,100414c <_ZNSsC1ERKSs+0xe8>
 100413c:	00bfffc4 	movi	r2,-1
 1004140:	28800426 	beq	r5,r2,1004154 <_ZNSsC1ERKSs+0xf0>
 1004144:	d8800215 	stw	r2,8(sp)
 1004148:	1009ee80 	call	1009ee8 <_Unwind_SjLj_Resume>
 100414c:	00bfffc4 	movi	r2,-1
 1004150:	003ffc06 	br	1004144 <_ZNSsC1ERKSs+0xe0>
 1004154:	00bfffc4 	movi	r2,-1
 1004158:	d8800215 	stw	r2,8(sp)
 100415c:	10068dc0 	call	10068dc <__cxa_call_unexpected>

01004160 <_ZNSsC2ERKSs>:
 1004160:	deffec04 	addi	sp,sp,-80
 1004164:	00804034 	movhi	r2,256
 1004168:	109a9704 	addi	r2,r2,27228
 100416c:	d8800715 	stw	r2,28(sp)
 1004170:	00c040b4 	movhi	r3,258
 1004174:	18c2e004 	addi	r3,r3,2944
 1004178:	00804034 	movhi	r2,256
 100417c:	10908904 	addi	r2,r2,16932
 1004180:	d9000e15 	stw	r4,56(sp)
 1004184:	d9000104 	addi	r4,sp,4
 1004188:	d8800a15 	stw	r2,40(sp)
 100418c:	dfc01315 	stw	ra,76(sp)
 1004190:	df001215 	stw	fp,72(sp)
 1004194:	ddc01115 	stw	r23,68(sp)
 1004198:	d8c00815 	stw	r3,32(sp)
 100419c:	d9400f15 	stw	r5,60(sp)
 10041a0:	dec00915 	stw	sp,36(sp)
 10041a4:	dec00b15 	stw	sp,44(sp)
 10041a8:	1009c1c0 	call	1009c1c <_Unwind_SjLj_Register>
 10041ac:	d8800f17 	ldw	r2,60(sp)
 10041b0:	10800017 	ldw	r2,0(r2)
 10041b4:	113ffd04 	addi	r4,r2,-12
 10041b8:	d8801015 	stw	r2,64(sp)
 10041bc:	20800217 	ldw	r2,8(r4)
 10041c0:	10000d16 	blt	r2,zero,10041f8 <_ZNSsC2ERKSs+0x98>
 10041c4:	008040f4 	movhi	r2,259
 10041c8:	10a52f04 	addi	r2,r2,-27460
 10041cc:	2080101e 	bne	r4,r2,1004210 <_ZNSsC2ERKSs+0xb0>
 10041d0:	d8801017 	ldw	r2,64(sp)
 10041d4:	d8c00e17 	ldw	r3,56(sp)
 10041d8:	d9000104 	addi	r4,sp,4
 10041dc:	18800015 	stw	r2,0(r3)
 10041e0:	1009c2c0 	call	1009c2c <_Unwind_SjLj_Unregister>
 10041e4:	dfc01317 	ldw	ra,76(sp)
 10041e8:	df001217 	ldw	fp,72(sp)
 10041ec:	ddc01117 	ldw	r23,68(sp)
 10041f0:	dec01404 	addi	sp,sp,80
 10041f4:	f800283a 	ret
 10041f8:	00800084 	movi	r2,2
 10041fc:	d8800215 	stw	r2,8(sp)
 1004200:	d80b883a 	mov	r5,sp
 1004204:	000d883a 	mov	r6,zero
 1004208:	10036480 	call	1003648 <_ZNSs4_Rep8_M_cloneERKSaIcEm>
 100420c:	003ff106 	br	10041d4 <_ZNSsC2ERKSs+0x74>
 1004210:	01400044 	movi	r5,1
 1004214:	d9400215 	stw	r5,8(sp)
 1004218:	21000204 	addi	r4,r4,8
 100421c:	10061900 	call	1006190 <_ZN9__gnu_cxx12__atomic_addEPVii>
 1004220:	003feb06 	br	10041d0 <_ZNSsC2ERKSs+0x70>
 1004224:	d8c00217 	ldw	r3,8(sp)
 1004228:	00800044 	movi	r2,1
 100422c:	d9000317 	ldw	r4,12(sp)
 1004230:	d9400417 	ldw	r5,16(sp)
 1004234:	18800426 	beq	r3,r2,1004248 <_ZNSsC2ERKSs+0xe8>
 1004238:	00bfffc4 	movi	r2,-1
 100423c:	28800426 	beq	r5,r2,1004250 <_ZNSsC2ERKSs+0xf0>
 1004240:	d8800215 	stw	r2,8(sp)
 1004244:	1009ee80 	call	1009ee8 <_Unwind_SjLj_Resume>
 1004248:	00bfffc4 	movi	r2,-1
 100424c:	003ffc06 	br	1004240 <_ZNSsC2ERKSs+0xe0>
 1004250:	00bfffc4 	movi	r2,-1
 1004254:	d8800215 	stw	r2,8(sp)
 1004258:	10068dc0 	call	10068dc <__cxa_call_unexpected>

0100425c <_ZNSs6assignERKSs>:
 100425c:	deffea04 	addi	sp,sp,-88
 1004260:	00804034 	movhi	r2,256
 1004264:	109a9704 	addi	r2,r2,27228
 1004268:	00c040b4 	movhi	r3,258
 100426c:	18c2e404 	addi	r3,r3,2960
 1004270:	d8800715 	stw	r2,28(sp)
 1004274:	d9001015 	stw	r4,64(sp)
 1004278:	00804034 	movhi	r2,256
 100427c:	1090e404 	addi	r2,r2,17296
 1004280:	d9000104 	addi	r4,sp,4
 1004284:	d8c00815 	stw	r3,32(sp)
 1004288:	d8800a15 	stw	r2,40(sp)
 100428c:	d9401115 	stw	r5,68(sp)
 1004290:	dfc01515 	stw	ra,84(sp)
 1004294:	df001415 	stw	fp,80(sp)
 1004298:	ddc01315 	stw	r23,76(sp)
 100429c:	dec00915 	stw	sp,36(sp)
 10042a0:	dec00b15 	stw	sp,44(sp)
 10042a4:	1009c1c0 	call	1009c1c <_Unwind_SjLj_Register>
 10042a8:	d8801117 	ldw	r2,68(sp)
 10042ac:	d8c01017 	ldw	r3,64(sp)
 10042b0:	10800017 	ldw	r2,0(r2)
 10042b4:	d8801215 	stw	r2,72(sp)
 10042b8:	d9401217 	ldw	r5,72(sp)
 10042bc:	18800017 	ldw	r2,0(r3)
 10042c0:	00fffd04 	movi	r3,-12
 10042c4:	28c9883a 	add	r4,r5,r3
 10042c8:	10c5883a 	add	r2,r2,r3
 10042cc:	11001126 	beq	r2,r4,1004314 <_ZNSs6assignERKSs+0xb8>
 10042d0:	20800217 	ldw	r2,8(r4)
 10042d4:	10001716 	blt	r2,zero,1004334 <_ZNSs6assignERKSs+0xd8>
 10042d8:	008040f4 	movhi	r2,259
 10042dc:	10a52f04 	addi	r2,r2,-27460
 10042e0:	2080261e 	bne	r4,r2,100437c <_ZNSs6assignERKSs+0x120>
 10042e4:	d8c01217 	ldw	r3,72(sp)
 10042e8:	d8c00f15 	stw	r3,60(sp)
 10042ec:	d9401017 	ldw	r5,64(sp)
 10042f0:	00c040f4 	movhi	r3,259
 10042f4:	18e52f04 	addi	r3,r3,-27460
 10042f8:	28800017 	ldw	r2,0(r5)
 10042fc:	10bffd04 	addi	r2,r2,-12
 1004300:	d8800e15 	stw	r2,56(sp)
 1004304:	10c0121e 	bne	r2,r3,1004350 <_ZNSs6assignERKSs+0xf4>
 1004308:	d8c00f17 	ldw	r3,60(sp)
 100430c:	d8801017 	ldw	r2,64(sp)
 1004310:	10c00015 	stw	r3,0(r2)
 1004314:	d9000104 	addi	r4,sp,4
 1004318:	1009c2c0 	call	1009c2c <_Unwind_SjLj_Unregister>
 100431c:	d8801017 	ldw	r2,64(sp)
 1004320:	dfc01517 	ldw	ra,84(sp)
 1004324:	df001417 	ldw	fp,80(sp)
 1004328:	ddc01317 	ldw	r23,76(sp)
 100432c:	dec01604 	addi	sp,sp,88
 1004330:	f800283a 	ret
 1004334:	00800084 	movi	r2,2
 1004338:	d8800215 	stw	r2,8(sp)
 100433c:	d80b883a 	mov	r5,sp
 1004340:	000d883a 	mov	r6,zero
 1004344:	10036480 	call	1003648 <_ZNSs4_Rep8_M_cloneERKSaIcEm>
 1004348:	d8800f15 	stw	r2,60(sp)
 100434c:	003fe706 	br	10042ec <_ZNSs6assignERKSs+0x90>
 1004350:	d9400e17 	ldw	r5,56(sp)
 1004354:	008000c4 	movi	r2,3
 1004358:	d8800215 	stw	r2,8(sp)
 100435c:	29000204 	addi	r4,r5,8
 1004360:	017fffc4 	movi	r5,-1
 1004364:	100617c0 	call	100617c <_ZN9__gnu_cxx18__exchange_and_addEPVii>
 1004368:	00bfe716 	blt	zero,r2,1004308 <_ZNSs6assignERKSs+0xac>
 100436c:	d9000e17 	ldw	r4,56(sp)
 1004370:	d80b883a 	mov	r5,sp
 1004374:	1002c0c0 	call	1002c0c <_ZNSs4_Rep10_M_destroyERKSaIcE>
 1004378:	003fe306 	br	1004308 <_ZNSs6assignERKSs+0xac>
 100437c:	01400044 	movi	r5,1
 1004380:	d9400215 	stw	r5,8(sp)
 1004384:	21000204 	addi	r4,r4,8
 1004388:	10061900 	call	1006190 <_ZN9__gnu_cxx12__atomic_addEPVii>
 100438c:	003fd506 	br	10042e4 <_ZNSs6assignERKSs+0x88>
 1004390:	d8c00217 	ldw	r3,8(sp)
 1004394:	00800044 	movi	r2,1
 1004398:	d9000317 	ldw	r4,12(sp)
 100439c:	d9400417 	ldw	r5,16(sp)
 10043a0:	18800626 	beq	r3,r2,10043bc <_ZNSs6assignERKSs+0x160>
 10043a4:	00800084 	movi	r2,2
 10043a8:	18800426 	beq	r3,r2,10043bc <_ZNSs6assignERKSs+0x160>
 10043ac:	00bfffc4 	movi	r2,-1
 10043b0:	28800426 	beq	r5,r2,10043c4 <_ZNSs6assignERKSs+0x168>
 10043b4:	d8800215 	stw	r2,8(sp)
 10043b8:	1009ee80 	call	1009ee8 <_Unwind_SjLj_Resume>
 10043bc:	00bfffc4 	movi	r2,-1
 10043c0:	003ffc06 	br	10043b4 <_ZNSs6assignERKSs+0x158>
 10043c4:	00bfffc4 	movi	r2,-1
 10043c8:	d8800215 	stw	r2,8(sp)
 10043cc:	10068dc0 	call	10068dc <__cxa_call_unexpected>

010043d0 <_ZNSsaSERKSs>:
 10043d0:	100425c1 	jmpi	100425c <_ZNSs6assignERKSs>

010043d4 <_ZNSs7reserveEm>:
 10043d4:	deffeb04 	addi	sp,sp,-84
 10043d8:	00804034 	movhi	r2,256
 10043dc:	109a9704 	addi	r2,r2,27228
 10043e0:	00c040b4 	movhi	r3,258
 10043e4:	18c2e844 	addi	r3,r3,2977
 10043e8:	d8800715 	stw	r2,28(sp)
 10043ec:	d9001015 	stw	r4,64(sp)
 10043f0:	00804034 	movhi	r2,256
 10043f4:	10913b04 	addi	r2,r2,17644
 10043f8:	d9000104 	addi	r4,sp,4
 10043fc:	d8c00815 	stw	r3,32(sp)
 1004400:	d8800a15 	stw	r2,40(sp)
 1004404:	dfc01415 	stw	ra,80(sp)
 1004408:	df001315 	stw	fp,76(sp)
 100440c:	ddc01215 	stw	r23,72(sp)
 1004410:	dec00915 	stw	sp,36(sp)
 1004414:	dec00b15 	stw	sp,44(sp)
 1004418:	d9401115 	stw	r5,68(sp)
 100441c:	1009c1c0 	call	1009c1c <_Unwind_SjLj_Register>
 1004420:	d8801017 	ldw	r2,64(sp)
 1004424:	10c00017 	ldw	r3,0(r2)
 1004428:	193ffd04 	addi	r4,r3,-12
 100442c:	20800117 	ldw	r2,4(r4)
 1004430:	d8c01117 	ldw	r3,68(sp)
 1004434:	10c01c26 	beq	r2,r3,10044a8 <_ZNSs7reserveEm+0xd4>
 1004438:	20c00017 	ldw	r3,0(r4)
 100443c:	d9401117 	ldw	r5,68(sp)
 1004440:	28c01736 	bltu	r5,r3,10044a0 <_ZNSs7reserveEm+0xcc>
 1004444:	00800044 	movi	r2,1
 1004448:	28cdc83a 	sub	r6,r5,r3
 100444c:	d8800215 	stw	r2,8(sp)
 1004450:	d80b883a 	mov	r5,sp
 1004454:	10036480 	call	1003648 <_ZNSs4_Rep8_M_cloneERKSaIcEm>
 1004458:	d8c01017 	ldw	r3,64(sp)
 100445c:	d8800f15 	stw	r2,60(sp)
 1004460:	18800017 	ldw	r2,0(r3)
 1004464:	00c040f4 	movhi	r3,259
 1004468:	18e52f04 	addi	r3,r3,-27460
 100446c:	10bffd04 	addi	r2,r2,-12
 1004470:	d8800e15 	stw	r2,56(sp)
 1004474:	10c0151e 	bne	r2,r3,10044cc <_ZNSs7reserveEm+0xf8>
 1004478:	d8c00f17 	ldw	r3,60(sp)
 100447c:	d8801017 	ldw	r2,64(sp)
 1004480:	d9000104 	addi	r4,sp,4
 1004484:	10c00015 	stw	r3,0(r2)
 1004488:	1009c2c0 	call	1009c2c <_Unwind_SjLj_Unregister>
 100448c:	dfc01417 	ldw	ra,80(sp)
 1004490:	df001317 	ldw	fp,76(sp)
 1004494:	ddc01217 	ldw	r23,72(sp)
 1004498:	dec01504 	addi	sp,sp,84
 100449c:	f800283a 	ret
 10044a0:	180b883a 	mov	r5,r3
 10044a4:	003fe706 	br	1004444 <_ZNSs7reserveEm+0x70>
 10044a8:	20800217 	ldw	r2,8(r4)
 10044ac:	00bfe216 	blt	zero,r2,1004438 <_ZNSs7reserveEm+0x64>
 10044b0:	d9000104 	addi	r4,sp,4
