Archive member included because of file (symbol)

c:/altera/12.1sp1/nios2eds/bin/gnu/h-i686-mingw32/bin/../lib/gcc/nios2-elf/4.1.2/../../../../nios2-elf/lib\libc.a(lib_a-printf.o)
                              obj/default/main.o (printf)
c:/altera/12.1sp1/nios2eds/bin/gnu/h-i686-mingw32/bin/../lib/gcc/nios2-elf/4.1.2/../../../../nios2-elf/lib\libc.a(lib_a-puts.o)
                              obj/default/main.o (puts)
c:/altera/12.1sp1/nios2eds/bin/gnu/h-i686-mingw32/bin/../lib/gcc/nios2-elf/4.1.2/../../../../nios2-elf/lib\libc.a(lib_a-strlen.o)
                              c:/altera/12.1sp1/nios2eds/bin/gnu/h-i686-mingw32/bin/../lib/gcc/nios2-elf/4.1.2/../../../../nios2-elf/lib\libc.a(lib_a-puts.o) (strlen)
c:/altera/12.1sp1/nios2eds/bin/gnu/h-i686-mingw32/bin/../lib/gcc/nios2-elf/4.1.2/../../../../nios2-elf/lib\libc.a(lib_a-vfprintf.o)
                              c:/altera/12.1sp1/nios2eds/bin/gnu/h-i686-mingw32/bin/../lib/gcc/nios2-elf/4.1.2/../../../../nios2-elf/lib\libc.a(lib_a-printf.o) (___vfprintf_internal_r)
c:/altera/12.1sp1/nios2eds/bin/gnu/h-i686-mingw32/bin/../lib/gcc/nios2-elf/4.1.2/../../../../nios2-elf/lib\libc.a(lib_a-wsetup.o)
                              c:/altera/12.1sp1/nios2eds/bin/gnu/h-i686-mingw32/bin/../lib/gcc/nios2-elf/4.1.2/../../../../nios2-elf/lib\libc.a(lib_a-vfprintf.o) (__swsetup_r)
c:/altera/12.1sp1/nios2eds/bin/gnu/h-i686-mingw32/bin/../lib/gcc/nios2-elf/4.1.2/../../../../nios2-elf/lib\libc.a(lib_a-dtoa.o)
                              c:/altera/12.1sp1/nios2eds/bin/gnu/h-i686-mingw32/bin/../lib/gcc/nios2-elf/4.1.2/../../../../nios2-elf/lib\libc.a(lib_a-vfprintf.o) (_dtoa_r)
c:/altera/12.1sp1/nios2eds/bin/gnu/h-i686-mingw32/bin/../lib/gcc/nios2-elf/4.1.2/../../../../nios2-elf/lib\libc.a(lib_a-fflush.o)
                              c:/altera/12.1sp1/nios2eds/bin/gnu/h-i686-mingw32/bin/../lib/gcc/nios2-elf/4.1.2/../../../../nios2-elf/lib\libc.a(lib_a-vfprintf.o) (_fflush_r)
c:/altera/12.1sp1/nios2eds/bin/gnu/h-i686-mingw32/bin/../lib/gcc/nios2-elf/4.1.2/../../../../nios2-elf/lib\libc.a(lib_a-findfp.o)
                              c:/altera/12.1sp1/nios2eds/bin/gnu/h-i686-mingw32/bin/../lib/gcc/nios2-elf/4.1.2/../../../../nios2-elf/lib\libc.a(lib_a-vfprintf.o) (__sinit)
c:/altera/12.1sp1/nios2eds/bin/gnu/h-i686-mingw32/bin/../lib/gcc/nios2-elf/4.1.2/../../../../nios2-elf/lib\libc.a(lib_a-freer.o)
                              c:/altera/12.1sp1/nios2eds/bin/gnu/h-i686-mingw32/bin/../lib/gcc/nios2-elf/4.1.2/../../../../nios2-elf/lib\libc.a(lib_a-wsetup.o) (_free_r)
c:/altera/12.1sp1/nios2eds/bin/gnu/h-i686-mingw32/bin/../lib/gcc/nios2-elf/4.1.2/../../../../nios2-elf/lib\libc.a(lib_a-fvwrite.o)
                              c:/altera/12.1sp1/nios2eds/bin/gnu/h-i686-mingw32/bin/../lib/gcc/nios2-elf/4.1.2/../../../../nios2-elf/lib\libc.a(lib_a-puts.o) (__sfvwrite_r)
c:/altera/12.1sp1/nios2eds/bin/gnu/h-i686-mingw32/bin/../lib/gcc/nios2-elf/4.1.2/../../../../nios2-elf/lib\libc.a(lib_a-fwalk.o)
                              c:/altera/12.1sp1/nios2eds/bin/gnu/h-i686-mingw32/bin/../lib/gcc/nios2-elf/4.1.2/../../../../nios2-elf/lib\libc.a(lib_a-fflush.o) (_fwalk_reent)
c:/altera/12.1sp1/nios2eds/bin/gnu/h-i686-mingw32/bin/../lib/gcc/nios2-elf/4.1.2/../../../../nios2-elf/lib\libc.a(lib_a-impure.o)
                              c:/altera/12.1sp1/nios2eds/bin/gnu/h-i686-mingw32/bin/../lib/gcc/nios2-elf/4.1.2/../../../../nios2-elf/lib\libc.a(lib_a-printf.o) (_impure_ptr)
c:/altera/12.1sp1/nios2eds/bin/gnu/h-i686-mingw32/bin/../lib/gcc/nios2-elf/4.1.2/../../../../nios2-elf/lib\libc.a(lib_a-locale.o)
                              c:/altera/12.1sp1/nios2eds/bin/gnu/h-i686-mingw32/bin/../lib/gcc/nios2-elf/4.1.2/../../../../nios2-elf/lib\libc.a(lib_a-vfprintf.o) (_localeconv_r)
c:/altera/12.1sp1/nios2eds/bin/gnu/h-i686-mingw32/bin/../lib/gcc/nios2-elf/4.1.2/../../../../nios2-elf/lib\libc.a(lib_a-makebuf.o)
                              c:/altera/12.1sp1/nios2eds/bin/gnu/h-i686-mingw32/bin/../lib/gcc/nios2-elf/4.1.2/../../../../nios2-elf/lib\libc.a(lib_a-wsetup.o) (__smakebuf_r)
c:/altera/12.1sp1/nios2eds/bin/gnu/h-i686-mingw32/bin/../lib/gcc/nios2-elf/4.1.2/../../../../nios2-elf/lib\libc.a(lib_a-mallocr.o)
                              c:/altera/12.1sp1/nios2eds/bin/gnu/h-i686-mingw32/bin/../lib/gcc/nios2-elf/4.1.2/../../../../nios2-elf/lib\libc.a(lib_a-findfp.o) (_malloc_r)
c:/altera/12.1sp1/nios2eds/bin/gnu/h-i686-mingw32/bin/../lib/gcc/nios2-elf/4.1.2/../../../../nios2-elf/lib\libc.a(lib_a-memchr.o)
                              c:/altera/12.1sp1/nios2eds/bin/gnu/h-i686-mingw32/bin/../lib/gcc/nios2-elf/4.1.2/../../../../nios2-elf/lib\libc.a(lib_a-vfprintf.o) (memchr)
c:/altera/12.1sp1/nios2eds/bin/gnu/h-i686-mingw32/bin/../lib/gcc/nios2-elf/4.1.2/../../../../nios2-elf/lib\libc.a(lib_a-memcpy.o)
                              c:/altera/12.1sp1/nios2eds/bin/gnu/h-i686-mingw32/bin/../lib/gcc/nios2-elf/4.1.2/../../../../nios2-elf/lib\libc.a(lib_a-dtoa.o) (memcpy)
c:/altera/12.1sp1/nios2eds/bin/gnu/h-i686-mingw32/bin/../lib/gcc/nios2-elf/4.1.2/../../../../nios2-elf/lib\libc.a(lib_a-memmove.o)
                              c:/altera/12.1sp1/nios2eds/bin/gnu/h-i686-mingw32/bin/../lib/gcc/nios2-elf/4.1.2/../../../../nios2-elf/lib\libc.a(lib_a-fvwrite.o) (memmove)
c:/altera/12.1sp1/nios2eds/bin/gnu/h-i686-mingw32/bin/../lib/gcc/nios2-elf/4.1.2/../../../../nios2-elf/lib\libc.a(lib_a-memset.o)
                              c:/altera/12.1sp1/nios2eds/bin/gnu/h-i686-mingw32/bin/../lib/gcc/nios2-elf/4.1.2/../../../../nios2-elf/lib\libc.a(lib_a-findfp.o) (memset)
c:/altera/12.1sp1/nios2eds/bin/gnu/h-i686-mingw32/bin/../lib/gcc/nios2-elf/4.1.2/../../../../nios2-elf/lib\libc.a(lib_a-mprec.o)
                              c:/altera/12.1sp1/nios2eds/bin/gnu/h-i686-mingw32/bin/../lib/gcc/nios2-elf/4.1.2/../../../../nios2-elf/lib\libc.a(lib_a-dtoa.o) (_Bfree)
c:/altera/12.1sp1/nios2eds/bin/gnu/h-i686-mingw32/bin/../lib/gcc/nios2-elf/4.1.2/../../../../nios2-elf/lib\libc.a(lib_a-reallocr.o)
                              c:/altera/12.1sp1/nios2eds/bin/gnu/h-i686-mingw32/bin/../lib/gcc/nios2-elf/4.1.2/../../../../nios2-elf/lib\libc.a(lib_a-fvwrite.o) (_realloc_r)
c:/altera/12.1sp1/nios2eds/bin/gnu/h-i686-mingw32/bin/../lib/gcc/nios2-elf/4.1.2/../../../../nios2-elf/lib\libc.a(lib_a-s_isinfd.o)
                              c:/altera/12.1sp1/nios2eds/bin/gnu/h-i686-mingw32/bin/../lib/gcc/nios2-elf/4.1.2/../../../../nios2-elf/lib\libc.a(lib_a-vfprintf.o) (__isinfd)
c:/altera/12.1sp1/nios2eds/bin/gnu/h-i686-mingw32/bin/../lib/gcc/nios2-elf/4.1.2/../../../../nios2-elf/lib\libc.a(lib_a-s_isnand.o)
                              c:/altera/12.1sp1/nios2eds/bin/gnu/h-i686-mingw32/bin/../lib/gcc/nios2-elf/4.1.2/../../../../nios2-elf/lib\libc.a(lib_a-vfprintf.o) (__isnand)
c:/altera/12.1sp1/nios2eds/bin/gnu/h-i686-mingw32/bin/../lib/gcc/nios2-elf/4.1.2/../../../../nios2-elf/lib\libc.a(lib_a-sbrkr.o)
                              c:/altera/12.1sp1/nios2eds/bin/gnu/h-i686-mingw32/bin/../lib/gcc/nios2-elf/4.1.2/../../../../nios2-elf/lib\libc.a(lib_a-freer.o) (_sbrk_r)
c:/altera/12.1sp1/nios2eds/bin/gnu/h-i686-mingw32/bin/../lib/gcc/nios2-elf/4.1.2/../../../../nios2-elf/lib\libc.a(lib_a-stdio.o)
                              c:/altera/12.1sp1/nios2eds/bin/gnu/h-i686-mingw32/bin/../lib/gcc/nios2-elf/4.1.2/../../../../nios2-elf/lib\libc.a(lib_a-findfp.o) (__sclose)
c:/altera/12.1sp1/nios2eds/bin/gnu/h-i686-mingw32/bin/../lib/gcc/nios2-elf/4.1.2/../../../../nios2-elf/lib\libc.a(lib_a-strcmp.o)
                              c:/altera/12.1sp1/nios2eds/bin/gnu/h-i686-mingw32/bin/../lib/gcc/nios2-elf/4.1.2/../../../../nios2-elf/lib\libc.a(lib_a-locale.o) (strcmp)
c:/altera/12.1sp1/nios2eds/bin/gnu/h-i686-mingw32/bin/../lib/gcc/nios2-elf/4.1.2/../../../../nios2-elf/lib\libc.a(lib_a-writer.o)
                              c:/altera/12.1sp1/nios2eds/bin/gnu/h-i686-mingw32/bin/../lib/gcc/nios2-elf/4.1.2/../../../../nios2-elf/lib\libc.a(lib_a-stdio.o) (_write_r)
c:/altera/12.1sp1/nios2eds/bin/gnu/h-i686-mingw32/bin/../lib/gcc/nios2-elf/4.1.2/../../../../nios2-elf/lib\libc.a(lib_a-callocr.o)
                              c:/altera/12.1sp1/nios2eds/bin/gnu/h-i686-mingw32/bin/../lib/gcc/nios2-elf/4.1.2/../../../../nios2-elf/lib\libc.a(lib_a-mprec.o) (_calloc_r)
c:/altera/12.1sp1/nios2eds/bin/gnu/h-i686-mingw32/bin/../lib/gcc/nios2-elf/4.1.2/../../../../nios2-elf/lib\libc.a(lib_a-closer.o)
                              c:/altera/12.1sp1/nios2eds/bin/gnu/h-i686-mingw32/bin/../lib/gcc/nios2-elf/4.1.2/../../../../nios2-elf/lib\libc.a(lib_a-stdio.o) (_close_r)
c:/altera/12.1sp1/nios2eds/bin/gnu/h-i686-mingw32/bin/../lib/gcc/nios2-elf/4.1.2/../../../../nios2-elf/lib\libc.a(lib_a-fclose.o)
                              c:/altera/12.1sp1/nios2eds/bin/gnu/h-i686-mingw32/bin/../lib/gcc/nios2-elf/4.1.2/../../../../nios2-elf/lib\libc.a(lib_a-findfp.o) (fclose)
c:/altera/12.1sp1/nios2eds/bin/gnu/h-i686-mingw32/bin/../lib/gcc/nios2-elf/4.1.2/../../../../nios2-elf/lib\libc.a(lib_a-fstatr.o)
                              c:/altera/12.1sp1/nios2eds/bin/gnu/h-i686-mingw32/bin/../lib/gcc/nios2-elf/4.1.2/../../../../nios2-elf/lib\libc.a(lib_a-makebuf.o) (_fstat_r)
c:/altera/12.1sp1/nios2eds/bin/gnu/h-i686-mingw32/bin/../lib/gcc/nios2-elf/4.1.2/../../../../nios2-elf/lib\libc.a(lib_a-int_errno.o)
                              c:/altera/12.1sp1/nios2eds/bin/gnu/h-i686-mingw32/bin/../lib/gcc/nios2-elf/4.1.2/../../../../nios2-elf/lib\libc.a(lib_a-sbrkr.o) (errno)
c:/altera/12.1sp1/nios2eds/bin/gnu/h-i686-mingw32/bin/../lib/gcc/nios2-elf/4.1.2/../../../../nios2-elf/lib\libc.a(lib_a-isattyr.o)
                              c:/altera/12.1sp1/nios2eds/bin/gnu/h-i686-mingw32/bin/../lib/gcc/nios2-elf/4.1.2/../../../../nios2-elf/lib\libc.a(lib_a-makebuf.o) (_isatty_r)
c:/altera/12.1sp1/nios2eds/bin/gnu/h-i686-mingw32/bin/../lib/gcc/nios2-elf/4.1.2/../../../../nios2-elf/lib\libc.a(lib_a-lseekr.o)
                              c:/altera/12.1sp1/nios2eds/bin/gnu/h-i686-mingw32/bin/../lib/gcc/nios2-elf/4.1.2/../../../../nios2-elf/lib\libc.a(lib_a-stdio.o) (_lseek_r)
c:/altera/12.1sp1/nios2eds/bin/gnu/h-i686-mingw32/bin/../lib/gcc/nios2-elf/4.1.2/../../../../nios2-elf/lib\libc.a(lib_a-readr.o)
                              c:/altera/12.1sp1/nios2eds/bin/gnu/h-i686-mingw32/bin/../lib/gcc/nios2-elf/4.1.2/../../../../nios2-elf/lib\libc.a(lib_a-stdio.o) (_read_r)
c:/altera/12.1sp1/nios2eds/bin/gnu/h-i686-mingw32/bin/../lib/gcc/nios2-elf/4.1.2\libgcc.a(_udivdi3.o)
                              c:/altera/12.1sp1/nios2eds/bin/gnu/h-i686-mingw32/bin/../lib/gcc/nios2-elf/4.1.2/../../../../nios2-elf/lib\libc.a(lib_a-vfprintf.o) (__udivdi3)
c:/altera/12.1sp1/nios2eds/bin/gnu/h-i686-mingw32/bin/../lib/gcc/nios2-elf/4.1.2\libgcc.a(_umoddi3.o)
                              c:/altera/12.1sp1/nios2eds/bin/gnu/h-i686-mingw32/bin/../lib/gcc/nios2-elf/4.1.2/../../../../nios2-elf/lib\libc.a(lib_a-vfprintf.o) (__umoddi3)
c:/altera/12.1sp1/nios2eds/bin/gnu/h-i686-mingw32/bin/../lib/gcc/nios2-elf/4.1.2\libgcc.a(_addsub_df.o)
                              c:/altera/12.1sp1/nios2eds/bin/gnu/h-i686-mingw32/bin/../lib/gcc/nios2-elf/4.1.2/../../../../nios2-elf/lib\libc.a(lib_a-dtoa.o) (__subdf3)
c:/altera/12.1sp1/nios2eds/bin/gnu/h-i686-mingw32/bin/../lib/gcc/nios2-elf/4.1.2\libgcc.a(_mul_df.o)
                              c:/altera/12.1sp1/nios2eds/bin/gnu/h-i686-mingw32/bin/../lib/gcc/nios2-elf/4.1.2/../../../../nios2-elf/lib\libc.a(lib_a-dtoa.o) (__muldf3)
c:/altera/12.1sp1/nios2eds/bin/gnu/h-i686-mingw32/bin/../lib/gcc/nios2-elf/4.1.2\libgcc.a(_div_df.o)
                              c:/altera/12.1sp1/nios2eds/bin/gnu/h-i686-mingw32/bin/../lib/gcc/nios2-elf/4.1.2/../../../../nios2-elf/lib\libc.a(lib_a-dtoa.o) (__divdf3)
c:/altera/12.1sp1/nios2eds/bin/gnu/h-i686-mingw32/bin/../lib/gcc/nios2-elf/4.1.2\libgcc.a(_eq_df.o)
                              c:/altera/12.1sp1/nios2eds/bin/gnu/h-i686-mingw32/bin/../lib/gcc/nios2-elf/4.1.2/../../../../nios2-elf/lib\libc.a(lib_a-vfprintf.o) (__eqdf2)
c:/altera/12.1sp1/nios2eds/bin/gnu/h-i686-mingw32/bin/../lib/gcc/nios2-elf/4.1.2\libgcc.a(_ne_df.o)
                              c:/altera/12.1sp1/nios2eds/bin/gnu/h-i686-mingw32/bin/../lib/gcc/nios2-elf/4.1.2/../../../../nios2-elf/lib\libc.a(lib_a-vfprintf.o) (__nedf2)
c:/altera/12.1sp1/nios2eds/bin/gnu/h-i686-mingw32/bin/../lib/gcc/nios2-elf/4.1.2\libgcc.a(_gt_df.o)
                              c:/altera/12.1sp1/nios2eds/bin/gnu/h-i686-mingw32/bin/../lib/gcc/nios2-elf/4.1.2/../../../../nios2-elf/lib\libc.a(lib_a-dtoa.o) (__gtdf2)
c:/altera/12.1sp1/nios2eds/bin/gnu/h-i686-mingw32/bin/../lib/gcc/nios2-elf/4.1.2\libgcc.a(_ge_df.o)
                              c:/altera/12.1sp1/nios2eds/bin/gnu/h-i686-mingw32/bin/../lib/gcc/nios2-elf/4.1.2/../../../../nios2-elf/lib\libc.a(lib_a-dtoa.o) (__gedf2)
c:/altera/12.1sp1/nios2eds/bin/gnu/h-i686-mingw32/bin/../lib/gcc/nios2-elf/4.1.2\libgcc.a(_lt_df.o)
                              c:/altera/12.1sp1/nios2eds/bin/gnu/h-i686-mingw32/bin/../lib/gcc/nios2-elf/4.1.2/../../../../nios2-elf/lib\libc.a(lib_a-vfprintf.o) (__ltdf2)
c:/altera/12.1sp1/nios2eds/bin/gnu/h-i686-mingw32/bin/../lib/gcc/nios2-elf/4.1.2\libgcc.a(_si_to_df.o)
                              c:/altera/12.1sp1/nios2eds/bin/gnu/h-i686-mingw32/bin/../lib/gcc/nios2-elf/4.1.2/../../../../nios2-elf/lib\libc.a(lib_a-dtoa.o) (__floatsidf)
c:/altera/12.1sp1/nios2eds/bin/gnu/h-i686-mingw32/bin/../lib/gcc/nios2-elf/4.1.2\libgcc.a(_df_to_si.o)
                              c:/altera/12.1sp1/nios2eds/bin/gnu/h-i686-mingw32/bin/../lib/gcc/nios2-elf/4.1.2/../../../../nios2-elf/lib\libc.a(lib_a-dtoa.o) (__fixdfsi)
c:/altera/12.1sp1/nios2eds/bin/gnu/h-i686-mingw32/bin/../lib/gcc/nios2-elf/4.1.2\libgcc.a(_thenan_df.o)
                              c:/altera/12.1sp1/nios2eds/bin/gnu/h-i686-mingw32/bin/../lib/gcc/nios2-elf/4.1.2\libgcc.a(_addsub_df.o) (__thenan_df)
c:/altera/12.1sp1/nios2eds/bin/gnu/h-i686-mingw32/bin/../lib/gcc/nios2-elf/4.1.2\libgcc.a(_usi_to_df.o)
                              c:/altera/12.1sp1/nios2eds/bin/gnu/h-i686-mingw32/bin/../lib/gcc/nios2-elf/4.1.2/../../../../nios2-elf/lib\libc.a(lib_a-dtoa.o) (__floatunsidf)
c:/altera/12.1sp1/nios2eds/bin/gnu/h-i686-mingw32/bin/../lib/gcc/nios2-elf/4.1.2\libgcc.a(lib2-divmod.o)
                              c:/altera/12.1sp1/nios2eds/bin/gnu/h-i686-mingw32/bin/../lib/gcc/nios2-elf/4.1.2/../../../../nios2-elf/lib\libc.a(lib_a-vfprintf.o) (__divsi3)
c:/altera/12.1sp1/nios2eds/bin/gnu/h-i686-mingw32/bin/../lib/gcc/nios2-elf/4.1.2\libgcc.a(_muldi3.o)
                              c:/altera/12.1sp1/nios2eds/bin/gnu/h-i686-mingw32/bin/../lib/gcc/nios2-elf/4.1.2\libgcc.a(_mul_df.o) (__muldi3)
c:/altera/12.1sp1/nios2eds/bin/gnu/h-i686-mingw32/bin/../lib/gcc/nios2-elf/4.1.2\libgcc.a(_clz.o)
                              c:/altera/12.1sp1/nios2eds/bin/gnu/h-i686-mingw32/bin/../lib/gcc/nios2-elf/4.1.2\libgcc.a(_udivdi3.o) (__clz_tab)
c:/altera/12.1sp1/nios2eds/bin/gnu/h-i686-mingw32/bin/../lib/gcc/nios2-elf/4.1.2\libgcc.a(_clzsi2.o)
                              c:/altera/12.1sp1/nios2eds/bin/gnu/h-i686-mingw32/bin/../lib/gcc/nios2-elf/4.1.2\libgcc.a(_si_to_df.o) (__clzsi2)
c:/altera/12.1sp1/nios2eds/bin/gnu/h-i686-mingw32/bin/../lib/gcc/nios2-elf/4.1.2\libgcc.a(_pack_df.o)
                              c:/altera/12.1sp1/nios2eds/bin/gnu/h-i686-mingw32/bin/../lib/gcc/nios2-elf/4.1.2\libgcc.a(_addsub_df.o) (__pack_d)
c:/altera/12.1sp1/nios2eds/bin/gnu/h-i686-mingw32/bin/../lib/gcc/nios2-elf/4.1.2\libgcc.a(_unpack_df.o)
                              c:/altera/12.1sp1/nios2eds/bin/gnu/h-i686-mingw32/bin/../lib/gcc/nios2-elf/4.1.2\libgcc.a(_addsub_df.o) (__unpack_d)
c:/altera/12.1sp1/nios2eds/bin/gnu/h-i686-mingw32/bin/../lib/gcc/nios2-elf/4.1.2\libgcc.a(_fpcmp_parts_df.o)
                              c:/altera/12.1sp1/nios2eds/bin/gnu/h-i686-mingw32/bin/../lib/gcc/nios2-elf/4.1.2\libgcc.a(_eq_df.o) (__fpcmp_parts_d)
../UARTNow_bsp/\libucosii_bsp.a(alt_close.o)
                              c:/altera/12.1sp1/nios2eds/bin/gnu/h-i686-mingw32/bin/../lib/gcc/nios2-elf/4.1.2/../../../../nios2-elf/lib\libc.a(lib_a-closer.o) (close)
../UARTNow_bsp/\libucosii_bsp.a(alt_dev.o)
                              ../UARTNow_bsp/\libucosii_bsp.a(alt_close.o) (alt_fd_list)
../UARTNow_bsp/\libucosii_bsp.a(alt_errno.o)
                              ../UARTNow_bsp/\libucosii_bsp.a(alt_close.o) (alt_errno)
../UARTNow_bsp/\libucosii_bsp.a(alt_fstat.o)
                              c:/altera/12.1sp1/nios2eds/bin/gnu/h-i686-mingw32/bin/../lib/gcc/nios2-elf/4.1.2/../../../../nios2-elf/lib\libc.a(lib_a-fstatr.o) (fstat)
../UARTNow_bsp/\libucosii_bsp.a(alt_isatty.o)
                              c:/altera/12.1sp1/nios2eds/bin/gnu/h-i686-mingw32/bin/../lib/gcc/nios2-elf/4.1.2/../../../../nios2-elf/lib\libc.a(lib_a-isattyr.o) (isatty)
../UARTNow_bsp/\libucosii_bsp.a(alt_load.o)
                              ../UARTNow_bsp//obj/HAL/src/crt0.o (alt_load)
../UARTNow_bsp/\libucosii_bsp.a(alt_lseek.o)
                              c:/altera/12.1sp1/nios2eds/bin/gnu/h-i686-mingw32/bin/../lib/gcc/nios2-elf/4.1.2/../../../../nios2-elf/lib\libc.a(lib_a-lseekr.o) (lseek)
../UARTNow_bsp/\libucosii_bsp.a(alt_main.o)
                              ../UARTNow_bsp//obj/HAL/src/crt0.o (alt_main)
../UARTNow_bsp/\libucosii_bsp.a(alt_read.o)
                              c:/altera/12.1sp1/nios2eds/bin/gnu/h-i686-mingw32/bin/../lib/gcc/nios2-elf/4.1.2/../../../../nios2-elf/lib\libc.a(lib_a-readr.o) (read)
../UARTNow_bsp/\libucosii_bsp.a(alt_release_fd.o)
                              ../UARTNow_bsp/\libucosii_bsp.a(alt_close.o) (alt_release_fd)
../UARTNow_bsp/\libucosii_bsp.a(alt_sbrk.o)
                              c:/altera/12.1sp1/nios2eds/bin/gnu/h-i686-mingw32/bin/../lib/gcc/nios2-elf/4.1.2/../../../../nios2-elf/lib\libc.a(lib_a-sbrkr.o) (sbrk)
../UARTNow_bsp/\libucosii_bsp.a(alt_write.o)
                              c:/altera/12.1sp1/nios2eds/bin/gnu/h-i686-mingw32/bin/../lib/gcc/nios2-elf/4.1.2/../../../../nios2-elf/lib\libc.a(lib_a-writer.o) (write)
../UARTNow_bsp/\libucosii_bsp.a(alt_env_lock.o)
                              ../UARTNow_bsp/\libucosii_bsp.a(alt_main.o) (alt_envsem)
../UARTNow_bsp/\libucosii_bsp.a(alt_malloc_lock.o)
                              c:/altera/12.1sp1/nios2eds/bin/gnu/h-i686-mingw32/bin/../lib/gcc/nios2-elf/4.1.2/../../../../nios2-elf/lib\libc.a(lib_a-freer.o) (__malloc_lock)
../UARTNow_bsp/\libucosii_bsp.a(os_core.o)
                              ../UARTNow_bsp/\libucosii_bsp.a(alt_main.o) (OSInit)
../UARTNow_bsp/\libucosii_bsp.a(os_dbg.o)
                              ../UARTNow_bsp/\libucosii_bsp.a(os_core.o) (OSDebugInit)
../UARTNow_bsp/\libucosii_bsp.a(os_flag.o)
                              ../UARTNow_bsp/\libucosii_bsp.a(os_core.o) (OS_FlagInit)
../UARTNow_bsp/\libucosii_bsp.a(os_mem.o)
                              ../UARTNow_bsp/\libucosii_bsp.a(os_core.o) (OS_MemInit)
../UARTNow_bsp/\libucosii_bsp.a(os_q.o)
                              ../UARTNow_bsp/\libucosii_bsp.a(os_core.o) (OS_QInit)
../UARTNow_bsp/\libucosii_bsp.a(os_sem.o)
                              ../UARTNow_bsp/\libucosii_bsp.a(alt_main.o) (OSSemCreate)
../UARTNow_bsp/\libucosii_bsp.a(os_task.o)
                              obj/default/main.o (OSTaskCreateExt)
../UARTNow_bsp/\libucosii_bsp.a(os_time.o)
                              ../UARTNow_bsp/\libucosii_bsp.a(os_core.o) (OSTimeDly)
../UARTNow_bsp/\libucosii_bsp.a(alt_sys_init.o)
                              ../UARTNow_bsp/\libucosii_bsp.a(alt_main.o) (alt_irq_init)
../UARTNow_bsp/\libucosii_bsp.a(altera_avalon_jtag_uart_fd.o)
                              ../UARTNow_bsp/\libucosii_bsp.a(alt_sys_init.o) (altera_avalon_jtag_uart_read_fd)
../UARTNow_bsp/\libucosii_bsp.a(altera_avalon_jtag_uart_init.o)
                              ../UARTNow_bsp/\libucosii_bsp.a(alt_sys_init.o) (altera_avalon_jtag_uart_init)
../UARTNow_bsp/\libucosii_bsp.a(altera_avalon_jtag_uart_ioctl.o)
                              ../UARTNow_bsp/\libucosii_bsp.a(altera_avalon_jtag_uart_fd.o) (altera_avalon_jtag_uart_ioctl)
../UARTNow_bsp/\libucosii_bsp.a(altera_avalon_jtag_uart_read.o)
                              ../UARTNow_bsp/\libucosii_bsp.a(altera_avalon_jtag_uart_fd.o) (altera_avalon_jtag_uart_read)
../UARTNow_bsp/\libucosii_bsp.a(altera_avalon_jtag_uart_write.o)
                              ../UARTNow_bsp/\libucosii_bsp.a(altera_avalon_jtag_uart_fd.o) (altera_avalon_jtag_uart_write)
../UARTNow_bsp/\libucosii_bsp.a(altera_avalon_timer_sc.o)
                              ../UARTNow_bsp/\libucosii_bsp.a(alt_sys_init.o) (alt_avalon_timer_sc_init)
../UARTNow_bsp/\libucosii_bsp.a(altera_avalon_uart_fd.o)
                              ../UARTNow_bsp/\libucosii_bsp.a(alt_sys_init.o) (altera_avalon_uart_read_fd)
../UARTNow_bsp/\libucosii_bsp.a(altera_avalon_uart_init.o)
                              ../UARTNow_bsp/\libucosii_bsp.a(alt_sys_init.o) (altera_avalon_uart_init)
../UARTNow_bsp/\libucosii_bsp.a(altera_avalon_uart_read.o)
                              ../UARTNow_bsp/\libucosii_bsp.a(altera_avalon_uart_fd.o) (altera_avalon_uart_read)
../UARTNow_bsp/\libucosii_bsp.a(altera_avalon_uart_write.o)
                              ../UARTNow_bsp/\libucosii_bsp.a(altera_avalon_uart_fd.o) (altera_avalon_uart_write)
../UARTNow_bsp/\libucosii_bsp.a(altera_up_avalon_rs232.o)
                              ../UARTNow_bsp/\libucosii_bsp.a(alt_sys_init.o) (alt_up_rs232_read_fd)
../UARTNow_bsp/\libucosii_bsp.a(alt_alarm_start.o)
                              ../UARTNow_bsp/\libucosii_bsp.a(altera_avalon_jtag_uart_init.o) (alt_alarm_start)
../UARTNow_bsp/\libucosii_bsp.a(alt_dcache_flush_all.o)
                              ../UARTNow_bsp/\libucosii_bsp.a(alt_load.o) (alt_dcache_flush_all)
../UARTNow_bsp/\libucosii_bsp.a(alt_dev_llist_insert.o)
                              ../UARTNow_bsp/\libucosii_bsp.a(alt_sys_init.o) (alt_dev_llist_insert)
../UARTNow_bsp/\libucosii_bsp.a(alt_do_ctors.o)
                              ../UARTNow_bsp/\libucosii_bsp.a(alt_main.o) (_do_ctors)
../UARTNow_bsp/\libucosii_bsp.a(alt_do_dtors.o)
                              ../UARTNow_bsp/\libucosii_bsp.a(alt_main.o) (_do_dtors)
../UARTNow_bsp/\libucosii_bsp.a(alt_find_dev.o)
                              ../UARTNow_bsp/\libucosii_bsp.a(altera_up_avalon_rs232.o) (alt_find_dev)
../UARTNow_bsp/\libucosii_bsp.a(alt_icache_flush_all.o)
                              ../UARTNow_bsp/\libucosii_bsp.a(alt_load.o) (alt_icache_flush_all)
../UARTNow_bsp/\libucosii_bsp.a(alt_io_redirect.o)
                              ../UARTNow_bsp/\libucosii_bsp.a(alt_main.o) (alt_io_redirect)
../UARTNow_bsp/\libucosii_bsp.a(alt_irq_register.o)
                              ../UARTNow_bsp/\libucosii_bsp.a(altera_avalon_jtag_uart_init.o) (alt_irq_register)
../UARTNow_bsp/\libucosii_bsp.a(alt_irq_vars.o)
                              ../UARTNow_bsp/\libucosii_bsp.a(alt_irq_register.o) (alt_irq_active)
../UARTNow_bsp/\libucosii_bsp.a(alt_open.o)
                              ../UARTNow_bsp/\libucosii_bsp.a(alt_io_redirect.o) (open)
../UARTNow_bsp/\libucosii_bsp.a(alt_tick.o)
                              ../UARTNow_bsp/\libucosii_bsp.a(altera_avalon_jtag_uart_init.o) (_alt_tick_rate)
../UARTNow_bsp/\libucosii_bsp.a(altera_nios2_qsys_irq.o)
                              ../UARTNow_bsp/\libucosii_bsp.a(alt_sys_init.o) (altera_nios2_qsys_irq_init)
../UARTNow_bsp/\libucosii_bsp.a(os_cpu_a.o)
                              ../UARTNow_bsp/\libucosii_bsp.a(os_core.o) (OSIntCtxSw)
../UARTNow_bsp/\libucosii_bsp.a(os_cpu_c.o)
                              ../UARTNow_bsp/\libucosii_bsp.a(os_task.o) (OSTaskStkInit)
../UARTNow_bsp/\libucosii_bsp.a(alt_find_file.o)
                              ../UARTNow_bsp/\libucosii_bsp.a(alt_open.o) (alt_find_file)
../UARTNow_bsp/\libucosii_bsp.a(alt_get_fd.o)
                              ../UARTNow_bsp/\libucosii_bsp.a(alt_open.o) (alt_get_fd)
../UARTNow_bsp/\libucosii_bsp.a(alt_icache_flush.o)
                              ../UARTNow_bsp/\libucosii_bsp.a(alt_icache_flush_all.o) (alt_icache_flush)
../UARTNow_bsp/\libucosii_bsp.a(alt_irq_entry.o)
                              ../UARTNow_bsp/\libucosii_bsp.a(alt_irq_register.o) (alt_irq_entry)
../UARTNow_bsp/\libucosii_bsp.a(alt_irq_handler.o)
                              ../UARTNow_bsp/\libucosii_bsp.a(alt_irq_register.o) (alt_irq_handler)
../UARTNow_bsp/\libucosii_bsp.a(alt_exception_entry.o)
                              ../UARTNow_bsp/\libucosii_bsp.a(alt_irq_entry.o) (alt_exception)
c:/altera/12.1sp1/nios2eds/bin/gnu/h-i686-mingw32/bin/../lib/gcc/nios2-elf/4.1.2/../../../../nios2-elf/lib\libc.a(lib_a-atexit.o)
                              ../UARTNow_bsp/\libucosii_bsp.a(alt_main.o) (atexit)
c:/altera/12.1sp1/nios2eds/bin/gnu/h-i686-mingw32/bin/../lib/gcc/nios2-elf/4.1.2/../../../../nios2-elf/lib\libc.a(lib_a-exit.o)
                              ../UARTNow_bsp/\libucosii_bsp.a(alt_main.o) (exit)
c:/altera/12.1sp1/nios2eds/bin/gnu/h-i686-mingw32/bin/../lib/gcc/nios2-elf/4.1.2/../../../../nios2-elf/lib\libc.a(lib_a-memcmp.o)
                              ../UARTNow_bsp/\libucosii_bsp.a(alt_find_dev.o) (memcmp)
c:/altera/12.1sp1/nios2eds/bin/gnu/h-i686-mingw32/bin/../lib/gcc/nios2-elf/4.1.2/../../../../nios2-elf/lib\libc.a(lib_a-__atexit.o)
                              c:/altera/12.1sp1/nios2eds/bin/gnu/h-i686-mingw32/bin/../lib/gcc/nios2-elf/4.1.2/../../../../nios2-elf/lib\libc.a(lib_a-atexit.o) (__register_exitproc)
c:/altera/12.1sp1/nios2eds/bin/gnu/h-i686-mingw32/bin/../lib/gcc/nios2-elf/4.1.2/../../../../nios2-elf/lib\libc.a(lib_a-__call_atexit.o)
                              c:/altera/12.1sp1/nios2eds/bin/gnu/h-i686-mingw32/bin/../lib/gcc/nios2-elf/4.1.2/../../../../nios2-elf/lib\libc.a(lib_a-exit.o) (__call_exitprocs)
../UARTNow_bsp/\libucosii_bsp.a(alt_exit.o)
                              c:/altera/12.1sp1/nios2eds/bin/gnu/h-i686-mingw32/bin/../lib/gcc/nios2-elf/4.1.2/../../../../nios2-elf/lib\libc.a(lib_a-exit.o) (_exit)

Allocating common symbols
Common symbol       size              file

alt_irq             0x100             ../UARTNow_bsp/\libucosii_bsp.a(alt_irq_handler.o)
task1_stk           0x2000            obj/default/main.o
OSLockNesting       0x1               ../UARTNow_bsp/\libucosii_bsp.a(os_core.o)
OSRunning           0x1               ../UARTNow_bsp/\libucosii_bsp.a(os_core.o)
OSIdleCtr           0x4               ../UARTNow_bsp/\libucosii_bsp.a(os_core.o)
OSPrioHighRdy       0x1               ../UARTNow_bsp/\libucosii_bsp.a(os_core.o)
errno               0x4               c:/altera/12.1sp1/nios2eds/bin/gnu/h-i686-mingw32/bin/../lib/gcc/nios2-elf/4.1.2/../../../../nios2-elf/lib\libc.a(lib_a-int_errno.o)
alt_heapsem         0x4               ../UARTNow_bsp/\libucosii_bsp.a(alt_malloc_lock.o)
OSFlagTbl           0x370             ../UARTNow_bsp/\libucosii_bsp.a(os_core.o)
OSPrioCur           0x1               ../UARTNow_bsp/\libucosii_bsp.a(os_core.o)
queue               0x4               obj/default/main.o
OSTCBList           0x4               ../UARTNow_bsp/\libucosii_bsp.a(os_core.o)
alt_fd_list_lock    0x4               ../UARTNow_bsp/\libucosii_bsp.a(alt_dev.o)
OSMemTbl            0xc30             ../UARTNow_bsp/\libucosii_bsp.a(os_core.o)
OSTickStepState     0x1               ../UARTNow_bsp/\libucosii_bsp.a(os_core.o)
OSTaskStatStk       0x800             ../UARTNow_bsp/\libucosii_bsp.a(os_core.o)
OSCtxSwCtr          0x4               ../UARTNow_bsp/\libucosii_bsp.a(os_core.o)
OSIdleCtrMax        0x4               ../UARTNow_bsp/\libucosii_bsp.a(os_core.o)
OSTCBFreeList       0x4               ../UARTNow_bsp/\libucosii_bsp.a(os_core.o)
OSCPUUsage          0x1               ../UARTNow_bsp/\libucosii_bsp.a(os_core.o)
OSTaskCtr           0x1               ../UARTNow_bsp/\libucosii_bsp.a(os_core.o)
OSMemFreeList       0x4               ../UARTNow_bsp/\libucosii_bsp.a(os_core.o)
OSQTbl              0x1e0             ../UARTNow_bsp/\libucosii_bsp.a(os_core.o)
OSTCBHighRdy        0x4               ../UARTNow_bsp/\libucosii_bsp.a(os_core.o)
OSQFreeList         0x4               ../UARTNow_bsp/\libucosii_bsp.a(os_core.o)
OSRdyGrp            0x1               ../UARTNow_bsp/\libucosii_bsp.a(os_core.o)
messages            0x10              obj/default/main.o
task2_stk           0x2000            obj/default/main.o
_atexit0            0x190             c:/altera/12.1sp1/nios2eds/bin/gnu/h-i686-mingw32/bin/../lib/gcc/nios2-elf/4.1.2/../../../../nios2-elf/lib\libc.a(lib_a-atexit.o)
OSRdyTbl            0x3               ../UARTNow_bsp/\libucosii_bsp.a(os_core.o)
OSEventFreeList     0x4               ../UARTNow_bsp/\libucosii_bsp.a(os_core.o)
OSIntNesting        0x1               ../UARTNow_bsp/\libucosii_bsp.a(os_core.o)
OSTCBCur            0x4               ../UARTNow_bsp/\libucosii_bsp.a(os_core.o)
OSTime              0x4               ../UARTNow_bsp/\libucosii_bsp.a(os_core.o)
OSTaskIdleStk       0x800             ../UARTNow_bsp/\libucosii_bsp.a(os_core.o)
OSEventTbl          0xb40             ../UARTNow_bsp/\libucosii_bsp.a(os_core.o)
OSTCBTbl            0x510             ../UARTNow_bsp/\libucosii_bsp.a(os_core.o)
OSFlagFreeList      0x4               ../UARTNow_bsp/\libucosii_bsp.a(os_core.o)
OSStatRdy           0x1               ../UARTNow_bsp/\libucosii_bsp.a(os_core.o)
OSTCBPrioTbl        0x54              ../UARTNow_bsp/\libucosii_bsp.a(os_core.o)
alt_envsem          0x4               ../UARTNow_bsp/\libucosii_bsp.a(alt_env_lock.o)
OSIdleCtrRun        0x4               ../UARTNow_bsp/\libucosii_bsp.a(os_core.o)

Memory Configuration

Name             Origin             Length             Attributes
reset            0x01000000         0x00000020
sdram            0x01000020         0x00ffffe0
*default*        0x00000000         0xffffffff

Linker script and memory map

LOAD ../UARTNow_bsp//obj/HAL/src/crt0.o
LOAD obj/default/main.o
LOAD c:/altera/12.1sp1/nios2eds/bin/gnu/h-i686-mingw32/bin/../lib/gcc/nios2-elf/4.1.2/../../../../nios2-elf/lib\libstdc++.a
LOAD c:/altera/12.1sp1/nios2eds/bin/gnu/h-i686-mingw32/bin/../lib/gcc/nios2-elf/4.1.2/../../../../nios2-elf/lib\libm.a
LOAD c:/altera/12.1sp1/nios2eds/bin/gnu/h-i686-mingw32/bin/../lib/gcc/nios2-elf/4.1.2\libgcc.a
START GROUP
LOAD c:/altera/12.1sp1/nios2eds/bin/gnu/h-i686-mingw32/bin/../lib/gcc/nios2-elf/4.1.2/../../../../nios2-elf/lib\libc.a
LOAD c:/altera/12.1sp1/nios2eds/bin/gnu/h-i686-mingw32/bin/../lib/gcc/nios2-elf/4.1.2\libgcc.a
LOAD ../UARTNow_bsp/\libucosii_bsp.a
END GROUP
LOAD c:/altera/12.1sp1/nios2eds/bin/gnu/h-i686-mingw32/bin/../lib/gcc/nios2-elf/4.1.2\libgcc.a
                0x01000000                __alt_mem_sdram = 0x1000000

.entry          0x01000000       0x20
 *(.entry)
 .entry         0x01000000       0x20 ../UARTNow_bsp//obj/HAL/src/crt0.o
                0x01000000                __reset

.exceptions     0x01000020      0x1a0
                0x01000020                PROVIDE (__ram_exceptions_start, ABSOLUTE (.))
                0x01000020                . = ALIGN (0x20)
 *(.irq)
 *(.exceptions.entry.label)
 .exceptions.entry.label
                0x01000020        0x0 ../UARTNow_bsp/\libucosii_bsp.a(alt_irq_entry.o)
                0x01000020                alt_irq_entry
 .exceptions.entry.label
                0x01000020        0x0 ../UARTNow_bsp/\libucosii_bsp.a(alt_exception_entry.o)
                0x01000020                alt_exception
 *(.exceptions.entry.user)
 *(.exceptions.entry)
 .exceptions.entry
                0x01000020       0x54 ../UARTNow_bsp/\libucosii_bsp.a(alt_exception_entry.o)
 *(.exceptions.irqtest.user)
 *(.exceptions.irqtest)
 .exceptions.irqtest
                0x01000074       0x10 ../UARTNow_bsp/\libucosii_bsp.a(alt_irq_entry.o)
 *(.exceptions.irqhandler.user)
 *(.exceptions.irqhandler)
 .exceptions.irqhandler
                0x01000084        0x4 ../UARTNow_bsp/\libucosii_bsp.a(alt_irq_entry.o)
 *(.exceptions.irqreturn.user)
 *(.exceptions.irqreturn)
 .exceptions.irqreturn
                0x01000088        0x4 ../UARTNow_bsp/\libucosii_bsp.a(alt_irq_entry.o)
 *(.exceptions.notirq.label)
 .exceptions.notirq.label
                0x0100008c        0x0 ../UARTNow_bsp/\libucosii_bsp.a(alt_irq_entry.o)
 *(.exceptions.notirq.user)
 *(.exceptions.notirq)
 .exceptions.notirq
                0x0100008c        0x8 ../UARTNow_bsp/\libucosii_bsp.a(alt_exception_entry.o)
 *(.exceptions.soft.user)
 *(.exceptions.soft)
 *(.exceptions.unknown.user)
 *(.exceptions.unknown)
 .exceptions.unknown
                0x01000094        0x4 ../UARTNow_bsp/\libucosii_bsp.a(alt_exception_entry.o)
 *(.exceptions.exit.label)
 .exceptions.exit.label
                0x01000098        0x0 ../UARTNow_bsp/\libucosii_bsp.a(alt_irq_entry.o)
 .exceptions.exit.label
                0x01000098        0x0 ../UARTNow_bsp/\libucosii_bsp.a(alt_exception_entry.o)
 *(.exceptions.exit.user)
 *(.exceptions.exit)
 .exceptions.exit
                0x01000098       0x54 ../UARTNow_bsp/\libucosii_bsp.a(alt_exception_entry.o)
 *(.exceptions)
 .exceptions    0x010000ec       0xd4 ../UARTNow_bsp/\libucosii_bsp.a(alt_irq_handler.o)
                0x010000ec                alt_irq_handler
                0x010001c0                PROVIDE (__ram_exceptions_end, ABSOLUTE (.))
                0x01000020                PROVIDE (__flash_exceptions_start, LOADADDR (.exceptions))

.text           0x010001c0    0x161a0
                0x010001c0                PROVIDE (stext, ABSOLUTE (.))
 *(.interp)
 *(.hash)
 *(.dynsym)
 *(.dynstr)
 *(.gnu.version)
 *(.gnu.version_d)
 *(.gnu.version_r)
 *(.rel.init)
 *(.rela.init)
 *(.rel.text .rel.text.* .rel.gnu.linkonce.t.*)
 *(.rela.text .rela.text.* .rela.gnu.linkonce.t.*)
 *(.rel.fini)
 *(.rela.fini)
 *(.rel.rodata .rel.rodata.* .rel.gnu.linkonce.r.*)
 *(.rela.rodata .rela.rodata.* .rela.gnu.linkonce.r.*)
 *(.rel.data .rel.data.* .rel.gnu.linkonce.d.*)
 *(.rela.data .rela.data.* .rela.gnu.linkonce.d.*)
 *(.rel.tdata .rel.tdata.* .rel.gnu.linkonce.td.*)
 *(.rela.tdata .rela.tdata.* .rela.gnu.linkonce.td.*)
 *(.rel.tbss .rel.tbss.* .rel.gnu.linkonce.tb.*)
 *(.rela.tbss .rela.tbss.* .rela.gnu.linkonce.tb.*)
 *(.rel.ctors)
 *(.rela.ctors)
 *(.rel.dtors)
 *(.rela.dtors)
 *(.rel.got)
 *(.rela.got)
 *(.rel.sdata .rel.sdata.* .rel.gnu.linkonce.s.*)
 *(.rela.sdata .rela.sdata.* .rela.gnu.linkonce.s.*)
 *(.rel.sbss .rel.sbss.* .rel.gnu.linkonce.sb.*)
 *(.rela.sbss .rela.sbss.* .rela.gnu.linkonce.sb.*)
 *(.rel.sdata2 .rel.sdata2.* .rel.gnu.linkonce.s2.*)
 *(.rela.sdata2 .rela.sdata2.* .rela.gnu.linkonce.s2.*)
 *(.rel.sbss2 .rel.sbss2.* .rel.gnu.linkonce.sb2.*)
 *(.rela.sbss2 .rela.sbss2.* .rela.gnu.linkonce.sb2.*)
 *(.rel.bss .rel.bss.* .rel.gnu.linkonce.b.*)
 *(.rela.bss .rela.bss.* .rela.gnu.linkonce.b.*)
 *(.rel.plt)
 *(.rela.plt)
 *(.rel.dyn)
 *(.init)
 *(.plt)
 *(.text .stub .text.* .gnu.linkonce.t.*)
 .text          0x010001c0       0x4c ../UARTNow_bsp//obj/HAL/src/crt0.o
                0x010001c0                _start
 .text          0x0100020c      0x2dc obj/default/main.o
                0x0100020c                sendToggle
                0x01000250                uart_isr
                0x01000280                readFromUart
                0x010002b4                writeToUart
                0x01000340                waitXbeeGuardTime
                0x01000378                sendXbeeConfigureStart
                0x010003d4                receiveXbeeConfigureConfirm
                0x01000430                uart_test_task
                0x01000470                main
 .text          0x010004e8       0x78 c:/altera/12.1sp1/nios2eds/bin/gnu/h-i686-mingw32/bin/../lib/gcc/nios2-elf/4.1.2/../../../../nios2-elf/lib\libc.a(lib_a-printf.o)
                0x010004e8                printf
                0x0100052c                _printf_r
 .text          0x01000560       0xb4 c:/altera/12.1sp1/nios2eds/bin/gnu/h-i686-mingw32/bin/../lib/gcc/nios2-elf/4.1.2/../../../../nios2-elf/lib\libc.a(lib_a-puts.o)
                0x01000560                _puts_r
                0x01000600                puts
 .text          0x01000614       0x74 c:/altera/12.1sp1/nios2eds/bin/gnu/h-i686-mingw32/bin/../lib/gcc/nios2-elf/4.1.2/../../../../nios2-elf/lib\libc.a(lib_a-strlen.o)
                0x01000614                strlen
 .text          0x01000688     0x1f28 c:/altera/12.1sp1/nios2eds/bin/gnu/h-i686-mingw32/bin/../lib/gcc/nios2-elf/4.1.2/../../../../nios2-elf/lib\libc.a(lib_a-vfprintf.o)
                0x010006e0                ___vfprintf_internal_r
                0x0100258c                __vfprintf_internal
 .text          0x010025b0      0x13c c:/altera/12.1sp1/nios2eds/bin/gnu/h-i686-mingw32/bin/../lib/gcc/nios2-elf/4.1.2/../../../../nios2-elf/lib\libc.a(lib_a-wsetup.o)
                0x010025b0                __swsetup_r
 .text          0x010026ec     0x17cc c:/altera/12.1sp1/nios2eds/bin/gnu/h-i686-mingw32/bin/../lib/gcc/nios2-elf/4.1.2/../../../../nios2-elf/lib\libc.a(lib_a-dtoa.o)
                0x01002904                _dtoa_r
 .text          0x01003eb8      0x230 c:/altera/12.1sp1/nios2eds/bin/gnu/h-i686-mingw32/bin/../lib/gcc/nios2-elf/4.1.2/../../../../nios2-elf/lib\libc.a(lib_a-fflush.o)
                0x01003eb8                _fflush_r
                0x010040b4                fflush
 .text          0x010040e8      0x2c0 c:/altera/12.1sp1/nios2eds/bin/gnu/h-i686-mingw32/bin/../lib/gcc/nios2-elf/4.1.2/../../../../nios2-elf/lib\libc.a(lib_a-findfp.o)
                0x01004140                __sfp_lock_acquire
                0x01004144                __sfp_lock_release
                0x01004148                __sinit_lock_acquire
                0x0100414c                __sinit_lock_release
                0x01004150                __sinit
                0x01004204                __fp_unlock_all
                0x0100421c                __fp_lock_all
                0x01004234                _cleanup_r
                0x01004240                _cleanup
                0x01004250                __sfmoreglue
                0x010042b8                __sfp
 .text          0x010043a8      0x440 c:/altera/12.1sp1/nios2eds/bin/gnu/h-i686-mingw32/bin/../lib/gcc/nios2-elf/4.1.2/../../../../nios2-elf/lib\libc.a(lib_a-freer.o)
                0x010043a8                _malloc_trim_r
                0x010044d4                _free_r
 .text          0x010047e8      0x49c c:/altera/12.1sp1/nios2eds/bin/gnu/h-i686-mingw32/bin/../lib/gcc/nios2-elf/4.1.2/../../../../nios2-elf/lib\libc.a(lib_a-fvwrite.o)
                0x010047e8                __sfvwrite_r
 .text          0x01004c84      0x180 c:/altera/12.1sp1/nios2eds/bin/gnu/h-i686-mingw32/bin/../lib/gcc/nios2-elf/4.1.2/../../../../nios2-elf/lib\libc.a(lib_a-fwalk.o)
                0x01004c84                _fwalk_reent
                0x01004d4c                _fwalk
 .text          0x01004e04        0x0 c:/altera/12.1sp1/nios2eds/bin/gnu/h-i686-mingw32/bin/../lib/gcc/nios2-elf/4.1.2/../../../../nios2-elf/lib\libc.a(lib_a-impure.o)
 .text          0x01004e04       0xc4 c:/altera/12.1sp1/nios2eds/bin/gnu/h-i686-mingw32/bin/../lib/gcc/nios2-elf/4.1.2/../../../../nios2-elf/lib\libc.a(lib_a-locale.o)
                0x01004e04                __locale_charset
                0x01004e0c                _localeconv_r
                0x01004e18                localeconv
                0x01004e28                _setlocale_r
                0x01004eac                setlocale
 .text          0x01004ec8      0x194 c:/altera/12.1sp1/nios2eds/bin/gnu/h-i686-mingw32/bin/../lib/gcc/nios2-elf/4.1.2/../../../../nios2-elf/lib\libc.a(lib_a-makebuf.o)
                0x01004ec8                __smakebuf_r
 .text          0x0100505c      0x740 c:/altera/12.1sp1/nios2eds/bin/gnu/h-i686-mingw32/bin/../lib/gcc/nios2-elf/4.1.2/../../../../nios2-elf/lib\libc.a(lib_a-mallocr.o)
                0x0100505c                _malloc_r
 .text          0x0100579c       0xe4 c:/altera/12.1sp1/nios2eds/bin/gnu/h-i686-mingw32/bin/../lib/gcc/nios2-elf/4.1.2/../../../../nios2-elf/lib\libc.a(lib_a-memchr.o)
                0x0100579c                memchr
 .text          0x01005880       0xa0 c:/altera/12.1sp1/nios2eds/bin/gnu/h-i686-mingw32/bin/../lib/gcc/nios2-elf/4.1.2/../../../../nios2-elf/lib\libc.a(lib_a-memcpy.o)
                0x01005880                memcpy
 .text          0x01005920       0xe0 c:/altera/12.1sp1/nios2eds/bin/gnu/h-i686-mingw32/bin/../lib/gcc/nios2-elf/4.1.2/../../../../nios2-elf/lib\libc.a(lib_a-memmove.o)
                0x01005920                memmove
 .text          0x01005a00       0x98 c:/altera/12.1sp1/nios2eds/bin/gnu/h-i686-mingw32/bin/../lib/gcc/nios2-elf/4.1.2/../../../../nios2-elf/lib\libc.a(lib_a-memset.o)
                0x01005a00                memset
 .text          0x01005a98      0xff4 c:/altera/12.1sp1/nios2eds/bin/gnu/h-i686-mingw32/bin/../lib/gcc/nios2-elf/4.1.2/../../../../nios2-elf/lib\libc.a(lib_a-mprec.o)
                0x01005a98                _Bfree
                0x01005ac0                __hi0bits
                0x01005b30                __lo0bits
                0x01005bf4                __mcmp
                0x01005c54                __ulp
                0x01005cd4                __b2d
                0x01005df4                __ratio
                0x01005ea4                _mprec_log10
                0x01005f38                __copybits
                0x01005f90                __any_on
                0x01006018                _Balloc
                0x010060d4                __d2b
                0x01006250                __mdiff
                0x010063dc                __lshift
                0x01006528                __multiply
                0x01006710                __i2b
                0x0100674c                __multadd
                0x0100684c                __pow5mult
                0x0100696c                __s2b
 .text          0x01006a8c      0x5f4 c:/altera/12.1sp1/nios2eds/bin/gnu/h-i686-mingw32/bin/../lib/gcc/nios2-elf/4.1.2/../../../../nios2-elf/lib\libc.a(lib_a-reallocr.o)
                0x01006a8c                _realloc_r
 .text          0x01007080       0x40 c:/altera/12.1sp1/nios2eds/bin/gnu/h-i686-mingw32/bin/../lib/gcc/nios2-elf/4.1.2/../../../../nios2-elf/lib\libc.a(lib_a-s_isinfd.o)
                0x01007080                __isinfd
 .text          0x010070c0       0x30 c:/altera/12.1sp1/nios2eds/bin/gnu/h-i686-mingw32/bin/../lib/gcc/nios2-elf/4.1.2/../../../../nios2-elf/lib\libc.a(lib_a-s_isnand.o)
                0x010070c0                __isnand
 .text          0x010070f0       0x70 c:/altera/12.1sp1/nios2eds/bin/gnu/h-i686-mingw32/bin/../lib/gcc/nios2-elf/4.1.2/../../../../nios2-elf/lib\libc.a(lib_a-sbrkr.o)
                0x010070f0                _sbrk_r
 .text          0x01007160      0x14c c:/altera/12.1sp1/nios2eds/bin/gnu/h-i686-mingw32/bin/../lib/gcc/nios2-elf/4.1.2/../../../../nios2-elf/lib\libc.a(lib_a-stdio.o)
                0x01007160                __sclose
                0x01007168                __sseek
                0x010071d0                __swrite
                0x0100724c                __sread
 .text          0x010072ac       0xbc c:/altera/12.1sp1/nios2eds/bin/gnu/h-i686-mingw32/bin/../lib/gcc/nios2-elf/4.1.2/../../../../nios2-elf/lib\libc.a(lib_a-strcmp.o)
                0x010072ac                strcmp
 .text          0x01007368       0x78 c:/altera/12.1sp1/nios2eds/bin/gnu/h-i686-mingw32/bin/../lib/gcc/nios2-elf/4.1.2/../../../../nios2-elf/lib\libc.a(lib_a-writer.o)
                0x01007368                _write_r
 .text          0x010073e0       0xb4 c:/altera/12.1sp1/nios2eds/bin/gnu/h-i686-mingw32/bin/../lib/gcc/nios2-elf/4.1.2/../../../../nios2-elf/lib\libc.a(lib_a-callocr.o)
                0x010073e0                _calloc_r
 .text          0x01007494       0x70 c:/altera/12.1sp1/nios2eds/bin/gnu/h-i686-mingw32/bin/../lib/gcc/nios2-elf/4.1.2/../../../../nios2-elf/lib\libc.a(lib_a-closer.o)
                0x01007494                _close_r
 .text          0x01007504      0x124 c:/altera/12.1sp1/nios2eds/bin/gnu/h-i686-mingw32/bin/../lib/gcc/nios2-elf/4.1.2/../../../../nios2-elf/lib\libc.a(lib_a-fclose.o)
                0x01007504                _fclose_r
                0x01007614                fclose
 .text          0x01007628       0x74 c:/altera/12.1sp1/nios2eds/bin/gnu/h-i686-mingw32/bin/../lib/gcc/nios2-elf/4.1.2/../../../../nios2-elf/lib\libc.a(lib_a-fstatr.o)
                0x01007628                _fstat_r
 .text          0x0100769c        0x0 c:/altera/12.1sp1/nios2eds/bin/gnu/h-i686-mingw32/bin/../lib/gcc/nios2-elf/4.1.2/../../../../nios2-elf/lib\libc.a(lib_a-int_errno.o)
 .text          0x0100769c       0x70 c:/altera/12.1sp1/nios2eds/bin/gnu/h-i686-mingw32/bin/../lib/gcc/nios2-elf/4.1.2/../../../../nios2-elf/lib\libc.a(lib_a-isattyr.o)
                0x0100769c                _isatty_r
 .text          0x0100770c       0x78 c:/altera/12.1sp1/nios2eds/bin/gnu/h-i686-mingw32/bin/../lib/gcc/nios2-elf/4.1.2/../../../../nios2-elf/lib\libc.a(lib_a-lseekr.o)
                0x0100770c                _lseek_r
 .text          0x01007784       0x78 c:/altera/12.1sp1/nios2eds/bin/gnu/h-i686-mingw32/bin/../lib/gcc/nios2-elf/4.1.2/../../../../nios2-elf/lib\libc.a(lib_a-readr.o)
                0x01007784                _read_r
 .text          0x010077fc      0x5dc c:/altera/12.1sp1/nios2eds/bin/gnu/h-i686-mingw32/bin/../lib/gcc/nios2-elf/4.1.2\libgcc.a(_udivdi3.o)
                0x010077fc                __udivdi3
 .text          0x01007dd8      0x5b0 c:/altera/12.1sp1/nios2eds/bin/gnu/h-i686-mingw32/bin/../lib/gcc/nios2-elf/4.1.2\libgcc.a(_umoddi3.o)
                0x01007dd8                __umoddi3
 .text          0x01008388      0x504 c:/altera/12.1sp1/nios2eds/bin/gnu/h-i686-mingw32/bin/../lib/gcc/nios2-elf/4.1.2\libgcc.a(_addsub_df.o)
                0x01008798                __subdf3
                0x01008818                __adddf3
 .text          0x0100888c      0x3c4 c:/altera/12.1sp1/nios2eds/bin/gnu/h-i686-mingw32/bin/../lib/gcc/nios2-elf/4.1.2\libgcc.a(_mul_df.o)
                0x0100888c                __muldf3
 .text          0x01008c50      0x258 c:/altera/12.1sp1/nios2eds/bin/gnu/h-i686-mingw32/bin/../lib/gcc/nios2-elf/4.1.2\libgcc.a(_div_df.o)
                0x01008c50                __divdf3
 .text          0x01008ea8       0x88 c:/altera/12.1sp1/nios2eds/bin/gnu/h-i686-mingw32/bin/../lib/gcc/nios2-elf/4.1.2\libgcc.a(_eq_df.o)
                0x01008ea8                __eqdf2
 .text          0x01008f30       0x88 c:/altera/12.1sp1/nios2eds/bin/gnu/h-i686-mingw32/bin/../lib/gcc/nios2-elf/4.1.2\libgcc.a(_ne_df.o)
                0x01008f30                __nedf2
 .text          0x01008fb8       0x88 c:/altera/12.1sp1/nios2eds/bin/gnu/h-i686-mingw32/bin/../lib/gcc/nios2-elf/4.1.2\libgcc.a(_gt_df.o)
                0x01008fb8                __gtdf2
 .text          0x01009040       0x88 c:/altera/12.1sp1/nios2eds/bin/gnu/h-i686-mingw32/bin/../lib/gcc/nios2-elf/4.1.2\libgcc.a(_ge_df.o)
                0x01009040                __gedf2
 .text          0x010090c8       0x88 c:/altera/12.1sp1/nios2eds/bin/gnu/h-i686-mingw32/bin/../lib/gcc/nios2-elf/4.1.2\libgcc.a(_lt_df.o)
                0x010090c8                __ltdf2
 .text          0x01009150       0xf8 c:/altera/12.1sp1/nios2eds/bin/gnu/h-i686-mingw32/bin/../lib/gcc/nios2-elf/4.1.2\libgcc.a(_si_to_df.o)
                0x01009150                __floatsidf
 .text          0x01009248       0xd8 c:/altera/12.1sp1/nios2eds/bin/gnu/h-i686-mingw32/bin/../lib/gcc/nios2-elf/4.1.2\libgcc.a(_df_to_si.o)
                0x01009248                __fixdfsi
 .text          0x01009320        0x0 c:/altera/12.1sp1/nios2eds/bin/gnu/h-i686-mingw32/bin/../lib/gcc/nios2-elf/4.1.2\libgcc.a(_thenan_df.o)
 .text          0x01009320      0x194 c:/altera/12.1sp1/nios2eds/bin/gnu/h-i686-mingw32/bin/../lib/gcc/nios2-elf/4.1.2\libgcc.a(_usi_to_df.o)
                0x01009320                __floatunsidf
 .text          0x010094b4      0x14c c:/altera/12.1sp1/nios2eds/bin/gnu/h-i686-mingw32/bin/../lib/gcc/nios2-elf/4.1.2\libgcc.a(lib2-divmod.o)
                0x01009530                __divsi3
                0x01009590                __modsi3
                0x010095f0                __udivsi3
                0x010095f8                __umodsi3
 .text          0x01009600       0x98 c:/altera/12.1sp1/nios2eds/bin/gnu/h-i686-mingw32/bin/../lib/gcc/nios2-elf/4.1.2\libgcc.a(_muldi3.o)
                0x01009600                __muldi3
 .text          0x01009698        0x0 c:/altera/12.1sp1/nios2eds/bin/gnu/h-i686-mingw32/bin/../lib/gcc/nios2-elf/4.1.2\libgcc.a(_clz.o)
 .text          0x01009698       0x80 c:/altera/12.1sp1/nios2eds/bin/gnu/h-i686-mingw32/bin/../lib/gcc/nios2-elf/4.1.2\libgcc.a(_clzsi2.o)
                0x01009698                __clzsi2
 .text          0x01009718      0x314 c:/altera/12.1sp1/nios2eds/bin/gnu/h-i686-mingw32/bin/../lib/gcc/nios2-elf/4.1.2\libgcc.a(_pack_df.o)
                0x01009718                __pack_d
 .text          0x01009a2c      0x138 c:/altera/12.1sp1/nios2eds/bin/gnu/h-i686-mingw32/bin/../lib/gcc/nios2-elf/4.1.2\libgcc.a(_unpack_df.o)
                0x01009a2c                __unpack_d
 .text          0x01009b64       0xc8 c:/altera/12.1sp1/nios2eds/bin/gnu/h-i686-mingw32/bin/../lib/gcc/nios2-elf/4.1.2\libgcc.a(_fpcmp_parts_df.o)
                0x01009b64                __fpcmp_parts_d
 .text          0x01009c2c      0x15c ../UARTNow_bsp/\libucosii_bsp.a(alt_close.o)
                0x01009c2c                close
 .text          0x01009d88       0x2c ../UARTNow_bsp/\libucosii_bsp.a(alt_dev.o)
 .text          0x01009db4        0x0 ../UARTNow_bsp/\libucosii_bsp.a(alt_errno.o)
 .text          0x01009db4      0x134 ../UARTNow_bsp/\libucosii_bsp.a(alt_fstat.o)
                0x01009db4                fstat
 .text          0x01009ee8      0x120 ../UARTNow_bsp/\libucosii_bsp.a(alt_isatty.o)
                0x01009ee8                isatty
 .text          0x0100a008       0xec ../UARTNow_bsp/\libucosii_bsp.a(alt_load.o)
                0x0100a008                alt_load
 .text          0x0100a0f4      0x150 ../UARTNow_bsp/\libucosii_bsp.a(alt_lseek.o)
                0x0100a0f4                lseek
 .text          0x0100a244       0xc8 ../UARTNow_bsp/\libucosii_bsp.a(alt_main.o)
                0x0100a244                alt_main
 .text          0x0100a30c      0x180 ../UARTNow_bsp/\libucosii_bsp.a(alt_read.o)
                0x0100a30c                read
 .text          0x0100a48c       0x60 ../UARTNow_bsp/\libucosii_bsp.a(alt_release_fd.o)
                0x0100a48c                alt_release_fd
 .text          0x0100a4ec       0xbc ../UARTNow_bsp/\libucosii_bsp.a(alt_sbrk.o)
                0x0100a4ec                sbrk
 .text          0x0100a5a8      0x180 ../UARTNow_bsp/\libucosii_bsp.a(alt_write.o)
                0x0100a5a8                write
 .text          0x0100a728      0x108 ../UARTNow_bsp/\libucosii_bsp.a(alt_env_lock.o)
                0x0100a728                __env_lock
                0x0100a7d4                __env_unlock
 .text          0x0100a830      0x1d8 ../UARTNow_bsp/\libucosii_bsp.a(alt_malloc_lock.o)
                0x0100a830                __malloc_lock
                0x0100a938                __malloc_unlock
 .text          0x0100aa08     0x2128 ../UARTNow_bsp/\libucosii_bsp.a(os_core.o)
                0x0100aa08                OSEventNameGet
                0x0100ab38                OSEventNameSet
                0x0100ac7c                OSEventPendMulti
                0x0100b330                OSInit
                0x0100b384                OSIntEnter
                0x0100b400                OSIntExit
                0x0100b500                OSSchedLock
                0x0100b58c                OSSchedUnlock
                0x0100b670                OSStart
                0x0100b6e0                OSStatInit
                0x0100b78c                OSTimeTick
                0x0100b9cc                OSVersion
                0x0100b9ec                OS_Dummy
                0x0100ba08                OS_EventTaskRdy
                0x0100bb9c                OS_EventTaskWait
                0x0100bcac                OS_EventTaskWaitMulti
                0x0100be00                OS_EventTaskRemove
                0x0100beb8                OS_EventTaskRemoveMulti
                0x0100bfbc                OS_EventWaitListInit
                0x0100c388                OS_MemClr
                0x0100c3dc                OS_MemCopy
                0x0100c448                OS_Sched
                0x0100c58c                OS_StrCopy
                0x0100c60c                OS_StrLen
                0x0100c664                OS_TaskIdle
                0x0100c6c0                OS_TaskStat
                0x0100c788                OS_TaskStatStkChk
                0x0100c850                OS_TCBInit
 .text          0x0100cb30      0x18c ../UARTNow_bsp/\libucosii_bsp.a(os_dbg.o)
                0x0100cb30                OSDebugInit
 .text          0x0100ccbc     0x193c ../UARTNow_bsp/\libucosii_bsp.a(os_flag.o)
                0x0100ccbc                OSFlagAccept
                0x0100cff0                OSFlagCreate
                0x0100d12c                OSFlagDel
                0x0100d3d4                OSFlagNameGet
                0x0100d518                OSFlagNameSet
                0x0100d66c                OSFlagPend
                0x0100dcb0                OSFlagPendGetFlagsRdy
                0x0100dd18                OSFlagPost
                0x0100e0c0                OSFlagQuery
                0x0100e358                OS_FlagInit
                0x0100e54c                OS_FlagUnlink
 .text          0x0100e5f8      0x808 ../UARTNow_bsp/\libucosii_bsp.a(os_mem.o)
                0x0100e5f8                OSMemCreate
                0x0100e814                OSMemGet
                0x0100e918                OSMemNameGet
                0x0100ea24                OSMemNameSet
                0x0100eb44                OSMemPut
                0x0100ec34                OSMemQuery
                0x0100ed30                OS_MemInit
 .text          0x0100ee00     0x1334 ../UARTNow_bsp/\libucosii_bsp.a(os_q.o)
                0x0100ee00                OSQAccept
                0x0100ef54                OSQCreate
                0x0100f168                OSQDel
                0x0100f468                OSQFlush
                0x0100f530                OSQPend
                0x0100f850                OSQPendAbort
                0x0100f9cc                OSQPost
                0x0100fb4c                OSQPostFront
                0x0100fcd4                OSQPostOpt
                0x0100ff08                OSQQuery
                0x01010088                OS_QInit
 .text          0x01010134      0xbc8 ../UARTNow_bsp/\libucosii_bsp.a(os_sem.o)
                0x01010134                OSSemAccept
                0x010101f4                OSSemCreate
                0x01010308                OSSemDel
                0x010105a8                OSSemPend
                0x01010824                OSSemPendAbort
                0x010109a0                OSSemPost
                0x01010ac8                OSSemQuery
                0x01010bf8                OSSemSet
 .text          0x01010cfc     0x1a40 ../UARTNow_bsp/\libucosii_bsp.a(os_task.o)
                0x01010cfc                OSTaskChangePrio
                0x01011270                OSTaskCreate
                0x01011444                OSTaskCreateExt
                0x01011644                OSTaskDel
                0x01011a50                OSTaskDelReq
                0x01011bc0                OSTaskNameGet
                0x01011d78                OSTaskNameSet
                0x01011f3c                OSTaskResume
                0x01012154                OSTaskStkChk
                0x01012350                OSTaskSuspend
                0x0101257c                OSTaskQuery
                0x010126c0                OS_TaskStkClr
 .text          0x0101273c      0x598 ../UARTNow_bsp/\libucosii_bsp.a(os_time.o)
                0x0101273c                OSTimeDly
                0x01012888                OSTimeDlyHMSM
                0x010129fc                OSTimeDlyResume
                0x01012c0c                OSTimeGet
                0x01012c70                OSTimeSet
 .text          0x01012cd4      0x114 ../UARTNow_bsp/\libucosii_bsp.a(alt_sys_init.o)
                0x01012cd4                alt_irq_init
                0x01012d08                alt_sys_init
 .text          0x01012de8      0x148 ../UARTNow_bsp/\libucosii_bsp.a(altera_avalon_jtag_uart_fd.o)
                0x01012de8                altera_avalon_jtag_uart_read_fd
                0x01012e40                altera_avalon_jtag_uart_write_fd
                0x01012e98                altera_avalon_jtag_uart_close_fd
                0x01012ee0                altera_avalon_jtag_uart_ioctl_fd
 .text          0x01012f30      0x580 ../UARTNow_bsp/\libucosii_bsp.a(altera_avalon_jtag_uart_init.o)
                0x01012f30                altera_avalon_jtag_uart_init
                0x0101343c                altera_avalon_jtag_uart_close
 .text          0x010134b0       0xf4 ../UARTNow_bsp/\libucosii_bsp.a(altera_avalon_jtag_uart_ioctl.o)
                0x010134b0                altera_avalon_jtag_uart_ioctl
 .text          0x010135a4      0x2c0 ../UARTNow_bsp/\libucosii_bsp.a(altera_avalon_jtag_uart_read.o)
                0x010135a4                altera_avalon_jtag_uart_read
 .text          0x01013864      0x2dc ../UARTNow_bsp/\libucosii_bsp.a(altera_avalon_jtag_uart_write.o)
                0x01013864                altera_avalon_jtag_uart_write
 .text          0x01013b40       0xfc ../UARTNow_bsp/\libucosii_bsp.a(altera_avalon_timer_sc.o)
                0x01013bb4                alt_avalon_timer_sc_init
 .text          0x01013c3c       0xf8 ../UARTNow_bsp/\libucosii_bsp.a(altera_avalon_uart_fd.o)
                0x01013c3c                altera_avalon_uart_read_fd
                0x01013c94                altera_avalon_uart_write_fd
                0x01013cec                altera_avalon_uart_close_fd
 .text          0x01013d34      0x578 ../UARTNow_bsp/\libucosii_bsp.a(altera_avalon_uart_init.o)
                0x01013d34                altera_avalon_uart_init
                0x0101424c                altera_avalon_uart_close
 .text          0x010142ac      0x310 ../UARTNow_bsp/\libucosii_bsp.a(altera_avalon_uart_read.o)
                0x010142ac                altera_avalon_uart_read
 .text          0x010145bc      0x2a8 ../UARTNow_bsp/\libucosii_bsp.a(altera_avalon_uart_write.o)
                0x010145bc                altera_avalon_uart_write
 .text          0x01014864      0x398 ../UARTNow_bsp/\libucosii_bsp.a(altera_up_avalon_rs232.o)
                0x01014864                alt_up_rs232_enable_read_interrupt
                0x010148b8                alt_up_rs232_disable_read_interrupt
                0x01014910                alt_up_rs232_get_used_space_in_read_FIFO
                0x0101494c                alt_up_rs232_get_available_space_in_write_FIFO
                0x0101498c                alt_up_rs232_check_parity
                0x010149dc                alt_up_rs232_write_data
                0x01014a24                alt_up_rs232_read_data
                0x01014a98                alt_up_rs232_read_fd
                0x01014b28                alt_up_rs232_write_fd
                0x01014bbc                alt_up_rs232_open_dev
 .text          0x01014bfc      0x154 ../UARTNow_bsp/\libucosii_bsp.a(alt_alarm_start.o)
                0x01014bfc                alt_alarm_start
 .text          0x01014d50       0x44 ../UARTNow_bsp/\libucosii_bsp.a(alt_dcache_flush_all.o)
                0x01014d50                alt_dcache_flush_all
 .text          0x01014d94      0x114 ../UARTNow_bsp/\libucosii_bsp.a(alt_dev_llist_insert.o)
                0x01014d94                alt_dev_llist_insert
 .text          0x01014ea8       0x64 ../UARTNow_bsp/\libucosii_bsp.a(alt_do_ctors.o)
                0x01014ea8                _do_ctors
 .text          0x01014f0c       0x64 ../UARTNow_bsp/\libucosii_bsp.a(alt_do_dtors.o)
                0x01014f0c                _do_dtors
 .text          0x01014f70       0x94 ../UARTNow_bsp/\libucosii_bsp.a(alt_find_dev.o)
                0x01014f70                alt_find_dev
 .text          0x01015004       0x30 ../UARTNow_bsp/\libucosii_bsp.a(alt_icache_flush_all.o)
                0x01015004                alt_icache_flush_all
 .text          0x01015034      0x13c ../UARTNow_bsp/\libucosii_bsp.a(alt_io_redirect.o)
                0x010150f8                alt_io_redirect
 .text          0x01015170      0x1c0 ../UARTNow_bsp/\libucosii_bsp.a(alt_irq_register.o)
                0x01015170                alt_irq_register
 .text          0x01015330        0x0 ../UARTNow_bsp/\libucosii_bsp.a(alt_irq_vars.o)
 .text          0x01015330      0x2c4 ../UARTNow_bsp/\libucosii_bsp.a(alt_open.o)
                0x0101540c                open
 .text          0x010155f4      0x1a8 ../UARTNow_bsp/\libucosii_bsp.a(alt_tick.o)
                0x010155f4                alt_alarm_stop
                0x0101568c                alt_tick
 .text          0x0101579c       0x20 ../UARTNow_bsp/\libucosii_bsp.a(altera_nios2_qsys_irq.o)
                0x0101579c                altera_nios2_qsys_irq_init
 .text          0x010157bc       0xd0 ../UARTNow_bsp/\libucosii_bsp.a(os_cpu_a.o)
                0x010157bc                OSCtxSw
                0x010157bc                OSIntCtxSw
                0x01015848                OSStartHighRdy
                0x01015868                OSStartTsk
 .text          0x0101588c      0x418 ../UARTNow_bsp/\libucosii_bsp.a(os_cpu_c.o)
                0x0101588c                OSTaskStkInit
                0x01015b9c                OSTaskCreateHook
                0x01015bbc                OSTaskDelHook
                0x01015bdc                OSTaskSwHook
                0x01015bf8                OSTaskStatHook
                0x01015c14                OSTimeTickHook
                0x01015c30                OSInitHookBegin
                0x01015c4c                OSInitHookEnd
                0x01015c68                OSTaskIdleHook
                0x01015c84                OSTCBInitHook
 .text          0x01015ca4      0x120 ../UARTNow_bsp/\libucosii_bsp.a(alt_find_file.o)
                0x01015ca4                alt_find_file
 .text          0x01015dc4       0xf4 ../UARTNow_bsp/\libucosii_bsp.a(alt_get_fd.o)
                0x01015dc4                alt_get_fd
 .text          0x01015eb8       0x90 ../UARTNow_bsp/\libucosii_bsp.a(alt_icache_flush.o)
                0x01015eb8                alt_icache_flush
 .text          0x01015f48        0x0 ../UARTNow_bsp/\libucosii_bsp.a(alt_irq_entry.o)
 .text          0x01015f48        0x0 ../UARTNow_bsp/\libucosii_bsp.a(alt_irq_handler.o)
 .text          0x01015f48        0x0 ../UARTNow_bsp/\libucosii_bsp.a(alt_exception_entry.o)
 .text          0x01015f48       0x14 c:/altera/12.1sp1/nios2eds/bin/gnu/h-i686-mingw32/bin/../lib/gcc/nios2-elf/4.1.2/../../../../nios2-elf/lib\libc.a(lib_a-atexit.o)
                0x01015f48                atexit
 .text          0x01015f5c       0x38 c:/altera/12.1sp1/nios2eds/bin/gnu/h-i686-mingw32/bin/../lib/gcc/nios2-elf/4.1.2/../../../../nios2-elf/lib\libc.a(lib_a-exit.o)
                0x01015f5c                exit
 .text          0x01015f94       0x74 c:/altera/12.1sp1/nios2eds/bin/gnu/h-i686-mingw32/bin/../lib/gcc/nios2-elf/4.1.2/../../../../nios2-elf/lib\libc.a(lib_a-memcmp.o)
                0x01015f94                memcmp
 .text          0x01016008      0x134 c:/altera/12.1sp1/nios2eds/bin/gnu/h-i686-mingw32/bin/../lib/gcc/nios2-elf/4.1.2/../../../../nios2-elf/lib\libc.a(lib_a-__atexit.o)
                0x01016008                __register_exitproc
 .text          0x0101613c      0x1b4 c:/altera/12.1sp1/nios2eds/bin/gnu/h-i686-mingw32/bin/../lib/gcc/nios2-elf/4.1.2/../../../../nios2-elf/lib\libc.a(lib_a-__call_atexit.o)
                0x01016140                __call_exitprocs
 .text          0x010162f0       0x6c ../UARTNow_bsp/\libucosii_bsp.a(alt_exit.o)
                0x01016330                _exit
 *(.gnu.warning.*)
 *(.fini)
                0x0101635c                PROVIDE (__etext, ABSOLUTE (.))
                0x0101635c                PROVIDE (_etext, ABSOLUTE (.))
                0x0101635c                PROVIDE (etext, ABSOLUTE (.))
 *(.eh_frame_hdr)
                0x0101635c                . = ALIGN (0x4)
                0x0101635c                PROVIDE (__preinit_array_start, ABSOLUTE (.))
 *(.preinit_array)
                0x0101635c                PROVIDE (__preinit_array_end, ABSOLUTE (.))
                0x0101635c                PROVIDE (__init_array_start, ABSOLUTE (.))
 *(.init_array)
                0x0101635c                PROVIDE (__init_array_end, ABSOLUTE (.))
                0x0101635c                PROVIDE (__fini_array_start, ABSOLUTE (.))
 *(.fini_array)
                0x0101635c                PROVIDE (__fini_array_end, ABSOLUTE (.))
 *(.eh_frame)
 *(.gcc_except_table)
 *(.dynamic)
                0x0101635c                PROVIDE (__CTOR_LIST__, ABSOLUTE (.))
 *(.ctors)
 *(SORT(.ctors.*))
 .ctors.65535   0x0101635c        0x4 c:/altera/12.1sp1/nios2eds/bin/gnu/h-i686-mingw32/bin/../lib/gcc/nios2-elf/4.1.2/../../../../nios2-elf/lib\libc.a(lib_a-__call_atexit.o)
                0x01016360                PROVIDE (__CTOR_END__, ABSOLUTE (.))
                0x01016360                PROVIDE (__DTOR_LIST__, ABSOLUTE (.))
 *(.dtors)
 *(SORT(.dtors.*))
                0x01016360                PROVIDE (__DTOR_END__, ABSOLUTE (.))
 *(.jcr)
                0x01016360                . = ALIGN (0x4)

.rodata         0x01016360      0x4f4
                0x01016360                PROVIDE (__ram_rodata_start, ABSOLUTE (.))
                0x01016360                . = ALIGN (0x4)
 *(.rodata .rodata.* .gnu.linkonce.r.*)
 .rodata        0x01016360       0x5c obj/default/main.o
 .rodata.str1.4
                0x010163bc        0x2 c:/altera/12.1sp1/nios2eds/bin/gnu/h-i686-mingw32/bin/../lib/gcc/nios2-elf/4.1.2/../../../../nios2-elf/lib\libc.a(lib_a-puts.o)
                                  0x4 (size before relaxing)
 *fill*         0x010163be        0x2 00
 .rodata.str1.4
                0x010163c0       0x5e c:/altera/12.1sp1/nios2eds/bin/gnu/h-i686-mingw32/bin/../lib/gcc/nios2-elf/4.1.2/../../../../nios2-elf/lib\libc.a(lib_a-vfprintf.o)
                                 0x60 (size before relaxing)
 .rodata        0x0101641e       0x20 c:/altera/12.1sp1/nios2eds/bin/gnu/h-i686-mingw32/bin/../lib/gcc/nios2-elf/4.1.2/../../../../nios2-elf/lib\libc.a(lib_a-vfprintf.o)
 *fill*         0x0101643e        0x2 00
 .rodata.str1.4
                0x01016440       0x10 c:/altera/12.1sp1/nios2eds/bin/gnu/h-i686-mingw32/bin/../lib/gcc/nios2-elf/4.1.2/../../../../nios2-elf/lib\libc.a(lib_a-dtoa.o)
                                 0x14 (size before relaxing)
 .rodata.str1.4
                0x01016450        0x2 c:/altera/12.1sp1/nios2eds/bin/gnu/h-i686-mingw32/bin/../lib/gcc/nios2-elf/4.1.2/../../../../nios2-elf/lib\libc.a(lib_a-impure.o)
                                  0x4 (size before relaxing)
 *fill*         0x01016452        0x2 00
 .rodata.str1.4
                0x01016454       0x10 c:/altera/12.1sp1/nios2eds/bin/gnu/h-i686-mingw32/bin/../lib/gcc/nios2-elf/4.1.2/../../../../nios2-elf/lib\libc.a(lib_a-locale.o)
                                 0x18 (size before relaxing)
 .rodata        0x01016464       0x30 c:/altera/12.1sp1/nios2eds/bin/gnu/h-i686-mingw32/bin/../lib/gcc/nios2-elf/4.1.2/../../../../nios2-elf/lib\libc.a(lib_a-locale.o)
 .rodata        0x01016494      0x124 c:/altera/12.1sp1/nios2eds/bin/gnu/h-i686-mingw32/bin/../lib/gcc/nios2-elf/4.1.2/../../../../nios2-elf/lib\libc.a(lib_a-mprec.o)
                0x01016494                __mprec_tens
                0x0101655c                __mprec_bigtens
                0x01016584                __mprec_tinytens
 .rodata        0x010165b8       0x14 c:/altera/12.1sp1/nios2eds/bin/gnu/h-i686-mingw32/bin/../lib/gcc/nios2-elf/4.1.2\libgcc.a(_thenan_df.o)
                0x010165b8                __thenan_df
 .rodata        0x010165cc      0x100 c:/altera/12.1sp1/nios2eds/bin/gnu/h-i686-mingw32/bin/../lib/gcc/nios2-elf/4.1.2\libgcc.a(_clz.o)
                0x010165cc                __clz_tab
 .rodata        0x010166cc        0xc ../UARTNow_bsp/\libucosii_bsp.a(alt_dev.o)
 .rodata        0x010166d8       0x14 ../UARTNow_bsp/\libucosii_bsp.a(alt_main.o)
 .rodata        0x010166ec      0x120 ../UARTNow_bsp/\libucosii_bsp.a(os_core.o)
                0x010166ec                OSUnMapTbl
 .rodata        0x0101680c       0x44 ../UARTNow_bsp/\libucosii_bsp.a(alt_sys_init.o)
 .rodata        0x01016850        0x4 ../UARTNow_bsp/\libucosii_bsp.a(os_cpu_c.o)
 *(.rodata1)
                0x01016854                . = ALIGN (0x4)
                0x01016854                PROVIDE (__ram_rodata_end, ABSOLUTE (.))
                0x01016360                PROVIDE (__flash_rodata_start, LOADADDR (.rodata))

.rwdata         0x01016854     0x1cb0 load address 0x01018504
                0x01016854                PROVIDE (__ram_rwdata_start, ABSOLUTE (.))
                0x01016854                . = ALIGN (0x4)
 *(.got.plt)
 *(.got)
 *(.data1)
 *(.data .data.* .gnu.linkonce.d.*)
 .data          0x01016854        0x0 ../UARTNow_bsp//obj/HAL/src/crt0.o
 .data          0x01016854        0x0 obj/default/main.o
 .data          0x01016854        0x0 c:/altera/12.1sp1/nios2eds/bin/gnu/h-i686-mingw32/bin/../lib/gcc/nios2-elf/4.1.2/../../../../nios2-elf/lib\libc.a(lib_a-printf.o)
 .data          0x01016854        0x0 c:/altera/12.1sp1/nios2eds/bin/gnu/h-i686-mingw32/bin/../lib/gcc/nios2-elf/4.1.2/../../../../nios2-elf/lib\libc.a(lib_a-puts.o)
 .data          0x01016854        0x0 c:/altera/12.1sp1/nios2eds/bin/gnu/h-i686-mingw32/bin/../lib/gcc/nios2-elf/4.1.2/../../../../nios2-elf/lib\libc.a(lib_a-strlen.o)
 .data          0x01016854        0x0 c:/altera/12.1sp1/nios2eds/bin/gnu/h-i686-mingw32/bin/../lib/gcc/nios2-elf/4.1.2/../../../../nios2-elf/lib\libc.a(lib_a-vfprintf.o)
 .data          0x01016854        0x0 c:/altera/12.1sp1/nios2eds/bin/gnu/h-i686-mingw32/bin/../lib/gcc/nios2-elf/4.1.2/../../../../nios2-elf/lib\libc.a(lib_a-wsetup.o)
 .data          0x01016854        0x0 c:/altera/12.1sp1/nios2eds/bin/gnu/h-i686-mingw32/bin/../lib/gcc/nios2-elf/4.1.2/../../../../nios2-elf/lib\libc.a(lib_a-dtoa.o)
 .data          0x01016854        0x0 c:/altera/12.1sp1/nios2eds/bin/gnu/h-i686-mingw32/bin/../lib/gcc/nios2-elf/4.1.2/../../../../nios2-elf/lib\libc.a(lib_a-fflush.o)
 .data          0x01016854        0x0 c:/altera/12.1sp1/nios2eds/bin/gnu/h-i686-mingw32/bin/../lib/gcc/nios2-elf/4.1.2/../../../../nios2-elf/lib\libc.a(lib_a-findfp.o)
 .data          0x01016854        0x0 c:/altera/12.1sp1/nios2eds/bin/gnu/h-i686-mingw32/bin/../lib/gcc/nios2-elf/4.1.2/../../../../nios2-elf/lib\libc.a(lib_a-freer.o)
 .data          0x01016854        0x0 c:/altera/12.1sp1/nios2eds/bin/gnu/h-i686-mingw32/bin/../lib/gcc/nios2-elf/4.1.2/../../../../nios2-elf/lib\libc.a(lib_a-fvwrite.o)
 .data          0x01016854        0x0 c:/altera/12.1sp1/nios2eds/bin/gnu/h-i686-mingw32/bin/../lib/gcc/nios2-elf/4.1.2/../../../../nios2-elf/lib\libc.a(lib_a-fwalk.o)
 .data          0x01016854      0x400 c:/altera/12.1sp1/nios2eds/bin/gnu/h-i686-mingw32/bin/../lib/gcc/nios2-elf/4.1.2/../../../../nios2-elf/lib\libc.a(lib_a-impure.o)
 .data          0x01016c54        0xc c:/altera/12.1sp1/nios2eds/bin/gnu/h-i686-mingw32/bin/../lib/gcc/nios2-elf/4.1.2/../../../../nios2-elf/lib\libc.a(lib_a-locale.o)
                0x01016c54                __lc_ctype
 .data          0x01016c60        0x0 c:/altera/12.1sp1/nios2eds/bin/gnu/h-i686-mingw32/bin/../lib/gcc/nios2-elf/4.1.2/../../../../nios2-elf/lib\libc.a(lib_a-makebuf.o)
 .data          0x01016c60      0x408 c:/altera/12.1sp1/nios2eds/bin/gnu/h-i686-mingw32/bin/../lib/gcc/nios2-elf/4.1.2/../../../../nios2-elf/lib\libc.a(lib_a-mallocr.o)
                0x01016c60                __malloc_av_
 .data          0x01017068        0x0 c:/altera/12.1sp1/nios2eds/bin/gnu/h-i686-mingw32/bin/../lib/gcc/nios2-elf/4.1.2/../../../../nios2-elf/lib\libc.a(lib_a-memchr.o)
 .data          0x01017068        0x0 c:/altera/12.1sp1/nios2eds/bin/gnu/h-i686-mingw32/bin/../lib/gcc/nios2-elf/4.1.2/../../../../nios2-elf/lib\libc.a(lib_a-memcpy.o)
 .data          0x01017068        0x0 c:/altera/12.1sp1/nios2eds/bin/gnu/h-i686-mingw32/bin/../lib/gcc/nios2-elf/4.1.2/../../../../nios2-elf/lib\libc.a(lib_a-memmove.o)
 .data          0x01017068        0x0 c:/altera/12.1sp1/nios2eds/bin/gnu/h-i686-mingw32/bin/../lib/gcc/nios2-elf/4.1.2/../../../../nios2-elf/lib\libc.a(lib_a-memset.o)
 .data          0x01017068        0x0 c:/altera/12.1sp1/nios2eds/bin/gnu/h-i686-mingw32/bin/../lib/gcc/nios2-elf/4.1.2/../../../../nios2-elf/lib\libc.a(lib_a-mprec.o)
 .data          0x01017068        0x0 c:/altera/12.1sp1/nios2eds/bin/gnu/h-i686-mingw32/bin/../lib/gcc/nios2-elf/4.1.2/../../../../nios2-elf/lib\libc.a(lib_a-reallocr.o)
 .data          0x01017068        0x0 c:/altera/12.1sp1/nios2eds/bin/gnu/h-i686-mingw32/bin/../lib/gcc/nios2-elf/4.1.2/../../../../nios2-elf/lib\libc.a(lib_a-s_isinfd.o)
 .data          0x01017068        0x0 c:/altera/12.1sp1/nios2eds/bin/gnu/h-i686-mingw32/bin/../lib/gcc/nios2-elf/4.1.2/../../../../nios2-elf/lib\libc.a(lib_a-s_isnand.o)
 .data          0x01017068        0x0 c:/altera/12.1sp1/nios2eds/bin/gnu/h-i686-mingw32/bin/../lib/gcc/nios2-elf/4.1.2/../../../../nios2-elf/lib\libc.a(lib_a-sbrkr.o)
 .data          0x01017068        0x0 c:/altera/12.1sp1/nios2eds/bin/gnu/h-i686-mingw32/bin/../lib/gcc/nios2-elf/4.1.2/../../../../nios2-elf/lib\libc.a(lib_a-stdio.o)
 .data          0x01017068        0x0 c:/altera/12.1sp1/nios2eds/bin/gnu/h-i686-mingw32/bin/../lib/gcc/nios2-elf/4.1.2/../../../../nios2-elf/lib\libc.a(lib_a-strcmp.o)
 .data          0x01017068        0x0 c:/altera/12.1sp1/nios2eds/bin/gnu/h-i686-mingw32/bin/../lib/gcc/nios2-elf/4.1.2/../../../../nios2-elf/lib\libc.a(lib_a-writer.o)
 .data          0x01017068        0x0 c:/altera/12.1sp1/nios2eds/bin/gnu/h-i686-mingw32/bin/../lib/gcc/nios2-elf/4.1.2/../../../../nios2-elf/lib\libc.a(lib_a-callocr.o)
 .data          0x01017068        0x0 c:/altera/12.1sp1/nios2eds/bin/gnu/h-i686-mingw32/bin/../lib/gcc/nios2-elf/4.1.2/../../../../nios2-elf/lib\libc.a(lib_a-closer.o)
 .data          0x01017068        0x0 c:/altera/12.1sp1/nios2eds/bin/gnu/h-i686-mingw32/bin/../lib/gcc/nios2-elf/4.1.2/../../../../nios2-elf/lib\libc.a(lib_a-fclose.o)
 .data          0x01017068        0x0 c:/altera/12.1sp1/nios2eds/bin/gnu/h-i686-mingw32/bin/../lib/gcc/nios2-elf/4.1.2/../../../../nios2-elf/lib\libc.a(lib_a-fstatr.o)
 .data          0x01017068        0x0 c:/altera/12.1sp1/nios2eds/bin/gnu/h-i686-mingw32/bin/../lib/gcc/nios2-elf/4.1.2/../../../../nios2-elf/lib\libc.a(lib_a-int_errno.o)
 .data          0x01017068        0x0 c:/altera/12.1sp1/nios2eds/bin/gnu/h-i686-mingw32/bin/../lib/gcc/nios2-elf/4.1.2/../../../../nios2-elf/lib\libc.a(lib_a-isattyr.o)
 .data          0x01017068        0x0 c:/altera/12.1sp1/nios2eds/bin/gnu/h-i686-mingw32/bin/../lib/gcc/nios2-elf/4.1.2/../../../../nios2-elf/lib\libc.a(lib_a-lseekr.o)
 .data          0x01017068        0x0 c:/altera/12.1sp1/nios2eds/bin/gnu/h-i686-mingw32/bin/../lib/gcc/nios2-elf/4.1.2/../../../../nios2-elf/lib\libc.a(lib_a-readr.o)
 .data          0x01017068        0x0 c:/altera/12.1sp1/nios2eds/bin/gnu/h-i686-mingw32/bin/../lib/gcc/nios2-elf/4.1.2\libgcc.a(_udivdi3.o)
 .data          0x01017068        0x0 c:/altera/12.1sp1/nios2eds/bin/gnu/h-i686-mingw32/bin/../lib/gcc/nios2-elf/4.1.2\libgcc.a(_umoddi3.o)
 .data          0x01017068        0x0 c:/altera/12.1sp1/nios2eds/bin/gnu/h-i686-mingw32/bin/../lib/gcc/nios2-elf/4.1.2\libgcc.a(_addsub_df.o)
 .data          0x01017068        0x0 c:/altera/12.1sp1/nios2eds/bin/gnu/h-i686-mingw32/bin/../lib/gcc/nios2-elf/4.1.2\libgcc.a(_mul_df.o)
 .data          0x01017068        0x0 c:/altera/12.1sp1/nios2eds/bin/gnu/h-i686-mingw32/bin/../lib/gcc/nios2-elf/4.1.2\libgcc.a(_div_df.o)
 .data          0x01017068        0x0 c:/altera/12.1sp1/nios2eds/bin/gnu/h-i686-mingw32/bin/../lib/gcc/nios2-elf/4.1.2\libgcc.a(_eq_df.o)
 .data          0x01017068        0x0 c:/altera/12.1sp1/nios2eds/bin/gnu/h-i686-mingw32/bin/../lib/gcc/nios2-elf/4.1.2\libgcc.a(_ne_df.o)
 .data          0x01017068        0x0 c:/altera/12.1sp1/nios2eds/bin/gnu/h-i686-mingw32/bin/../lib/gcc/nios2-elf/4.1.2\libgcc.a(_gt_df.o)
 .data          0x01017068        0x0 c:/altera/12.1sp1/nios2eds/bin/gnu/h-i686-mingw32/bin/../lib/gcc/nios2-elf/4.1.2\libgcc.a(_ge_df.o)
 .data          0x01017068        0x0 c:/altera/12.1sp1/nios2eds/bin/gnu/h-i686-mingw32/bin/../lib/gcc/nios2-elf/4.1.2\libgcc.a(_lt_df.o)
 .data          0x01017068        0x0 c:/altera/12.1sp1/nios2eds/bin/gnu/h-i686-mingw32/bin/../lib/gcc/nios2-elf/4.1.2\libgcc.a(_si_to_df.o)
 .data          0x01017068        0x0 c:/altera/12.1sp1/nios2eds/bin/gnu/h-i686-mingw32/bin/../lib/gcc/nios2-elf/4.1.2\libgcc.a(_df_to_si.o)
 .data          0x01017068        0x0 c:/altera/12.1sp1/nios2eds/bin/gnu/h-i686-mingw32/bin/../lib/gcc/nios2-elf/4.1.2\libgcc.a(_thenan_df.o)
 .data          0x01017068        0x0 c:/altera/12.1sp1/nios2eds/bin/gnu/h-i686-mingw32/bin/../lib/gcc/nios2-elf/4.1.2\libgcc.a(_usi_to_df.o)
 .data          0x01017068        0x0 c:/altera/12.1sp1/nios2eds/bin/gnu/h-i686-mingw32/bin/../lib/gcc/nios2-elf/4.1.2\libgcc.a(lib2-divmod.o)
 .data          0x01017068        0x0 c:/altera/12.1sp1/nios2eds/bin/gnu/h-i686-mingw32/bin/../lib/gcc/nios2-elf/4.1.2\libgcc.a(_muldi3.o)
 .data          0x01017068        0x0 c:/altera/12.1sp1/nios2eds/bin/gnu/h-i686-mingw32/bin/../lib/gcc/nios2-elf/4.1.2\libgcc.a(_clz.o)
 .data          0x01017068        0x0 c:/altera/12.1sp1/nios2eds/bin/gnu/h-i686-mingw32/bin/../lib/gcc/nios2-elf/4.1.2\libgcc.a(_clzsi2.o)
 .data          0x01017068        0x0 c:/altera/12.1sp1/nios2eds/bin/gnu/h-i686-mingw32/bin/../lib/gcc/nios2-elf/4.1.2\libgcc.a(_pack_df.o)
 .data          0x01017068        0x0 c:/altera/12.1sp1/nios2eds/bin/gnu/h-i686-mingw32/bin/../lib/gcc/nios2-elf/4.1.2\libgcc.a(_unpack_df.o)
 .data          0x01017068        0x0 c:/altera/12.1sp1/nios2eds/bin/gnu/h-i686-mingw32/bin/../lib/gcc/nios2-elf/4.1.2\libgcc.a(_fpcmp_parts_df.o)
 .data          0x01017068        0x0 ../UARTNow_bsp/\libucosii_bsp.a(alt_close.o)
 .data          0x01017068      0x1a8 ../UARTNow_bsp/\libucosii_bsp.a(alt_dev.o)
                0x01017068                alt_dev_null
                0x01017090                alt_fd_list
 .data          0x01017210        0x0 ../UARTNow_bsp/\libucosii_bsp.a(alt_errno.o)
 .data          0x01017210        0x0 ../UARTNow_bsp/\libucosii_bsp.a(alt_fstat.o)
 .data          0x01017210        0x0 ../UARTNow_bsp/\libucosii_bsp.a(alt_isatty.o)
 .data          0x01017210        0x0 ../UARTNow_bsp/\libucosii_bsp.a(alt_load.o)
 .data          0x01017210        0x0 ../UARTNow_bsp/\libucosii_bsp.a(alt_lseek.o)
 .data          0x01017210        0x0 ../UARTNow_bsp/\libucosii_bsp.a(alt_main.o)
 .data          0x01017210        0x0 ../UARTNow_bsp/\libucosii_bsp.a(alt_read.o)
 .data          0x01017210        0x0 ../UARTNow_bsp/\libucosii_bsp.a(alt_release_fd.o)
 .data          0x01017210        0x0 ../UARTNow_bsp/\libucosii_bsp.a(alt_sbrk.o)
 .data          0x01017210        0x0 ../UARTNow_bsp/\libucosii_bsp.a(alt_write.o)
 .data          0x01017210        0x0 ../UARTNow_bsp/\libucosii_bsp.a(alt_env_lock.o)
 .data          0x01017210        0x0 ../UARTNow_bsp/\libucosii_bsp.a(alt_malloc_lock.o)
 .data          0x01017210        0x0 ../UARTNow_bsp/\libucosii_bsp.a(os_core.o)
 .data          0x01017210        0x0 ../UARTNow_bsp/\libucosii_bsp.a(os_dbg.o)
 .data          0x01017210        0x0 ../UARTNow_bsp/\libucosii_bsp.a(os_flag.o)
 .data          0x01017210        0x0 ../UARTNow_bsp/\libucosii_bsp.a(os_mem.o)
 .data          0x01017210        0x0 ../UARTNow_bsp/\libucosii_bsp.a(os_q.o)
 .data          0x01017210        0x0 ../UARTNow_bsp/\libucosii_bsp.a(os_sem.o)
 .data          0x01017210        0x0 ../UARTNow_bsp/\libucosii_bsp.a(os_task.o)
 .data          0x01017210        0x0 ../UARTNow_bsp/\libucosii_bsp.a(os_time.o)
 .data          0x01017210     0x1238 ../UARTNow_bsp/\libucosii_bsp.a(alt_sys_init.o)
 .data          0x01018448        0x0 ../UARTNow_bsp/\libucosii_bsp.a(altera_avalon_jtag_uart_fd.o)
 .data          0x01018448        0x0 ../UARTNow_bsp/\libucosii_bsp.a(altera_avalon_jtag_uart_init.o)
 .data          0x01018448        0x0 ../UARTNow_bsp/\libucosii_bsp.a(altera_avalon_jtag_uart_ioctl.o)
 .data          0x01018448        0x0 ../UARTNow_bsp/\libucosii_bsp.a(altera_avalon_jtag_uart_read.o)
 .data          0x01018448        0x0 ../UARTNow_bsp/\libucosii_bsp.a(altera_avalon_jtag_uart_write.o)
 .data          0x01018448        0x0 ../UARTNow_bsp/\libucosii_bsp.a(altera_avalon_timer_sc.o)
 .data          0x01018448        0x0 ../UARTNow_bsp/\libucosii_bsp.a(altera_avalon_uart_fd.o)
 .data          0x01018448        0x0 ../UARTNow_bsp/\libucosii_bsp.a(altera_avalon_uart_init.o)
 .data          0x01018448        0x0 ../UARTNow_bsp/\libucosii_bsp.a(altera_avalon_uart_read.o)
 .data          0x01018448        0x0 ../UARTNow_bsp/\libucosii_bsp.a(altera_avalon_uart_write.o)
 .data          0x01018448        0x0 ../UARTNow_bsp/\libucosii_bsp.a(altera_up_avalon_rs232.o)
 .data          0x01018448        0x0 ../UARTNow_bsp/\libucosii_bsp.a(alt_alarm_start.o)
 .data          0x01018448        0x0 ../UARTNow_bsp/\libucosii_bsp.a(alt_dcache_flush_all.o)
 .data          0x01018448        0x0 ../UARTNow_bsp/\libucosii_bsp.a(alt_dev_llist_insert.o)
 .data          0x01018448        0x0 ../UARTNow_bsp/\libucosii_bsp.a(alt_do_ctors.o)
 .data          0x01018448        0x0 ../UARTNow_bsp/\libucosii_bsp.a(alt_do_dtors.o)
 .data          0x01018448        0x0 ../UARTNow_bsp/\libucosii_bsp.a(alt_find_dev.o)
 .data          0x01018448        0x0 ../UARTNow_bsp/\libucosii_bsp.a(alt_icache_flush_all.o)
 .data          0x01018448        0x0 ../UARTNow_bsp/\libucosii_bsp.a(alt_io_redirect.o)
 .data          0x01018448        0x0 ../UARTNow_bsp/\libucosii_bsp.a(alt_irq_register.o)
 .data          0x01018448        0x0 ../UARTNow_bsp/\libucosii_bsp.a(alt_irq_vars.o)
 .data          0x01018448        0x0 ../UARTNow_bsp/\libucosii_bsp.a(alt_open.o)
 .data          0x01018448        0x0 ../UARTNow_bsp/\libucosii_bsp.a(alt_tick.o)
 .data          0x01018448        0x0 ../UARTNow_bsp/\libucosii_bsp.a(altera_nios2_qsys_irq.o)
 .data          0x01018448        0x0 ../UARTNow_bsp/\libucosii_bsp.a(os_cpu_a.o)
 .data          0x01018448        0x0 ../UARTNow_bsp/\libucosii_bsp.a(os_cpu_c.o)
 .data          0x01018448        0x0 ../UARTNow_bsp/\libucosii_bsp.a(alt_find_file.o)
 .data          0x01018448        0x0 ../UARTNow_bsp/\libucosii_bsp.a(alt_get_fd.o)
 .data          0x01018448        0x0 ../UARTNow_bsp/\libucosii_bsp.a(alt_icache_flush.o)
 .data          0x01018448        0x0 ../UARTNow_bsp/\libucosii_bsp.a(alt_irq_entry.o)
 .data          0x01018448        0x0 ../UARTNow_bsp/\libucosii_bsp.a(alt_irq_handler.o)
 .data          0x01018448        0x0 ../UARTNow_bsp/\libucosii_bsp.a(alt_exception_entry.o)
 .data          0x01018448        0x0 c:/altera/12.1sp1/nios2eds/bin/gnu/h-i686-mingw32/bin/../lib/gcc/nios2-elf/4.1.2/../../../../nios2-elf/lib\libc.a(lib_a-atexit.o)
 .data          0x01018448        0x0 c:/altera/12.1sp1/nios2eds/bin/gnu/h-i686-mingw32/bin/../lib/gcc/nios2-elf/4.1.2/../../../../nios2-elf/lib\libc.a(lib_a-exit.o)
 .data          0x01018448        0x0 c:/altera/12.1sp1/nios2eds/bin/gnu/h-i686-mingw32/bin/../lib/gcc/nios2-elf/4.1.2/../../../../nios2-elf/lib\libc.a(lib_a-memcmp.o)
 .data          0x01018448        0x0 c:/altera/12.1sp1/nios2eds/bin/gnu/h-i686-mingw32/bin/../lib/gcc/nios2-elf/4.1.2/../../../../nios2-elf/lib\libc.a(lib_a-__atexit.o)
 .data          0x01018448        0x0 c:/altera/12.1sp1/nios2eds/bin/gnu/h-i686-mingw32/bin/../lib/gcc/nios2-elf/4.1.2/../../../../nios2-elf/lib\libc.a(lib_a-__call_atexit.o)
 .data          0x01018448        0x0 ../UARTNow_bsp/\libucosii_bsp.a(alt_exit.o)
                0x01020448                _gp = ABSOLUTE ((. + 0x8000))
                0x01020448                PROVIDE (gp, _gp)
 *(.rwdata .rwdata.*)
 *(.sdata .sdata.* .gnu.linkonce.s.*)
 .sdata         0x01018448        0x8 c:/altera/12.1sp1/nios2eds/bin/gnu/h-i686-mingw32/bin/../lib/gcc/nios2-elf/4.1.2/../../../../nios2-elf/lib\libc.a(lib_a-impure.o)
                0x01018448                _impure_ptr
                0x0101844c                _global_impure_ptr
 .sdata         0x01018450        0x8 c:/altera/12.1sp1/nios2eds/bin/gnu/h-i686-mingw32/bin/../lib/gcc/nios2-elf/4.1.2/../../../../nios2-elf/lib\libc.a(lib_a-locale.o)
                0x01018450                __mb_cur_max
 .sdata         0x01018458        0x8 c:/altera/12.1sp1/nios2eds/bin/gnu/h-i686-mingw32/bin/../lib/gcc/nios2-elf/4.1.2/../../../../nios2-elf/lib\libc.a(lib_a-mallocr.o)
                0x01018458                __malloc_trim_threshold
                0x0101845c                __malloc_sbrk_base
 .sdata         0x01018460       0x14 ../UARTNow_bsp/\libucosii_bsp.a(alt_dev.o)
                0x01018460                alt_fs_list
                0x01018468                alt_dev_list
                0x01018470                alt_max_fd
 .sdata         0x01018474        0x4 ../UARTNow_bsp/\libucosii_bsp.a(alt_errno.o)
                0x01018474                alt_errno
 .sdata         0x01018478        0x4 ../UARTNow_bsp/\libucosii_bsp.a(alt_sbrk.o)
 .sdata         0x0101847c        0x4 ../UARTNow_bsp/\libucosii_bsp.a(alt_env_lock.o)
 .sdata         0x01018480        0x4 ../UARTNow_bsp/\libucosii_bsp.a(alt_malloc_lock.o)
 .sdata         0x01018484       0x74 ../UARTNow_bsp/\libucosii_bsp.a(os_dbg.o)
                0x01018484                OSDebugEn
                0x01018488                OSEndiannessTest
                0x0101848c                OSEventEn
                0x0101848e                OSEventMax
                0x01018490                OSEventNameSize
                0x01018492                OSEventSize
                0x01018494                OSEventTblSize
                0x01018496                OSEventMultiEn
                0x01018498                OSFlagEn
                0x0101849a                OSFlagGrpSize
                0x0101849c                OSFlagNodeSize
                0x0101849e                OSFlagWidth
                0x010184a0                OSFlagMax
                0x010184a2                OSFlagNameSize
                0x010184a4                OSLowestPrio
                0x010184a6                OSMboxEn
                0x010184a8                OSMemEn
                0x010184aa                OSMemMax
                0x010184ac                OSMemNameSize
                0x010184ae                OSMemSize
                0x010184b0                OSMemTblSize
                0x010184b2                OSMutexEn
                0x010184b4                OSPtrSize
                0x010184b6                OSQEn
                0x010184b8                OSQMax
                0x010184ba                OSQSize
                0x010184bc                OSRdyTblSize
                0x010184be                OSSemEn
                0x010184c0                OSStkWidth
                0x010184c2                OSTaskCreateEn
                0x010184c4                OSTaskCreateExtEn
                0x010184c6                OSTaskDelEn
                0x010184c8                OSTaskIdleStkSize
                0x010184ca                OSTaskProfileEn
                0x010184cc                OSTaskMax
                0x010184ce                OSTaskNameSize
                0x010184d0                OSTaskStatEn
                0x010184d2                OSTaskStatStkSize
                0x010184d4                OSTaskStatStkChkEn
                0x010184d6                OSTaskSwHookEn
                0x010184d8                OSTCBPrioTblMax
                0x010184da                OSTCBSize
                0x010184dc                OSTicksPerSec
                0x010184de                OSTimeTickHookEn
                0x010184e0                OSVersionNbr
                0x010184e2                OSTmrEn
                0x010184e4                OSTmrCfgMax
                0x010184e6                OSTmrCfgNameSize
                0x010184e8                OSTmrCfgWheelSize
                0x010184ea                OSTmrCfgTicksPerSec
                0x010184ec                OSTmrSize
                0x010184ee                OSTmrTblSize
                0x010184f0                OSTmrWheelSize
                0x010184f2                OSTmrWheelTblSize
                0x010184f4                OSDataSize
 .sdata         0x010184f8        0x4 ../UARTNow_bsp/\libucosii_bsp.a(alt_irq_vars.o)
                0x010184f8                alt_priority_mask
 .sdata         0x010184fc        0x8 ../UARTNow_bsp/\libucosii_bsp.a(alt_tick.o)
                0x010184fc                alt_alarm_list
 *(.sdata2 .sdata2.* .gnu.linkonce.s2.*)
                0x01018504                . = ALIGN (0x4)
                0x01018504                _edata = ABSOLUTE (.)
                0x01018504                PROVIDE (edata, ABSOLUTE (.))
                0x01018504                PROVIDE (__ram_rwdata_end, ABSOLUTE (.))
                0x01018504                PROVIDE (__flash_rwdata_start, LOADADDR (.rwdata))

.bss            0x0101a1b4     0x7588
                0x0101a1b4                __bss_start = ABSOLUTE (.)
                0x0101a1b4                PROVIDE (__sbss_start, ABSOLUTE (.))
                0x0101a1b4                PROVIDE (___sbss_start, ABSOLUTE (.))
 *(.dynsbss)
 *(.sbss .sbss.* .gnu.linkonce.sb.*)
 .sbss          0x0101a1b4        0x4 obj/default/main.o
                0x0101a1b4                queue
 .sbss          0x0101a1b8        0xc c:/altera/12.1sp1/nios2eds/bin/gnu/h-i686-mingw32/bin/../lib/gcc/nios2-elf/4.1.2/../../../../nios2-elf/lib\libc.a(lib_a-locale.o)
                0x0101a1b8                __nlocale_changed
                0x0101a1bc                __mlocale_changed
                0x0101a1c0                _PathLocale
 .sbss          0x0101a1c4        0xc c:/altera/12.1sp1/nios2eds/bin/gnu/h-i686-mingw32/bin/../lib/gcc/nios2-elf/4.1.2/../../../../nios2-elf/lib\libc.a(lib_a-mallocr.o)
                0x0101a1c4                __malloc_top_pad
                0x0101a1c8                __malloc_max_sbrked_mem
                0x0101a1cc                __malloc_max_total_mem
 .sbss          0x0101a1d0        0x4 c:/altera/12.1sp1/nios2eds/bin/gnu/h-i686-mingw32/bin/../lib/gcc/nios2-elf/4.1.2/../../../../nios2-elf/lib\libc.a(lib_a-int_errno.o)
                0x0101a1d0                errno
 .sbss          0x0101a1d4        0x4 ../UARTNow_bsp/\libucosii_bsp.a(alt_dev.o)
                0x0101a1d4                alt_fd_list_lock
 .sbss          0x0101a1d8        0xc ../UARTNow_bsp/\libucosii_bsp.a(alt_main.o)
                0x0101a1d8                alt_argc
                0x0101a1dc                alt_argv
                0x0101a1e0                alt_envp
 .sbss          0x0101a1e4        0x8 ../UARTNow_bsp/\libucosii_bsp.a(alt_env_lock.o)
                0x0101a1e8                alt_envsem
 .sbss          0x0101a1ec        0x8 ../UARTNow_bsp/\libucosii_bsp.a(alt_malloc_lock.o)
                0x0101a1f0                alt_heapsem
 .sbss          0x0101a1f4       0x50 ../UARTNow_bsp/\libucosii_bsp.a(os_core.o)
                0x0101a1f4                OSLockNesting
                0x0101a1f5                OSRunning
                0x0101a1f8                OSIdleCtr
                0x0101a1fc                OSPrioHighRdy
                0x0101a1fd                OSPrioCur
                0x0101a200                OSTCBList
                0x0101a204                OSTickStepState
                0x0101a208                OSCtxSwCtr
                0x0101a20c                OSIdleCtrMax
                0x0101a210                OSTCBFreeList
                0x0101a214                OSCPUUsage
                0x0101a215                OSTaskCtr
                0x0101a218                OSMemFreeList
                0x0101a21c                OSTCBHighRdy
                0x0101a220                OSQFreeList
                0x0101a224                OSRdyGrp
                0x0101a225                OSRdyTbl
                0x0101a228                OSEventFreeList
                0x0101a22c                OSIntNesting
                0x0101a230                OSTCBCur
                0x0101a234                OSTime
                0x0101a238                OSFlagFreeList
                0x0101a23c                OSStatRdy
                0x0101a240                OSIdleCtrRun
 .sbss          0x0101a244        0x4 ../UARTNow_bsp/\libucosii_bsp.a(alt_irq_vars.o)
                0x0101a244                alt_irq_active
 .sbss          0x0101a248        0x8 ../UARTNow_bsp/\libucosii_bsp.a(alt_tick.o)
                0x0101a248                _alt_tick_rate
                0x0101a24c                _alt_nticks
 *(.sbss2 .sbss2.* .gnu.linkonce.sb2.*)
 *(.scommon)
                0x0101a250                PROVIDE (__sbss_end, ABSOLUTE (.))
                0x0101a250                PROVIDE (___sbss_end, ABSOLUTE (.))
 *(.dynbss)
 *(.bss .bss.* .gnu.linkonce.b.*)
 .bss           0x0101a250        0x0 ../UARTNow_bsp//obj/HAL/src/crt0.o
 .bss           0x0101a250        0x0 obj/default/main.o
 .bss           0x0101a250        0x0 c:/altera/12.1sp1/nios2eds/bin/gnu/h-i686-mingw32/bin/../lib/gcc/nios2-elf/4.1.2/../../../../nios2-elf/lib\libc.a(lib_a-printf.o)
 .bss           0x0101a250        0x0 c:/altera/12.1sp1/nios2eds/bin/gnu/h-i686-mingw32/bin/../lib/gcc/nios2-elf/4.1.2/../../../../nios2-elf/lib\libc.a(lib_a-puts.o)
 .bss           0x0101a250        0x0 c:/altera/12.1sp1/nios2eds/bin/gnu/h-i686-mingw32/bin/../lib/gcc/nios2-elf/4.1.2/../../../../nios2-elf/lib\libc.a(lib_a-strlen.o)
 .bss           0x0101a250        0x0 c:/altera/12.1sp1/nios2eds/bin/gnu/h-i686-mingw32/bin/../lib/gcc/nios2-elf/4.1.2/../../../../nios2-elf/lib\libc.a(lib_a-vfprintf.o)
 .bss           0x0101a250        0x0 c:/altera/12.1sp1/nios2eds/bin/gnu/h-i686-mingw32/bin/../lib/gcc/nios2-elf/4.1.2/../../../../nios2-elf/lib\libc.a(lib_a-wsetup.o)
 .bss           0x0101a250        0x0 c:/altera/12.1sp1/nios2eds/bin/gnu/h-i686-mingw32/bin/../lib/gcc/nios2-elf/4.1.2/../../../../nios2-elf/lib\libc.a(lib_a-dtoa.o)
 .bss           0x0101a250        0x0 c:/altera/12.1sp1/nios2eds/bin/gnu/h-i686-mingw32/bin/../lib/gcc/nios2-elf/4.1.2/../../../../nios2-elf/lib\libc.a(lib_a-fflush.o)
 .bss           0x0101a250        0x0 c:/altera/12.1sp1/nios2eds/bin/gnu/h-i686-mingw32/bin/../lib/gcc/nios2-elf/4.1.2/../../../../nios2-elf/lib\libc.a(lib_a-findfp.o)
 .bss           0x0101a250        0x0 c:/altera/12.1sp1/nios2eds/bin/gnu/h-i686-mingw32/bin/../lib/gcc/nios2-elf/4.1.2/../../../../nios2-elf/lib\libc.a(lib_a-freer.o)
 .bss           0x0101a250        0x0 c:/altera/12.1sp1/nios2eds/bin/gnu/h-i686-mingw32/bin/../lib/gcc/nios2-elf/4.1.2/../../../../nios2-elf/lib\libc.a(lib_a-fvwrite.o)
 .bss           0x0101a250        0x0 c:/altera/12.1sp1/nios2eds/bin/gnu/h-i686-mingw32/bin/../lib/gcc/nios2-elf/4.1.2/../../../../nios2-elf/lib\libc.a(lib_a-fwalk.o)
 .bss           0x0101a250        0x0 c:/altera/12.1sp1/nios2eds/bin/gnu/h-i686-mingw32/bin/../lib/gcc/nios2-elf/4.1.2/../../../../nios2-elf/lib\libc.a(lib_a-impure.o)
 .bss           0x0101a250        0x0 c:/altera/12.1sp1/nios2eds/bin/gnu/h-i686-mingw32/bin/../lib/gcc/nios2-elf/4.1.2/../../../../nios2-elf/lib\libc.a(lib_a-locale.o)
 .bss           0x0101a250        0x0 c:/altera/12.1sp1/nios2eds/bin/gnu/h-i686-mingw32/bin/../lib/gcc/nios2-elf/4.1.2/../../../../nios2-elf/lib\libc.a(lib_a-makebuf.o)
 .bss           0x0101a250       0x28 c:/altera/12.1sp1/nios2eds/bin/gnu/h-i686-mingw32/bin/../lib/gcc/nios2-elf/4.1.2/../../../../nios2-elf/lib\libc.a(lib_a-mallocr.o)
                0x0101a250                __malloc_current_mallinfo
 .bss           0x0101a278        0x0 c:/altera/12.1sp1/nios2eds/bin/gnu/h-i686-mingw32/bin/../lib/gcc/nios2-elf/4.1.2/../../../../nios2-elf/lib\libc.a(lib_a-memchr.o)
 .bss           0x0101a278        0x0 c:/altera/12.1sp1/nios2eds/bin/gnu/h-i686-mingw32/bin/../lib/gcc/nios2-elf/4.1.2/../../../../nios2-elf/lib\libc.a(lib_a-memcpy.o)
 .bss           0x0101a278        0x0 c:/altera/12.1sp1/nios2eds/bin/gnu/h-i686-mingw32/bin/../lib/gcc/nios2-elf/4.1.2/../../../../nios2-elf/lib\libc.a(lib_a-memmove.o)
 .bss           0x0101a278        0x0 c:/altera/12.1sp1/nios2eds/bin/gnu/h-i686-mingw32/bin/../lib/gcc/nios2-elf/4.1.2/../../../../nios2-elf/lib\libc.a(lib_a-memset.o)
 .bss           0x0101a278        0x0 c:/altera/12.1sp1/nios2eds/bin/gnu/h-i686-mingw32/bin/../lib/gcc/nios2-elf/4.1.2/../../../../nios2-elf/lib\libc.a(lib_a-mprec.o)
 .bss           0x0101a278        0x0 c:/altera/12.1sp1/nios2eds/bin/gnu/h-i686-mingw32/bin/../lib/gcc/nios2-elf/4.1.2/../../../../nios2-elf/lib\libc.a(lib_a-reallocr.o)
 .bss           0x0101a278        0x0 c:/altera/12.1sp1/nios2eds/bin/gnu/h-i686-mingw32/bin/../lib/gcc/nios2-elf/4.1.2/../../../../nios2-elf/lib\libc.a(lib_a-s_isinfd.o)
 .bss           0x0101a278        0x0 c:/altera/12.1sp1/nios2eds/bin/gnu/h-i686-mingw32/bin/../lib/gcc/nios2-elf/4.1.2/../../../../nios2-elf/lib\libc.a(lib_a-s_isnand.o)
 .bss           0x0101a278        0x0 c:/altera/12.1sp1/nios2eds/bin/gnu/h-i686-mingw32/bin/../lib/gcc/nios2-elf/4.1.2/../../../../nios2-elf/lib\libc.a(lib_a-sbrkr.o)
 .bss           0x0101a278        0x0 c:/altera/12.1sp1/nios2eds/bin/gnu/h-i686-mingw32/bin/../lib/gcc/nios2-elf/4.1.2/../../../../nios2-elf/lib\libc.a(lib_a-stdio.o)
 .bss           0x0101a278        0x0 c:/altera/12.1sp1/nios2eds/bin/gnu/h-i686-mingw32/bin/../lib/gcc/nios2-elf/4.1.2/../../../../nios2-elf/lib\libc.a(lib_a-strcmp.o)
 .bss           0x0101a278        0x0 c:/altera/12.1sp1/nios2eds/bin/gnu/h-i686-mingw32/bin/../lib/gcc/nios2-elf/4.1.2/../../../../nios2-elf/lib\libc.a(lib_a-writer.o)
 .bss           0x0101a278        0x0 c:/altera/12.1sp1/nios2eds/bin/gnu/h-i686-mingw32/bin/../lib/gcc/nios2-elf/4.1.2/../../../../nios2-elf/lib\libc.a(lib_a-callocr.o)
 .bss           0x0101a278        0x0 c:/altera/12.1sp1/nios2eds/bin/gnu/h-i686-mingw32/bin/../lib/gcc/nios2-elf/4.1.2/../../../../nios2-elf/lib\libc.a(lib_a-closer.o)
 .bss           0x0101a278        0x0 c:/altera/12.1sp1/nios2eds/bin/gnu/h-i686-mingw32/bin/../lib/gcc/nios2-elf/4.1.2/../../../../nios2-elf/lib\libc.a(lib_a-fclose.o)
 .bss           0x0101a278        0x0 c:/altera/12.1sp1/nios2eds/bin/gnu/h-i686-mingw32/bin/../lib/gcc/nios2-elf/4.1.2/../../../../nios2-elf/lib\libc.a(lib_a-fstatr.o)
 .bss           0x0101a278        0x0 c:/altera/12.1sp1/nios2eds/bin/gnu/h-i686-mingw32/bin/../lib/gcc/nios2-elf/4.1.2/../../../../nios2-elf/lib\libc.a(lib_a-int_errno.o)
 .bss           0x0101a278        0x0 c:/altera/12.1sp1/nios2eds/bin/gnu/h-i686-mingw32/bin/../lib/gcc/nios2-elf/4.1.2/../../../../nios2-elf/lib\libc.a(lib_a-isattyr.o)
 .bss           0x0101a278        0x0 c:/altera/12.1sp1/nios2eds/bin/gnu/h-i686-mingw32/bin/../lib/gcc/nios2-elf/4.1.2/../../../../nios2-elf/lib\libc.a(lib_a-lseekr.o)
 .bss           0x0101a278        0x0 c:/altera/12.1sp1/nios2eds/bin/gnu/h-i686-mingw32/bin/../lib/gcc/nios2-elf/4.1.2/../../../../nios2-elf/lib\libc.a(lib_a-readr.o)
 .bss           0x0101a278        0x0 c:/altera/12.1sp1/nios2eds/bin/gnu/h-i686-mingw32/bin/../lib/gcc/nios2-elf/4.1.2\libgcc.a(_udivdi3.o)
 .bss           0x0101a278        0x0 c:/altera/12.1sp1/nios2eds/bin/gnu/h-i686-mingw32/bin/../lib/gcc/nios2-elf/4.1.2\libgcc.a(_umoddi3.o)
 .bss           0x0101a278        0x0 c:/altera/12.1sp1/nios2eds/bin/gnu/h-i686-mingw32/bin/../lib/gcc/nios2-elf/4.1.2\libgcc.a(_addsub_df.o)
 .bss           0x0101a278        0x0 c:/altera/12.1sp1/nios2eds/bin/gnu/h-i686-mingw32/bin/../lib/gcc/nios2-elf/4.1.2\libgcc.a(_mul_df.o)
 .bss           0x0101a278        0x0 c:/altera/12.1sp1/nios2eds/bin/gnu/h-i686-mingw32/bin/../lib/gcc/nios2-elf/4.1.2\libgcc.a(_div_df.o)
 .bss           0x0101a278        0x0 c:/altera/12.1sp1/nios2eds/bin/gnu/h-i686-mingw32/bin/../lib/gcc/nios2-elf/4.1.2\libgcc.a(_eq_df.o)
 .bss           0x0101a278        0x0 c:/altera/12.1sp1/nios2eds/bin/gnu/h-i686-mingw32/bin/../lib/gcc/nios2-elf/4.1.2\libgcc.a(_ne_df.o)
 .bss           0x0101a278        0x0 c:/altera/12.1sp1/nios2eds/bin/gnu/h-i686-mingw32/bin/../lib/gcc/nios2-elf/4.1.2\libgcc.a(_gt_df.o)
 .bss           0x0101a278        0x0 c:/altera/12.1sp1/nios2eds/bin/gnu/h-i686-mingw32/bin/../lib/gcc/nios2-elf/4.1.2\libgcc.a(_ge_df.o)
 .bss           0x0101a278        0x0 c:/altera/12.1sp1/nios2eds/bin/gnu/h-i686-mingw32/bin/../lib/gcc/nios2-elf/4.1.2\libgcc.a(_lt_df.o)
 .bss           0x0101a278        0x0 c:/altera/12.1sp1/nios2eds/bin/gnu/h-i686-mingw32/bin/../lib/gcc/nios2-elf/4.1.2\libgcc.a(_si_to_df.o)
 .bss           0x0101a278        0x0 c:/altera/12.1sp1/nios2eds/bin/gnu/h-i686-mingw32/bin/../lib/gcc/nios2-elf/4.1.2\libgcc.a(_df_to_si.o)
 .bss           0x0101a278        0x0 c:/altera/12.1sp1/nios2eds/bin/gnu/h-i686-mingw32/bin/../lib/gcc/nios2-elf/4.1.2\libgcc.a(_thenan_df.o)
 .bss           0x0101a278        0x0 c:/altera/12.1sp1/nios2eds/bin/gnu/h-i686-mingw32/bin/../lib/gcc/nios2-elf/4.1.2\libgcc.a(_usi_to_df.o)
 .bss           0x0101a278        0x0 c:/altera/12.1sp1/nios2eds/bin/gnu/h-i686-mingw32/bin/../lib/gcc/nios2-elf/4.1.2\libgcc.a(lib2-divmod.o)
 .bss           0x0101a278        0x0 c:/altera/12.1sp1/nios2eds/bin/gnu/h-i686-mingw32/bin/../lib/gcc/nios2-elf/4.1.2\libgcc.a(_muldi3.o)
 .bss           0x0101a278        0x0 c:/altera/12.1sp1/nios2eds/bin/gnu/h-i686-mingw32/bin/../lib/gcc/nios2-elf/4.1.2\libgcc.a(_clz.o)
 .bss           0x0101a278        0x0 c:/altera/12.1sp1/nios2eds/bin/gnu/h-i686-mingw32/bin/../lib/gcc/nios2-elf/4.1.2\libgcc.a(_clzsi2.o)
 .bss           0x0101a278        0x0 c:/altera/12.1sp1/nios2eds/bin/gnu/h-i686-mingw32/bin/../lib/gcc/nios2-elf/4.1.2\libgcc.a(_pack_df.o)
 .bss           0x0101a278        0x0 c:/altera/12.1sp1/nios2eds/bin/gnu/h-i686-mingw32/bin/../lib/gcc/nios2-elf/4.1.2\libgcc.a(_unpack_df.o)
 .bss           0x0101a278        0x0 c:/altera/12.1sp1/nios2eds/bin/gnu/h-i686-mingw32/bin/../lib/gcc/nios2-elf/4.1.2\libgcc.a(_fpcmp_parts_df.o)
 .bss           0x0101a278        0x0 ../UARTNow_bsp/\libucosii_bsp.a(alt_close.o)
 .bss           0x0101a278        0x0 ../UARTNow_bsp/\libucosii_bsp.a(alt_dev.o)
 .bss           0x0101a278        0x0 ../UARTNow_bsp/\libucosii_bsp.a(alt_errno.o)
 .bss           0x0101a278        0x0 ../UARTNow_bsp/\libucosii_bsp.a(alt_fstat.o)
 .bss           0x0101a278        0x0 ../UARTNow_bsp/\libucosii_bsp.a(alt_isatty.o)
 .bss           0x0101a278        0x0 ../UARTNow_bsp/\libucosii_bsp.a(alt_load.o)
 .bss           0x0101a278        0x0 ../UARTNow_bsp/\libucosii_bsp.a(alt_lseek.o)
 .bss           0x0101a278        0x0 ../UARTNow_bsp/\libucosii_bsp.a(alt_main.o)
 .bss           0x0101a278        0x0 ../UARTNow_bsp/\libucosii_bsp.a(alt_read.o)
 .bss           0x0101a278        0x0 ../UARTNow_bsp/\libucosii_bsp.a(alt_release_fd.o)
 .bss           0x0101a278        0x0 ../UARTNow_bsp/\libucosii_bsp.a(alt_sbrk.o)
 .bss           0x0101a278        0x0 ../UARTNow_bsp/\libucosii_bsp.a(alt_write.o)
 .bss           0x0101a278        0x0 ../UARTNow_bsp/\libucosii_bsp.a(alt_env_lock.o)
 .bss           0x0101a278        0x0 ../UARTNow_bsp/\libucosii_bsp.a(alt_malloc_lock.o)
 .bss           0x0101a278        0x0 ../UARTNow_bsp/\libucosii_bsp.a(os_core.o)
 .bss           0x0101a278        0x0 ../UARTNow_bsp/\libucosii_bsp.a(os_dbg.o)
 .bss           0x0101a278        0x0 ../UARTNow_bsp/\libucosii_bsp.a(os_flag.o)
 .bss           0x0101a278        0x0 ../UARTNow_bsp/\libucosii_bsp.a(os_mem.o)
 .bss           0x0101a278        0x0 ../UARTNow_bsp/\libucosii_bsp.a(os_q.o)
 .bss           0x0101a278        0x0 ../UARTNow_bsp/\libucosii_bsp.a(os_sem.o)
 .bss           0x0101a278        0x0 ../UARTNow_bsp/\libucosii_bsp.a(os_task.o)
 .bss           0x0101a278        0x0 ../UARTNow_bsp/\libucosii_bsp.a(os_time.o)
 .bss           0x0101a278        0x0 ../UARTNow_bsp/\libucosii_bsp.a(alt_sys_init.o)
 .bss           0x0101a278        0x0 ../UARTNow_bsp/\libucosii_bsp.a(altera_avalon_jtag_uart_fd.o)
 .bss           0x0101a278        0x0 ../UARTNow_bsp/\libucosii_bsp.a(altera_avalon_jtag_uart_init.o)
 .bss           0x0101a278        0x0 ../UARTNow_bsp/\libucosii_bsp.a(altera_avalon_jtag_uart_ioctl.o)
 .bss           0x0101a278        0x0 ../UARTNow_bsp/\libucosii_bsp.a(altera_avalon_jtag_uart_read.o)
 .bss           0x0101a278        0x0 ../UARTNow_bsp/\libucosii_bsp.a(altera_avalon_jtag_uart_write.o)
 .bss           0x0101a278        0x0 ../UARTNow_bsp/\libucosii_bsp.a(altera_avalon_timer_sc.o)
 .bss           0x0101a278        0x0 ../UARTNow_bsp/\libucosii_bsp.a(altera_avalon_uart_fd.o)
 .bss           0x0101a278        0x0 ../UARTNow_bsp/\libucosii_bsp.a(altera_avalon_uart_init.o)
 .bss           0x0101a278        0x0 ../UARTNow_bsp/\libucosii_bsp.a(altera_avalon_uart_read.o)
 .bss           0x0101a278        0x0 ../UARTNow_bsp/\libucosii_bsp.a(altera_avalon_uart_write.o)
 .bss           0x0101a278        0x0 ../UARTNow_bsp/\libucosii_bsp.a(altera_up_avalon_rs232.o)
 .bss           0x0101a278        0x0 ../UARTNow_bsp/\libucosii_bsp.a(alt_alarm_start.o)
 .bss           0x0101a278        0x0 ../UARTNow_bsp/\libucosii_bsp.a(alt_dcache_flush_all.o)
 .bss           0x0101a278        0x0 ../UARTNow_bsp/\libucosii_bsp.a(alt_dev_llist_insert.o)
 .bss           0x0101a278        0x0 ../UARTNow_bsp/\libucosii_bsp.a(alt_do_ctors.o)
 .bss           0x0101a278        0x0 ../UARTNow_bsp/\libucosii_bsp.a(alt_do_dtors.o)
 .bss           0x0101a278        0x0 ../UARTNow_bsp/\libucosii_bsp.a(alt_find_dev.o)
 .bss           0x0101a278        0x0 ../UARTNow_bsp/\libucosii_bsp.a(alt_icache_flush_all.o)
 .bss           0x0101a278        0x0 ../UARTNow_bsp/\libucosii_bsp.a(alt_io_redirect.o)
 .bss           0x0101a278        0x0 ../UARTNow_bsp/\libucosii_bsp.a(alt_irq_register.o)
 .bss           0x0101a278        0x0 ../UARTNow_bsp/\libucosii_bsp.a(alt_irq_vars.o)
 .bss           0x0101a278        0x0 ../UARTNow_bsp/\libucosii_bsp.a(alt_open.o)
 .bss           0x0101a278        0x0 ../UARTNow_bsp/\libucosii_bsp.a(alt_tick.o)
 .bss           0x0101a278        0x0 ../UARTNow_bsp/\libucosii_bsp.a(altera_nios2_qsys_irq.o)
 .bss           0x0101a278        0x0 ../UARTNow_bsp/\libucosii_bsp.a(os_cpu_a.o)
 .bss           0x0101a278        0x0 ../UARTNow_bsp/\libucosii_bsp.a(os_cpu_c.o)
 .bss           0x0101a278        0x0 ../UARTNow_bsp/\libucosii_bsp.a(alt_find_file.o)
 .bss           0x0101a278        0x0 ../UARTNow_bsp/\libucosii_bsp.a(alt_get_fd.o)
 .bss           0x0101a278        0x0 ../UARTNow_bsp/\libucosii_bsp.a(alt_icache_flush.o)
 .bss           0x0101a278        0x0 ../UARTNow_bsp/\libucosii_bsp.a(alt_irq_entry.o)
 .bss           0x0101a278        0x0 ../UARTNow_bsp/\libucosii_bsp.a(alt_irq_handler.o)
 .bss           0x0101a278        0x0 ../UARTNow_bsp/\libucosii_bsp.a(alt_exception_entry.o)
 .bss           0x0101a278        0x0 c:/altera/12.1sp1/nios2eds/bin/gnu/h-i686-mingw32/bin/../lib/gcc/nios2-elf/4.1.2/../../../../nios2-elf/lib\libc.a(lib_a-atexit.o)
 .bss           0x0101a278        0x0 c:/altera/12.1sp1/nios2eds/bin/gnu/h-i686-mingw32/bin/../lib/gcc/nios2-elf/4.1.2/../../../../nios2-elf/lib\libc.a(lib_a-exit.o)
 .bss           0x0101a278        0x0 c:/altera/12.1sp1/nios2eds/bin/gnu/h-i686-mingw32/bin/../lib/gcc/nios2-elf/4.1.2/../../../../nios2-elf/lib\libc.a(lib_a-memcmp.o)
 .bss           0x0101a278        0x0 c:/altera/12.1sp1/nios2eds/bin/gnu/h-i686-mingw32/bin/../lib/gcc/nios2-elf/4.1.2/../../../../nios2-elf/lib\libc.a(lib_a-__atexit.o)
 .bss           0x0101a278        0x0 c:/altera/12.1sp1/nios2eds/bin/gnu/h-i686-mingw32/bin/../lib/gcc/nios2-elf/4.1.2/../../../../nios2-elf/lib\libc.a(lib_a-__call_atexit.o)
 .bss           0x0101a278        0x0 ../UARTNow_bsp/\libucosii_bsp.a(alt_exit.o)
 *(COMMON)
 COMMON         0x0101a278     0x4010 obj/default/main.o
                0x0101a278                task1_stk
                0x0101c278                messages
                0x0101c288                task2_stk
 COMMON         0x0101e288     0x3224 ../UARTNow_bsp/\libucosii_bsp.a(os_core.o)
                0x0101e288                OSFlagTbl
                0x0101e5f8                OSMemTbl
                0x0101f228                OSTaskStatStk
                0x0101fa28                OSQTbl
                0x0101fc08                OSTaskIdleStk
                0x01020408                OSEventTbl
                0x01020f48                OSTCBTbl
                0x01021458                OSTCBPrioTbl
 COMMON         0x010214ac      0x100 ../UARTNow_bsp/\libucosii_bsp.a(alt_irq_handler.o)
                0x010214ac                alt_irq
 COMMON         0x010215ac      0x190 c:/altera/12.1sp1/nios2eds/bin/gnu/h-i686-mingw32/bin/../lib/gcc/nios2-elf/4.1.2/../../../../nios2-elf/lib\libc.a(lib_a-atexit.o)
                0x010215ac                _atexit0
                0x0102173c                . = ALIGN (0x4)
                0x0102173c                __bss_end = ABSOLUTE (.)

.sdram          0x0102173c        0x0
                0x0102173c                PROVIDE (_alt_partition_sdram_start, ABSOLUTE (.))
 *(.sdram. sdram.*)
                0x0102173c                . = ALIGN (0x4)
                0x0102173c                PROVIDE (_alt_partition_sdram_end, ABSOLUTE (.))
                0x0102173c                _end = ABSOLUTE (.)
                0x0102173c                end = ABSOLUTE (.)
                0x0102173c                __alt_stack_base = ABSOLUTE (.)
                0x0102173c                PROVIDE (_alt_partition_sdram_load_addr, LOADADDR (.sdram))

.stab
 *(.stab)

.stabstr
 *(.stabstr)

.stab.excl
 *(.stab.excl)

.stab.exclstr
 *(.stab.exclstr)

.stab.index
 *(.stab.index)

.stab.indexstr
 *(.stab.indexstr)

.comment        0x00000000       0x26
 *(.comment)
 .comment       0x00000000       0x26 obj/default/main.o
                                 0x27 (size before relaxing)
 .comment       0x00000000       0x27 c:/altera/12.1sp1/nios2eds/bin/gnu/h-i686-mingw32/bin/../lib/gcc/nios2-elf/4.1.2/../../../../nios2-elf/lib\libc.a(lib_a-printf.o)
 .comment       0x00000000       0x27 c:/altera/12.1sp1/nios2eds/bin/gnu/h-i686-mingw32/bin/../lib/gcc/nios2-elf/4.1.2/../../../../nios2-elf/lib\libc.a(lib_a-puts.o)
 .comment       0x00000000       0x27 c:/altera/12.1sp1/nios2eds/bin/gnu/h-i686-mingw32/bin/../lib/gcc/nios2-elf/4.1.2/../../../../nios2-elf/lib\libc.a(lib_a-strlen.o)
 .comment       0x00000000       0x27 c:/altera/12.1sp1/nios2eds/bin/gnu/h-i686-mingw32/bin/../lib/gcc/nios2-elf/4.1.2/../../../../nios2-elf/lib\libc.a(lib_a-vfprintf.o)
 .comment       0x00000000       0x27 c:/altera/12.1sp1/nios2eds/bin/gnu/h-i686-mingw32/bin/../lib/gcc/nios2-elf/4.1.2/../../../../nios2-elf/lib\libc.a(lib_a-wsetup.o)
 .comment       0x00000000       0x27 c:/altera/12.1sp1/nios2eds/bin/gnu/h-i686-mingw32/bin/../lib/gcc/nios2-elf/4.1.2/../../../../nios2-elf/lib\libc.a(lib_a-dtoa.o)
 .comment       0x00000000       0x27 c:/altera/12.1sp1/nios2eds/bin/gnu/h-i686-mingw32/bin/../lib/gcc/nios2-elf/4.1.2/../../../../nios2-elf/lib\libc.a(lib_a-fflush.o)
 .comment       0x00000000       0x27 c:/altera/12.1sp1/nios2eds/bin/gnu/h-i686-mingw32/bin/../lib/gcc/nios2-elf/4.1.2/../../../../nios2-elf/lib\libc.a(lib_a-findfp.o)
 .comment       0x00000000       0x27 c:/altera/12.1sp1/nios2eds/bin/gnu/h-i686-mingw32/bin/../lib/gcc/nios2-elf/4.1.2/../../../../nios2-elf/lib\libc.a(lib_a-freer.o)
 .comment       0x00000000       0x27 c:/altera/12.1sp1/nios2eds/bin/gnu/h-i686-mingw32/bin/../lib/gcc/nios2-elf/4.1.2/../../../../nios2-elf/lib\libc.a(lib_a-fvwrite.o)
 .comment       0x00000000       0x27 c:/altera/12.1sp1/nios2eds/bin/gnu/h-i686-mingw32/bin/../lib/gcc/nios2-elf/4.1.2/../../../../nios2-elf/lib\libc.a(lib_a-fwalk.o)
 .comment       0x00000000       0x27 c:/altera/12.1sp1/nios2eds/bin/gnu/h-i686-mingw32/bin/../lib/gcc/nios2-elf/4.1.2/../../../../nios2-elf/lib\libc.a(lib_a-impure.o)
 .comment       0x00000000       0x27 c:/altera/12.1sp1/nios2eds/bin/gnu/h-i686-mingw32/bin/../lib/gcc/nios2-elf/4.1.2/../../../../nios2-elf/lib\libc.a(lib_a-locale.o)
 .comment       0x00000000       0x27 c:/altera/12.1sp1/nios2eds/bin/gnu/h-i686-mingw32/bin/../lib/gcc/nios2-elf/4.1.2/../../../../nios2-elf/lib\libc.a(lib_a-makebuf.o)
 .comment       0x00000000       0x27 c:/altera/12.1sp1/nios2eds/bin/gnu/h-i686-mingw32/bin/../lib/gcc/nios2-elf/4.1.2/../../../../nios2-elf/lib\libc.a(lib_a-mallocr.o)
 .comment       0x00000000       0x27 c:/altera/12.1sp1/nios2eds/bin/gnu/h-i686-mingw32/bin/../lib/gcc/nios2-elf/4.1.2/../../../../nios2-elf/lib\libc.a(lib_a-memchr.o)
 .comment       0x00000000       0x27 c:/altera/12.1sp1/nios2eds/bin/gnu/h-i686-mingw32/bin/../lib/gcc/nios2-elf/4.1.2/../../../../nios2-elf/lib\libc.a(lib_a-memcpy.o)
 .comment       0x00000000       0x27 c:/altera/12.1sp1/nios2eds/bin/gnu/h-i686-mingw32/bin/../lib/gcc/nios2-elf/4.1.2/../../../../nios2-elf/lib\libc.a(lib_a-memmove.o)
 .comment       0x00000000       0x27 c:/altera/12.1sp1/nios2eds/bin/gnu/h-i686-mingw32/bin/../lib/gcc/nios2-elf/4.1.2/../../../../nios2-elf/lib\libc.a(lib_a-memset.o)
 .comment       0x00000000       0x27 c:/altera/12.1sp1/nios2eds/bin/gnu/h-i686-mingw32/bin/../lib/gcc/nios2-elf/4.1.2/../../../../nios2-elf/lib\libc.a(lib_a-mprec.o)
 .comment       0x00000000       0x27 c:/altera/12.1sp1/nios2eds/bin/gnu/h-i686-mingw32/bin/../lib/gcc/nios2-elf/4.1.2/../../../../nios2-elf/lib\libc.a(lib_a-reallocr.o)
 .comment       0x00000000       0x27 c:/altera/12.1sp1/nios2eds/bin/gnu/h-i686-mingw32/bin/../lib/gcc/nios2-elf/4.1.2/../../../../nios2-elf/lib\libc.a(lib_a-s_isinfd.o)
 .comment       0x00000000       0x27 c:/altera/12.1sp1/nios2eds/bin/gnu/h-i686-mingw32/bin/../lib/gcc/nios2-elf/4.1.2/../../../../nios2-elf/lib\libc.a(lib_a-s_isnand.o)
 .comment       0x00000000       0x27 c:/altera/12.1sp1/nios2eds/bin/gnu/h-i686-mingw32/bin/../lib/gcc/nios2-elf/4.1.2/../../../../nios2-elf/lib\libc.a(lib_a-sbrkr.o)
 .comment       0x00000000       0x27 c:/altera/12.1sp1/nios2eds/bin/gnu/h-i686-mingw32/bin/../lib/gcc/nios2-elf/4.1.2/../../../../nios2-elf/lib\libc.a(lib_a-stdio.o)
 .comment       0x00000000       0x27 c:/altera/12.1sp1/nios2eds/bin/gnu/h-i686-mingw32/bin/../lib/gcc/nios2-elf/4.1.2/../../../../nios2-elf/lib\libc.a(lib_a-strcmp.o)
 .comment       0x00000000       0x27 c:/altera/12.1sp1/nios2eds/bin/gnu/h-i686-mingw32/bin/../lib/gcc/nios2-elf/4.1.2/../../../../nios2-elf/lib\libc.a(lib_a-writer.o)
 .comment       0x00000000       0x27 c:/altera/12.1sp1/nios2eds/bin/gnu/h-i686-mingw32/bin/../lib/gcc/nios2-elf/4.1.2/../../../../nios2-elf/lib\libc.a(lib_a-callocr.o)
 .comment       0x00000000       0x27 c:/altera/12.1sp1/nios2eds/bin/gnu/h-i686-mingw32/bin/../lib/gcc/nios2-elf/4.1.2/../../../../nios2-elf/lib\libc.a(lib_a-closer.o)
 .comment       0x00000000       0x27 c:/altera/12.1sp1/nios2eds/bin/gnu/h-i686-mingw32/bin/../lib/gcc/nios2-elf/4.1.2/../../../../nios2-elf/lib\libc.a(lib_a-fclose.o)
 .comment       0x00000000       0x27 c:/altera/12.1sp1/nios2eds/bin/gnu/h-i686-mingw32/bin/../lib/gcc/nios2-elf/4.1.2/../../../../nios2-elf/lib\libc.a(lib_a-fstatr.o)
 .comment       0x00000000       0x27 c:/altera/12.1sp1/nios2eds/bin/gnu/h-i686-mingw32/bin/../lib/gcc/nios2-elf/4.1.2/../../../../nios2-elf/lib\libc.a(lib_a-int_errno.o)
 .comment       0x00000000       0x27 c:/altera/12.1sp1/nios2eds/bin/gnu/h-i686-mingw32/bin/../lib/gcc/nios2-elf/4.1.2/../../../../nios2-elf/lib\libc.a(lib_a-isattyr.o)
 .comment       0x00000000       0x27 c:/altera/12.1sp1/nios2eds/bin/gnu/h-i686-mingw32/bin/../lib/gcc/nios2-elf/4.1.2/../../../../nios2-elf/lib\libc.a(lib_a-lseekr.o)
 .comment       0x00000000       0x27 c:/altera/12.1sp1/nios2eds/bin/gnu/h-i686-mingw32/bin/../lib/gcc/nios2-elf/4.1.2/../../../../nios2-elf/lib\libc.a(lib_a-readr.o)
 .comment       0x00000000       0x27 c:/altera/12.1sp1/nios2eds/bin/gnu/h-i686-mingw32/bin/../lib/gcc/nios2-elf/4.1.2\libgcc.a(_udivdi3.o)
 .comment       0x00000000       0x27 c:/altera/12.1sp1/nios2eds/bin/gnu/h-i686-mingw32/bin/../lib/gcc/nios2-elf/4.1.2\libgcc.a(_umoddi3.o)
 .comment       0x00000000       0x27 c:/altera/12.1sp1/nios2eds/bin/gnu/h-i686-mingw32/bin/../lib/gcc/nios2-elf/4.1.2\libgcc.a(_addsub_df.o)
 .comment       0x00000000       0x27 c:/altera/12.1sp1/nios2eds/bin/gnu/h-i686-mingw32/bin/../lib/gcc/nios2-elf/4.1.2\libgcc.a(_mul_df.o)
 .comment       0x00000000       0x27 c:/altera/12.1sp1/nios2eds/bin/gnu/h-i686-mingw32/bin/../lib/gcc/nios2-elf/4.1.2\libgcc.a(_div_df.o)
 .comment       0x00000000       0x27 c:/altera/12.1sp1/nios2eds/bin/gnu/h-i686-mingw32/bin/../lib/gcc/nios2-elf/4.1.2\libgcc.a(_eq_df.o)
 .comment       0x00000000       0x27 c:/altera/12.1sp1/nios2eds/bin/gnu/h-i686-mingw32/bin/../lib/gcc/nios2-elf/4.1.2\libgcc.a(_ne_df.o)
 .comment       0x00000000       0x27 c:/altera/12.1sp1/nios2eds/bin/gnu/h-i686-mingw32/bin/../lib/gcc/nios2-elf/4.1.2\libgcc.a(_gt_df.o)
 .comment       0x00000000       0x27 c:/altera/12.1sp1/nios2eds/bin/gnu/h-i686-mingw32/bin/../lib/gcc/nios2-elf/4.1.2\libgcc.a(_ge_df.o)
 .comment       0x00000000       0x27 c:/altera/12.1sp1/nios2eds/bin/gnu/h-i686-mingw32/bin/../lib/gcc/nios2-elf/4.1.2\libgcc.a(_lt_df.o)
 .comment       0x00000000       0x27 c:/altera/12.1sp1/nios2eds/bin/gnu/h-i686-mingw32/bin/../lib/gcc/nios2-elf/4.1.2\libgcc.a(_si_to_df.o)
 .comment       0x00000000       0x27 c:/altera/12.1sp1/nios2eds/bin/gnu/h-i686-mingw32/bin/../lib/gcc/nios2-elf/4.1.2\libgcc.a(_df_to_si.o)
 .comment       0x00000000       0x27 c:/altera/12.1sp1/nios2eds/bin/gnu/h-i686-mingw32/bin/../lib/gcc/nios2-elf/4.1.2\libgcc.a(_thenan_df.o)
 .comment       0x00000000       0x27 c:/altera/12.1sp1/nios2eds/bin/gnu/h-i686-mingw32/bin/../lib/gcc/nios2-elf/4.1.2\libgcc.a(_usi_to_df.o)
 .comment       0x00000000       0x27 c:/altera/12.1sp1/nios2eds/bin/gnu/h-i686-mingw32/bin/../lib/gcc/nios2-elf/4.1.2\libgcc.a(lib2-divmod.o)
 .comment       0x00000000       0x27 c:/altera/12.1sp1/nios2eds/bin/gnu/h-i686-mingw32/bin/../lib/gcc/nios2-elf/4.1.2\libgcc.a(_muldi3.o)
 .comment       0x00000000       0x27 c:/altera/12.1sp1/nios2eds/bin/gnu/h-i686-mingw32/bin/../lib/gcc/nios2-elf/4.1.2\libgcc.a(_clz.o)
 .comment       0x00000000       0x27 c:/altera/12.1sp1/nios2eds/bin/gnu/h-i686-mingw32/bin/../lib/gcc/nios2-elf/4.1.2\libgcc.a(_clzsi2.o)
 .comment       0x00000000       0x27 c:/altera/12.1sp1/nios2eds/bin/gnu/h-i686-mingw32/bin/../lib/gcc/nios2-elf/4.1.2\libgcc.a(_pack_df.o)
 .comment       0x00000000       0x27 c:/altera/12.1sp1/nios2eds/bin/gnu/h-i686-mingw32/bin/../lib/gcc/nios2-elf/4.1.2\libgcc.a(_unpack_df.o)
 .comment       0x00000000       0x27 c:/altera/12.1sp1/nios2eds/bin/gnu/h-i686-mingw32/bin/../lib/gcc/nios2-elf/4.1.2\libgcc.a(_fpcmp_parts_df.o)
 .comment       0x00000000       0x27 ../UARTNow_bsp/\libucosii_bsp.a(alt_close.o)
 .comment       0x00000000       0x27 ../UARTNow_bsp/\libucosii_bsp.a(alt_dev.o)
 .comment       0x00000000       0x27 ../UARTNow_bsp/\libucosii_bsp.a(alt_errno.o)
 .comment       0x00000000       0x27 ../UARTNow_bsp/\libucosii_bsp.a(alt_fstat.o)
 .comment       0x00000000       0x27 ../UARTNow_bsp/\libucosii_bsp.a(alt_isatty.o)
 .comment       0x00000000       0x27 ../UARTNow_bsp/\libucosii_bsp.a(alt_load.o)
 .comment       0x00000000       0x27 ../UARTNow_bsp/\libucosii_bsp.a(alt_lseek.o)
 .comment       0x00000000       0x27 ../UARTNow_bsp/\libucosii_bsp.a(alt_main.o)
 .comment       0x00000000       0x27 ../UARTNow_bsp/\libucosii_bsp.a(alt_read.o)
 .comment       0x00000000       0x27 ../UARTNow_bsp/\libucosii_bsp.a(alt_release_fd.o)
 .comment       0x00000000       0x27 ../UARTNow_bsp/\libucosii_bsp.a(alt_sbrk.o)
 .comment       0x00000000       0x27 ../UARTNow_bsp/\libucosii_bsp.a(alt_write.o)
 .comment       0x00000000       0x27 ../UARTNow_bsp/\libucosii_bsp.a(alt_env_lock.o)
 .comment       0x00000000       0x27 ../UARTNow_bsp/\libucosii_bsp.a(alt_malloc_lock.o)
 .comment       0x00000000       0x27 ../UARTNow_bsp/\libucosii_bsp.a(os_core.o)
 .comment       0x00000000       0x27 ../UARTNow_bsp/\libucosii_bsp.a(os_dbg.o)
 .comment       0x00000000       0x27 ../UARTNow_bsp/\libucosii_bsp.a(os_flag.o)
 .comment       0x00000000       0x27 ../UARTNow_bsp/\libucosii_bsp.a(os_mem.o)
 .comment       0x00000000       0x27 ../UARTNow_bsp/\libucosii_bsp.a(os_q.o)
 .comment       0x00000000       0x27 ../UARTNow_bsp/\libucosii_bsp.a(os_sem.o)
 .comment       0x00000000       0x27 ../UARTNow_bsp/\libucosii_bsp.a(os_task.o)
 .comment       0x00000000       0x27 ../UARTNow_bsp/\libucosii_bsp.a(os_time.o)
 .comment       0x00000000       0x27 ../UARTNow_bsp/\libucosii_bsp.a(alt_sys_init.o)
 .comment       0x00000000       0x27 ../UARTNow_bsp/\libucosii_bsp.a(altera_avalon_jtag_uart_fd.o)
 .comment       0x00000000       0x27 ../UARTNow_bsp/\libucosii_bsp.a(altera_avalon_jtag_uart_init.o)
 .comment       0x00000000       0x27 ../UARTNow_bsp/\libucosii_bsp.a(altera_avalon_jtag_uart_ioctl.o)
 .comment       0x00000000       0x27 ../UARTNow_bsp/\libucosii_bsp.a(altera_avalon_jtag_uart_read.o)
 .comment       0x00000000       0x27 ../UARTNow_bsp/\libucosii_bsp.a(altera_avalon_jtag_uart_write.o)
 .comment       0x00000000       0x27 ../UARTNow_bsp/\libucosii_bsp.a(altera_avalon_timer_sc.o)
 .comment       0x00000000       0x27 ../UARTNow_bsp/\libucosii_bsp.a(altera_avalon_uart_fd.o)
 .comment       0x00000000       0x27 ../UARTNow_bsp/\libucosii_bsp.a(altera_avalon_uart_init.o)
 .comment       0x00000000       0x27 ../UARTNow_bsp/\libucosii_bsp.a(altera_avalon_uart_read.o)
 .comment       0x00000000       0x27 ../UARTNow_bsp/\libucosii_bsp.a(altera_avalon_uart_write.o)
 .comment       0x00000000       0x27 ../UARTNow_bsp/\libucosii_bsp.a(altera_up_avalon_rs232.o)
 .comment       0x00000000       0x27 ../UARTNow_bsp/\libucosii_bsp.a(alt_alarm_start.o)
 .comment       0x00000000       0x27 ../UARTNow_bsp/\libucosii_bsp.a(alt_dcache_flush_all.o)
 .comment       0x00000000       0x27 ../UARTNow_bsp/\libucosii_bsp.a(alt_dev_llist_insert.o)
 .comment       0x00000000       0x27 ../UARTNow_bsp/\libucosii_bsp.a(alt_do_ctors.o)
 .comment       0x00000000       0x27 ../UARTNow_bsp/\libucosii_bsp.a(alt_do_dtors.o)
 .comment       0x00000000       0x27 ../UARTNow_bsp/\libucosii_bsp.a(alt_find_dev.o)
 .comment       0x00000000       0x27 ../UARTNow_bsp/\libucosii_bsp.a(alt_icache_flush_all.o)
 .comment       0x00000000       0x27 ../UARTNow_bsp/\libucosii_bsp.a(alt_io_redirect.o)
 .comment       0x00000000       0x27 ../UARTNow_bsp/\libucosii_bsp.a(alt_irq_register.o)
 .comment       0x00000000       0x27 ../UARTNow_bsp/\libucosii_bsp.a(alt_irq_vars.o)
 .comment       0x00000000       0x27 ../UARTNow_bsp/\libucosii_bsp.a(alt_open.o)
 .comment       0x00000000       0x27 ../UARTNow_bsp/\libucosii_bsp.a(alt_tick.o)
 .comment       0x00000000       0x27 ../UARTNow_bsp/\libucosii_bsp.a(altera_nios2_qsys_irq.o)
 .comment       0x00000000       0x27 ../UARTNow_bsp/\libucosii_bsp.a(os_cpu_c.o)
 .comment       0x00000000       0x27 ../UARTNow_bsp/\libucosii_bsp.a(alt_find_file.o)
 .comment       0x00000000       0x27 ../UARTNow_bsp/\libucosii_bsp.a(alt_get_fd.o)
 .comment       0x00000000       0x27 ../UARTNow_bsp/\libucosii_bsp.a(alt_icache_flush.o)
 .comment       0x00000000       0x27 ../UARTNow_bsp/\libucosii_bsp.a(alt_irq_handler.o)
 .comment       0x00000000       0x27 c:/altera/12.1sp1/nios2eds/bin/gnu/h-i686-mingw32/bin/../lib/gcc/nios2-elf/4.1.2/../../../../nios2-elf/lib\libc.a(lib_a-atexit.o)
 .comment       0x00000000       0x27 c:/altera/12.1sp1/nios2eds/bin/gnu/h-i686-mingw32/bin/../lib/gcc/nios2-elf/4.1.2/../../../../nios2-elf/lib\libc.a(lib_a-exit.o)
 .comment       0x00000000       0x27 c:/altera/12.1sp1/nios2eds/bin/gnu/h-i686-mingw32/bin/../lib/gcc/nios2-elf/4.1.2/../../../../nios2-elf/lib\libc.a(lib_a-memcmp.o)
 .comment       0x00000000       0x27 c:/altera/12.1sp1/nios2eds/bin/gnu/h-i686-mingw32/bin/../lib/gcc/nios2-elf/4.1.2/../../../../nios2-elf/lib\libc.a(lib_a-__atexit.o)
 .comment       0x00000000       0x27 c:/altera/12.1sp1/nios2eds/bin/gnu/h-i686-mingw32/bin/../lib/gcc/nios2-elf/4.1.2/../../../../nios2-elf/lib\libc.a(lib_a-__call_atexit.o)
 .comment       0x00000000       0x27 ../UARTNow_bsp/\libucosii_bsp.a(alt_exit.o)

.debug
 *(.debug)

.line
 *(.line)

.debug_srcinfo
 *(.debug_srcinfo)

.debug_sfnames
 *(.debug_sfnames)

.debug_aranges  0x00000000      0xe58
 *(.debug_aranges)
 .debug_aranges
                0x00000000       0x28 ../UARTNow_bsp//obj/HAL/src/crt0.o
 .debug_aranges
                0x00000028       0x20 obj/default/main.o
 .debug_aranges
                0x00000048       0x20 c:/altera/12.1sp1/nios2eds/bin/gnu/h-i686-mingw32/bin/../lib/gcc/nios2-elf/4.1.2/../../../../nios2-elf/lib\libc.a(lib_a-printf.o)
 .debug_aranges
                0x00000068       0x20 c:/altera/12.1sp1/nios2eds/bin/gnu/h-i686-mingw32/bin/../lib/gcc/nios2-elf/4.1.2/../../../../nios2-elf/lib\libc.a(lib_a-puts.o)
 .debug_aranges
                0x00000088       0x20 c:/altera/12.1sp1/nios2eds/bin/gnu/h-i686-mingw32/bin/../lib/gcc/nios2-elf/4.1.2/../../../../nios2-elf/lib\libc.a(lib_a-strlen.o)
 .debug_aranges
                0x000000a8       0x20 c:/altera/12.1sp1/nios2eds/bin/gnu/h-i686-mingw32/bin/../lib/gcc/nios2-elf/4.1.2/../../../../nios2-elf/lib\libc.a(lib_a-vfprintf.o)
 .debug_aranges
                0x000000c8       0x20 c:/altera/12.1sp1/nios2eds/bin/gnu/h-i686-mingw32/bin/../lib/gcc/nios2-elf/4.1.2/../../../../nios2-elf/lib\libc.a(lib_a-wsetup.o)
 .debug_aranges
                0x000000e8       0x20 c:/altera/12.1sp1/nios2eds/bin/gnu/h-i686-mingw32/bin/../lib/gcc/nios2-elf/4.1.2/../../../../nios2-elf/lib\libc.a(lib_a-dtoa.o)
 .debug_aranges
                0x00000108       0x20 c:/altera/12.1sp1/nios2eds/bin/gnu/h-i686-mingw32/bin/../lib/gcc/nios2-elf/4.1.2/../../../../nios2-elf/lib\libc.a(lib_a-fflush.o)
 .debug_aranges
                0x00000128       0x20 c:/altera/12.1sp1/nios2eds/bin/gnu/h-i686-mingw32/bin/../lib/gcc/nios2-elf/4.1.2/../../../../nios2-elf/lib\libc.a(lib_a-findfp.o)
 .debug_aranges
                0x00000148       0x20 c:/altera/12.1sp1/nios2eds/bin/gnu/h-i686-mingw32/bin/../lib/gcc/nios2-elf/4.1.2/../../../../nios2-elf/lib\libc.a(lib_a-freer.o)
 .debug_aranges
                0x00000168       0x20 c:/altera/12.1sp1/nios2eds/bin/gnu/h-i686-mingw32/bin/../lib/gcc/nios2-elf/4.1.2/../../../../nios2-elf/lib\libc.a(lib_a-fvwrite.o)
 .debug_aranges
                0x00000188       0x20 c:/altera/12.1sp1/nios2eds/bin/gnu/h-i686-mingw32/bin/../lib/gcc/nios2-elf/4.1.2/../../../../nios2-elf/lib\libc.a(lib_a-fwalk.o)
 .debug_aranges
                0x000001a8       0x20 c:/altera/12.1sp1/nios2eds/bin/gnu/h-i686-mingw32/bin/../lib/gcc/nios2-elf/4.1.2/../../../../nios2-elf/lib\libc.a(lib_a-locale.o)
 .debug_aranges
                0x000001c8       0x20 c:/altera/12.1sp1/nios2eds/bin/gnu/h-i686-mingw32/bin/../lib/gcc/nios2-elf/4.1.2/../../../../nios2-elf/lib\libc.a(lib_a-makebuf.o)
 .debug_aranges
                0x000001e8       0x20 c:/altera/12.1sp1/nios2eds/bin/gnu/h-i686-mingw32/bin/../lib/gcc/nios2-elf/4.1.2/../../../../nios2-elf/lib\libc.a(lib_a-mallocr.o)
 .debug_aranges
                0x00000208       0x20 c:/altera/12.1sp1/nios2eds/bin/gnu/h-i686-mingw32/bin/../lib/gcc/nios2-elf/4.1.2/../../../../nios2-elf/lib\libc.a(lib_a-memchr.o)
 .debug_aranges
                0x00000228       0x20 c:/altera/12.1sp1/nios2eds/bin/gnu/h-i686-mingw32/bin/../lib/gcc/nios2-elf/4.1.2/../../../../nios2-elf/lib\libc.a(lib_a-memcpy.o)
 .debug_aranges
                0x00000248       0x20 c:/altera/12.1sp1/nios2eds/bin/gnu/h-i686-mingw32/bin/../lib/gcc/nios2-elf/4.1.2/../../../../nios2-elf/lib\libc.a(lib_a-memmove.o)
 .debug_aranges
                0x00000268       0x20 c:/altera/12.1sp1/nios2eds/bin/gnu/h-i686-mingw32/bin/../lib/gcc/nios2-elf/4.1.2/../../../../nios2-elf/lib\libc.a(lib_a-memset.o)
 .debug_aranges
                0x00000288       0x20 c:/altera/12.1sp1/nios2eds/bin/gnu/h-i686-mingw32/bin/../lib/gcc/nios2-elf/4.1.2/../../../../nios2-elf/lib\libc.a(lib_a-mprec.o)
 .debug_aranges
                0x000002a8       0x20 c:/altera/12.1sp1/nios2eds/bin/gnu/h-i686-mingw32/bin/../lib/gcc/nios2-elf/4.1.2/../../../../nios2-elf/lib\libc.a(lib_a-reallocr.o)
 .debug_aranges
                0x000002c8       0x20 c:/altera/12.1sp1/nios2eds/bin/gnu/h-i686-mingw32/bin/../lib/gcc/nios2-elf/4.1.2/../../../../nios2-elf/lib\libc.a(lib_a-s_isinfd.o)
 .debug_aranges
                0x000002e8       0x20 c:/altera/12.1sp1/nios2eds/bin/gnu/h-i686-mingw32/bin/../lib/gcc/nios2-elf/4.1.2/../../../../nios2-elf/lib\libc.a(lib_a-s_isnand.o)
 .debug_aranges
                0x00000308       0x20 c:/altera/12.1sp1/nios2eds/bin/gnu/h-i686-mingw32/bin/../lib/gcc/nios2-elf/4.1.2/../../../../nios2-elf/lib\libc.a(lib_a-sbrkr.o)
 .debug_aranges
                0x00000328       0x20 c:/altera/12.1sp1/nios2eds/bin/gnu/h-i686-mingw32/bin/../lib/gcc/nios2-elf/4.1.2/../../../../nios2-elf/lib\libc.a(lib_a-stdio.o)
 .debug_aranges
                0x00000348       0x20 c:/altera/12.1sp1/nios2eds/bin/gnu/h-i686-mingw32/bin/../lib/gcc/nios2-elf/4.1.2/../../../../nios2-elf/lib\libc.a(lib_a-strcmp.o)
 .debug_aranges
                0x00000368       0x20 c:/altera/12.1sp1/nios2eds/bin/gnu/h-i686-mingw32/bin/../lib/gcc/nios2-elf/4.1.2/../../../../nios2-elf/lib\libc.a(lib_a-writer.o)
 .debug_aranges
                0x00000388       0x20 c:/altera/12.1sp1/nios2eds/bin/gnu/h-i686-mingw32/bin/../lib/gcc/nios2-elf/4.1.2/../../../../nios2-elf/lib\libc.a(lib_a-callocr.o)
 .debug_aranges
                0x000003a8       0x20 c:/altera/12.1sp1/nios2eds/bin/gnu/h-i686-mingw32/bin/../lib/gcc/nios2-elf/4.1.2/../../../../nios2-elf/lib\libc.a(lib_a-closer.o)
 .debug_aranges
                0x000003c8       0x20 c:/altera/12.1sp1/nios2eds/bin/gnu/h-i686-mingw32/bin/../lib/gcc/nios2-elf/4.1.2/../../../../nios2-elf/lib\libc.a(lib_a-fclose.o)
 .debug_aranges
                0x000003e8       0x20 c:/altera/12.1sp1/nios2eds/bin/gnu/h-i686-mingw32/bin/../lib/gcc/nios2-elf/4.1.2/../../../../nios2-elf/lib\libc.a(lib_a-fstatr.o)
 .debug_aranges
                0x00000408       0x20 c:/altera/12.1sp1/nios2eds/bin/gnu/h-i686-mingw32/bin/../lib/gcc/nios2-elf/4.1.2/../../../../nios2-elf/lib\libc.a(lib_a-isattyr.o)
 .debug_aranges
                0x00000428       0x20 c:/altera/12.1sp1/nios2eds/bin/gnu/h-i686-mingw32/bin/../lib/gcc/nios2-elf/4.1.2/../../../../nios2-elf/lib\libc.a(lib_a-lseekr.o)
 .debug_aranges
                0x00000448       0x20 c:/altera/12.1sp1/nios2eds/bin/gnu/h-i686-mingw32/bin/../lib/gcc/nios2-elf/4.1.2/../../../../nios2-elf/lib\libc.a(lib_a-readr.o)
 .debug_aranges
                0x00000468       0x20 c:/altera/12.1sp1/nios2eds/bin/gnu/h-i686-mingw32/bin/../lib/gcc/nios2-elf/4.1.2\libgcc.a(_udivdi3.o)
 .debug_aranges
                0x00000488       0x20 c:/altera/12.1sp1/nios2eds/bin/gnu/h-i686-mingw32/bin/../lib/gcc/nios2-elf/4.1.2\libgcc.a(_umoddi3.o)
 .debug_aranges
                0x000004a8       0x20 c:/altera/12.1sp1/nios2eds/bin/gnu/h-i686-mingw32/bin/../lib/gcc/nios2-elf/4.1.2\libgcc.a(_addsub_df.o)
 .debug_aranges
                0x000004c8       0x20 c:/altera/12.1sp1/nios2eds/bin/gnu/h-i686-mingw32/bin/../lib/gcc/nios2-elf/4.1.2\libgcc.a(_mul_df.o)
 .debug_aranges
                0x000004e8       0x20 c:/altera/12.1sp1/nios2eds/bin/gnu/h-i686-mingw32/bin/../lib/gcc/nios2-elf/4.1.2\libgcc.a(_div_df.o)
 .debug_aranges
                0x00000508       0x20 c:/altera/12.1sp1/nios2eds/bin/gnu/h-i686-mingw32/bin/../lib/gcc/nios2-elf/4.1.2\libgcc.a(_eq_df.o)
 .debug_aranges
                0x00000528       0x20 c:/altera/12.1sp1/nios2eds/bin/gnu/h-i686-mingw32/bin/../lib/gcc/nios2-elf/4.1.2\libgcc.a(_ne_df.o)
 .debug_aranges
                0x00000548       0x20 c:/altera/12.1sp1/nios2eds/bin/gnu/h-i686-mingw32/bin/../lib/gcc/nios2-elf/4.1.2\libgcc.a(_gt_df.o)
 .debug_aranges
                0x00000568       0x20 c:/altera/12.1sp1/nios2eds/bin/gnu/h-i686-mingw32/bin/../lib/gcc/nios2-elf/4.1.2\libgcc.a(_ge_df.o)
 .debug_aranges
                0x00000588       0x20 c:/altera/12.1sp1/nios2eds/bin/gnu/h-i686-mingw32/bin/../lib/gcc/nios2-elf/4.1.2\libgcc.a(_lt_df.o)
 .debug_aranges
                0x000005a8       0x20 c:/altera/12.1sp1/nios2eds/bin/gnu/h-i686-mingw32/bin/../lib/gcc/nios2-elf/4.1.2\libgcc.a(_si_to_df.o)
 .debug_aranges
                0x000005c8       0x20 c:/altera/12.1sp1/nios2eds/bin/gnu/h-i686-mingw32/bin/../lib/gcc/nios2-elf/4.1.2\libgcc.a(_df_to_si.o)
 .debug_aranges
                0x000005e8       0x20 c:/altera/12.1sp1/nios2eds/bin/gnu/h-i686-mingw32/bin/../lib/gcc/nios2-elf/4.1.2\libgcc.a(_usi_to_df.o)
 .debug_aranges
                0x00000608       0x20 c:/altera/12.1sp1/nios2eds/bin/gnu/h-i686-mingw32/bin/../lib/gcc/nios2-elf/4.1.2\libgcc.a(lib2-divmod.o)
 .debug_aranges
                0x00000628       0x20 c:/altera/12.1sp1/nios2eds/bin/gnu/h-i686-mingw32/bin/../lib/gcc/nios2-elf/4.1.2\libgcc.a(_muldi3.o)
 .debug_aranges
                0x00000648       0x20 c:/altera/12.1sp1/nios2eds/bin/gnu/h-i686-mingw32/bin/../lib/gcc/nios2-elf/4.1.2\libgcc.a(_clzsi2.o)
 .debug_aranges
                0x00000668       0x20 c:/altera/12.1sp1/nios2eds/bin/gnu/h-i686-mingw32/bin/../lib/gcc/nios2-elf/4.1.2\libgcc.a(_pack_df.o)
 .debug_aranges
                0x00000688       0x20 c:/altera/12.1sp1/nios2eds/bin/gnu/h-i686-mingw32/bin/../lib/gcc/nios2-elf/4.1.2\libgcc.a(_unpack_df.o)
 .debug_aranges
                0x000006a8       0x20 c:/altera/12.1sp1/nios2eds/bin/gnu/h-i686-mingw32/bin/../lib/gcc/nios2-elf/4.1.2\libgcc.a(_fpcmp_parts_df.o)
 .debug_aranges
                0x000006c8       0x20 ../UARTNow_bsp/\libucosii_bsp.a(alt_close.o)
 .debug_aranges
                0x000006e8       0x20 ../UARTNow_bsp/\libucosii_bsp.a(alt_dev.o)
 .debug_aranges
                0x00000708       0x20 ../UARTNow_bsp/\libucosii_bsp.a(alt_fstat.o)
 .debug_aranges
                0x00000728       0x20 ../UARTNow_bsp/\libucosii_bsp.a(alt_isatty.o)
 .debug_aranges
                0x00000748       0x20 ../UARTNow_bsp/\libucosii_bsp.a(alt_load.o)
 .debug_aranges
                0x00000768       0x20 ../UARTNow_bsp/\libucosii_bsp.a(alt_lseek.o)
 .debug_aranges
                0x00000788       0x20 ../UARTNow_bsp/\libucosii_bsp.a(alt_main.o)
 .debug_aranges
                0x000007a8       0x20 ../UARTNow_bsp/\libucosii_bsp.a(alt_read.o)
 .debug_aranges
                0x000007c8       0x20 ../UARTNow_bsp/\libucosii_bsp.a(alt_release_fd.o)
 .debug_aranges
                0x000007e8       0x20 ../UARTNow_bsp/\libucosii_bsp.a(alt_sbrk.o)
 .debug_aranges
                0x00000808       0x20 ../UARTNow_bsp/\libucosii_bsp.a(alt_write.o)
 .debug_aranges
                0x00000828       0x20 ../UARTNow_bsp/\libucosii_bsp.a(alt_env_lock.o)
 .debug_aranges
                0x00000848       0x20 ../UARTNow_bsp/\libucosii_bsp.a(alt_malloc_lock.o)
 .debug_aranges
                0x00000868       0x20 ../UARTNow_bsp/\libucosii_bsp.a(os_core.o)
 .debug_aranges
                0x00000888       0x20 ../UARTNow_bsp/\libucosii_bsp.a(os_dbg.o)
 .debug_aranges
                0x000008a8       0x20 ../UARTNow_bsp/\libucosii_bsp.a(os_flag.o)
 .debug_aranges
                0x000008c8       0x20 ../UARTNow_bsp/\libucosii_bsp.a(os_mem.o)
 .debug_aranges
                0x000008e8       0x20 ../UARTNow_bsp/\libucosii_bsp.a(os_q.o)
 .debug_aranges
                0x00000908       0x20 ../UARTNow_bsp/\libucosii_bsp.a(os_sem.o)
 .debug_aranges
                0x00000928       0x20 ../UARTNow_bsp/\libucosii_bsp.a(os_task.o)
 .debug_aranges
                0x00000948       0x20 ../UARTNow_bsp/\libucosii_bsp.a(os_time.o)
 .debug_aranges
                0x00000968       0x20 ../UARTNow_bsp/\libucosii_bsp.a(alt_sys_init.o)
 .debug_aranges
                0x00000988       0x20 ../UARTNow_bsp/\libucosii_bsp.a(altera_avalon_jtag_uart_fd.o)
 .debug_aranges
                0x000009a8       0x20 ../UARTNow_bsp/\libucosii_bsp.a(altera_avalon_jtag_uart_init.o)
 .debug_aranges
                0x000009c8       0x20 ../UARTNow_bsp/\libucosii_bsp.a(altera_avalon_jtag_uart_ioctl.o)
 .debug_aranges
                0x000009e8       0x20 ../UARTNow_bsp/\libucosii_bsp.a(altera_avalon_jtag_uart_read.o)
 .debug_aranges
                0x00000a08       0x20 ../UARTNow_bsp/\libucosii_bsp.a(altera_avalon_jtag_uart_write.o)
 .debug_aranges
                0x00000a28       0x20 ../UARTNow_bsp/\libucosii_bsp.a(altera_avalon_timer_sc.o)
 .debug_aranges
                0x00000a48       0x20 ../UARTNow_bsp/\libucosii_bsp.a(altera_avalon_uart_fd.o)
 .debug_aranges
                0x00000a68       0x20 ../UARTNow_bsp/\libucosii_bsp.a(altera_avalon_uart_init.o)
 .debug_aranges
                0x00000a88       0x20 ../UARTNow_bsp/\libucosii_bsp.a(altera_avalon_uart_read.o)
 .debug_aranges
                0x00000aa8       0x20 ../UARTNow_bsp/\libucosii_bsp.a(altera_avalon_uart_write.o)
 .debug_aranges
                0x00000ac8       0x20 ../UARTNow_bsp/\libucosii_bsp.a(altera_up_avalon_rs232.o)
 .debug_aranges
                0x00000ae8       0x20 ../UARTNow_bsp/\libucosii_bsp.a(alt_alarm_start.o)
 .debug_aranges
                0x00000b08       0x20 ../UARTNow_bsp/\libucosii_bsp.a(alt_dcache_flush_all.o)
 .debug_aranges
                0x00000b28       0x20 ../UARTNow_bsp/\libucosii_bsp.a(alt_dev_llist_insert.o)
 .debug_aranges
                0x00000b48       0x20 ../UARTNow_bsp/\libucosii_bsp.a(alt_do_ctors.o)
 .debug_aranges
                0x00000b68       0x20 ../UARTNow_bsp/\libucosii_bsp.a(alt_do_dtors.o)
 .debug_aranges
                0x00000b88       0x20 ../UARTNow_bsp/\libucosii_bsp.a(alt_find_dev.o)
 .debug_aranges
                0x00000ba8       0x20 ../UARTNow_bsp/\libucosii_bsp.a(alt_icache_flush_all.o)
 .debug_aranges
                0x00000bc8       0x20 ../UARTNow_bsp/\libucosii_bsp.a(alt_io_redirect.o)
 .debug_aranges
                0x00000be8       0x20 ../UARTNow_bsp/\libucosii_bsp.a(alt_irq_register.o)
 .debug_aranges
                0x00000c08       0x20 ../UARTNow_bsp/\libucosii_bsp.a(alt_open.o)
 .debug_aranges
                0x00000c28       0x20 ../UARTNow_bsp/\libucosii_bsp.a(alt_tick.o)
 .debug_aranges
                0x00000c48       0x20 ../UARTNow_bsp/\libucosii_bsp.a(altera_nios2_qsys_irq.o)
 .debug_aranges
                0x00000c68       0x20 ../UARTNow_bsp/\libucosii_bsp.a(os_cpu_a.o)
 .debug_aranges
                0x00000c88       0x20 ../UARTNow_bsp/\libucosii_bsp.a(os_cpu_c.o)
 .debug_aranges
                0x00000ca8       0x20 ../UARTNow_bsp/\libucosii_bsp.a(alt_find_file.o)
 .debug_aranges
                0x00000cc8       0x20 ../UARTNow_bsp/\libucosii_bsp.a(alt_get_fd.o)
 .debug_aranges
                0x00000ce8       0x20 ../UARTNow_bsp/\libucosii_bsp.a(alt_icache_flush.o)
 .debug_aranges
                0x00000d08       0x30 ../UARTNow_bsp/\libucosii_bsp.a(alt_irq_entry.o)
 .debug_aranges
                0x00000d38       0x28 ../UARTNow_bsp/\libucosii_bsp.a(alt_irq_handler.o)
 .debug_aranges
                0x00000d60       0x38 ../UARTNow_bsp/\libucosii_bsp.a(alt_exception_entry.o)
 .debug_aranges
                0x00000d98       0x20 c:/altera/12.1sp1/nios2eds/bin/gnu/h-i686-mingw32/bin/../lib/gcc/nios2-elf/4.1.2/../../../../nios2-elf/lib\libc.a(lib_a-atexit.o)
 .debug_aranges
                0x00000db8       0x20 c:/altera/12.1sp1/nios2eds/bin/gnu/h-i686-mingw32/bin/../lib/gcc/nios2-elf/4.1.2/../../../../nios2-elf/lib\libc.a(lib_a-exit.o)
 .debug_aranges
                0x00000dd8       0x20 c:/altera/12.1sp1/nios2eds/bin/gnu/h-i686-mingw32/bin/../lib/gcc/nios2-elf/4.1.2/../../../../nios2-elf/lib\libc.a(lib_a-memcmp.o)
 .debug_aranges
                0x00000df8       0x20 c:/altera/12.1sp1/nios2eds/bin/gnu/h-i686-mingw32/bin/../lib/gcc/nios2-elf/4.1.2/../../../../nios2-elf/lib\libc.a(lib_a-__atexit.o)
 .debug_aranges
                0x00000e18       0x20 c:/altera/12.1sp1/nios2eds/bin/gnu/h-i686-mingw32/bin/../lib/gcc/nios2-elf/4.1.2/../../../../nios2-elf/lib\libc.a(lib_a-__call_atexit.o)
 .debug_aranges
                0x00000e38       0x20 ../UARTNow_bsp/\libucosii_bsp.a(alt_exit.o)

.debug_pubnames
                0x00000000     0x22bf
 *(.debug_pubnames)
 .debug_pubnames
                0x00000000       0xef obj/default/main.o
 .debug_pubnames
                0x000000ef       0x2b c:/altera/12.1sp1/nios2eds/bin/gnu/h-i686-mingw32/bin/../lib/gcc/nios2-elf/4.1.2/../../../../nios2-elf/lib\libc.a(lib_a-printf.o)
 .debug_pubnames
                0x0000011a       0x27 c:/altera/12.1sp1/nios2eds/bin/gnu/h-i686-mingw32/bin/../lib/gcc/nios2-elf/4.1.2/../../../../nios2-elf/lib\libc.a(lib_a-puts.o)
 .debug_pubnames
                0x00000141       0x1d c:/altera/12.1sp1/nios2eds/bin/gnu/h-i686-mingw32/bin/../lib/gcc/nios2-elf/4.1.2/../../../../nios2-elf/lib\libc.a(lib_a-strlen.o)
 .debug_pubnames
                0x0000015e       0x45 c:/altera/12.1sp1/nios2eds/bin/gnu/h-i686-mingw32/bin/../lib/gcc/nios2-elf/4.1.2/../../../../nios2-elf/lib\libc.a(lib_a-vfprintf.o)
 .debug_pubnames
                0x000001a3       0x22 c:/altera/12.1sp1/nios2eds/bin/gnu/h-i686-mingw32/bin/../lib/gcc/nios2-elf/4.1.2/../../../../nios2-elf/lib\libc.a(lib_a-wsetup.o)
 .debug_pubnames
                0x000001c5       0x1e c:/altera/12.1sp1/nios2eds/bin/gnu/h-i686-mingw32/bin/../lib/gcc/nios2-elf/4.1.2/../../../../nios2-elf/lib\libc.a(lib_a-dtoa.o)
 .debug_pubnames
                0x000001e3       0x2b c:/altera/12.1sp1/nios2eds/bin/gnu/h-i686-mingw32/bin/../lib/gcc/nios2-elf/4.1.2/../../../../nios2-elf/lib\libc.a(lib_a-fflush.o)
 .debug_pubnames
                0x0000020e       0xdb c:/altera/12.1sp1/nios2eds/bin/gnu/h-i686-mingw32/bin/../lib/gcc/nios2-elf/4.1.2/../../../../nios2-elf/lib\libc.a(lib_a-findfp.o)
 .debug_pubnames
                0x000002e9       0x31 c:/altera/12.1sp1/nios2eds/bin/gnu/h-i686-mingw32/bin/../lib/gcc/nios2-elf/4.1.2/../../../../nios2-elf/lib\libc.a(lib_a-freer.o)
 .debug_pubnames
                0x0000031a       0x23 c:/altera/12.1sp1/nios2eds/bin/gnu/h-i686-mingw32/bin/../lib/gcc/nios2-elf/4.1.2/../../../../nios2-elf/lib\libc.a(lib_a-fvwrite.o)
 .debug_pubnames
                0x0000033d       0x2e c:/altera/12.1sp1/nios2eds/bin/gnu/h-i686-mingw32/bin/../lib/gcc/nios2-elf/4.1.2/../../../../nios2-elf/lib\libc.a(lib_a-fwalk.o)
 .debug_pubnames
                0x0000036b       0x39 c:/altera/12.1sp1/nios2eds/bin/gnu/h-i686-mingw32/bin/../lib/gcc/nios2-elf/4.1.2/../../../../nios2-elf/lib\libc.a(lib_a-impure.o)
 .debug_pubnames
                0x000003a4       0xc3 c:/altera/12.1sp1/nios2eds/bin/gnu/h-i686-mingw32/bin/../lib/gcc/nios2-elf/4.1.2/../../../../nios2-elf/lib\libc.a(lib_a-locale.o)
 .debug_pubnames
                0x00000467       0x23 c:/altera/12.1sp1/nios2eds/bin/gnu/h-i686-mingw32/bin/../lib/gcc/nios2-elf/4.1.2/../../../../nios2-elf/lib\libc.a(lib_a-makebuf.o)
 .debug_pubnames
                0x0000048a       0xce c:/altera/12.1sp1/nios2eds/bin/gnu/h-i686-mingw32/bin/../lib/gcc/nios2-elf/4.1.2/../../../../nios2-elf/lib\libc.a(lib_a-mallocr.o)
 .debug_pubnames
                0x00000558       0x1d c:/altera/12.1sp1/nios2eds/bin/gnu/h-i686-mingw32/bin/../lib/gcc/nios2-elf/4.1.2/../../../../nios2-elf/lib\libc.a(lib_a-memchr.o)
 .debug_pubnames
                0x00000575       0x1d c:/altera/12.1sp1/nios2eds/bin/gnu/h-i686-mingw32/bin/../lib/gcc/nios2-elf/4.1.2/../../../../nios2-elf/lib\libc.a(lib_a-memcpy.o)
 .debug_pubnames
                0x00000592       0x1e c:/altera/12.1sp1/nios2eds/bin/gnu/h-i686-mingw32/bin/../lib/gcc/nios2-elf/4.1.2/../../../../nios2-elf/lib\libc.a(lib_a-memmove.o)
 .debug_pubnames
                0x000005b0       0x1d c:/altera/12.1sp1/nios2eds/bin/gnu/h-i686-mingw32/bin/../lib/gcc/nios2-elf/4.1.2/../../../../nios2-elf/lib\libc.a(lib_a-memset.o)
 .debug_pubnames
                0x000005cd      0x13a c:/altera/12.1sp1/nios2eds/bin/gnu/h-i686-mingw32/bin/../lib/gcc/nios2-elf/4.1.2/../../../../nios2-elf/lib\libc.a(lib_a-mprec.o)
 .debug_pubnames
                0x00000707       0x21 c:/altera/12.1sp1/nios2eds/bin/gnu/h-i686-mingw32/bin/../lib/gcc/nios2-elf/4.1.2/../../../../nios2-elf/lib\libc.a(lib_a-reallocr.o)
 .debug_pubnames
                0x00000728       0x1f c:/altera/12.1sp1/nios2eds/bin/gnu/h-i686-mingw32/bin/../lib/gcc/nios2-elf/4.1.2/../../../../nios2-elf/lib\libc.a(lib_a-s_isinfd.o)
 .debug_pubnames
                0x00000747       0x1f c:/altera/12.1sp1/nios2eds/bin/gnu/h-i686-mingw32/bin/../lib/gcc/nios2-elf/4.1.2/../../../../nios2-elf/lib\libc.a(lib_a-s_isnand.o)
 .debug_pubnames
                0x00000766       0x1e c:/altera/12.1sp1/nios2eds/bin/gnu/h-i686-mingw32/bin/../lib/gcc/nios2-elf/4.1.2/../../../../nios2-elf/lib\libc.a(lib_a-sbrkr.o)
 .debug_pubnames
                0x00000784       0x44 c:/altera/12.1sp1/nios2eds/bin/gnu/h-i686-mingw32/bin/../lib/gcc/nios2-elf/4.1.2/../../../../nios2-elf/lib\libc.a(lib_a-stdio.o)
 .debug_pubnames
                0x000007c8       0x1d c:/altera/12.1sp1/nios2eds/bin/gnu/h-i686-mingw32/bin/../lib/gcc/nios2-elf/4.1.2/../../../../nios2-elf/lib\libc.a(lib_a-strcmp.o)
 .debug_pubnames
                0x000007e5       0x1f c:/altera/12.1sp1/nios2eds/bin/gnu/h-i686-mingw32/bin/../lib/gcc/nios2-elf/4.1.2/../../../../nios2-elf/lib\libc.a(lib_a-writer.o)
 .debug_pubnames
                0x00000804       0x20 c:/altera/12.1sp1/nios2eds/bin/gnu/h-i686-mingw32/bin/../lib/gcc/nios2-elf/4.1.2/../../../../nios2-elf/lib\libc.a(lib_a-callocr.o)
 .debug_pubnames
                0x00000824       0x1f c:/altera/12.1sp1/nios2eds/bin/gnu/h-i686-mingw32/bin/../lib/gcc/nios2-elf/4.1.2/../../../../nios2-elf/lib\libc.a(lib_a-closer.o)
 .debug_pubnames
                0x00000843       0x2b c:/altera/12.1sp1/nios2eds/bin/gnu/h-i686-mingw32/bin/../lib/gcc/nios2-elf/4.1.2/../../../../nios2-elf/lib\libc.a(lib_a-fclose.o)
 .debug_pubnames
                0x0000086e       0x1f c:/altera/12.1sp1/nios2eds/bin/gnu/h-i686-mingw32/bin/../lib/gcc/nios2-elf/4.1.2/../../../../nios2-elf/lib\libc.a(lib_a-fstatr.o)
 .debug_pubnames
                0x0000088d       0x1c c:/altera/12.1sp1/nios2eds/bin/gnu/h-i686-mingw32/bin/../lib/gcc/nios2-elf/4.1.2/../../../../nios2-elf/lib\libc.a(lib_a-int_errno.o)
 .debug_pubnames
                0x000008a9       0x20 c:/altera/12.1sp1/nios2eds/bin/gnu/h-i686-mingw32/bin/../lib/gcc/nios2-elf/4.1.2/../../../../nios2-elf/lib\libc.a(lib_a-isattyr.o)
 .debug_pubnames
                0x000008c9       0x1f c:/altera/12.1sp1/nios2eds/bin/gnu/h-i686-mingw32/bin/../lib/gcc/nios2-elf/4.1.2/../../../../nios2-elf/lib\libc.a(lib_a-lseekr.o)
 .debug_pubnames
                0x000008e8       0x1e c:/altera/12.1sp1/nios2eds/bin/gnu/h-i686-mingw32/bin/../lib/gcc/nios2-elf/4.1.2/../../../../nios2-elf/lib\libc.a(lib_a-readr.o)
 .debug_pubnames
                0x00000906       0x20 c:/altera/12.1sp1/nios2eds/bin/gnu/h-i686-mingw32/bin/../lib/gcc/nios2-elf/4.1.2\libgcc.a(_udivdi3.o)
 .debug_pubnames
                0x00000926       0x20 c:/altera/12.1sp1/nios2eds/bin/gnu/h-i686-mingw32/bin/../lib/gcc/nios2-elf/4.1.2\libgcc.a(_umoddi3.o)
 .debug_pubnames
                0x00000946       0x2c c:/altera/12.1sp1/nios2eds/bin/gnu/h-i686-mingw32/bin/../lib/gcc/nios2-elf/4.1.2\libgcc.a(_addsub_df.o)
 .debug_pubnames
                0x00000972       0x1f c:/altera/12.1sp1/nios2eds/bin/gnu/h-i686-mingw32/bin/../lib/gcc/nios2-elf/4.1.2\libgcc.a(_mul_df.o)
 .debug_pubnames
                0x00000991       0x1f c:/altera/12.1sp1/nios2eds/bin/gnu/h-i686-mingw32/bin/../lib/gcc/nios2-elf/4.1.2\libgcc.a(_div_df.o)
 .debug_pubnames
                0x000009b0       0x1e c:/altera/12.1sp1/nios2eds/bin/gnu/h-i686-mingw32/bin/../lib/gcc/nios2-elf/4.1.2\libgcc.a(_eq_df.o)
 .debug_pubnames
                0x000009ce       0x1e c:/altera/12.1sp1/nios2eds/bin/gnu/h-i686-mingw32/bin/../lib/gcc/nios2-elf/4.1.2\libgcc.a(_ne_df.o)
 .debug_pubnames
                0x000009ec       0x1e c:/altera/12.1sp1/nios2eds/bin/gnu/h-i686-mingw32/bin/../lib/gcc/nios2-elf/4.1.2\libgcc.a(_gt_df.o)
 .debug_pubnames
                0x00000a0a       0x1e c:/altera/12.1sp1/nios2eds/bin/gnu/h-i686-mingw32/bin/../lib/gcc/nios2-elf/4.1.2\libgcc.a(_ge_df.o)
 .debug_pubnames
                0x00000a28       0x1e c:/altera/12.1sp1/nios2eds/bin/gnu/h-i686-mingw32/bin/../lib/gcc/nios2-elf/4.1.2\libgcc.a(_lt_df.o)
 .debug_pubnames
                0x00000a46       0x22 c:/altera/12.1sp1/nios2eds/bin/gnu/h-i686-mingw32/bin/../lib/gcc/nios2-elf/4.1.2\libgcc.a(_si_to_df.o)
 .debug_pubnames
                0x00000a68       0x20 c:/altera/12.1sp1/nios2eds/bin/gnu/h-i686-mingw32/bin/../lib/gcc/nios2-elf/4.1.2\libgcc.a(_df_to_si.o)
 .debug_pubnames
                0x00000a88       0x22 c:/altera/12.1sp1/nios2eds/bin/gnu/h-i686-mingw32/bin/../lib/gcc/nios2-elf/4.1.2\libgcc.a(_thenan_df.o)
 .debug_pubnames
                0x00000aaa       0x24 c:/altera/12.1sp1/nios2eds/bin/gnu/h-i686-mingw32/bin/../lib/gcc/nios2-elf/4.1.2\libgcc.a(_usi_to_df.o)
 .debug_pubnames
                0x00000ace       0x48 c:/altera/12.1sp1/nios2eds/bin/gnu/h-i686-mingw32/bin/../lib/gcc/nios2-elf/4.1.2\libgcc.a(lib2-divmod.o)
 .debug_pubnames
                0x00000b16       0x1f c:/altera/12.1sp1/nios2eds/bin/gnu/h-i686-mingw32/bin/../lib/gcc/nios2-elf/4.1.2\libgcc.a(_muldi3.o)
 .debug_pubnames
                0x00000b35       0x20 c:/altera/12.1sp1/nios2eds/bin/gnu/h-i686-mingw32/bin/../lib/gcc/nios2-elf/4.1.2\libgcc.a(_clz.o)
 .debug_pubnames
                0x00000b55       0x1f c:/altera/12.1sp1/nios2eds/bin/gnu/h-i686-mingw32/bin/../lib/gcc/nios2-elf/4.1.2\libgcc.a(_clzsi2.o)
 .debug_pubnames
                0x00000b74       0x1f c:/altera/12.1sp1/nios2eds/bin/gnu/h-i686-mingw32/bin/../lib/gcc/nios2-elf/4.1.2\libgcc.a(_pack_df.o)
 .debug_pubnames
                0x00000b93       0x21 c:/altera/12.1sp1/nios2eds/bin/gnu/h-i686-mingw32/bin/../lib/gcc/nios2-elf/4.1.2\libgcc.a(_unpack_df.o)
 .debug_pubnames
                0x00000bb4       0x26 c:/altera/12.1sp1/nios2eds/bin/gnu/h-i686-mingw32/bin/../lib/gcc/nios2-elf/4.1.2\libgcc.a(_fpcmp_parts_df.o)
 .debug_pubnames
                0x00000bda       0x1c ../UARTNow_bsp/\libucosii_bsp.a(alt_close.o)
 .debug_pubnames
                0x00000bf6       0x78 ../UARTNow_bsp/\libucosii_bsp.a(alt_dev.o)
 .debug_pubnames
                0x00000c6e       0x20 ../UARTNow_bsp/\libucosii_bsp.a(alt_errno.o)
 .debug_pubnames
                0x00000c8e       0x1c ../UARTNow_bsp/\libucosii_bsp.a(alt_fstat.o)
 .debug_pubnames
                0x00000caa       0x1d ../UARTNow_bsp/\libucosii_bsp.a(alt_isatty.o)
 .debug_pubnames
                0x00000cc7       0x1f ../UARTNow_bsp/\libucosii_bsp.a(alt_load.o)
 .debug_pubnames
                0x00000ce6       0x1c ../UARTNow_bsp/\libucosii_bsp.a(alt_lseek.o)
 .debug_pubnames
                0x00000d02       0x46 ../UARTNow_bsp/\libucosii_bsp.a(alt_main.o)
 .debug_pubnames
                0x00000d48       0x1b ../UARTNow_bsp/\libucosii_bsp.a(alt_read.o)
 .debug_pubnames
                0x00000d63       0x25 ../UARTNow_bsp/\libucosii_bsp.a(alt_release_fd.o)
 .debug_pubnames
                0x00000d88       0x1b ../UARTNow_bsp/\libucosii_bsp.a(alt_sbrk.o)
 .debug_pubnames
                0x00000da3       0x1c ../UARTNow_bsp/\libucosii_bsp.a(alt_write.o)
 .debug_pubnames
                0x00000dbf       0x41 ../UARTNow_bsp/\libucosii_bsp.a(alt_env_lock.o)
 .debug_pubnames
                0x00000e00       0x48 ../UARTNow_bsp/\libucosii_bsp.a(alt_malloc_lock.o)
 .debug_pubnames
                0x00000e48      0x3f8 ../UARTNow_bsp/\libucosii_bsp.a(os_core.o)
 .debug_pubnames
                0x00001240      0x3c5 ../UARTNow_bsp/\libucosii_bsp.a(os_dbg.o)
 .debug_pubnames
                0x00001605       0xd0 ../UARTNow_bsp/\libucosii_bsp.a(os_flag.o)
 .debug_pubnames
                0x000016d5       0x7c ../UARTNow_bsp/\libucosii_bsp.a(os_mem.o)
 .debug_pubnames
                0x00001751       0xa9 ../UARTNow_bsp/\libucosii_bsp.a(os_q.o)
 .debug_pubnames
                0x000017fa       0x8a ../UARTNow_bsp/\libucosii_bsp.a(os_sem.o)
 .debug_pubnames
                0x00001884       0xe5 ../UARTNow_bsp/\libucosii_bsp.a(os_task.o)
 .debug_pubnames
                0x00001969       0x62 ../UARTNow_bsp/\libucosii_bsp.a(os_time.o)
 .debug_pubnames
                0x000019cb       0x34 ../UARTNow_bsp/\libucosii_bsp.a(alt_sys_init.o)
 .debug_pubnames
                0x000019ff       0xa5 ../UARTNow_bsp/\libucosii_bsp.a(altera_avalon_jtag_uart_fd.o)
 .debug_pubnames
                0x00001aa4       0x55 ../UARTNow_bsp/\libucosii_bsp.a(altera_avalon_jtag_uart_init.o)
 .debug_pubnames
                0x00001af9       0x34 ../UARTNow_bsp/\libucosii_bsp.a(altera_avalon_jtag_uart_ioctl.o)
 .debug_pubnames
                0x00001b2d       0x33 ../UARTNow_bsp/\libucosii_bsp.a(altera_avalon_jtag_uart_read.o)
 .debug_pubnames
                0x00001b60       0x34 ../UARTNow_bsp/\libucosii_bsp.a(altera_avalon_jtag_uart_write.o)
 .debug_pubnames
                0x00001b94       0x2f ../UARTNow_bsp/\libucosii_bsp.a(altera_avalon_timer_sc.o)
 .debug_pubnames
                0x00001bc3       0x71 ../UARTNow_bsp/\libucosii_bsp.a(altera_avalon_uart_fd.o)
 .debug_pubnames
                0x00001c34       0x4b ../UARTNow_bsp/\libucosii_bsp.a(altera_avalon_uart_init.o)
 .debug_pubnames
                0x00001c7f       0x2e ../UARTNow_bsp/\libucosii_bsp.a(altera_avalon_uart_read.o)
 .debug_pubnames
                0x00001cad       0x2f ../UARTNow_bsp/\libucosii_bsp.a(altera_avalon_uart_write.o)
 .debug_pubnames
                0x00001cdc      0x163 ../UARTNow_bsp/\libucosii_bsp.a(altera_up_avalon_rs232.o)
 .debug_pubnames
                0x00001e3f       0x26 ../UARTNow_bsp/\libucosii_bsp.a(alt_alarm_start.o)
 .debug_pubnames
                0x00001e65       0x2b ../UARTNow_bsp/\libucosii_bsp.a(alt_dcache_flush_all.o)
 .debug_pubnames
                0x00001e90       0x2b ../UARTNow_bsp/\libucosii_bsp.a(alt_dev_llist_insert.o)
 .debug_pubnames
                0x00001ebb       0x20 ../UARTNow_bsp/\libucosii_bsp.a(alt_do_ctors.o)
 .debug_pubnames
                0x00001edb       0x20 ../UARTNow_bsp/\libucosii_bsp.a(alt_do_dtors.o)
 .debug_pubnames
                0x00001efb       0x23 ../UARTNow_bsp/\libucosii_bsp.a(alt_find_dev.o)
 .debug_pubnames
                0x00001f1e       0x2b ../UARTNow_bsp/\libucosii_bsp.a(alt_icache_flush_all.o)
 .debug_pubnames
                0x00001f49       0x26 ../UARTNow_bsp/\libucosii_bsp.a(alt_io_redirect.o)
 .debug_pubnames
                0x00001f6f       0x27 ../UARTNow_bsp/\libucosii_bsp.a(alt_irq_register.o)
 .debug_pubnames
                0x00001f96       0x3b ../UARTNow_bsp/\libucosii_bsp.a(alt_irq_vars.o)
 .debug_pubnames
                0x00001fd1       0x1b ../UARTNow_bsp/\libucosii_bsp.a(alt_open.o)
 .debug_pubnames
                0x00001fec       0x68 ../UARTNow_bsp/\libucosii_bsp.a(alt_tick.o)
 .debug_pubnames
                0x00002054       0x31 ../UARTNow_bsp/\libucosii_bsp.a(altera_nios2_qsys_irq.o)
 .debug_pubnames
                0x00002085       0xcd ../UARTNow_bsp/\libucosii_bsp.a(os_cpu_c.o)
 .debug_pubnames
                0x00002152       0x24 ../UARTNow_bsp/\libucosii_bsp.a(alt_find_file.o)
 .debug_pubnames
                0x00002176       0x21 ../UARTNow_bsp/\libucosii_bsp.a(alt_get_fd.o)
 .debug_pubnames
                0x00002197       0x27 ../UARTNow_bsp/\libucosii_bsp.a(alt_icache_flush.o)
 .debug_pubnames
                0x000021be       0x32 ../UARTNow_bsp/\libucosii_bsp.a(alt_irq_handler.o)
 .debug_pubnames
                0x000021f0       0x2a c:/altera/12.1sp1/nios2eds/bin/gnu/h-i686-mingw32/bin/../lib/gcc/nios2-elf/4.1.2/../../../../nios2-elf/lib\libc.a(lib_a-atexit.o)
 .debug_pubnames
                0x0000221a       0x1b c:/altera/12.1sp1/nios2eds/bin/gnu/h-i686-mingw32/bin/../lib/gcc/nios2-elf/4.1.2/../../../../nios2-elf/lib\libc.a(lib_a-exit.o)
 .debug_pubnames
                0x00002235       0x1d c:/altera/12.1sp1/nios2eds/bin/gnu/h-i686-mingw32/bin/../lib/gcc/nios2-elf/4.1.2/../../../../nios2-elf/lib\libc.a(lib_a-memcmp.o)
 .debug_pubnames
                0x00002252       0x2a c:/altera/12.1sp1/nios2eds/bin/gnu/h-i686-mingw32/bin/../lib/gcc/nios2-elf/4.1.2/../../../../nios2-elf/lib\libc.a(lib_a-__atexit.o)
 .debug_pubnames
                0x0000227c       0x27 c:/altera/12.1sp1/nios2eds/bin/gnu/h-i686-mingw32/bin/../lib/gcc/nios2-elf/4.1.2/../../../../nios2-elf/lib\libc.a(lib_a-__call_atexit.o)
 .debug_pubnames
                0x000022a3       0x1c ../UARTNow_bsp/\libucosii_bsp.a(alt_exit.o)

.debug_info     0x00000000    0x327c9
 *(.debug_info .gnu.linkonce.wi.*)
 .debug_info    0x00000000       0x84 ../UARTNow_bsp//obj/HAL/src/crt0.o
 .debug_info    0x00000084      0x566 obj/default/main.o
 .debug_info    0x000005ea      0x9d1 c:/altera/12.1sp1/nios2eds/bin/gnu/h-i686-mingw32/bin/../lib/gcc/nios2-elf/4.1.2/../../../../nios2-elf/lib\libc.a(lib_a-printf.o)
 .debug_info    0x00000fbb      0xa25 c:/altera/12.1sp1/nios2eds/bin/gnu/h-i686-mingw32/bin/../lib/gcc/nios2-elf/4.1.2/../../../../nios2-elf/lib\libc.a(lib_a-puts.o)
 .debug_info    0x000019e0       0xdb c:/altera/12.1sp1/nios2eds/bin/gnu/h-i686-mingw32/bin/../lib/gcc/nios2-elf/4.1.2/../../../../nios2-elf/lib\libc.a(lib_a-strlen.o)
 .debug_info    0x00001abb     0x10d5 c:/altera/12.1sp1/nios2eds/bin/gnu/h-i686-mingw32/bin/../lib/gcc/nios2-elf/4.1.2/../../../../nios2-elf/lib\libc.a(lib_a-vfprintf.o)
 .debug_info    0x00002b90      0x95d c:/altera/12.1sp1/nios2eds/bin/gnu/h-i686-mingw32/bin/../lib/gcc/nios2-elf/4.1.2/../../../../nios2-elf/lib\libc.a(lib_a-wsetup.o)
 .debug_info    0x000034ed      0xd6f c:/altera/12.1sp1/nios2eds/bin/gnu/h-i686-mingw32/bin/../lib/gcc/nios2-elf/4.1.2/../../../../nios2-elf/lib\libc.a(lib_a-dtoa.o)
 .debug_info    0x0000425c      0x9fe c:/altera/12.1sp1/nios2eds/bin/gnu/h-i686-mingw32/bin/../lib/gcc/nios2-elf/4.1.2/../../../../nios2-elf/lib\libc.a(lib_a-fflush.o)
 .debug_info    0x00004c5a      0xb72 c:/altera/12.1sp1/nios2eds/bin/gnu/h-i686-mingw32/bin/../lib/gcc/nios2-elf/4.1.2/../../../../nios2-elf/lib\libc.a(lib_a-findfp.o)
 .debug_info    0x000057cc      0xbc9 c:/altera/12.1sp1/nios2eds/bin/gnu/h-i686-mingw32/bin/../lib/gcc/nios2-elf/4.1.2/../../../../nios2-elf/lib\libc.a(lib_a-freer.o)
 .debug_info    0x00006395      0xa88 c:/altera/12.1sp1/nios2eds/bin/gnu/h-i686-mingw32/bin/../lib/gcc/nios2-elf/4.1.2/../../../../nios2-elf/lib\libc.a(lib_a-fvwrite.o)
 .debug_info    0x00006e1d      0xaed c:/altera/12.1sp1/nios2eds/bin/gnu/h-i686-mingw32/bin/../lib/gcc/nios2-elf/4.1.2/../../../../nios2-elf/lib\libc.a(lib_a-fwalk.o)
 .debug_info    0x0000790a      0x93d c:/altera/12.1sp1/nios2eds/bin/gnu/h-i686-mingw32/bin/../lib/gcc/nios2-elf/4.1.2/../../../../nios2-elf/lib\libc.a(lib_a-impure.o)
 .debug_info    0x00008247      0xb97 c:/altera/12.1sp1/nios2eds/bin/gnu/h-i686-mingw32/bin/../lib/gcc/nios2-elf/4.1.2/../../../../nios2-elf/lib\libc.a(lib_a-locale.o)
 .debug_info    0x00008dde      0xb1a c:/altera/12.1sp1/nios2eds/bin/gnu/h-i686-mingw32/bin/../lib/gcc/nios2-elf/4.1.2/../../../../nios2-elf/lib\libc.a(lib_a-makebuf.o)
 .debug_info    0x000098f8      0xcd0 c:/altera/12.1sp1/nios2eds/bin/gnu/h-i686-mingw32/bin/../lib/gcc/nios2-elf/4.1.2/../../../../nios2-elf/lib\libc.a(lib_a-mallocr.o)
 .debug_info    0x0000a5c8      0x138 c:/altera/12.1sp1/nios2eds/bin/gnu/h-i686-mingw32/bin/../lib/gcc/nios2-elf/4.1.2/../../../../nios2-elf/lib\libc.a(lib_a-memchr.o)
 .debug_info    0x0000a700      0x106 c:/altera/12.1sp1/nios2eds/bin/gnu/h-i686-mingw32/bin/../lib/gcc/nios2-elf/4.1.2/../../../../nios2-elf/lib\libc.a(lib_a-memcpy.o)
 .debug_info    0x0000a806      0x13e c:/altera/12.1sp1/nios2eds/bin/gnu/h-i686-mingw32/bin/../lib/gcc/nios2-elf/4.1.2/../../../../nios2-elf/lib\libc.a(lib_a-memmove.o)
 .debug_info    0x0000a944      0x113 c:/altera/12.1sp1/nios2eds/bin/gnu/h-i686-mingw32/bin/../lib/gcc/nios2-elf/4.1.2/../../../../nios2-elf/lib\libc.a(lib_a-memset.o)
 .debug_info    0x0000aa57     0x1437 c:/altera/12.1sp1/nios2eds/bin/gnu/h-i686-mingw32/bin/../lib/gcc/nios2-elf/4.1.2/../../../../nios2-elf/lib\libc.a(lib_a-mprec.o)
 .debug_info    0x0000be8e      0xbd7 c:/altera/12.1sp1/nios2eds/bin/gnu/h-i686-mingw32/bin/../lib/gcc/nios2-elf/4.1.2/../../../../nios2-elf/lib\libc.a(lib_a-reallocr.o)
 .debug_info    0x0000ca65       0xd7 c:/altera/12.1sp1/nios2eds/bin/gnu/h-i686-mingw32/bin/../lib/gcc/nios2-elf/4.1.2/../../../../nios2-elf/lib\libc.a(lib_a-s_isinfd.o)
 .debug_info    0x0000cb3c       0xd5 c:/altera/12.1sp1/nios2eds/bin/gnu/h-i686-mingw32/bin/../lib/gcc/nios2-elf/4.1.2/../../../../nios2-elf/lib\libc.a(lib_a-s_isnand.o)
 .debug_info    0x0000cc11      0x962 c:/altera/12.1sp1/nios2eds/bin/gnu/h-i686-mingw32/bin/../lib/gcc/nios2-elf/4.1.2/../../../../nios2-elf/lib\libc.a(lib_a-sbrkr.o)
 .debug_info    0x0000d573      0xaac c:/altera/12.1sp1/nios2eds/bin/gnu/h-i686-mingw32/bin/../lib/gcc/nios2-elf/4.1.2/../../../../nios2-elf/lib\libc.a(lib_a-stdio.o)
 .debug_info    0x0000e01f       0xdd c:/altera/12.1sp1/nios2eds/bin/gnu/h-i686-mingw32/bin/../lib/gcc/nios2-elf/4.1.2/../../../../nios2-elf/lib\libc.a(lib_a-strcmp.o)
 .debug_info    0x0000e0fc      0x993 c:/altera/12.1sp1/nios2eds/bin/gnu/h-i686-mingw32/bin/../lib/gcc/nios2-elf/4.1.2/../../../../nios2-elf/lib\libc.a(lib_a-writer.o)
 .debug_info    0x0000ea8f      0xa1b c:/altera/12.1sp1/nios2eds/bin/gnu/h-i686-mingw32/bin/../lib/gcc/nios2-elf/4.1.2/../../../../nios2-elf/lib\libc.a(lib_a-callocr.o)
 .debug_info    0x0000f4aa      0x958 c:/altera/12.1sp1/nios2eds/bin/gnu/h-i686-mingw32/bin/../lib/gcc/nios2-elf/4.1.2/../../../../nios2-elf/lib\libc.a(lib_a-closer.o)
 .debug_info    0x0000fe02      0x994 c:/altera/12.1sp1/nios2eds/bin/gnu/h-i686-mingw32/bin/../lib/gcc/nios2-elf/4.1.2/../../../../nios2-elf/lib\libc.a(lib_a-fclose.o)
 .debug_info    0x00010796      0xafc c:/altera/12.1sp1/nios2eds/bin/gnu/h-i686-mingw32/bin/../lib/gcc/nios2-elf/4.1.2/../../../../nios2-elf/lib\libc.a(lib_a-fstatr.o)
 .debug_info    0x00011292       0x8c c:/altera/12.1sp1/nios2eds/bin/gnu/h-i686-mingw32/bin/../lib/gcc/nios2-elf/4.1.2/../../../../nios2-elf/lib\libc.a(lib_a-int_errno.o)
 .debug_info    0x0001131e      0x958 c:/altera/12.1sp1/nios2eds/bin/gnu/h-i686-mingw32/bin/../lib/gcc/nios2-elf/4.1.2/../../../../nios2-elf/lib\libc.a(lib_a-isattyr.o)
 .debug_info    0x00011c76      0x981 c:/altera/12.1sp1/nios2eds/bin/gnu/h-i686-mingw32/bin/../lib/gcc/nios2-elf/4.1.2/../../../../nios2-elf/lib\libc.a(lib_a-lseekr.o)
 .debug_info    0x000125f7      0x98c c:/altera/12.1sp1/nios2eds/bin/gnu/h-i686-mingw32/bin/../lib/gcc/nios2-elf/4.1.2/../../../../nios2-elf/lib\libc.a(lib_a-readr.o)
 .debug_info    0x00012f83      0x724 c:/altera/12.1sp1/nios2eds/bin/gnu/h-i686-mingw32/bin/../lib/gcc/nios2-elf/4.1.2\libgcc.a(_udivdi3.o)
 .debug_info    0x000136a7      0x751 c:/altera/12.1sp1/nios2eds/bin/gnu/h-i686-mingw32/bin/../lib/gcc/nios2-elf/4.1.2\libgcc.a(_umoddi3.o)
 .debug_info    0x00013df8      0x493 c:/altera/12.1sp1/nios2eds/bin/gnu/h-i686-mingw32/bin/../lib/gcc/nios2-elf/4.1.2\libgcc.a(_addsub_df.o)
 .debug_info    0x0001428b      0x488 c:/altera/12.1sp1/nios2eds/bin/gnu/h-i686-mingw32/bin/../lib/gcc/nios2-elf/4.1.2\libgcc.a(_mul_df.o)
 .debug_info    0x00014713      0x39b c:/altera/12.1sp1/nios2eds/bin/gnu/h-i686-mingw32/bin/../lib/gcc/nios2-elf/4.1.2\libgcc.a(_div_df.o)
 .debug_info    0x00014aae      0x29d c:/altera/12.1sp1/nios2eds/bin/gnu/h-i686-mingw32/bin/../lib/gcc/nios2-elf/4.1.2\libgcc.a(_eq_df.o)
 .debug_info    0x00014d4b      0x29d c:/altera/12.1sp1/nios2eds/bin/gnu/h-i686-mingw32/bin/../lib/gcc/nios2-elf/4.1.2\libgcc.a(_ne_df.o)
 .debug_info    0x00014fe8      0x29d c:/altera/12.1sp1/nios2eds/bin/gnu/h-i686-mingw32/bin/../lib/gcc/nios2-elf/4.1.2\libgcc.a(_gt_df.o)
 .debug_info    0x00015285      0x29d c:/altera/12.1sp1/nios2eds/bin/gnu/h-i686-mingw32/bin/../lib/gcc/nios2-elf/4.1.2\libgcc.a(_ge_df.o)
 .debug_info    0x00015522      0x29d c:/altera/12.1sp1/nios2eds/bin/gnu/h-i686-mingw32/bin/../lib/gcc/nios2-elf/4.1.2\libgcc.a(_lt_df.o)
 .debug_info    0x000157bf      0x218 c:/altera/12.1sp1/nios2eds/bin/gnu/h-i686-mingw32/bin/../lib/gcc/nios2-elf/4.1.2\libgcc.a(_si_to_df.o)
 .debug_info    0x000159d7      0x2cd c:/altera/12.1sp1/nios2eds/bin/gnu/h-i686-mingw32/bin/../lib/gcc/nios2-elf/4.1.2\libgcc.a(_df_to_si.o)
 .debug_info    0x00015ca4      0x164 c:/altera/12.1sp1/nios2eds/bin/gnu/h-i686-mingw32/bin/../lib/gcc/nios2-elf/4.1.2\libgcc.a(_thenan_df.o)
 .debug_info    0x00015e08      0x213 c:/altera/12.1sp1/nios2eds/bin/gnu/h-i686-mingw32/bin/../lib/gcc/nios2-elf/4.1.2\libgcc.a(_usi_to_df.o)
 .debug_info    0x0001601b      0x21c c:/altera/12.1sp1/nios2eds/bin/gnu/h-i686-mingw32/bin/../lib/gcc/nios2-elf/4.1.2\libgcc.a(lib2-divmod.o)
 .debug_info    0x00016237      0x215 c:/altera/12.1sp1/nios2eds/bin/gnu/h-i686-mingw32/bin/../lib/gcc/nios2-elf/4.1.2\libgcc.a(_muldi3.o)
 .debug_info    0x0001644c       0xc9 c:/altera/12.1sp1/nios2eds/bin/gnu/h-i686-mingw32/bin/../lib/gcc/nios2-elf/4.1.2\libgcc.a(_clz.o)
 .debug_info    0x00016515      0x130 c:/altera/12.1sp1/nios2eds/bin/gnu/h-i686-mingw32/bin/../lib/gcc/nios2-elf/4.1.2\libgcc.a(_clzsi2.o)
 .debug_info    0x00016645      0x2fc c:/altera/12.1sp1/nios2eds/bin/gnu/h-i686-mingw32/bin/../lib/gcc/nios2-elf/4.1.2\libgcc.a(_pack_df.o)
 .debug_info    0x00016941      0x268 c:/altera/12.1sp1/nios2eds/bin/gnu/h-i686-mingw32/bin/../lib/gcc/nios2-elf/4.1.2\libgcc.a(_unpack_df.o)
 .debug_info    0x00016ba9      0x21b c:/altera/12.1sp1/nios2eds/bin/gnu/h-i686-mingw32/bin/../lib/gcc/nios2-elf/4.1.2\libgcc.a(_fpcmp_parts_df.o)
 .debug_info    0x00016dc4      0x4f7 ../UARTNow_bsp/\libucosii_bsp.a(alt_close.o)
 .debug_info    0x000172bb      0x819 ../UARTNow_bsp/\libucosii_bsp.a(alt_dev.o)
 .debug_info    0x00017ad4      0x16d ../UARTNow_bsp/\libucosii_bsp.a(alt_errno.o)
 .debug_info    0x00017c41      0x6f0 ../UARTNow_bsp/\libucosii_bsp.a(alt_fstat.o)
 .debug_info    0x00018331      0x6f6 ../UARTNow_bsp/\libucosii_bsp.a(alt_isatty.o)
 .debug_info    0x00018a27      0x296 ../UARTNow_bsp/\libucosii_bsp.a(alt_load.o)
 .debug_info    0x00018cbd      0x52a ../UARTNow_bsp/\libucosii_bsp.a(alt_lseek.o)
 .debug_info    0x000191e7      0x419 ../UARTNow_bsp/\libucosii_bsp.a(alt_main.o)
 .debug_info    0x00019600      0x71a ../UARTNow_bsp/\libucosii_bsp.a(alt_read.o)
 .debug_info    0x00019d1a      0x48b ../UARTNow_bsp/\libucosii_bsp.a(alt_release_fd.o)
 .debug_info    0x0001a1a5      0x307 ../UARTNow_bsp/\libucosii_bsp.a(alt_sbrk.o)
 .debug_info    0x0001a4ac      0x723 ../UARTNow_bsp/\libucosii_bsp.a(alt_write.o)
 .debug_info    0x0001abcf     0x120f ../UARTNow_bsp/\libucosii_bsp.a(alt_env_lock.o)
 .debug_info    0x0001bdde     0x136b ../UARTNow_bsp/\libucosii_bsp.a(alt_malloc_lock.o)
 .debug_info    0x0001d149     0x1c25 ../UARTNow_bsp/\libucosii_bsp.a(os_core.o)
 .debug_info    0x0001ed6e     0x116a ../UARTNow_bsp/\libucosii_bsp.a(os_dbg.o)
 .debug_info    0x0001fed8     0x1280 ../UARTNow_bsp/\libucosii_bsp.a(os_flag.o)
 .debug_info    0x00021158      0x84a ../UARTNow_bsp/\libucosii_bsp.a(os_mem.o)
 .debug_info    0x000219a2     0x10ba ../UARTNow_bsp/\libucosii_bsp.a(os_q.o)
 .debug_info    0x00022a5c      0xd22 ../UARTNow_bsp/\libucosii_bsp.a(os_sem.o)
 .debug_info    0x0002377e     0x1398 ../UARTNow_bsp/\libucosii_bsp.a(os_task.o)
 .debug_info    0x00024b16      0xa1c ../UARTNow_bsp/\libucosii_bsp.a(os_time.o)
 .debug_info    0x00025532      0xb3a ../UARTNow_bsp/\libucosii_bsp.a(alt_sys_init.o)
 .debug_info    0x0002606c      0xa0e ../UARTNow_bsp/\libucosii_bsp.a(altera_avalon_jtag_uart_fd.o)
 .debug_info    0x00026a7a      0x999 ../UARTNow_bsp/\libucosii_bsp.a(altera_avalon_jtag_uart_init.o)
 .debug_info    0x00027413      0x678 ../UARTNow_bsp/\libucosii_bsp.a(altera_avalon_jtag_uart_ioctl.o)
 .debug_info    0x00027a8b      0x834 ../UARTNow_bsp/\libucosii_bsp.a(altera_avalon_jtag_uart_read.o)
 .debug_info    0x000282bf      0x82b ../UARTNow_bsp/\libucosii_bsp.a(altera_avalon_jtag_uart_write.o)
 .debug_info    0x00028aea      0x3d4 ../UARTNow_bsp/\libucosii_bsp.a(altera_avalon_timer_sc.o)
 .debug_info    0x00028ebe      0x8ae ../UARTNow_bsp/\libucosii_bsp.a(altera_avalon_uart_fd.o)
 .debug_info    0x0002976c      0x887 ../UARTNow_bsp/\libucosii_bsp.a(altera_avalon_uart_init.o)
 .debug_info    0x00029ff3      0x7fc ../UARTNow_bsp/\libucosii_bsp.a(altera_avalon_uart_read.o)
 .debug_info    0x0002a7ef      0x7eb ../UARTNow_bsp/\libucosii_bsp.a(altera_avalon_uart_write.o)
 .debug_info    0x0002afda      0x860 ../UARTNow_bsp/\libucosii_bsp.a(altera_up_avalon_rs232.o)
 .debug_info    0x0002b83a      0x47e ../UARTNow_bsp/\libucosii_bsp.a(alt_alarm_start.o)
 .debug_info    0x0002bcb8      0x178 ../UARTNow_bsp/\libucosii_bsp.a(alt_dcache_flush_all.o)
 .debug_info    0x0002be30      0x2c0 ../UARTNow_bsp/\libucosii_bsp.a(alt_dev_llist_insert.o)
 .debug_info    0x0002c0f0      0x118 ../UARTNow_bsp/\libucosii_bsp.a(alt_do_ctors.o)
 .debug_info    0x0002c208      0x117 ../UARTNow_bsp/\libucosii_bsp.a(alt_do_dtors.o)
 .debug_info    0x0002c31f      0x4a8 ../UARTNow_bsp/\libucosii_bsp.a(alt_find_dev.o)
 .debug_info    0x0002c7c7      0x165 ../UARTNow_bsp/\libucosii_bsp.a(alt_icache_flush_all.o)
 .debug_info    0x0002c92c      0x725 ../UARTNow_bsp/\libucosii_bsp.a(alt_io_redirect.o)
 .debug_info    0x0002d051      0x478 ../UARTNow_bsp/\libucosii_bsp.a(alt_irq_register.o)
 .debug_info    0x0002d4c9      0x170 ../UARTNow_bsp/\libucosii_bsp.a(alt_irq_vars.o)
 .debug_info    0x0002d639      0x5a6 ../UARTNow_bsp/\libucosii_bsp.a(alt_open.o)
 .debug_info    0x0002dbdf      0x44d ../UARTNow_bsp/\libucosii_bsp.a(alt_tick.o)
 .debug_info    0x0002e02c      0x1b3 ../UARTNow_bsp/\libucosii_bsp.a(altera_nios2_qsys_irq.o)
 .debug_info    0x0002e1df       0x8c ../UARTNow_bsp/\libucosii_bsp.a(os_cpu_a.o)
 .debug_info    0x0002e26b     0x130f ../UARTNow_bsp/\libucosii_bsp.a(os_cpu_c.o)
 .debug_info    0x0002f57a      0x4af ../UARTNow_bsp/\libucosii_bsp.a(alt_find_file.o)
 .debug_info    0x0002fa29      0x641 ../UARTNow_bsp/\libucosii_bsp.a(alt_get_fd.o)
 .debug_info    0x0003006a      0x1ad ../UARTNow_bsp/\libucosii_bsp.a(alt_icache_flush.o)
 .debug_info    0x00030217       0x8d ../UARTNow_bsp/\libucosii_bsp.a(alt_irq_entry.o)
 .debug_info    0x000302a4      0x2fb ../UARTNow_bsp/\libucosii_bsp.a(alt_irq_handler.o)
 .debug_info    0x0003059f       0x93 ../UARTNow_bsp/\libucosii_bsp.a(alt_exception_entry.o)
 .debug_info    0x00030632      0x181 c:/altera/12.1sp1/nios2eds/bin/gnu/h-i686-mingw32/bin/../lib/gcc/nios2-elf/4.1.2/../../../../nios2-elf/lib\libc.a(lib_a-atexit.o)
 .debug_info    0x000307b3      0x93f c:/altera/12.1sp1/nios2eds/bin/gnu/h-i686-mingw32/bin/../lib/gcc/nios2-elf/4.1.2/../../../../nios2-elf/lib\libc.a(lib_a-exit.o)
 .debug_info    0x000310f2      0x115 c:/altera/12.1sp1/nios2eds/bin/gnu/h-i686-mingw32/bin/../lib/gcc/nios2-elf/4.1.2/../../../../nios2-elf/lib\libc.a(lib_a-memcmp.o)
 .debug_info    0x00031207      0x99c c:/altera/12.1sp1/nios2eds/bin/gnu/h-i686-mingw32/bin/../lib/gcc/nios2-elf/4.1.2/../../../../nios2-elf/lib\libc.a(lib_a-__atexit.o)
 .debug_info    0x00031ba3      0x9e2 c:/altera/12.1sp1/nios2eds/bin/gnu/h-i686-mingw32/bin/../lib/gcc/nios2-elf/4.1.2/../../../../nios2-elf/lib\libc.a(lib_a-__call_atexit.o)
 .debug_info    0x00032585      0x244 ../UARTNow_bsp/\libucosii_bsp.a(alt_exit.o)

.debug_abbrev   0x00000000     0x9966
 *(.debug_abbrev)
 .debug_abbrev  0x00000000       0x12 ../UARTNow_bsp//obj/HAL/src/crt0.o
 .debug_abbrev  0x00000012      0x16e obj/default/main.o
 .debug_abbrev  0x00000180      0x191 c:/altera/12.1sp1/nios2eds/bin/gnu/h-i686-mingw32/bin/../lib/gcc/nios2-elf/4.1.2/../../../../nios2-elf/lib\libc.a(lib_a-printf.o)
 .debug_abbrev  0x00000311      0x1ac c:/altera/12.1sp1/nios2eds/bin/gnu/h-i686-mingw32/bin/../lib/gcc/nios2-elf/4.1.2/../../../../nios2-elf/lib\libc.a(lib_a-puts.o)
 .debug_abbrev  0x000004bd       0x8b c:/altera/12.1sp1/nios2eds/bin/gnu/h-i686-mingw32/bin/../lib/gcc/nios2-elf/4.1.2/../../../../nios2-elf/lib\libc.a(lib_a-strlen.o)
 .debug_abbrev  0x00000548      0x30a c:/altera/12.1sp1/nios2eds/bin/gnu/h-i686-mingw32/bin/../lib/gcc/nios2-elf/4.1.2/../../../../nios2-elf/lib\libc.a(lib_a-vfprintf.o)
 .debug_abbrev  0x00000852      0x170 c:/altera/12.1sp1/nios2eds/bin/gnu/h-i686-mingw32/bin/../lib/gcc/nios2-elf/4.1.2/../../../../nios2-elf/lib\libc.a(lib_a-wsetup.o)
 .debug_abbrev  0x000009c2      0x232 c:/altera/12.1sp1/nios2eds/bin/gnu/h-i686-mingw32/bin/../lib/gcc/nios2-elf/4.1.2/../../../../nios2-elf/lib\libc.a(lib_a-dtoa.o)
 .debug_abbrev  0x00000bf4      0x1c6 c:/altera/12.1sp1/nios2eds/bin/gnu/h-i686-mingw32/bin/../lib/gcc/nios2-elf/4.1.2/../../../../nios2-elf/lib\libc.a(lib_a-fflush.o)
 .debug_abbrev  0x00000dba      0x24c c:/altera/12.1sp1/nios2eds/bin/gnu/h-i686-mingw32/bin/../lib/gcc/nios2-elf/4.1.2/../../../../nios2-elf/lib\libc.a(lib_a-findfp.o)
 .debug_abbrev  0x00001006      0x1d9 c:/altera/12.1sp1/nios2eds/bin/gnu/h-i686-mingw32/bin/../lib/gcc/nios2-elf/4.1.2/../../../../nios2-elf/lib\libc.a(lib_a-freer.o)
 .debug_abbrev  0x000011df      0x1a3 c:/altera/12.1sp1/nios2eds/bin/gnu/h-i686-mingw32/bin/../lib/gcc/nios2-elf/4.1.2/../../../../nios2-elf/lib\libc.a(lib_a-fvwrite.o)
 .debug_abbrev  0x00001382      0x1e3 c:/altera/12.1sp1/nios2eds/bin/gnu/h-i686-mingw32/bin/../lib/gcc/nios2-elf/4.1.2/../../../../nios2-elf/lib\libc.a(lib_a-fwalk.o)
 .debug_abbrev  0x00001565      0x157 c:/altera/12.1sp1/nios2eds/bin/gnu/h-i686-mingw32/bin/../lib/gcc/nios2-elf/4.1.2/../../../../nios2-elf/lib\libc.a(lib_a-impure.o)
 .debug_abbrev  0x000016bc      0x1ed c:/altera/12.1sp1/nios2eds/bin/gnu/h-i686-mingw32/bin/../lib/gcc/nios2-elf/4.1.2/../../../../nios2-elf/lib\libc.a(lib_a-locale.o)
 .debug_abbrev  0x000018a9      0x197 c:/altera/12.1sp1/nios2eds/bin/gnu/h-i686-mingw32/bin/../lib/gcc/nios2-elf/4.1.2/../../../../nios2-elf/lib\libc.a(lib_a-makebuf.o)
 .debug_abbrev  0x00001a40      0x216 c:/altera/12.1sp1/nios2eds/bin/gnu/h-i686-mingw32/bin/../lib/gcc/nios2-elf/4.1.2/../../../../nios2-elf/lib\libc.a(lib_a-mallocr.o)
 .debug_abbrev  0x00001c56       0xb5 c:/altera/12.1sp1/nios2eds/bin/gnu/h-i686-mingw32/bin/../lib/gcc/nios2-elf/4.1.2/../../../../nios2-elf/lib\libc.a(lib_a-memchr.o)
 .debug_abbrev  0x00001d0b       0xb5 c:/altera/12.1sp1/nios2eds/bin/gnu/h-i686-mingw32/bin/../lib/gcc/nios2-elf/4.1.2/../../../../nios2-elf/lib\libc.a(lib_a-memcpy.o)
 .debug_abbrev  0x00001dc0       0xb5 c:/altera/12.1sp1/nios2eds/bin/gnu/h-i686-mingw32/bin/../lib/gcc/nios2-elf/4.1.2/../../../../nios2-elf/lib\libc.a(lib_a-memmove.o)
 .debug_abbrev  0x00001e75       0xb8 c:/altera/12.1sp1/nios2eds/bin/gnu/h-i686-mingw32/bin/../lib/gcc/nios2-elf/4.1.2/../../../../nios2-elf/lib\libc.a(lib_a-memset.o)
 .debug_abbrev  0x00001f2d      0x297 c:/altera/12.1sp1/nios2eds/bin/gnu/h-i686-mingw32/bin/../lib/gcc/nios2-elf/4.1.2/../../../../nios2-elf/lib\libc.a(lib_a-mprec.o)
 .debug_abbrev  0x000021c4      0x1c3 c:/altera/12.1sp1/nios2eds/bin/gnu/h-i686-mingw32/bin/../lib/gcc/nios2-elf/4.1.2/../../../../nios2-elf/lib\libc.a(lib_a-reallocr.o)
 .debug_abbrev  0x00002387       0x79 c:/altera/12.1sp1/nios2eds/bin/gnu/h-i686-mingw32/bin/../lib/gcc/nios2-elf/4.1.2/../../../../nios2-elf/lib\libc.a(lib_a-s_isinfd.o)
 .debug_abbrev  0x00002400       0x79 c:/altera/12.1sp1/nios2eds/bin/gnu/h-i686-mingw32/bin/../lib/gcc/nios2-elf/4.1.2/../../../../nios2-elf/lib\libc.a(lib_a-s_isnand.o)
 .debug_abbrev  0x00002479      0x18c c:/altera/12.1sp1/nios2eds/bin/gnu/h-i686-mingw32/bin/../lib/gcc/nios2-elf/4.1.2/../../../../nios2-elf/lib\libc.a(lib_a-sbrkr.o)
 .debug_abbrev  0x00002605      0x1c9 c:/altera/12.1sp1/nios2eds/bin/gnu/h-i686-mingw32/bin/../lib/gcc/nios2-elf/4.1.2/../../../../nios2-elf/lib\libc.a(lib_a-stdio.o)
 .debug_abbrev  0x000027ce       0x80 c:/altera/12.1sp1/nios2eds/bin/gnu/h-i686-mingw32/bin/../lib/gcc/nios2-elf/4.1.2/../../../../nios2-elf/lib\libc.a(lib_a-strcmp.o)
 .debug_abbrev  0x0000284e      0x184 c:/altera/12.1sp1/nios2eds/bin/gnu/h-i686-mingw32/bin/../lib/gcc/nios2-elf/4.1.2/../../../../nios2-elf/lib\libc.a(lib_a-writer.o)
 .debug_abbrev  0x000029d2      0x1b8 c:/altera/12.1sp1/nios2eds/bin/gnu/h-i686-mingw32/bin/../lib/gcc/nios2-elf/4.1.2/../../../../nios2-elf/lib\libc.a(lib_a-callocr.o)
 .debug_abbrev  0x00002b8a      0x17f c:/altera/12.1sp1/nios2eds/bin/gnu/h-i686-mingw32/bin/../lib/gcc/nios2-elf/4.1.2/../../../../nios2-elf/lib\libc.a(lib_a-closer.o)
 .debug_abbrev  0x00002d09      0x1a7 c:/altera/12.1sp1/nios2eds/bin/gnu/h-i686-mingw32/bin/../lib/gcc/nios2-elf/4.1.2/../../../../nios2-elf/lib\libc.a(lib_a-fclose.o)
 .debug_abbrev  0x00002eb0      0x18e c:/altera/12.1sp1/nios2eds/bin/gnu/h-i686-mingw32/bin/../lib/gcc/nios2-elf/4.1.2/../../../../nios2-elf/lib\libc.a(lib_a-fstatr.o)
 .debug_abbrev  0x0000303e       0x3b c:/altera/12.1sp1/nios2eds/bin/gnu/h-i686-mingw32/bin/../lib/gcc/nios2-elf/4.1.2/../../../../nios2-elf/lib\libc.a(lib_a-int_errno.o)
 .debug_abbrev  0x00003079      0x17f c:/altera/12.1sp1/nios2eds/bin/gnu/h-i686-mingw32/bin/../lib/gcc/nios2-elf/4.1.2/../../../../nios2-elf/lib\libc.a(lib_a-isattyr.o)
 .debug_abbrev  0x000031f8      0x18e c:/altera/12.1sp1/nios2eds/bin/gnu/h-i686-mingw32/bin/../lib/gcc/nios2-elf/4.1.2/../../../../nios2-elf/lib\libc.a(lib_a-lseekr.o)
 .debug_abbrev  0x00003386      0x17f c:/altera/12.1sp1/nios2eds/bin/gnu/h-i686-mingw32/bin/../lib/gcc/nios2-elf/4.1.2/../../../../nios2-elf/lib\libc.a(lib_a-readr.o)
 .debug_abbrev  0x00003505      0x16b c:/altera/12.1sp1/nios2eds/bin/gnu/h-i686-mingw32/bin/../lib/gcc/nios2-elf/4.1.2\libgcc.a(_udivdi3.o)
 .debug_abbrev  0x00003670      0x18e c:/altera/12.1sp1/nios2eds/bin/gnu/h-i686-mingw32/bin/../lib/gcc/nios2-elf/4.1.2\libgcc.a(_umoddi3.o)
 .debug_abbrev  0x000037fe      0x1d2 c:/altera/12.1sp1/nios2eds/bin/gnu/h-i686-mingw32/bin/../lib/gcc/nios2-elf/4.1.2\libgcc.a(_addsub_df.o)
 .debug_abbrev  0x000039d0      0x204 c:/altera/12.1sp1/nios2eds/bin/gnu/h-i686-mingw32/bin/../lib/gcc/nios2-elf/4.1.2\libgcc.a(_mul_df.o)
 .debug_abbrev  0x00003bd4      0x1e3 c:/altera/12.1sp1/nios2eds/bin/gnu/h-i686-mingw32/bin/../lib/gcc/nios2-elf/4.1.2\libgcc.a(_div_df.o)
 .debug_abbrev  0x00003db7      0x151 c:/altera/12.1sp1/nios2eds/bin/gnu/h-i686-mingw32/bin/../lib/gcc/nios2-elf/4.1.2\libgcc.a(_eq_df.o)
 .debug_abbrev  0x00003f08      0x151 c:/altera/12.1sp1/nios2eds/bin/gnu/h-i686-mingw32/bin/../lib/gcc/nios2-elf/4.1.2\libgcc.a(_ne_df.o)
 .debug_abbrev  0x00004059      0x151 c:/altera/12.1sp1/nios2eds/bin/gnu/h-i686-mingw32/bin/../lib/gcc/nios2-elf/4.1.2\libgcc.a(_gt_df.o)
 .debug_abbrev  0x000041aa      0x151 c:/altera/12.1sp1/nios2eds/bin/gnu/h-i686-mingw32/bin/../lib/gcc/nios2-elf/4.1.2\libgcc.a(_ge_df.o)
 .debug_abbrev  0x000042fb      0x151 c:/altera/12.1sp1/nios2eds/bin/gnu/h-i686-mingw32/bin/../lib/gcc/nios2-elf/4.1.2\libgcc.a(_lt_df.o)
 .debug_abbrev  0x0000444c      0x13f c:/altera/12.1sp1/nios2eds/bin/gnu/h-i686-mingw32/bin/../lib/gcc/nios2-elf/4.1.2\libgcc.a(_si_to_df.o)
 .debug_abbrev  0x0000458b      0x176 c:/altera/12.1sp1/nios2eds/bin/gnu/h-i686-mingw32/bin/../lib/gcc/nios2-elf/4.1.2\libgcc.a(_df_to_si.o)
 .debug_abbrev  0x00004701       0xba c:/altera/12.1sp1/nios2eds/bin/gnu/h-i686-mingw32/bin/../lib/gcc/nios2-elf/4.1.2\libgcc.a(_thenan_df.o)
 .debug_abbrev  0x000047bb      0x155 c:/altera/12.1sp1/nios2eds/bin/gnu/h-i686-mingw32/bin/../lib/gcc/nios2-elf/4.1.2\libgcc.a(_usi_to_df.o)
 .debug_abbrev  0x00004910       0xe0 c:/altera/12.1sp1/nios2eds/bin/gnu/h-i686-mingw32/bin/../lib/gcc/nios2-elf/4.1.2\libgcc.a(lib2-divmod.o)
 .debug_abbrev  0x000049f0       0xee c:/altera/12.1sp1/nios2eds/bin/gnu/h-i686-mingw32/bin/../lib/gcc/nios2-elf/4.1.2\libgcc.a(_muldi3.o)
 .debug_abbrev  0x00004ade       0x61 c:/altera/12.1sp1/nios2eds/bin/gnu/h-i686-mingw32/bin/../lib/gcc/nios2-elf/4.1.2\libgcc.a(_clz.o)
 .debug_abbrev  0x00004b3f       0xb9 c:/altera/12.1sp1/nios2eds/bin/gnu/h-i686-mingw32/bin/../lib/gcc/nios2-elf/4.1.2\libgcc.a(_clzsi2.o)
 .debug_abbrev  0x00004bf8      0x1b1 c:/altera/12.1sp1/nios2eds/bin/gnu/h-i686-mingw32/bin/../lib/gcc/nios2-elf/4.1.2\libgcc.a(_pack_df.o)
 .debug_abbrev  0x00004da9      0x149 c:/altera/12.1sp1/nios2eds/bin/gnu/h-i686-mingw32/bin/../lib/gcc/nios2-elf/4.1.2\libgcc.a(_unpack_df.o)
 .debug_abbrev  0x00004ef2      0x132 c:/altera/12.1sp1/nios2eds/bin/gnu/h-i686-mingw32/bin/../lib/gcc/nios2-elf/4.1.2\libgcc.a(_fpcmp_parts_df.o)
 .debug_abbrev  0x00005024      0x102 ../UARTNow_bsp/\libucosii_bsp.a(alt_close.o)
 .debug_abbrev  0x00005126      0x10a ../UARTNow_bsp/\libucosii_bsp.a(alt_dev.o)
 .debug_abbrev  0x00005230       0x5e ../UARTNow_bsp/\libucosii_bsp.a(alt_errno.o)
 .debug_abbrev  0x0000528e      0x102 ../UARTNow_bsp/\libucosii_bsp.a(alt_fstat.o)
 .debug_abbrev  0x00005390      0x102 ../UARTNow_bsp/\libucosii_bsp.a(alt_isatty.o)
 .debug_abbrev  0x00005492       0x88 ../UARTNow_bsp/\libucosii_bsp.a(alt_load.o)
 .debug_abbrev  0x0000551a      0x102 ../UARTNow_bsp/\libucosii_bsp.a(alt_lseek.o)
 .debug_abbrev  0x0000561c      0x120 ../UARTNow_bsp/\libucosii_bsp.a(alt_main.o)
 .debug_abbrev  0x0000573c      0x102 ../UARTNow_bsp/\libucosii_bsp.a(alt_read.o)
 .debug_abbrev  0x0000583e       0xd3 ../UARTNow_bsp/\libucosii_bsp.a(alt_release_fd.o)
 .debug_abbrev  0x00005911      0x11c ../UARTNow_bsp/\libucosii_bsp.a(alt_sbrk.o)
 .debug_abbrev  0x00005a2d      0x107 ../UARTNow_bsp/\libucosii_bsp.a(alt_write.o)
 .debug_abbrev  0x00005b34      0x1b3 ../UARTNow_bsp/\libucosii_bsp.a(alt_env_lock.o)
 .debug_abbrev  0x00005ce7      0x234 ../UARTNow_bsp/\libucosii_bsp.a(alt_malloc_lock.o)
 .debug_abbrev  0x00005f1b      0x2aa ../UARTNow_bsp/\libucosii_bsp.a(os_core.o)
 .debug_abbrev  0x000061c5      0x114 ../UARTNow_bsp/\libucosii_bsp.a(os_dbg.o)
 .debug_abbrev  0x000062d9      0x21b ../UARTNow_bsp/\libucosii_bsp.a(os_flag.o)
 .debug_abbrev  0x000064f4      0x235 ../UARTNow_bsp/\libucosii_bsp.a(os_mem.o)
 .debug_abbrev  0x00006729      0x20d ../UARTNow_bsp/\libucosii_bsp.a(os_q.o)
 .debug_abbrev  0x00006936      0x20d ../UARTNow_bsp/\libucosii_bsp.a(os_sem.o)
 .debug_abbrev  0x00006b43      0x20e ../UARTNow_bsp/\libucosii_bsp.a(os_task.o)
 .debug_abbrev  0x00006d51      0x1de ../UARTNow_bsp/\libucosii_bsp.a(os_time.o)
 .debug_abbrev  0x00006f2f      0x1b2 ../UARTNow_bsp/\libucosii_bsp.a(alt_sys_init.o)
 .debug_abbrev  0x000070e1      0x13c ../UARTNow_bsp/\libucosii_bsp.a(altera_avalon_jtag_uart_fd.o)
 .debug_abbrev  0x0000721d      0x21e ../UARTNow_bsp/\libucosii_bsp.a(altera_avalon_jtag_uart_init.o)
 .debug_abbrev  0x0000743b      0x135 ../UARTNow_bsp/\libucosii_bsp.a(altera_avalon_jtag_uart_ioctl.o)
 .debug_abbrev  0x00007570      0x1ee ../UARTNow_bsp/\libucosii_bsp.a(altera_avalon_jtag_uart_read.o)
 .debug_abbrev  0x0000775e      0x1ea ../UARTNow_bsp/\libucosii_bsp.a(altera_avalon_jtag_uart_write.o)
 .debug_abbrev  0x00007948      0x137 ../UARTNow_bsp/\libucosii_bsp.a(altera_avalon_timer_sc.o)
 .debug_abbrev  0x00007a7f      0x124 ../UARTNow_bsp/\libucosii_bsp.a(altera_avalon_uart_fd.o)
 .debug_abbrev  0x00007ba3      0x204 ../UARTNow_bsp/\libucosii_bsp.a(altera_avalon_uart_init.o)
 .debug_abbrev  0x00007da7      0x1b9 ../UARTNow_bsp/\libucosii_bsp.a(altera_avalon_uart_read.o)
 .debug_abbrev  0x00007f60      0x1c0 ../UARTNow_bsp/\libucosii_bsp.a(altera_avalon_uart_write.o)
 .debug_abbrev  0x00008120      0x127 ../UARTNow_bsp/\libucosii_bsp.a(altera_up_avalon_rs232.o)
 .debug_abbrev  0x00008247      0x172 ../UARTNow_bsp/\libucosii_bsp.a(alt_alarm_start.o)
 .debug_abbrev  0x000083b9       0x57 ../UARTNow_bsp/\libucosii_bsp.a(alt_dcache_flush_all.o)
 .debug_abbrev  0x00008410       0xf6 ../UARTNow_bsp/\libucosii_bsp.a(alt_dev_llist_insert.o)
 .debug_abbrev  0x00008506       0x76 ../UARTNow_bsp/\libucosii_bsp.a(alt_do_ctors.o)
 .debug_abbrev  0x0000857c       0x76 ../UARTNow_bsp/\libucosii_bsp.a(alt_do_dtors.o)
 .debug_abbrev  0x000085f2       0xd6 ../UARTNow_bsp/\libucosii_bsp.a(alt_find_dev.o)
 .debug_abbrev  0x000086c8       0x3f ../UARTNow_bsp/\libucosii_bsp.a(alt_icache_flush_all.o)
 .debug_abbrev  0x00008707       0xf7 ../UARTNow_bsp/\libucosii_bsp.a(alt_io_redirect.o)
 .debug_abbrev  0x000087fe      0x180 ../UARTNow_bsp/\libucosii_bsp.a(alt_irq_register.o)
 .debug_abbrev  0x0000897e       0x44 ../UARTNow_bsp/\libucosii_bsp.a(alt_irq_vars.o)
 .debug_abbrev  0x000089c2      0x119 ../UARTNow_bsp/\libucosii_bsp.a(alt_open.o)
 .debug_abbrev  0x00008adb      0x161 ../UARTNow_bsp/\libucosii_bsp.a(alt_tick.o)
 .debug_abbrev  0x00008c3c       0x64 ../UARTNow_bsp/\libucosii_bsp.a(altera_nios2_qsys_irq.o)
 .debug_abbrev  0x00008ca0       0x14 ../UARTNow_bsp/\libucosii_bsp.a(os_cpu_a.o)
 .debug_abbrev  0x00008cb4      0x1d0 ../UARTNow_bsp/\libucosii_bsp.a(os_cpu_c.o)
 .debug_abbrev  0x00008e84       0xd6 ../UARTNow_bsp/\libucosii_bsp.a(alt_find_file.o)
 .debug_abbrev  0x00008f5a      0x173 ../UARTNow_bsp/\libucosii_bsp.a(alt_get_fd.o)
 .debug_abbrev  0x000090cd       0x7a ../UARTNow_bsp/\libucosii_bsp.a(alt_icache_flush.o)
 .debug_abbrev  0x00009147       0x12 ../UARTNow_bsp/\libucosii_bsp.a(alt_irq_entry.o)
 .debug_abbrev  0x00009159      0x124 ../UARTNow_bsp/\libucosii_bsp.a(alt_irq_handler.o)
 .debug_abbrev  0x0000927d       0x12 ../UARTNow_bsp/\libucosii_bsp.a(alt_exception_entry.o)
 .debug_abbrev  0x0000928f       0xb7 c:/altera/12.1sp1/nios2eds/bin/gnu/h-i686-mingw32/bin/../lib/gcc/nios2-elf/4.1.2/../../../../nios2-elf/lib\libc.a(lib_a-atexit.o)
 .debug_abbrev  0x00009346      0x16e c:/altera/12.1sp1/nios2eds/bin/gnu/h-i686-mingw32/bin/../lib/gcc/nios2-elf/4.1.2/../../../../nios2-elf/lib\libc.a(lib_a-exit.o)
 .debug_abbrev  0x000094b4       0x7c c:/altera/12.1sp1/nios2eds/bin/gnu/h-i686-mingw32/bin/../lib/gcc/nios2-elf/4.1.2/../../../../nios2-elf/lib\libc.a(lib_a-memcmp.o)
 .debug_abbrev  0x00009530      0x1ae c:/altera/12.1sp1/nios2eds/bin/gnu/h-i686-mingw32/bin/../lib/gcc/nios2-elf/4.1.2/../../../../nios2-elf/lib\libc.a(lib_a-__atexit.o)
 .debug_abbrev  0x000096de      0x1de c:/altera/12.1sp1/nios2eds/bin/gnu/h-i686-mingw32/bin/../lib/gcc/nios2-elf/4.1.2/../../../../nios2-elf/lib\libc.a(lib_a-__call_atexit.o)
 .debug_abbrev  0x000098bc       0xaa ../UARTNow_bsp/\libucosii_bsp.a(alt_exit.o)

.debug_line     0x00000000    0x1c4ad
 *(.debug_line)
 .debug_line    0x00000000       0x72 ../UARTNow_bsp//obj/HAL/src/crt0.o
 .debug_line    0x00000072      0x454 obj/default/main.o
 .debug_line    0x000004c6      0x29b c:/altera/12.1sp1/nios2eds/bin/gnu/h-i686-mingw32/bin/../lib/gcc/nios2-elf/4.1.2/../../../../nios2-elf/lib\libc.a(lib_a-printf.o)
 .debug_line    0x00000761      0x2f7 c:/altera/12.1sp1/nios2eds/bin/gnu/h-i686-mingw32/bin/../lib/gcc/nios2-elf/4.1.2/../../../../nios2-elf/lib\libc.a(lib_a-puts.o)
 .debug_line    0x00000a58      0x26d c:/altera/12.1sp1/nios2eds/bin/gnu/h-i686-mingw32/bin/../lib/gcc/nios2-elf/4.1.2/../../../../nios2-elf/lib\libc.a(lib_a-strlen.o)
 .debug_line    0x00000cc5     0x110c c:/altera/12.1sp1/nios2eds/bin/gnu/h-i686-mingw32/bin/../lib/gcc/nios2-elf/4.1.2/../../../../nios2-elf/lib\libc.a(lib_a-vfprintf.o)
 .debug_line    0x00001dd1      0x2f0 c:/altera/12.1sp1/nios2eds/bin/gnu/h-i686-mingw32/bin/../lib/gcc/nios2-elf/4.1.2/../../../../nios2-elf/lib\libc.a(lib_a-wsetup.o)
 .debug_line    0x000020c1     0x12c6 c:/altera/12.1sp1/nios2eds/bin/gnu/h-i686-mingw32/bin/../lib/gcc/nios2-elf/4.1.2/../../../../nios2-elf/lib\libc.a(lib_a-dtoa.o)
 .debug_line    0x00003387      0x40d c:/altera/12.1sp1/nios2eds/bin/gnu/h-i686-mingw32/bin/../lib/gcc/nios2-elf/4.1.2/../../../../nios2-elf/lib\libc.a(lib_a-fflush.o)
 .debug_line    0x00003794      0x601 c:/altera/12.1sp1/nios2eds/bin/gnu/h-i686-mingw32/bin/../lib/gcc/nios2-elf/4.1.2/../../../../nios2-elf/lib\libc.a(lib_a-findfp.o)
 .debug_line    0x00003d95      0x5eb c:/altera/12.1sp1/nios2eds/bin/gnu/h-i686-mingw32/bin/../lib/gcc/nios2-elf/4.1.2/../../../../nios2-elf/lib\libc.a(lib_a-freer.o)
 .debug_line    0x00004380      0x641 c:/altera/12.1sp1/nios2eds/bin/gnu/h-i686-mingw32/bin/../lib/gcc/nios2-elf/4.1.2/../../../../nios2-elf/lib\libc.a(lib_a-fvwrite.o)
 .debug_line    0x000049c1      0x34a c:/altera/12.1sp1/nios2eds/bin/gnu/h-i686-mingw32/bin/../lib/gcc/nios2-elf/4.1.2/../../../../nios2-elf/lib\libc.a(lib_a-fwalk.o)
 .debug_line    0x00004d0b      0x22d c:/altera/12.1sp1/nios2eds/bin/gnu/h-i686-mingw32/bin/../lib/gcc/nios2-elf/4.1.2/../../../../nios2-elf/lib\libc.a(lib_a-impure.o)
 .debug_line    0x00004f38      0x2c8 c:/altera/12.1sp1/nios2eds/bin/gnu/h-i686-mingw32/bin/../lib/gcc/nios2-elf/4.1.2/../../../../nios2-elf/lib\libc.a(lib_a-locale.o)
 .debug_line    0x00005200      0x3c3 c:/altera/12.1sp1/nios2eds/bin/gnu/h-i686-mingw32/bin/../lib/gcc/nios2-elf/4.1.2/../../../../nios2-elf/lib\libc.a(lib_a-makebuf.o)
 .debug_line    0x000055c3      0x80a c:/altera/12.1sp1/nios2eds/bin/gnu/h-i686-mingw32/bin/../lib/gcc/nios2-elf/4.1.2/../../../../nios2-elf/lib\libc.a(lib_a-mallocr.o)
 .debug_line    0x00005dcd      0x303 c:/altera/12.1sp1/nios2eds/bin/gnu/h-i686-mingw32/bin/../lib/gcc/nios2-elf/4.1.2/../../../../nios2-elf/lib\libc.a(lib_a-memchr.o)
 .debug_line    0x000060d0      0x1ac c:/altera/12.1sp1/nios2eds/bin/gnu/h-i686-mingw32/bin/../lib/gcc/nios2-elf/4.1.2/../../../../nios2-elf/lib\libc.a(lib_a-memcpy.o)
 .debug_line    0x0000627c      0x30a c:/altera/12.1sp1/nios2eds/bin/gnu/h-i686-mingw32/bin/../lib/gcc/nios2-elf/4.1.2/../../../../nios2-elf/lib\libc.a(lib_a-memmove.o)
 .debug_line    0x00006586      0x301 c:/altera/12.1sp1/nios2eds/bin/gnu/h-i686-mingw32/bin/../lib/gcc/nios2-elf/4.1.2/../../../../nios2-elf/lib\libc.a(lib_a-memset.o)
 .debug_line    0x00006887     0x1243 c:/altera/12.1sp1/nios2eds/bin/gnu/h-i686-mingw32/bin/../lib/gcc/nios2-elf/4.1.2/../../../../nios2-elf/lib\libc.a(lib_a-mprec.o)
 .debug_line    0x00007aca      0x58a c:/altera/12.1sp1/nios2eds/bin/gnu/h-i686-mingw32/bin/../lib/gcc/nios2-elf/4.1.2/../../../../nios2-elf/lib\libc.a(lib_a-reallocr.o)
 .debug_line    0x00008054      0x222 c:/altera/12.1sp1/nios2eds/bin/gnu/h-i686-mingw32/bin/../lib/gcc/nios2-elf/4.1.2/../../../../nios2-elf/lib\libc.a(lib_a-s_isinfd.o)
 .debug_line    0x00008276      0x21a c:/altera/12.1sp1/nios2eds/bin/gnu/h-i686-mingw32/bin/../lib/gcc/nios2-elf/4.1.2/../../../../nios2-elf/lib\libc.a(lib_a-s_isnand.o)
 .debug_line    0x00008490      0x299 c:/altera/12.1sp1/nios2eds/bin/gnu/h-i686-mingw32/bin/../lib/gcc/nios2-elf/4.1.2/../../../../nios2-elf/lib\libc.a(lib_a-sbrkr.o)
 .debug_line    0x00008729      0x38c c:/altera/12.1sp1/nios2eds/bin/gnu/h-i686-mingw32/bin/../lib/gcc/nios2-elf/4.1.2/../../../../nios2-elf/lib\libc.a(lib_a-stdio.o)
 .debug_line    0x00008ab5      0x2d5 c:/altera/12.1sp1/nios2eds/bin/gnu/h-i686-mingw32/bin/../lib/gcc/nios2-elf/4.1.2/../../../../nios2-elf/lib\libc.a(lib_a-strcmp.o)
 .debug_line    0x00008d8a      0x29a c:/altera/12.1sp1/nios2eds/bin/gnu/h-i686-mingw32/bin/../lib/gcc/nios2-elf/4.1.2/../../../../nios2-elf/lib\libc.a(lib_a-writer.o)
 .debug_line    0x00009024      0x25c c:/altera/12.1sp1/nios2eds/bin/gnu/h-i686-mingw32/bin/../lib/gcc/nios2-elf/4.1.2/../../../../nios2-elf/lib\libc.a(lib_a-callocr.o)
 .debug_line    0x00009280      0x29a c:/altera/12.1sp1/nios2eds/bin/gnu/h-i686-mingw32/bin/../lib/gcc/nios2-elf/4.1.2/../../../../nios2-elf/lib\libc.a(lib_a-closer.o)
 .debug_line    0x0000951a      0x2e8 c:/altera/12.1sp1/nios2eds/bin/gnu/h-i686-mingw32/bin/../lib/gcc/nios2-elf/4.1.2/../../../../nios2-elf/lib\libc.a(lib_a-fclose.o)
 .debug_line    0x00009802      0x264 c:/altera/12.1sp1/nios2eds/bin/gnu/h-i686-mingw32/bin/../lib/gcc/nios2-elf/4.1.2/../../../../nios2-elf/lib\libc.a(lib_a-fstatr.o)
 .debug_line    0x00009a66      0x1df c:/altera/12.1sp1/nios2eds/bin/gnu/h-i686-mingw32/bin/../lib/gcc/nios2-elf/4.1.2/../../../../nios2-elf/lib\libc.a(lib_a-int_errno.o)
 .debug_line    0x00009c45      0x29b c:/altera/12.1sp1/nios2eds/bin/gnu/h-i686-mingw32/bin/../lib/gcc/nios2-elf/4.1.2/../../../../nios2-elf/lib\libc.a(lib_a-isattyr.o)
 .debug_line    0x00009ee0      0x29a c:/altera/12.1sp1/nios2eds/bin/gnu/h-i686-mingw32/bin/../lib/gcc/nios2-elf/4.1.2/../../../../nios2-elf/lib\libc.a(lib_a-lseekr.o)
 .debug_line    0x0000a17a      0x299 c:/altera/12.1sp1/nios2eds/bin/gnu/h-i686-mingw32/bin/../lib/gcc/nios2-elf/4.1.2/../../../../nios2-elf/lib\libc.a(lib_a-readr.o)
 .debug_line    0x0000a413      0x2f2 c:/altera/12.1sp1/nios2eds/bin/gnu/h-i686-mingw32/bin/../lib/gcc/nios2-elf/4.1.2\libgcc.a(_udivdi3.o)
 .debug_line    0x0000a705      0x37d c:/altera/12.1sp1/nios2eds/bin/gnu/h-i686-mingw32/bin/../lib/gcc/nios2-elf/4.1.2\libgcc.a(_umoddi3.o)
 .debug_line    0x0000aa82      0x430 c:/altera/12.1sp1/nios2eds/bin/gnu/h-i686-mingw32/bin/../lib/gcc/nios2-elf/4.1.2\libgcc.a(_addsub_df.o)
 .debug_line    0x0000aeb2      0x3e5 c:/altera/12.1sp1/nios2eds/bin/gnu/h-i686-mingw32/bin/../lib/gcc/nios2-elf/4.1.2\libgcc.a(_mul_df.o)
 .debug_line    0x0000b297      0x301 c:/altera/12.1sp1/nios2eds/bin/gnu/h-i686-mingw32/bin/../lib/gcc/nios2-elf/4.1.2\libgcc.a(_div_df.o)
 .debug_line    0x0000b598      0x129 c:/altera/12.1sp1/nios2eds/bin/gnu/h-i686-mingw32/bin/../lib/gcc/nios2-elf/4.1.2\libgcc.a(_eq_df.o)
 .debug_line    0x0000b6c1      0x129 c:/altera/12.1sp1/nios2eds/bin/gnu/h-i686-mingw32/bin/../lib/gcc/nios2-elf/4.1.2\libgcc.a(_ne_df.o)
 .debug_line    0x0000b7ea      0x129 c:/altera/12.1sp1/nios2eds/bin/gnu/h-i686-mingw32/bin/../lib/gcc/nios2-elf/4.1.2\libgcc.a(_gt_df.o)
 .debug_line    0x0000b913      0x129 c:/altera/12.1sp1/nios2eds/bin/gnu/h-i686-mingw32/bin/../lib/gcc/nios2-elf/4.1.2\libgcc.a(_ge_df.o)
 .debug_line    0x0000ba3c      0x129 c:/altera/12.1sp1/nios2eds/bin/gnu/h-i686-mingw32/bin/../lib/gcc/nios2-elf/4.1.2\libgcc.a(_lt_df.o)
 .debug_line    0x0000bb65      0x175 c:/altera/12.1sp1/nios2eds/bin/gnu/h-i686-mingw32/bin/../lib/gcc/nios2-elf/4.1.2\libgcc.a(_si_to_df.o)
 .debug_line    0x0000bcda      0x149 c:/altera/12.1sp1/nios2eds/bin/gnu/h-i686-mingw32/bin/../lib/gcc/nios2-elf/4.1.2\libgcc.a(_df_to_si.o)
 .debug_line    0x0000be23       0x94 c:/altera/12.1sp1/nios2eds/bin/gnu/h-i686-mingw32/bin/../lib/gcc/nios2-elf/4.1.2\libgcc.a(_thenan_df.o)
 .debug_line    0x0000beb7      0x189 c:/altera/12.1sp1/nios2eds/bin/gnu/h-i686-mingw32/bin/../lib/gcc/nios2-elf/4.1.2\libgcc.a(_usi_to_df.o)
 .debug_line    0x0000c040      0x24f c:/altera/12.1sp1/nios2eds/bin/gnu/h-i686-mingw32/bin/../lib/gcc/nios2-elf/4.1.2\libgcc.a(lib2-divmod.o)
 .debug_line    0x0000c28f      0x11f c:/altera/12.1sp1/nios2eds/bin/gnu/h-i686-mingw32/bin/../lib/gcc/nios2-elf/4.1.2\libgcc.a(_muldi3.o)
 .debug_line    0x0000c3ae       0xaa c:/altera/12.1sp1/nios2eds/bin/gnu/h-i686-mingw32/bin/../lib/gcc/nios2-elf/4.1.2\libgcc.a(_clz.o)
 .debug_line    0x0000c458      0x105 c:/altera/12.1sp1/nios2eds/bin/gnu/h-i686-mingw32/bin/../lib/gcc/nios2-elf/4.1.2\libgcc.a(_clzsi2.o)
 .debug_line    0x0000c55d      0x222 c:/altera/12.1sp1/nios2eds/bin/gnu/h-i686-mingw32/bin/../lib/gcc/nios2-elf/4.1.2\libgcc.a(_pack_df.o)
 .debug_line    0x0000c77f      0x1e4 c:/altera/12.1sp1/nios2eds/bin/gnu/h-i686-mingw32/bin/../lib/gcc/nios2-elf/4.1.2\libgcc.a(_unpack_df.o)
 .debug_line    0x0000c963      0x187 c:/altera/12.1sp1/nios2eds/bin/gnu/h-i686-mingw32/bin/../lib/gcc/nios2-elf/4.1.2\libgcc.a(_fpcmp_parts_df.o)
 .debug_line    0x0000caea      0x30d ../UARTNow_bsp/\libucosii_bsp.a(alt_close.o)
 .debug_line    0x0000cdf7      0x2d1 ../UARTNow_bsp/\libucosii_bsp.a(alt_dev.o)
 .debug_line    0x0000d0c8      0x1aa ../UARTNow_bsp/\libucosii_bsp.a(alt_errno.o)
 .debug_line    0x0000d272      0x315 ../UARTNow_bsp/\libucosii_bsp.a(alt_fstat.o)
 .debug_line    0x0000d587      0x316 ../UARTNow_bsp/\libucosii_bsp.a(alt_isatty.o)
 .debug_line    0x0000d89d      0x217 ../UARTNow_bsp/\libucosii_bsp.a(alt_load.o)
 .debug_line    0x0000dab4      0x315 ../UARTNow_bsp/\libucosii_bsp.a(alt_lseek.o)
 .debug_line    0x0000ddc9      0x35d ../UARTNow_bsp/\libucosii_bsp.a(alt_main.o)
 .debug_line    0x0000e126      0x33c ../UARTNow_bsp/\libucosii_bsp.a(alt_read.o)
 .debug_line    0x0000e462      0x28d ../UARTNow_bsp/\libucosii_bsp.a(alt_release_fd.o)
 .debug_line    0x0000e6ef      0x27a ../UARTNow_bsp/\libucosii_bsp.a(alt_sbrk.o)
 .debug_line    0x0000e969      0x33d ../UARTNow_bsp/\libucosii_bsp.a(alt_write.o)
 .debug_line    0x0000eca6      0x2d8 ../UARTNow_bsp/\libucosii_bsp.a(alt_env_lock.o)
 .debug_line    0x0000ef7e      0x394 ../UARTNow_bsp/\libucosii_bsp.a(alt_malloc_lock.o)
 .debug_line    0x0000f312     0x167c ../UARTNow_bsp/\libucosii_bsp.a(os_core.o)
 .debug_line    0x0001098e      0x3a1 ../UARTNow_bsp/\libucosii_bsp.a(os_dbg.o)
 .debug_line    0x00010d2f     0x1200 ../UARTNow_bsp/\libucosii_bsp.a(os_flag.o)
 .debug_line    0x00011f2f      0x7a3 ../UARTNow_bsp/\libucosii_bsp.a(os_mem.o)
 .debug_line    0x000126d2      0xe84 ../UARTNow_bsp/\libucosii_bsp.a(os_q.o)
 .debug_line    0x00013556      0xa3c ../UARTNow_bsp/\libucosii_bsp.a(os_sem.o)
 .debug_line    0x00013f92     0x1145 ../UARTNow_bsp/\libucosii_bsp.a(os_task.o)
 .debug_line    0x000150d7      0x548 ../UARTNow_bsp/\libucosii_bsp.a(os_time.o)
 .debug_line    0x0001561f      0x384 ../UARTNow_bsp/\libucosii_bsp.a(alt_sys_init.o)
 .debug_line    0x000159a3      0x330 ../UARTNow_bsp/\libucosii_bsp.a(altera_avalon_jtag_uart_fd.o)
 .debug_line    0x00015cd3      0x5af ../UARTNow_bsp/\libucosii_bsp.a(altera_avalon_jtag_uart_init.o)
 .debug_line    0x00016282      0x36d ../UARTNow_bsp/\libucosii_bsp.a(altera_avalon_jtag_uart_ioctl.o)
 .debug_line    0x000165ef      0x4ab ../UARTNow_bsp/\libucosii_bsp.a(altera_avalon_jtag_uart_read.o)
 .debug_line    0x00016a9a      0x4b9 ../UARTNow_bsp/\libucosii_bsp.a(altera_avalon_jtag_uart_write.o)
 .debug_line    0x00016f53      0x2ca ../UARTNow_bsp/\libucosii_bsp.a(altera_avalon_timer_sc.o)
 .debug_line    0x0001721d      0x30e ../UARTNow_bsp/\libucosii_bsp.a(altera_avalon_uart_fd.o)
 .debug_line    0x0001752b      0x57e ../UARTNow_bsp/\libucosii_bsp.a(altera_avalon_uart_init.o)
 .debug_line    0x00017aa9      0x4ca ../UARTNow_bsp/\libucosii_bsp.a(altera_avalon_uart_read.o)
 .debug_line    0x00017f73      0x4ac ../UARTNow_bsp/\libucosii_bsp.a(altera_avalon_uart_write.o)
 .debug_line    0x0001841f      0x461 ../UARTNow_bsp/\libucosii_bsp.a(altera_up_avalon_rs232.o)
 .debug_line    0x00018880      0x2f5 ../UARTNow_bsp/\libucosii_bsp.a(alt_alarm_start.o)
 .debug_line    0x00018b75      0x1cd ../UARTNow_bsp/\libucosii_bsp.a(alt_dcache_flush_all.o)
 .debug_line    0x00018d42      0x25a ../UARTNow_bsp/\libucosii_bsp.a(alt_dev_llist_insert.o)
 .debug_line    0x00018f9c       0x83 ../UARTNow_bsp/\libucosii_bsp.a(alt_do_ctors.o)
 .debug_line    0x0001901f       0x83 ../UARTNow_bsp/\libucosii_bsp.a(alt_do_dtors.o)
 .debug_line    0x000190a2      0x2ee ../UARTNow_bsp/\libucosii_bsp.a(alt_find_dev.o)
 .debug_line    0x00019390      0x1bd ../UARTNow_bsp/\libucosii_bsp.a(alt_icache_flush_all.o)
 .debug_line    0x0001954d      0x337 ../UARTNow_bsp/\libucosii_bsp.a(alt_io_redirect.o)
 .debug_line    0x00019884      0x36d ../UARTNow_bsp/\libucosii_bsp.a(alt_irq_register.o)
 .debug_line    0x00019bf1       0x72 ../UARTNow_bsp/\libucosii_bsp.a(alt_irq_vars.o)
 .debug_line    0x00019c63      0x373 ../UARTNow_bsp/\libucosii_bsp.a(alt_open.o)
 .debug_line    0x00019fd6      0x32f ../UARTNow_bsp/\libucosii_bsp.a(alt_tick.o)
 .debug_line    0x0001a305      0x1e7 ../UARTNow_bsp/\libucosii_bsp.a(altera_nios2_qsys_irq.o)
 .debug_line    0x0001a4ec       0x86 ../UARTNow_bsp/\libucosii_bsp.a(os_cpu_a.o)
 .debug_line    0x0001a572      0x341 ../UARTNow_bsp/\libucosii_bsp.a(os_cpu_c.o)
 .debug_line    0x0001a8b3      0x2ff ../UARTNow_bsp/\libucosii_bsp.a(alt_find_file.o)
 .debug_line    0x0001abb2      0x32f ../UARTNow_bsp/\libucosii_bsp.a(alt_get_fd.o)
 .debug_line    0x0001aee1      0x1f9 ../UARTNow_bsp/\libucosii_bsp.a(alt_icache_flush.o)
 .debug_line    0x0001b0da       0x6b ../UARTNow_bsp/\libucosii_bsp.a(alt_irq_entry.o)
 .debug_line    0x0001b145      0x2dd ../UARTNow_bsp/\libucosii_bsp.a(alt_irq_handler.o)
 .debug_line    0x0001b422       0xab ../UARTNow_bsp/\libucosii_bsp.a(alt_exception_entry.o)
 .debug_line    0x0001b4cd      0x200 c:/altera/12.1sp1/nios2eds/bin/gnu/h-i686-mingw32/bin/../lib/gcc/nios2-elf/4.1.2/../../../../nios2-elf/lib\libc.a(lib_a-atexit.o)
 .debug_line    0x0001b6cd      0x238 c:/altera/12.1sp1/nios2eds/bin/gnu/h-i686-mingw32/bin/../lib/gcc/nios2-elf/4.1.2/../../../../nios2-elf/lib\libc.a(lib_a-exit.o)
 .debug_line    0x0001b905      0x29f c:/altera/12.1sp1/nios2eds/bin/gnu/h-i686-mingw32/bin/../lib/gcc/nios2-elf/4.1.2/../../../../nios2-elf/lib\libc.a(lib_a-memcmp.o)
 .debug_line    0x0001bba4      0x313 c:/altera/12.1sp1/nios2eds/bin/gnu/h-i686-mingw32/bin/../lib/gcc/nios2-elf/4.1.2/../../../../nios2-elf/lib\libc.a(lib_a-__atexit.o)
 .debug_line    0x0001beb7      0x367 c:/altera/12.1sp1/nios2eds/bin/gnu/h-i686-mingw32/bin/../lib/gcc/nios2-elf/4.1.2/../../../../nios2-elf/lib\libc.a(lib_a-__call_atexit.o)
 .debug_line    0x0001c21e      0x28f ../UARTNow_bsp/\libucosii_bsp.a(alt_exit.o)

.debug_frame    0x00000000     0x2734
 *(.debug_frame)
 .debug_frame   0x00000000      0x110 obj/default/main.o
 .debug_frame   0x00000110       0x40 c:/altera/12.1sp1/nios2eds/bin/gnu/h-i686-mingw32/bin/../lib/gcc/nios2-elf/4.1.2/../../../../nios2-elf/lib\libc.a(lib_a-printf.o)
 .debug_frame   0x00000150       0x3c c:/altera/12.1sp1/nios2eds/bin/gnu/h-i686-mingw32/bin/../lib/gcc/nios2-elf/4.1.2/../../../../nios2-elf/lib\libc.a(lib_a-puts.o)
 .debug_frame   0x0000018c       0x20 c:/altera/12.1sp1/nios2eds/bin/gnu/h-i686-mingw32/bin/../lib/gcc/nios2-elf/4.1.2/../../../../nios2-elf/lib\libc.a(lib_a-strlen.o)
 .debug_frame   0x000001ac       0x64 c:/altera/12.1sp1/nios2eds/bin/gnu/h-i686-mingw32/bin/../lib/gcc/nios2-elf/4.1.2/../../../../nios2-elf/lib\libc.a(lib_a-vfprintf.o)
 .debug_frame   0x00000210       0x2c c:/altera/12.1sp1/nios2eds/bin/gnu/h-i686-mingw32/bin/../lib/gcc/nios2-elf/4.1.2/../../../../nios2-elf/lib\libc.a(lib_a-wsetup.o)
 .debug_frame   0x0000023c       0x64 c:/altera/12.1sp1/nios2eds/bin/gnu/h-i686-mingw32/bin/../lib/gcc/nios2-elf/4.1.2/../../../../nios2-elf/lib\libc.a(lib_a-dtoa.o)
 .debug_frame   0x000002a0       0x40 c:/altera/12.1sp1/nios2eds/bin/gnu/h-i686-mingw32/bin/../lib/gcc/nios2-elf/4.1.2/../../../../nios2-elf/lib\libc.a(lib_a-fflush.o)
 .debug_frame   0x000002e0      0x118 c:/altera/12.1sp1/nios2eds/bin/gnu/h-i686-mingw32/bin/../lib/gcc/nios2-elf/4.1.2/../../../../nios2-elf/lib\libc.a(lib_a-findfp.o)
 .debug_frame   0x000003f8       0x4c c:/altera/12.1sp1/nios2eds/bin/gnu/h-i686-mingw32/bin/../lib/gcc/nios2-elf/4.1.2/../../../../nios2-elf/lib\libc.a(lib_a-freer.o)
 .debug_frame   0x00000444       0x38 c:/altera/12.1sp1/nios2eds/bin/gnu/h-i686-mingw32/bin/../lib/gcc/nios2-elf/4.1.2/../../../../nios2-elf/lib\libc.a(lib_a-fvwrite.o)
 .debug_frame   0x0000047c       0x60 c:/altera/12.1sp1/nios2eds/bin/gnu/h-i686-mingw32/bin/../lib/gcc/nios2-elf/4.1.2/../../../../nios2-elf/lib\libc.a(lib_a-fwalk.o)
 .debug_frame   0x000004dc       0x70 c:/altera/12.1sp1/nios2eds/bin/gnu/h-i686-mingw32/bin/../lib/gcc/nios2-elf/4.1.2/../../../../nios2-elf/lib\libc.a(lib_a-locale.o)
 .debug_frame   0x0000054c       0x2c c:/altera/12.1sp1/nios2eds/bin/gnu/h-i686-mingw32/bin/../lib/gcc/nios2-elf/4.1.2/../../../../nios2-elf/lib\libc.a(lib_a-makebuf.o)
 .debug_frame   0x00000578       0x38 c:/altera/12.1sp1/nios2eds/bin/gnu/h-i686-mingw32/bin/../lib/gcc/nios2-elf/4.1.2/../../../../nios2-elf/lib\libc.a(lib_a-mallocr.o)
 .debug_frame   0x000005b0       0x20 c:/altera/12.1sp1/nios2eds/bin/gnu/h-i686-mingw32/bin/../lib/gcc/nios2-elf/4.1.2/../../../../nios2-elf/lib\libc.a(lib_a-memchr.o)
 .debug_frame   0x000005d0       0x20 c:/altera/12.1sp1/nios2eds/bin/gnu/h-i686-mingw32/bin/../lib/gcc/nios2-elf/4.1.2/../../../../nios2-elf/lib\libc.a(lib_a-memcpy.o)
 .debug_frame   0x000005f0       0x20 c:/altera/12.1sp1/nios2eds/bin/gnu/h-i686-mingw32/bin/../lib/gcc/nios2-elf/4.1.2/../../../../nios2-elf/lib\libc.a(lib_a-memmove.o)
 .debug_frame   0x00000610       0x20 c:/altera/12.1sp1/nios2eds/bin/gnu/h-i686-mingw32/bin/../lib/gcc/nios2-elf/4.1.2/../../../../nios2-elf/lib\libc.a(lib_a-memset.o)
 .debug_frame   0x00000630      0x218 c:/altera/12.1sp1/nios2eds/bin/gnu/h-i686-mingw32/bin/../lib/gcc/nios2-elf/4.1.2/../../../../nios2-elf/lib\libc.a(lib_a-mprec.o)
 .debug_frame   0x00000848       0x38 c:/altera/12.1sp1/nios2eds/bin/gnu/h-i686-mingw32/bin/../lib/gcc/nios2-elf/4.1.2/../../../../nios2-elf/lib\libc.a(lib_a-reallocr.o)
 .debug_frame   0x00000880       0x20 c:/altera/12.1sp1/nios2eds/bin/gnu/h-i686-mingw32/bin/../lib/gcc/nios2-elf/4.1.2/../../../../nios2-elf/lib\libc.a(lib_a-s_isinfd.o)
 .debug_frame   0x000008a0       0x20 c:/altera/12.1sp1/nios2eds/bin/gnu/h-i686-mingw32/bin/../lib/gcc/nios2-elf/4.1.2/../../../../nios2-elf/lib\libc.a(lib_a-s_isnand.o)
 .debug_frame   0x000008c0       0x2c c:/altera/12.1sp1/nios2eds/bin/gnu/h-i686-mingw32/bin/../lib/gcc/nios2-elf/4.1.2/../../../../nios2-elf/lib\libc.a(lib_a-sbrkr.o)
 .debug_frame   0x000008ec       0x78 c:/altera/12.1sp1/nios2eds/bin/gnu/h-i686-mingw32/bin/../lib/gcc/nios2-elf/4.1.2/../../../../nios2-elf/lib\libc.a(lib_a-stdio.o)
 .debug_frame   0x00000964       0x20 c:/altera/12.1sp1/nios2eds/bin/gnu/h-i686-mingw32/bin/../lib/gcc/nios2-elf/4.1.2/../../../../nios2-elf/lib\libc.a(lib_a-strcmp.o)
 .debug_frame   0x00000984       0x2c c:/altera/12.1sp1/nios2eds/bin/gnu/h-i686-mingw32/bin/../lib/gcc/nios2-elf/4.1.2/../../../../nios2-elf/lib\libc.a(lib_a-writer.o)
 .debug_frame   0x000009b0       0x28 c:/altera/12.1sp1/nios2eds/bin/gnu/h-i686-mingw32/bin/../lib/gcc/nios2-elf/4.1.2/../../../../nios2-elf/lib\libc.a(lib_a-callocr.o)
 .debug_frame   0x000009d8       0x2c c:/altera/12.1sp1/nios2eds/bin/gnu/h-i686-mingw32/bin/../lib/gcc/nios2-elf/4.1.2/../../../../nios2-elf/lib\libc.a(lib_a-closer.o)
 .debug_frame   0x00000a04       0x3c c:/altera/12.1sp1/nios2eds/bin/gnu/h-i686-mingw32/bin/../lib/gcc/nios2-elf/4.1.2/../../../../nios2-elf/lib\libc.a(lib_a-fclose.o)
 .debug_frame   0x00000a40       0x2c c:/altera/12.1sp1/nios2eds/bin/gnu/h-i686-mingw32/bin/../lib/gcc/nios2-elf/4.1.2/../../../../nios2-elf/lib\libc.a(lib_a-fstatr.o)
 .debug_frame   0x00000a6c       0x2c c:/altera/12.1sp1/nios2eds/bin/gnu/h-i686-mingw32/bin/../lib/gcc/nios2-elf/4.1.2/../../../../nios2-elf/lib\libc.a(lib_a-isattyr.o)
 .debug_frame   0x00000a98       0x2c c:/altera/12.1sp1/nios2eds/bin/gnu/h-i686-mingw32/bin/../lib/gcc/nios2-elf/4.1.2/../../../../nios2-elf/lib\libc.a(lib_a-lseekr.o)
 .debug_frame   0x00000ac4       0x2c c:/altera/12.1sp1/nios2eds/bin/gnu/h-i686-mingw32/bin/../lib/gcc/nios2-elf/4.1.2/../../../../nios2-elf/lib\libc.a(lib_a-readr.o)
 .debug_frame   0x00000af0       0x38 c:/altera/12.1sp1/nios2eds/bin/gnu/h-i686-mingw32/bin/../lib/gcc/nios2-elf/4.1.2\libgcc.a(_udivdi3.o)
 .debug_frame   0x00000b28       0x38 c:/altera/12.1sp1/nios2eds/bin/gnu/h-i686-mingw32/bin/../lib/gcc/nios2-elf/4.1.2\libgcc.a(_umoddi3.o)
 .debug_frame   0x00000b60       0x70 c:/altera/12.1sp1/nios2eds/bin/gnu/h-i686-mingw32/bin/../lib/gcc/nios2-elf/4.1.2\libgcc.a(_addsub_df.o)
 .debug_frame   0x00000bd0       0x3c c:/altera/12.1sp1/nios2eds/bin/gnu/h-i686-mingw32/bin/../lib/gcc/nios2-elf/4.1.2\libgcc.a(_mul_df.o)
 .debug_frame   0x00000c0c       0x30 c:/altera/12.1sp1/nios2eds/bin/gnu/h-i686-mingw32/bin/../lib/gcc/nios2-elf/4.1.2\libgcc.a(_div_df.o)
 .debug_frame   0x00000c3c       0x2c c:/altera/12.1sp1/nios2eds/bin/gnu/h-i686-mingw32/bin/../lib/gcc/nios2-elf/4.1.2\libgcc.a(_eq_df.o)
 .debug_frame   0x00000c68       0x2c c:/altera/12.1sp1/nios2eds/bin/gnu/h-i686-mingw32/bin/../lib/gcc/nios2-elf/4.1.2\libgcc.a(_ne_df.o)
 .debug_frame   0x00000c94       0x2c c:/altera/12.1sp1/nios2eds/bin/gnu/h-i686-mingw32/bin/../lib/gcc/nios2-elf/4.1.2\libgcc.a(_gt_df.o)
 .debug_frame   0x00000cc0       0x2c c:/altera/12.1sp1/nios2eds/bin/gnu/h-i686-mingw32/bin/../lib/gcc/nios2-elf/4.1.2\libgcc.a(_ge_df.o)
 .debug_frame   0x00000cec       0x2c c:/altera/12.1sp1/nios2eds/bin/gnu/h-i686-mingw32/bin/../lib/gcc/nios2-elf/4.1.2\libgcc.a(_lt_df.o)
 .debug_frame   0x00000d18       0x30 c:/altera/12.1sp1/nios2eds/bin/gnu/h-i686-mingw32/bin/../lib/gcc/nios2-elf/4.1.2\libgcc.a(_si_to_df.o)
 .debug_frame   0x00000d48       0x28 c:/altera/12.1sp1/nios2eds/bin/gnu/h-i686-mingw32/bin/../lib/gcc/nios2-elf/4.1.2\libgcc.a(_df_to_si.o)
 .debug_frame   0x00000d70       0x38 c:/altera/12.1sp1/nios2eds/bin/gnu/h-i686-mingw32/bin/../lib/gcc/nios2-elf/4.1.2\libgcc.a(_usi_to_df.o)
 .debug_frame   0x00000da8       0x70 c:/altera/12.1sp1/nios2eds/bin/gnu/h-i686-mingw32/bin/../lib/gcc/nios2-elf/4.1.2\libgcc.a(lib2-divmod.o)
 .debug_frame   0x00000e18       0x2c c:/altera/12.1sp1/nios2eds/bin/gnu/h-i686-mingw32/bin/../lib/gcc/nios2-elf/4.1.2\libgcc.a(_muldi3.o)
 .debug_frame   0x00000e44       0x20 c:/altera/12.1sp1/nios2eds/bin/gnu/h-i686-mingw32/bin/../lib/gcc/nios2-elf/4.1.2\libgcc.a(_clzsi2.o)
 .debug_frame   0x00000e64       0x2c c:/altera/12.1sp1/nios2eds/bin/gnu/h-i686-mingw32/bin/../lib/gcc/nios2-elf/4.1.2\libgcc.a(_pack_df.o)
 .debug_frame   0x00000e90       0x20 c:/altera/12.1sp1/nios2eds/bin/gnu/h-i686-mingw32/bin/../lib/gcc/nios2-elf/4.1.2\libgcc.a(_unpack_df.o)
 .debug_frame   0x00000eb0       0x20 c:/altera/12.1sp1/nios2eds/bin/gnu/h-i686-mingw32/bin/../lib/gcc/nios2-elf/4.1.2\libgcc.a(_fpcmp_parts_df.o)
 .debug_frame   0x00000ed0       0x48 ../UARTNow_bsp/\libucosii_bsp.a(alt_close.o)
 .debug_frame   0x00000f18       0x2c ../UARTNow_bsp/\libucosii_bsp.a(alt_dev.o)
 .debug_frame   0x00000f44       0x48 ../UARTNow_bsp/\libucosii_bsp.a(alt_fstat.o)
 .debug_frame   0x00000f8c       0x48 ../UARTNow_bsp/\libucosii_bsp.a(alt_isatty.o)
 .debug_frame   0x00000fd4       0x48 ../UARTNow_bsp/\libucosii_bsp.a(alt_load.o)
 .debug_frame   0x0000101c       0x48 ../UARTNow_bsp/\libucosii_bsp.a(alt_lseek.o)
 .debug_frame   0x00001064       0x2c ../UARTNow_bsp/\libucosii_bsp.a(alt_main.o)
 .debug_frame   0x00001090       0x48 ../UARTNow_bsp/\libucosii_bsp.a(alt_read.o)
 .debug_frame   0x000010d8       0x2c ../UARTNow_bsp/\libucosii_bsp.a(alt_release_fd.o)
 .debug_frame   0x00001104       0x2c ../UARTNow_bsp/\libucosii_bsp.a(alt_sbrk.o)
 .debug_frame   0x00001130       0x48 ../UARTNow_bsp/\libucosii_bsp.a(alt_write.o)
 .debug_frame   0x00001178       0x4c ../UARTNow_bsp/\libucosii_bsp.a(alt_env_lock.o)
 .debug_frame   0x000011c4       0x4c ../UARTNow_bsp/\libucosii_bsp.a(alt_malloc_lock.o)
 .debug_frame   0x00001210      0x3e4 ../UARTNow_bsp/\libucosii_bsp.a(os_core.o)
 .debug_frame   0x000015f4       0x2c ../UARTNow_bsp/\libucosii_bsp.a(os_dbg.o)
 .debug_frame   0x00001620      0x180 ../UARTNow_bsp/\libucosii_bsp.a(os_flag.o)
 .debug_frame   0x000017a0       0xd4 ../UARTNow_bsp/\libucosii_bsp.a(os_mem.o)
 .debug_frame   0x00001874      0x144 ../UARTNow_bsp/\libucosii_bsp.a(os_q.o)
 .debug_frame   0x000019b8       0xf0 ../UARTNow_bsp/\libucosii_bsp.a(os_sem.o)
 .debug_frame   0x00001aa8      0x160 ../UARTNow_bsp/\libucosii_bsp.a(os_task.o)
 .debug_frame   0x00001c08       0xa0 ../UARTNow_bsp/\libucosii_bsp.a(os_time.o)
 .debug_frame   0x00001ca8       0x64 ../UARTNow_bsp/\libucosii_bsp.a(alt_sys_init.o)
 .debug_frame   0x00001d0c       0x80 ../UARTNow_bsp/\libucosii_bsp.a(altera_avalon_jtag_uart_fd.o)
 .debug_frame   0x00001d8c       0x80 ../UARTNow_bsp/\libucosii_bsp.a(altera_avalon_jtag_uart_init.o)
 .debug_frame   0x00001e0c       0x2c ../UARTNow_bsp/\libucosii_bsp.a(altera_avalon_jtag_uart_ioctl.o)
 .debug_frame   0x00001e38       0x2c ../UARTNow_bsp/\libucosii_bsp.a(altera_avalon_jtag_uart_read.o)
 .debug_frame   0x00001e64       0x2c ../UARTNow_bsp/\libucosii_bsp.a(altera_avalon_jtag_uart_write.o)
 .debug_frame   0x00001e90       0x48 ../UARTNow_bsp/\libucosii_bsp.a(altera_avalon_timer_sc.o)
 .debug_frame   0x00001ed8       0x64 ../UARTNow_bsp/\libucosii_bsp.a(altera_avalon_uart_fd.o)
 .debug_frame   0x00001f3c       0x9c ../UARTNow_bsp/\libucosii_bsp.a(altera_avalon_uart_init.o)
 .debug_frame   0x00001fd8       0x48 ../UARTNow_bsp/\libucosii_bsp.a(altera_avalon_uart_read.o)
 .debug_frame   0x00002020       0x48 ../UARTNow_bsp/\libucosii_bsp.a(altera_avalon_uart_write.o)
 .debug_frame   0x00002068      0x128 ../UARTNow_bsp/\libucosii_bsp.a(altera_up_avalon_rs232.o)
 .debug_frame   0x00002190       0x2c ../UARTNow_bsp/\libucosii_bsp.a(alt_alarm_start.o)
 .debug_frame   0x000021bc       0x2c ../UARTNow_bsp/\libucosii_bsp.a(alt_dcache_flush_all.o)
 .debug_frame   0x000021e8       0x48 ../UARTNow_bsp/\libucosii_bsp.a(alt_dev_llist_insert.o)
 .debug_frame   0x00002230       0x2c ../UARTNow_bsp/\libucosii_bsp.a(alt_do_ctors.o)
 .debug_frame   0x0000225c       0x2c ../UARTNow_bsp/\libucosii_bsp.a(alt_do_dtors.o)
 .debug_frame   0x00002288       0x2c ../UARTNow_bsp/\libucosii_bsp.a(alt_find_dev.o)
 .debug_frame   0x000022b4       0x2c ../UARTNow_bsp/\libucosii_bsp.a(alt_icache_flush_all.o)
 .debug_frame   0x000022e0       0x48 ../UARTNow_bsp/\libucosii_bsp.a(alt_io_redirect.o)
 .debug_frame   0x00002328       0x2c ../UARTNow_bsp/\libucosii_bsp.a(alt_irq_register.o)
 .debug_frame   0x00002354       0x64 ../UARTNow_bsp/\libucosii_bsp.a(alt_open.o)
 .debug_frame   0x000023b8       0x48 ../UARTNow_bsp/\libucosii_bsp.a(alt_tick.o)
 .debug_frame   0x00002400       0x2c ../UARTNow_bsp/\libucosii_bsp.a(altera_nios2_qsys_irq.o)
 .debug_frame   0x0000242c      0x128 ../UARTNow_bsp/\libucosii_bsp.a(os_cpu_c.o)
 .debug_frame   0x00002554       0x2c ../UARTNow_bsp/\libucosii_bsp.a(alt_find_file.o)
 .debug_frame   0x00002580       0x2c ../UARTNow_bsp/\libucosii_bsp.a(alt_get_fd.o)
 .debug_frame   0x000025ac       0x2c ../UARTNow_bsp/\libucosii_bsp.a(alt_icache_flush.o)
 .debug_frame   0x000025d8       0x2c ../UARTNow_bsp/\libucosii_bsp.a(alt_irq_handler.o)
 .debug_frame   0x00002604       0x20 c:/altera/12.1sp1/nios2eds/bin/gnu/h-i686-mingw32/bin/../lib/gcc/nios2-elf/4.1.2/../../../../nios2-elf/lib\libc.a(lib_a-atexit.o)
 .debug_frame   0x00002624       0x28 c:/altera/12.1sp1/nios2eds/bin/gnu/h-i686-mingw32/bin/../lib/gcc/nios2-elf/4.1.2/../../../../nios2-elf/lib\libc.a(lib_a-exit.o)
 .debug_frame   0x0000264c       0x20 c:/altera/12.1sp1/nios2eds/bin/gnu/h-i686-mingw32/bin/../lib/gcc/nios2-elf/4.1.2/../../../../nios2-elf/lib\libc.a(lib_a-memcmp.o)
 .debug_frame   0x0000266c       0x34 c:/altera/12.1sp1/nios2eds/bin/gnu/h-i686-mingw32/bin/../lib/gcc/nios2-elf/4.1.2/../../../../nios2-elf/lib\libc.a(lib_a-__atexit.o)
 .debug_frame   0x000026a0       0x4c c:/altera/12.1sp1/nios2eds/bin/gnu/h-i686-mingw32/bin/../lib/gcc/nios2-elf/4.1.2/../../../../nios2-elf/lib\libc.a(lib_a-__call_atexit.o)
 .debug_frame   0x000026ec       0x48 ../UARTNow_bsp/\libucosii_bsp.a(alt_exit.o)

.debug_str      0x00000000     0x2440
 *(.debug_str)
 .debug_str     0x00000000       0x12 obj/default/main.o
 .debug_str     0x00000012      0x49b c:/altera/12.1sp1/nios2eds/bin/gnu/h-i686-mingw32/bin/../lib/gcc/nios2-elf/4.1.2/../../../../nios2-elf/lib\libc.a(lib_a-printf.o)
                                0x523 (size before relaxing)
 .debug_str     0x000004ad       0x81 c:/altera/12.1sp1/nios2eds/bin/gnu/h-i686-mingw32/bin/../lib/gcc/nios2-elf/4.1.2/../../../../nios2-elf/lib\libc.a(lib_a-puts.o)
                                0x549 (size before relaxing)
 .debug_str     0x0000052e       0xdb c:/altera/12.1sp1/nios2eds/bin/gnu/h-i686-mingw32/bin/../lib/gcc/nios2-elf/4.1.2/../../../../nios2-elf/lib\libc.a(lib_a-strlen.o)
                                0x17d (size before relaxing)
 .debug_str     0x00000609      0x185 c:/altera/12.1sp1/nios2eds/bin/gnu/h-i686-mingw32/bin/../lib/gcc/nios2-elf/4.1.2/../../../../nios2-elf/lib\libc.a(lib_a-vfprintf.o)
                                0x6f8 (size before relaxing)
 .debug_str     0x0000078e       0x46 c:/altera/12.1sp1/nios2eds/bin/gnu/h-i686-mingw32/bin/../lib/gcc/nios2-elf/4.1.2/../../../../nios2-elf/lib\libc.a(lib_a-wsetup.o)
                                0x50c (size before relaxing)
 .debug_str     0x000007d4      0x18e c:/altera/12.1sp1/nios2eds/bin/gnu/h-i686-mingw32/bin/../lib/gcc/nios2-elf/4.1.2/../../../../nios2-elf/lib\libc.a(lib_a-dtoa.o)
                                0x601 (size before relaxing)
 .debug_str     0x00000962       0x65 c:/altera/12.1sp1/nios2eds/bin/gnu/h-i686-mingw32/bin/../lib/gcc/nios2-elf/4.1.2/../../../../nios2-elf/lib\libc.a(lib_a-fflush.o)
                                0x532 (size before relaxing)
 .debug_str     0x000009c7      0x102 c:/altera/12.1sp1/nios2eds/bin/gnu/h-i686-mingw32/bin/../lib/gcc/nios2-elf/4.1.2/../../../../nios2-elf/lib\libc.a(lib_a-findfp.o)
                                0x5f4 (size before relaxing)
 .debug_str     0x00000ac9      0x15b c:/altera/12.1sp1/nios2eds/bin/gnu/h-i686-mingw32/bin/../lib/gcc/nios2-elf/4.1.2/../../../../nios2-elf/lib\libc.a(lib_a-freer.o)
                                0x643 (size before relaxing)
 .debug_str     0x00000c24       0x66 c:/altera/12.1sp1/nios2eds/bin/gnu/h-i686-mingw32/bin/../lib/gcc/nios2-elf/4.1.2/../../../../nios2-elf/lib\libc.a(lib_a-fvwrite.o)
                                0x563 (size before relaxing)
 .debug_str     0x00000c8a       0x5e c:/altera/12.1sp1/nios2eds/bin/gnu/h-i686-mingw32/bin/../lib/gcc/nios2-elf/4.1.2/../../../../nios2-elf/lib\libc.a(lib_a-fwalk.o)
                                0x535 (size before relaxing)
 .debug_str     0x00000ce8       0xd1 c:/altera/12.1sp1/nios2eds/bin/gnu/h-i686-mingw32/bin/../lib/gcc/nios2-elf/4.1.2/../../../../nios2-elf/lib\libc.a(lib_a-impure.o)
                                0x51a (size before relaxing)
 .debug_str     0x00000db9      0x225 c:/altera/12.1sp1/nios2eds/bin/gnu/h-i686-mingw32/bin/../lib/gcc/nios2-elf/4.1.2/../../../../nios2-elf/lib\libc.a(lib_a-locale.o)
                                0x6a9 (size before relaxing)
 .debug_str     0x00000fde      0x123 c:/altera/12.1sp1/nios2eds/bin/gnu/h-i686-mingw32/bin/../lib/gcc/nios2-elf/4.1.2/../../../../nios2-elf/lib\libc.a(lib_a-makebuf.o)
                                0x606 (size before relaxing)
 .debug_str     0x00001101       0xef c:/altera/12.1sp1/nios2eds/bin/gnu/h-i686-mingw32/bin/../lib/gcc/nios2-elf/4.1.2/../../../../nios2-elf/lib\libc.a(lib_a-mallocr.o)
                                0x6f1 (size before relaxing)
 .debug_str     0x000011f0       0x5c c:/altera/12.1sp1/nios2eds/bin/gnu/h-i686-mingw32/bin/../lib/gcc/nios2-elf/4.1.2/../../../../nios2-elf/lib\libc.a(lib_a-memchr.o)
                                0x18b (size before relaxing)
 .debug_str     0x0000124c       0x69 c:/altera/12.1sp1/nios2eds/bin/gnu/h-i686-mingw32/bin/../lib/gcc/nios2-elf/4.1.2/../../../../nios2-elf/lib\libc.a(lib_a-memcpy.o)
                                0x128 (size before relaxing)
 .debug_str     0x000012b5       0x4d c:/altera/12.1sp1/nios2eds/bin/gnu/h-i686-mingw32/bin/../lib/gcc/nios2-elf/4.1.2/../../../../nios2-elf/lib\libc.a(lib_a-memmove.o)
                                0x19d (size before relaxing)
 .debug_str     0x00001302       0x42 c:/altera/12.1sp1/nios2eds/bin/gnu/h-i686-mingw32/bin/../lib/gcc/nios2-elf/4.1.2/../../../../nios2-elf/lib\libc.a(lib_a-memset.o)
                                0x17e (size before relaxing)
 .debug_str     0x00001344       0xf8 c:/altera/12.1sp1/nios2eds/bin/gnu/h-i686-mingw32/bin/../lib/gcc/nios2-elf/4.1.2/../../../../nios2-elf/lib\libc.a(lib_a-mprec.o)
                                0x60e (size before relaxing)
 .debug_str     0x0000143c       0x59 c:/altera/12.1sp1/nios2eds/bin/gnu/h-i686-mingw32/bin/../lib/gcc/nios2-elf/4.1.2/../../../../nios2-elf/lib\libc.a(lib_a-reallocr.o)
                                0x5c3 (size before relaxing)
 .debug_str     0x00001495       0xdc c:/altera/12.1sp1/nios2eds/bin/gnu/h-i686-mingw32/bin/../lib/gcc/nios2-elf/4.1.2/../../../../nios2-elf/lib\libc.a(lib_a-s_isinfd.o)
                                0x18a (size before relaxing)
 .debug_str     0x00001571       0x46 c:/altera/12.1sp1/nios2eds/bin/gnu/h-i686-mingw32/bin/../lib/gcc/nios2-elf/4.1.2/../../../../nios2-elf/lib\libc.a(lib_a-s_isnand.o)
                                0x18a (size before relaxing)
 .debug_str     0x000015b7       0x50 c:/altera/12.1sp1/nios2eds/bin/gnu/h-i686-mingw32/bin/../lib/gcc/nios2-elf/4.1.2/../../../../nios2-elf/lib\libc.a(lib_a-sbrkr.o)
                                0x50b (size before relaxing)
 .debug_str     0x00001607       0x62 c:/altera/12.1sp1/nios2eds/bin/gnu/h-i686-mingw32/bin/../lib/gcc/nios2-elf/4.1.2/../../../../nios2-elf/lib\libc.a(lib_a-stdio.o)
                                0x531 (size before relaxing)
 .debug_str     0x00001669       0x42 c:/altera/12.1sp1/nios2eds/bin/gnu/h-i686-mingw32/bin/../lib/gcc/nios2-elf/4.1.2/../../../../nios2-elf/lib\libc.a(lib_a-strcmp.o)
                                0x163 (size before relaxing)
 .debug_str     0x000016ab       0x4c c:/altera/12.1sp1/nios2eds/bin/gnu/h-i686-mingw32/bin/../lib/gcc/nios2-elf/4.1.2/../../../../nios2-elf/lib\libc.a(lib_a-writer.o)
                                0x50e (size before relaxing)
 .debug_str     0x000016f7       0x19 c:/altera/12.1sp1/nios2eds/bin/gnu/h-i686-mingw32/bin/../lib/gcc/nios2-elf/4.1.2/../../../../nios2-elf/lib\libc.a(lib_a-callocr.o)
                                0x542 (size before relaxing)
 .debug_str     0x00001710       0x43 c:/altera/12.1sp1/nios2eds/bin/gnu/h-i686-mingw32/bin/../lib/gcc/nios2-elf/4.1.2/../../../../nios2-elf/lib\libc.a(lib_a-closer.o)
                                0x4fe (size before relaxing)
 .debug_str     0x00001753       0x4b c:/altera/12.1sp1/nios2eds/bin/gnu/h-i686-mingw32/bin/../lib/gcc/nios2-elf/4.1.2/../../../../nios2-elf/lib\libc.a(lib_a-fclose.o)
                                0x516 (size before relaxing)
 .debug_str     0x0000179e       0x49 c:/altera/12.1sp1/nios2eds/bin/gnu/h-i686-mingw32/bin/../lib/gcc/nios2-elf/4.1.2/../../../../nios2-elf/lib\libc.a(lib_a-fstatr.o)
                                0x5f1 (size before relaxing)
 .debug_str     0x000017e7       0x3d c:/altera/12.1sp1/nios2eds/bin/gnu/h-i686-mingw32/bin/../lib/gcc/nios2-elf/4.1.2/../../../../nios2-elf/lib\libc.a(lib_a-int_errno.o)
                                0x163 (size before relaxing)
 .debug_str     0x00001824       0x45 c:/altera/12.1sp1/nios2eds/bin/gnu/h-i686-mingw32/bin/../lib/gcc/nios2-elf/4.1.2/../../../../nios2-elf/lib\libc.a(lib_a-isattyr.o)
                                0x500 (size before relaxing)
 .debug_str     0x00001869       0x43 c:/altera/12.1sp1/nios2eds/bin/gnu/h-i686-mingw32/bin/../lib/gcc/nios2-elf/4.1.2/../../../../nios2-elf/lib\libc.a(lib_a-lseekr.o)
                                0x50c (size before relaxing)
 .debug_str     0x000018ac       0x41 c:/altera/12.1sp1/nios2eds/bin/gnu/h-i686-mingw32/bin/../lib/gcc/nios2-elf/4.1.2/../../../../nios2-elf/lib\libc.a(lib_a-readr.o)
                                0x50c (size before relaxing)
 .debug_str     0x000018ed      0x147 c:/altera/12.1sp1/nios2eds/bin/gnu/h-i686-mingw32/bin/../lib/gcc/nios2-elf/4.1.2\libgcc.a(_udivdi3.o)
                                0x1f7 (size before relaxing)
 .debug_str     0x00001a34        0xa c:/altera/12.1sp1/nios2eds/bin/gnu/h-i686-mingw32/bin/../lib/gcc/nios2-elf/4.1.2\libgcc.a(_umoddi3.o)
                                0x1f7 (size before relaxing)
 .debug_str     0x00001a3e      0x137 c:/altera/12.1sp1/nios2eds/bin/gnu/h-i686-mingw32/bin/../lib/gcc/nios2-elf/4.1.2\libgcc.a(_addsub_df.o)
                                0x26f (size before relaxing)
 .debug_str     0x00001b75       0x40 c:/altera/12.1sp1/nios2eds/bin/gnu/h-i686-mingw32/bin/../lib/gcc/nios2-elf/4.1.2\libgcc.a(_mul_df.o)
                                0x241 (size before relaxing)
 .debug_str     0x00001bb5       0x35 c:/altera/12.1sp1/nios2eds/bin/gnu/h-i686-mingw32/bin/../lib/gcc/nios2-elf/4.1.2\libgcc.a(_div_df.o)
                                0x231 (size before relaxing)
 .debug_str     0x00001bea        0x8 c:/altera/12.1sp1/nios2eds/bin/gnu/h-i686-mingw32/bin/../lib/gcc/nios2-elf/4.1.2\libgcc.a(_eq_df.o)
                                0x1fe (size before relaxing)
 .debug_str     0x00001bf2        0x8 c:/altera/12.1sp1/nios2eds/bin/gnu/h-i686-mingw32/bin/../lib/gcc/nios2-elf/4.1.2\libgcc.a(_ne_df.o)
                                0x1fe (size before relaxing)
 .debug_str     0x00001bfa        0x8 c:/altera/12.1sp1/nios2eds/bin/gnu/h-i686-mingw32/bin/../lib/gcc/nios2-elf/4.1.2\libgcc.a(_gt_df.o)
                                0x1fe (size before relaxing)
 .debug_str     0x00001c02        0x8 c:/altera/12.1sp1/nios2eds/bin/gnu/h-i686-mingw32/bin/../lib/gcc/nios2-elf/4.1.2\libgcc.a(_ge_df.o)
                                0x1fe (size before relaxing)
 .debug_str     0x00001c0a        0x8 c:/altera/12.1sp1/nios2eds/bin/gnu/h-i686-mingw32/bin/../lib/gcc/nios2-elf/4.1.2\libgcc.a(_lt_df.o)
                                0x1fe (size before relaxing)
 .debug_str     0x00001c12       0x18 c:/altera/12.1sp1/nios2eds/bin/gnu/h-i686-mingw32/bin/../lib/gcc/nios2-elf/4.1.2\libgcc.a(_si_to_df.o)
                                0x1de (size before relaxing)
 .debug_str     0x00001c2a        0xa c:/altera/12.1sp1/nios2eds/bin/gnu/h-i686-mingw32/bin/../lib/gcc/nios2-elf/4.1.2\libgcc.a(_df_to_si.o)
                                0x207 (size before relaxing)
 .debug_str     0x00000000      0x1a3 c:/altera/12.1sp1/nios2eds/bin/gnu/h-i686-mingw32/bin/../lib/gcc/nios2-elf/4.1.2\libgcc.a(_thenan_df.o)
 .debug_str     0x00001c34       0x14 c:/altera/12.1sp1/nios2eds/bin/gnu/h-i686-mingw32/bin/../lib/gcc/nios2-elf/4.1.2\libgcc.a(_usi_to_df.o)
                                0x1da (size before relaxing)
 .debug_str     0x00001c48       0x76 c:/altera/12.1sp1/nios2eds/bin/gnu/h-i686-mingw32/bin/../lib/gcc/nios2-elf/4.1.2\libgcc.a(lib2-divmod.o)
                                0x1b4 (size before relaxing)
 .debug_str     0x00001cbe        0x9 c:/altera/12.1sp1/nios2eds/bin/gnu/h-i686-mingw32/bin/../lib/gcc/nios2-elf/4.1.2\libgcc.a(_muldi3.o)
                                0x1ac (size before relaxing)
 .debug_str     0x00000000      0x161 c:/altera/12.1sp1/nios2eds/bin/gnu/h-i686-mingw32/bin/../lib/gcc/nios2-elf/4.1.2\libgcc.a(_clz.o)
 .debug_str     0x00001cc7        0x9 c:/altera/12.1sp1/nios2eds/bin/gnu/h-i686-mingw32/bin/../lib/gcc/nios2-elf/4.1.2\libgcc.a(_clzsi2.o)
                                0x17e (size before relaxing)
 .debug_str     0x00001cd0       0x10 c:/altera/12.1sp1/nios2eds/bin/gnu/h-i686-mingw32/bin/../lib/gcc/nios2-elf/4.1.2\libgcc.a(_pack_df.o)
                                0x206 (size before relaxing)
 .debug_str     0x00001ce0        0xb c:/altera/12.1sp1/nios2eds/bin/gnu/h-i686-mingw32/bin/../lib/gcc/nios2-elf/4.1.2\libgcc.a(_unpack_df.o)
                                0x1e8 (size before relaxing)
 .debug_str     0x00001ceb       0x10 c:/altera/12.1sp1/nios2eds/bin/gnu/h-i686-mingw32/bin/../lib/gcc/nios2-elf/4.1.2\libgcc.a(_fpcmp_parts_df.o)
                                0x1c6 (size before relaxing)
 .debug_str     0x00001cfb       0x12 ../UARTNow_bsp/\libucosii_bsp.a(alt_close.o)
 .debug_str     0x00001d0d       0x12 ../UARTNow_bsp/\libucosii_bsp.a(alt_dev.o)
 .debug_str     0x00001d1f       0x12 ../UARTNow_bsp/\libucosii_bsp.a(alt_errno.o)
 .debug_str     0x00001d31       0x12 ../UARTNow_bsp/\libucosii_bsp.a(alt_fstat.o)
 .debug_str     0x00001d43       0x12 ../UARTNow_bsp/\libucosii_bsp.a(alt_isatty.o)
 .debug_str     0x00001d55       0x12 ../UARTNow_bsp/\libucosii_bsp.a(alt_load.o)
 .debug_str     0x00001d67       0x12 ../UARTNow_bsp/\libucosii_bsp.a(alt_lseek.o)
 .debug_str     0x00001d79       0x12 ../UARTNow_bsp/\libucosii_bsp.a(alt_main.o)
 .debug_str     0x00001d8b       0x12 ../UARTNow_bsp/\libucosii_bsp.a(alt_read.o)
 .debug_str     0x00001d9d       0x12 ../UARTNow_bsp/\libucosii_bsp.a(alt_release_fd.o)
 .debug_str     0x00001daf       0x1a ../UARTNow_bsp/\libucosii_bsp.a(alt_sbrk.o)
 .debug_str     0x00001dc9       0x12 ../UARTNow_bsp/\libucosii_bsp.a(alt_write.o)
 .debug_str     0x00001ddb       0x36 ../UARTNow_bsp/\libucosii_bsp.a(alt_env_lock.o)
 .debug_str     0x00001e11       0x36 ../UARTNow_bsp/\libucosii_bsp.a(alt_malloc_lock.o)
 .debug_str     0x00001e47       0x46 ../UARTNow_bsp/\libucosii_bsp.a(os_core.o)
 .debug_str     0x00001e8d       0x2b ../UARTNow_bsp/\libucosii_bsp.a(os_dbg.o)
 .debug_str     0x00001eb8       0x4e ../UARTNow_bsp/\libucosii_bsp.a(os_flag.o)
 .debug_str     0x00001f06       0x2c ../UARTNow_bsp/\libucosii_bsp.a(os_mem.o)
 .debug_str     0x00001f32       0x36 ../UARTNow_bsp/\libucosii_bsp.a(os_q.o)
 .debug_str     0x00001f68       0x36 ../UARTNow_bsp/\libucosii_bsp.a(os_sem.o)
 .debug_str     0x00001f9e       0x23 ../UARTNow_bsp/\libucosii_bsp.a(os_task.o)
 .debug_str     0x00001fc1       0x1f ../UARTNow_bsp/\libucosii_bsp.a(os_time.o)
 .debug_str     0x00001fe0       0x38 ../UARTNow_bsp/\libucosii_bsp.a(alt_sys_init.o)
 .debug_str     0x00002018       0x12 ../UARTNow_bsp/\libucosii_bsp.a(altera_avalon_jtag_uart_fd.o)
 .debug_str     0x0000202a       0x1a ../UARTNow_bsp/\libucosii_bsp.a(altera_avalon_jtag_uart_init.o)
 .debug_str     0x00002044       0x12 ../UARTNow_bsp/\libucosii_bsp.a(altera_avalon_jtag_uart_ioctl.o)
 .debug_str     0x00002056       0x22 ../UARTNow_bsp/\libucosii_bsp.a(altera_avalon_jtag_uart_read.o)
 .debug_str     0x00002078       0x22 ../UARTNow_bsp/\libucosii_bsp.a(altera_avalon_jtag_uart_write.o)
 .debug_str     0x0000209a       0x12 ../UARTNow_bsp/\libucosii_bsp.a(altera_avalon_timer_sc.o)
 .debug_str     0x000020ac       0x12 ../UARTNow_bsp/\libucosii_bsp.a(altera_avalon_uart_fd.o)
 .debug_str     0x000020be       0x1f ../UARTNow_bsp/\libucosii_bsp.a(altera_avalon_uart_init.o)
 .debug_str     0x000020dd       0x1a ../UARTNow_bsp/\libucosii_bsp.a(altera_avalon_uart_read.o)
 .debug_str     0x000020f7       0x1a ../UARTNow_bsp/\libucosii_bsp.a(altera_avalon_uart_write.o)
 .debug_str     0x00002111       0x48 ../UARTNow_bsp/\libucosii_bsp.a(altera_up_avalon_rs232.o)
 .debug_str     0x00002159       0x23 ../UARTNow_bsp/\libucosii_bsp.a(alt_alarm_start.o)
 .debug_str     0x0000217c       0x12 ../UARTNow_bsp/\libucosii_bsp.a(alt_dcache_flush_all.o)
 .debug_str     0x0000218e       0x12 ../UARTNow_bsp/\libucosii_bsp.a(alt_dev_llist_insert.o)
 .debug_str     0x000021a0       0x12 ../UARTNow_bsp/\libucosii_bsp.a(alt_find_dev.o)
 .debug_str     0x000021b2       0x12 ../UARTNow_bsp/\libucosii_bsp.a(alt_icache_flush_all.o)
 .debug_str     0x000021c4       0x12 ../UARTNow_bsp/\libucosii_bsp.a(alt_io_redirect.o)
 .debug_str     0x000021d6       0x21 ../UARTNow_bsp/\libucosii_bsp.a(alt_irq_register.o)
 .debug_str     0x000021f7       0x12 ../UARTNow_bsp/\libucosii_bsp.a(alt_open.o)
 .debug_str     0x00002209       0x1a ../UARTNow_bsp/\libucosii_bsp.a(alt_tick.o)
 .debug_str     0x00002223       0x12 ../UARTNow_bsp/\libucosii_bsp.a(altera_nios2_qsys_irq.o)
 .debug_str     0x00002235       0x20 ../UARTNow_bsp/\libucosii_bsp.a(os_cpu_c.o)
 .debug_str     0x00002255       0x12 ../UARTNow_bsp/\libucosii_bsp.a(alt_find_file.o)
 .debug_str     0x00002267       0x12 ../UARTNow_bsp/\libucosii_bsp.a(alt_get_fd.o)
 .debug_str     0x00002279       0x12 ../UARTNow_bsp/\libucosii_bsp.a(alt_icache_flush.o)
 .debug_str     0x0000228b       0x12 ../UARTNow_bsp/\libucosii_bsp.a(alt_irq_handler.o)
 .debug_str     0x0000229d       0x3b c:/altera/12.1sp1/nios2eds/bin/gnu/h-i686-mingw32/bin/../lib/gcc/nios2-elf/4.1.2/../../../../nios2-elf/lib\libc.a(lib_a-atexit.o)
                                0x1bf (size before relaxing)
 .debug_str     0x000022d8       0x3e c:/altera/12.1sp1/nios2eds/bin/gnu/h-i686-mingw32/bin/../lib/gcc/nios2-elf/4.1.2/../../../../nios2-elf/lib\libc.a(lib_a-exit.o)
                                0x50c (size before relaxing)
 .debug_str     0x00002316       0x42 c:/altera/12.1sp1/nios2eds/bin/gnu/h-i686-mingw32/bin/../lib/gcc/nios2-elf/4.1.2/../../../../nios2-elf/lib\libc.a(lib_a-memcmp.o)
                                0x16a (size before relaxing)
 .debug_str     0x00002358       0x51 c:/altera/12.1sp1/nios2eds/bin/gnu/h-i686-mingw32/bin/../lib/gcc/nios2-elf/4.1.2/../../../../nios2-elf/lib\libc.a(lib_a-__atexit.o)
                                0x524 (size before relaxing)
 .debug_str     0x000023a9       0x7b c:/altera/12.1sp1/nios2eds/bin/gnu/h-i686-mingw32/bin/../lib/gcc/nios2-elf/4.1.2/../../../../nios2-elf/lib\libc.a(lib_a-__call_atexit.o)
                                0x54e (size before relaxing)
 .debug_str     0x00002424       0x1c ../UARTNow_bsp/\libucosii_bsp.a(alt_exit.o)

.debug_loc      0x00000000     0xd325
 *(.debug_loc)
 .debug_loc     0x00000000      0x183 obj/default/main.o
 .debug_loc     0x00000183       0xcb c:/altera/12.1sp1/nios2eds/bin/gnu/h-i686-mingw32/bin/../lib/gcc/nios2-elf/4.1.2/../../../../nios2-elf/lib\libc.a(lib_a-printf.o)
 .debug_loc     0x0000024e       0xa2 c:/altera/12.1sp1/nios2eds/bin/gnu/h-i686-mingw32/bin/../lib/gcc/nios2-elf/4.1.2/../../../../nios2-elf/lib\libc.a(lib_a-puts.o)
 .debug_loc     0x000002f0       0x3c c:/altera/12.1sp1/nios2eds/bin/gnu/h-i686-mingw32/bin/../lib/gcc/nios2-elf/4.1.2/../../../../nios2-elf/lib\libc.a(lib_a-strlen.o)
 .debug_loc     0x0000032c     0x1e0d c:/altera/12.1sp1/nios2eds/bin/gnu/h-i686-mingw32/bin/../lib/gcc/nios2-elf/4.1.2/../../../../nios2-elf/lib\libc.a(lib_a-vfprintf.o)
 .debug_loc     0x00002139       0x7c c:/altera/12.1sp1/nios2eds/bin/gnu/h-i686-mingw32/bin/../lib/gcc/nios2-elf/4.1.2/../../../../nios2-elf/lib\libc.a(lib_a-wsetup.o)
 .debug_loc     0x000021b5     0x1dfa c:/altera/12.1sp1/nios2eds/bin/gnu/h-i686-mingw32/bin/../lib/gcc/nios2-elf/4.1.2/../../../../nios2-elf/lib\libc.a(lib_a-dtoa.o)
 .debug_loc     0x00003faf      0x1f6 c:/altera/12.1sp1/nios2eds/bin/gnu/h-i686-mingw32/bin/../lib/gcc/nios2-elf/4.1.2/../../../../nios2-elf/lib\libc.a(lib_a-fflush.o)
 .debug_loc     0x000041a5      0x19f c:/altera/12.1sp1/nios2eds/bin/gnu/h-i686-mingw32/bin/../lib/gcc/nios2-elf/4.1.2/../../../../nios2-elf/lib\libc.a(lib_a-findfp.o)
 .debug_loc     0x00004344      0x4a7 c:/altera/12.1sp1/nios2eds/bin/gnu/h-i686-mingw32/bin/../lib/gcc/nios2-elf/4.1.2/../../../../nios2-elf/lib\libc.a(lib_a-freer.o)
 .debug_loc     0x000047eb      0x4e4 c:/altera/12.1sp1/nios2eds/bin/gnu/h-i686-mingw32/bin/../lib/gcc/nios2-elf/4.1.2/../../../../nios2-elf/lib\libc.a(lib_a-fvwrite.o)
 .debug_loc     0x00004ccf      0x1d2 c:/altera/12.1sp1/nios2eds/bin/gnu/h-i686-mingw32/bin/../lib/gcc/nios2-elf/4.1.2/../../../../nios2-elf/lib\libc.a(lib_a-fwalk.o)
 .debug_loc     0x00004ea1       0xe1 c:/altera/12.1sp1/nios2eds/bin/gnu/h-i686-mingw32/bin/../lib/gcc/nios2-elf/4.1.2/../../../../nios2-elf/lib\libc.a(lib_a-locale.o)
 .debug_loc     0x00004f82      0x11c c:/altera/12.1sp1/nios2eds/bin/gnu/h-i686-mingw32/bin/../lib/gcc/nios2-elf/4.1.2/../../../../nios2-elf/lib\libc.a(lib_a-makebuf.o)
 .debug_loc     0x0000509e      0xaeb c:/altera/12.1sp1/nios2eds/bin/gnu/h-i686-mingw32/bin/../lib/gcc/nios2-elf/4.1.2/../../../../nios2-elf/lib\libc.a(lib_a-mallocr.o)
 .debug_loc     0x00005b89      0x106 c:/altera/12.1sp1/nios2eds/bin/gnu/h-i686-mingw32/bin/../lib/gcc/nios2-elf/4.1.2/../../../../nios2-elf/lib\libc.a(lib_a-memchr.o)
 .debug_loc     0x00005c8f       0xca c:/altera/12.1sp1/nios2eds/bin/gnu/h-i686-mingw32/bin/../lib/gcc/nios2-elf/4.1.2/../../../../nios2-elf/lib\libc.a(lib_a-memcpy.o)
 .debug_loc     0x00005d59      0x117 c:/altera/12.1sp1/nios2eds/bin/gnu/h-i686-mingw32/bin/../lib/gcc/nios2-elf/4.1.2/../../../../nios2-elf/lib\libc.a(lib_a-memmove.o)
 .debug_loc     0x00005e70       0xa1 c:/altera/12.1sp1/nios2eds/bin/gnu/h-i686-mingw32/bin/../lib/gcc/nios2-elf/4.1.2/../../../../nios2-elf/lib\libc.a(lib_a-memset.o)
 .debug_loc     0x00005f11     0x14d6 c:/altera/12.1sp1/nios2eds/bin/gnu/h-i686-mingw32/bin/../lib/gcc/nios2-elf/4.1.2/../../../../nios2-elf/lib\libc.a(lib_a-mprec.o)
 .debug_loc     0x000073e7      0x8c0 c:/altera/12.1sp1/nios2eds/bin/gnu/h-i686-mingw32/bin/../lib/gcc/nios2-elf/4.1.2/../../../../nios2-elf/lib\libc.a(lib_a-reallocr.o)
 .debug_loc     0x00007ca7       0x36 c:/altera/12.1sp1/nios2eds/bin/gnu/h-i686-mingw32/bin/../lib/gcc/nios2-elf/4.1.2/../../../../nios2-elf/lib\libc.a(lib_a-s_isinfd.o)
 .debug_loc     0x00007cdd       0x18 c:/altera/12.1sp1/nios2eds/bin/gnu/h-i686-mingw32/bin/../lib/gcc/nios2-elf/4.1.2/../../../../nios2-elf/lib\libc.a(lib_a-s_isnand.o)
 .debug_loc     0x00007cf5       0x5b c:/altera/12.1sp1/nios2eds/bin/gnu/h-i686-mingw32/bin/../lib/gcc/nios2-elf/4.1.2/../../../../nios2-elf/lib\libc.a(lib_a-sbrkr.o)
 .debug_loc     0x00007d50      0x21f c:/altera/12.1sp1/nios2eds/bin/gnu/h-i686-mingw32/bin/../lib/gcc/nios2-elf/4.1.2/../../../../nios2-elf/lib\libc.a(lib_a-stdio.o)
 .debug_loc     0x00007f6f       0x65 c:/altera/12.1sp1/nios2eds/bin/gnu/h-i686-mingw32/bin/../lib/gcc/nios2-elf/4.1.2/../../../../nios2-elf/lib\libc.a(lib_a-strcmp.o)
 .debug_loc     0x00007fd4       0x97 c:/altera/12.1sp1/nios2eds/bin/gnu/h-i686-mingw32/bin/../lib/gcc/nios2-elf/4.1.2/../../../../nios2-elf/lib\libc.a(lib_a-writer.o)
 .debug_loc     0x0000806b       0xe9 c:/altera/12.1sp1/nios2eds/bin/gnu/h-i686-mingw32/bin/../lib/gcc/nios2-elf/4.1.2/../../../../nios2-elf/lib\libc.a(lib_a-callocr.o)
 .debug_loc     0x00008154       0x5b c:/altera/12.1sp1/nios2eds/bin/gnu/h-i686-mingw32/bin/../lib/gcc/nios2-elf/4.1.2/../../../../nios2-elf/lib\libc.a(lib_a-closer.o)
 .debug_loc     0x000081af       0xe4 c:/altera/12.1sp1/nios2eds/bin/gnu/h-i686-mingw32/bin/../lib/gcc/nios2-elf/4.1.2/../../../../nios2-elf/lib\libc.a(lib_a-fclose.o)
 .debug_loc     0x00008293       0x79 c:/altera/12.1sp1/nios2eds/bin/gnu/h-i686-mingw32/bin/../lib/gcc/nios2-elf/4.1.2/../../../../nios2-elf/lib\libc.a(lib_a-fstatr.o)
 .debug_loc     0x0000830c       0x5b c:/altera/12.1sp1/nios2eds/bin/gnu/h-i686-mingw32/bin/../lib/gcc/nios2-elf/4.1.2/../../../../nios2-elf/lib\libc.a(lib_a-isattyr.o)
 .debug_loc     0x00008367       0x97 c:/altera/12.1sp1/nios2eds/bin/gnu/h-i686-mingw32/bin/../lib/gcc/nios2-elf/4.1.2/../../../../nios2-elf/lib\libc.a(lib_a-lseekr.o)
 .debug_loc     0x000083fe       0x97 c:/altera/12.1sp1/nios2eds/bin/gnu/h-i686-mingw32/bin/../lib/gcc/nios2-elf/4.1.2/../../../../nios2-elf/lib\libc.a(lib_a-readr.o)
 .debug_loc     0x00008495      0xc12 c:/altera/12.1sp1/nios2eds/bin/gnu/h-i686-mingw32/bin/../lib/gcc/nios2-elf/4.1.2\libgcc.a(_udivdi3.o)
 .debug_loc     0x000090a7      0xc26 c:/altera/12.1sp1/nios2eds/bin/gnu/h-i686-mingw32/bin/../lib/gcc/nios2-elf/4.1.2\libgcc.a(_umoddi3.o)
 .debug_loc     0x00009ccd      0x47a c:/altera/12.1sp1/nios2eds/bin/gnu/h-i686-mingw32/bin/../lib/gcc/nios2-elf/4.1.2\libgcc.a(_addsub_df.o)
 .debug_loc     0x0000a147      0x3b4 c:/altera/12.1sp1/nios2eds/bin/gnu/h-i686-mingw32/bin/../lib/gcc/nios2-elf/4.1.2\libgcc.a(_mul_df.o)
 .debug_loc     0x0000a4fb      0x1df c:/altera/12.1sp1/nios2eds/bin/gnu/h-i686-mingw32/bin/../lib/gcc/nios2-elf/4.1.2\libgcc.a(_div_df.o)
 .debug_loc     0x0000a6da       0x70 c:/altera/12.1sp1/nios2eds/bin/gnu/h-i686-mingw32/bin/../lib/gcc/nios2-elf/4.1.2\libgcc.a(_eq_df.o)
 .debug_loc     0x0000a74a       0x70 c:/altera/12.1sp1/nios2eds/bin/gnu/h-i686-mingw32/bin/../lib/gcc/nios2-elf/4.1.2\libgcc.a(_ne_df.o)
 .debug_loc     0x0000a7ba       0x70 c:/altera/12.1sp1/nios2eds/bin/gnu/h-i686-mingw32/bin/../lib/gcc/nios2-elf/4.1.2\libgcc.a(_gt_df.o)
 .debug_loc     0x0000a82a       0x70 c:/altera/12.1sp1/nios2eds/bin/gnu/h-i686-mingw32/bin/../lib/gcc/nios2-elf/4.1.2\libgcc.a(_ge_df.o)
 .debug_loc     0x0000a89a       0x70 c:/altera/12.1sp1/nios2eds/bin/gnu/h-i686-mingw32/bin/../lib/gcc/nios2-elf/4.1.2\libgcc.a(_lt_df.o)
 .debug_loc     0x0000a90a       0x9a c:/altera/12.1sp1/nios2eds/bin/gnu/h-i686-mingw32/bin/../lib/gcc/nios2-elf/4.1.2\libgcc.a(_si_to_df.o)
 .debug_loc     0x0000a9a4       0x8b c:/altera/12.1sp1/nios2eds/bin/gnu/h-i686-mingw32/bin/../lib/gcc/nios2-elf/4.1.2\libgcc.a(_df_to_si.o)
 .debug_loc     0x0000aa2f       0x5b c:/altera/12.1sp1/nios2eds/bin/gnu/h-i686-mingw32/bin/../lib/gcc/nios2-elf/4.1.2\libgcc.a(_usi_to_df.o)
 .debug_loc     0x0000aa8a      0x1d2 c:/altera/12.1sp1/nios2eds/bin/gnu/h-i686-mingw32/bin/../lib/gcc/nios2-elf/4.1.2\libgcc.a(lib2-divmod.o)
 .debug_loc     0x0000ac5c       0xc4 c:/altera/12.1sp1/nios2eds/bin/gnu/h-i686-mingw32/bin/../lib/gcc/nios2-elf/4.1.2\libgcc.a(_muldi3.o)
 .debug_loc     0x0000ad20       0x1e c:/altera/12.1sp1/nios2eds/bin/gnu/h-i686-mingw32/bin/../lib/gcc/nios2-elf/4.1.2\libgcc.a(_clzsi2.o)
 .debug_loc     0x0000ad3e      0x184 c:/altera/12.1sp1/nios2eds/bin/gnu/h-i686-mingw32/bin/../lib/gcc/nios2-elf/4.1.2\libgcc.a(_pack_df.o)
 .debug_loc     0x0000aec2       0xe5 c:/altera/12.1sp1/nios2eds/bin/gnu/h-i686-mingw32/bin/../lib/gcc/nios2-elf/4.1.2\libgcc.a(_unpack_df.o)
 .debug_loc     0x0000afa7       0x56 ../UARTNow_bsp/\libucosii_bsp.a(alt_close.o)
 .debug_loc     0x0000affd       0x2b ../UARTNow_bsp/\libucosii_bsp.a(alt_dev.o)
 .debug_loc     0x0000b028       0x56 ../UARTNow_bsp/\libucosii_bsp.a(alt_fstat.o)
 .debug_loc     0x0000b07e       0x57 ../UARTNow_bsp/\libucosii_bsp.a(alt_isatty.o)
 .debug_loc     0x0000b0d5       0x56 ../UARTNow_bsp/\libucosii_bsp.a(alt_load.o)
 .debug_loc     0x0000b12b       0x56 ../UARTNow_bsp/\libucosii_bsp.a(alt_lseek.o)
 .debug_loc     0x0000b181       0x2b ../UARTNow_bsp/\libucosii_bsp.a(alt_main.o)
 .debug_loc     0x0000b1ac       0x56 ../UARTNow_bsp/\libucosii_bsp.a(alt_read.o)
 .debug_loc     0x0000b202       0x2b ../UARTNow_bsp/\libucosii_bsp.a(alt_release_fd.o)
 .debug_loc     0x0000b22d       0x2b ../UARTNow_bsp/\libucosii_bsp.a(alt_sbrk.o)
 .debug_loc     0x0000b258       0x56 ../UARTNow_bsp/\libucosii_bsp.a(alt_write.o)
 .debug_loc     0x0000b2ae       0x57 ../UARTNow_bsp/\libucosii_bsp.a(alt_env_lock.o)
 .debug_loc     0x0000b305       0x57 ../UARTNow_bsp/\libucosii_bsp.a(alt_malloc_lock.o)
 .debug_loc     0x0000b35c      0x5e2 ../UARTNow_bsp/\libucosii_bsp.a(os_core.o)
 .debug_loc     0x0000b93e       0x2b ../UARTNow_bsp/\libucosii_bsp.a(os_dbg.o)
 .debug_loc     0x0000b969      0x232 ../UARTNow_bsp/\libucosii_bsp.a(os_flag.o)
 .debug_loc     0x0000bb9b      0x12d ../UARTNow_bsp/\libucosii_bsp.a(os_mem.o)
 .debug_loc     0x0000bcc8      0x1da ../UARTNow_bsp/\libucosii_bsp.a(os_q.o)
 .debug_loc     0x0000bea2      0x158 ../UARTNow_bsp/\libucosii_bsp.a(os_sem.o)
 .debug_loc     0x0000bffa      0x207 ../UARTNow_bsp/\libucosii_bsp.a(os_task.o)
 .debug_loc     0x0000c201       0xd7 ../UARTNow_bsp/\libucosii_bsp.a(os_time.o)
 .debug_loc     0x0000c2d8       0x81 ../UARTNow_bsp/\libucosii_bsp.a(alt_sys_init.o)
 .debug_loc     0x0000c359       0xac ../UARTNow_bsp/\libucosii_bsp.a(altera_avalon_jtag_uart_fd.o)
 .debug_loc     0x0000c405       0xac ../UARTNow_bsp/\libucosii_bsp.a(altera_avalon_jtag_uart_init.o)
 .debug_loc     0x0000c4b1       0x2b ../UARTNow_bsp/\libucosii_bsp.a(altera_avalon_jtag_uart_ioctl.o)
 .debug_loc     0x0000c4dc       0x2c ../UARTNow_bsp/\libucosii_bsp.a(altera_avalon_jtag_uart_read.o)
 .debug_loc     0x0000c508       0x2c ../UARTNow_bsp/\libucosii_bsp.a(altera_avalon_jtag_uart_write.o)
 .debug_loc     0x0000c534       0x56 ../UARTNow_bsp/\libucosii_bsp.a(altera_avalon_timer_sc.o)
 .debug_loc     0x0000c58a       0x81 ../UARTNow_bsp/\libucosii_bsp.a(altera_avalon_uart_fd.o)
 .debug_loc     0x0000c60b       0xd8 ../UARTNow_bsp/\libucosii_bsp.a(altera_avalon_uart_init.o)
 .debug_loc     0x0000c6e3       0x57 ../UARTNow_bsp/\libucosii_bsp.a(altera_avalon_uart_read.o)
 .debug_loc     0x0000c73a       0x57 ../UARTNow_bsp/\libucosii_bsp.a(altera_avalon_uart_write.o)
 .debug_loc     0x0000c791      0x1ae ../UARTNow_bsp/\libucosii_bsp.a(altera_up_avalon_rs232.o)
 .debug_loc     0x0000c93f       0x2b ../UARTNow_bsp/\libucosii_bsp.a(alt_alarm_start.o)
 .debug_loc     0x0000c96a       0x2b ../UARTNow_bsp/\libucosii_bsp.a(alt_dcache_flush_all.o)
 .debug_loc     0x0000c995       0x56 ../UARTNow_bsp/\libucosii_bsp.a(alt_dev_llist_insert.o)
 .debug_loc     0x0000c9eb       0x2b ../UARTNow_bsp/\libucosii_bsp.a(alt_do_ctors.o)
 .debug_loc     0x0000ca16       0x2b ../UARTNow_bsp/\libucosii_bsp.a(alt_do_dtors.o)
 .debug_loc     0x0000ca41       0x2b ../UARTNow_bsp/\libucosii_bsp.a(alt_find_dev.o)
 .debug_loc     0x0000ca6c       0x2b ../UARTNow_bsp/\libucosii_bsp.a(alt_icache_flush_all.o)
 .debug_loc     0x0000ca97       0x56 ../UARTNow_bsp/\libucosii_bsp.a(alt_io_redirect.o)
 .debug_loc     0x0000caed       0x2c ../UARTNow_bsp/\libucosii_bsp.a(alt_irq_register.o)
 .debug_loc     0x0000cb19       0x81 ../UARTNow_bsp/\libucosii_bsp.a(alt_open.o)
 .debug_loc     0x0000cb9a       0x56 ../UARTNow_bsp/\libucosii_bsp.a(alt_tick.o)
 .debug_loc     0x0000cbf0       0x2b ../UARTNow_bsp/\libucosii_bsp.a(altera_nios2_qsys_irq.o)
 .debug_loc     0x0000cc1b      0x1ae ../UARTNow_bsp/\libucosii_bsp.a(os_cpu_c.o)
 .debug_loc     0x0000cdc9       0x2b ../UARTNow_bsp/\libucosii_bsp.a(alt_find_file.o)
 .debug_loc     0x0000cdf4       0x2b ../UARTNow_bsp/\libucosii_bsp.a(alt_get_fd.o)
 .debug_loc     0x0000ce1f       0x2b ../UARTNow_bsp/\libucosii_bsp.a(alt_icache_flush.o)
 .debug_loc     0x0000ce4a       0x2b ../UARTNow_bsp/\libucosii_bsp.a(alt_irq_handler.o)
 .debug_loc     0x0000ce75       0x1e c:/altera/12.1sp1/nios2eds/bin/gnu/h-i686-mingw32/bin/../lib/gcc/nios2-elf/4.1.2/../../../../nios2-elf/lib\libc.a(lib_a-atexit.o)
 .debug_loc     0x0000ce93       0x3d c:/altera/12.1sp1/nios2eds/bin/gnu/h-i686-mingw32/bin/../lib/gcc/nios2-elf/4.1.2/../../../../nios2-elf/lib\libc.a(lib_a-exit.o)
 .debug_loc     0x0000ced0      0x114 c:/altera/12.1sp1/nios2eds/bin/gnu/h-i686-mingw32/bin/../lib/gcc/nios2-elf/4.1.2/../../../../nios2-elf/lib\libc.a(lib_a-memcmp.o)
 .debug_loc     0x0000cfe4      0x120 c:/altera/12.1sp1/nios2eds/bin/gnu/h-i686-mingw32/bin/../lib/gcc/nios2-elf/4.1.2/../../../../nios2-elf/lib\libc.a(lib_a-__atexit.o)
 .debug_loc     0x0000d104      0x1cb c:/altera/12.1sp1/nios2eds/bin/gnu/h-i686-mingw32/bin/../lib/gcc/nios2-elf/4.1.2/../../../../nios2-elf/lib\libc.a(lib_a-__call_atexit.o)
 .debug_loc     0x0000d2cf       0x56 ../UARTNow_bsp/\libucosii_bsp.a(alt_exit.o)

.debug_macinfo
 *(.debug_macinfo)

.debug_weaknames
 *(.debug_weaknames)

.debug_funcnames
 *(.debug_funcnames)

.debug_typenames
 *(.debug_typenames)

.debug_varnames
 *(.debug_varnames)

.debug_alt_sim_info
                0x00000000       0x30
 *(.debug_alt_sim_info)
 .debug_alt_sim_info
                0x00000000       0x30 ../UARTNow_bsp//obj/HAL/src/crt0.o
                0x02000000                __alt_data_end = 0x2000000
                0x02000000                PROVIDE (__alt_stack_pointer, __alt_data_end)
                0x0102173c                PROVIDE (__alt_stack_limit, __alt_stack_base)
                0x0102173c                PROVIDE (__alt_heap_start, end)
                0x02000000                PROVIDE (__alt_heap_limit, 0x2000000)
OUTPUT(UARTNow.elf elf32-littlenios2)

.debug_ranges   0x00000000      0x9c0
 .debug_ranges  0x00000000       0x20 ../UARTNow_bsp//obj/HAL/src/crt0.o
 .debug_ranges  0x00000020      0x168 c:/altera/12.1sp1/nios2eds/bin/gnu/h-i686-mingw32/bin/../lib/gcc/nios2-elf/4.1.2/../../../../nios2-elf/lib\libc.a(lib_a-vfprintf.o)
 .debug_ranges  0x00000188       0x20 c:/altera/12.1sp1/nios2eds/bin/gnu/h-i686-mingw32/bin/../lib/gcc/nios2-elf/4.1.2/../../../../nios2-elf/lib\libc.a(lib_a-fflush.o)
 .debug_ranges  0x000001a8       0x28 c:/altera/12.1sp1/nios2eds/bin/gnu/h-i686-mingw32/bin/../lib/gcc/nios2-elf/4.1.2/../../../../nios2-elf/lib\libc.a(lib_a-fvwrite.o)
 .debug_ranges  0x000001d0       0xa0 c:/altera/12.1sp1/nios2eds/bin/gnu/h-i686-mingw32/bin/../lib/gcc/nios2-elf/4.1.2/../../../../nios2-elf/lib\libc.a(lib_a-fwalk.o)
 .debug_ranges  0x00000270       0x70 c:/altera/12.1sp1/nios2eds/bin/gnu/h-i686-mingw32/bin/../lib/gcc/nios2-elf/4.1.2/../../../../nios2-elf/lib\libc.a(lib_a-mallocr.o)
 .debug_ranges  0x000002e0      0x110 c:/altera/12.1sp1/nios2eds/bin/gnu/h-i686-mingw32/bin/../lib/gcc/nios2-elf/4.1.2/../../../../nios2-elf/lib\libc.a(lib_a-reallocr.o)
 .debug_ranges  0x000003f0       0x38 c:/altera/12.1sp1/nios2eds/bin/gnu/h-i686-mingw32/bin/../lib/gcc/nios2-elf/4.1.2/../../../../nios2-elf/lib\libc.a(lib_a-callocr.o)
 .debug_ranges  0x00000428      0x188 c:/altera/12.1sp1/nios2eds/bin/gnu/h-i686-mingw32/bin/../lib/gcc/nios2-elf/4.1.2\libgcc.a(_udivdi3.o)
 .debug_ranges  0x000005b0      0x198 c:/altera/12.1sp1/nios2eds/bin/gnu/h-i686-mingw32/bin/../lib/gcc/nios2-elf/4.1.2\libgcc.a(_umoddi3.o)
 .debug_ranges  0x00000748       0x30 c:/altera/12.1sp1/nios2eds/bin/gnu/h-i686-mingw32/bin/../lib/gcc/nios2-elf/4.1.2\libgcc.a(_addsub_df.o)
 .debug_ranges  0x00000778       0x88 c:/altera/12.1sp1/nios2eds/bin/gnu/h-i686-mingw32/bin/../lib/gcc/nios2-elf/4.1.2\libgcc.a(_mul_df.o)
 .debug_ranges  0x00000800       0x50 c:/altera/12.1sp1/nios2eds/bin/gnu/h-i686-mingw32/bin/../lib/gcc/nios2-elf/4.1.2\libgcc.a(_div_df.o)
 .debug_ranges  0x00000850       0x18 c:/altera/12.1sp1/nios2eds/bin/gnu/h-i686-mingw32/bin/../lib/gcc/nios2-elf/4.1.2\libgcc.a(_usi_to_df.o)
 .debug_ranges  0x00000868       0x68 c:/altera/12.1sp1/nios2eds/bin/gnu/h-i686-mingw32/bin/../lib/gcc/nios2-elf/4.1.2\libgcc.a(_muldi3.o)
 .debug_ranges  0x000008d0       0x28 c:/altera/12.1sp1/nios2eds/bin/gnu/h-i686-mingw32/bin/../lib/gcc/nios2-elf/4.1.2\libgcc.a(_clzsi2.o)
 .debug_ranges  0x000008f8       0x28 c:/altera/12.1sp1/nios2eds/bin/gnu/h-i686-mingw32/bin/../lib/gcc/nios2-elf/4.1.2\libgcc.a(_pack_df.o)
 .debug_ranges  0x00000920       0x18 ../UARTNow_bsp/\libucosii_bsp.a(altera_avalon_jtag_uart_init.o)
 .debug_ranges  0x00000938       0x18 ../UARTNow_bsp/\libucosii_bsp.a(altera_avalon_uart_init.o)
 .debug_ranges  0x00000950       0x28 ../UARTNow_bsp/\libucosii_bsp.a(alt_irq_entry.o)
 .debug_ranges  0x00000978       0x30 ../UARTNow_bsp/\libucosii_bsp.a(alt_exception_entry.o)
 .debug_ranges  0x000009a8       0x18 c:/altera/12.1sp1/nios2eds/bin/gnu/h-i686-mingw32/bin/../lib/gcc/nios2-elf/4.1.2/../../../../nios2-elf/lib\libc.a(lib_a-__call_atexit.o)
